 glslcompiler

 Timestamp is 4c9a7553 (Wed Sep 22 17:29:55 2010)

 Preferred load address is 10000000

 Start         Length     Name                   Class
 0001:00000000 00000004H .CRT$XCA                CODE
 0001:00000004 00000004H .CRT$XCZ                CODE
 0001:00000008 00000004H .CRT$XIA                CODE
 0001:0000000c 00000004H .CRT$XIZ                CODE
 0001:00000010 00000004H .CRT$XPA                CODE
 0001:00000014 00000004H .CRT$XPZ                CODE
 0001:00000018 00000004H .CRT$XTA                CODE
 0001:0000001c 00000004H .CRT$XTZ                CODE
 0001:00000020 00015cc9H .rdata                  CODE
 0001:00015cec 00000029H .rdata$debug            CODE
 0001:00015d18 000c062cH .text                   CODE
 0001:000d6344 00000094H .xdata                  CODE
 0001:000d63d8 00000028H .idata$2                CODE
 0001:000d6400 00000014H .idata$3                CODE
 0001:000d6414 00000108H .idata$4                CODE
 0001:000d651c 0000002aH .idata$6                CODE
 0001:000d6550 000000fcH .edata                  CODE
 0002:00000000 00000108H .idata$5                DATA
 0002:00000108 00000008H .data                   DATA
 0002:00000110 00000010H .bss                    DATA
 0003:00000000 00003438H .pdata                  DATA

  Address         Publics by Value              Rva+Base       Lib:Object

 0000:00000000       ___safe_se_handler_count   00000000     <absolute>
 0000:00000000       ___safe_se_handler_table   00000000     <absolute>
 0001:00000000       __xc_a                     10001000     corelib0:crt0init.obj
 0001:00000004       __xc_z                     10001004     corelib0:crt0init.obj
 0001:00000008       __xi_a                     10001008     corelib0:crt0init.obj
 0001:0000000c       __xi_z                     1000100c     corelib0:crt0init.obj
 0001:00000010       __xp_a                     10001010     corelib0:crt0init.obj
 0001:00000014       __xp_z                     10001014     corelib0:crt0init.obj
 0001:00000018       __xt_a                     10001018     corelib0:crt0init.obj
 0001:0000001c       __xt_z                     1000101c     corelib0:crt0init.obj
 0001:00000118       ??_C@_0EI@MKNGDCFP@C?3?2WinCE?2OMAP?2DDK1?45?2eurasia?2too@ 10001118     ic2uf.obj
 0001:00000160       ??_C@_0CP@GMAGJKDF@More?5than?5?$CFd?5samplers?5are?5used?5i@ 10001160     ic2uf.obj
 0001:00000190       ??_C@_0BK@BGNLMMDD@Too?5deeply?5nested?5loops?4?6?$AA@ 10001190     ic2uf.obj
 0001:000001ac       ??_C@_0BF@CBEJDHFG@Too?5many?5functions?4?6?$AA@ 100011ac     ic2uf.obj
 0001:000001c4       ??_C@_0BO@KPIMGECL@Failed?5to?5allocate?5varyings?4?6?$AA@ 100011c4     ic2uf.obj
 0001:000001e4       ??_C@_0BB@KCHPJACM@gl_PMXInvertdFdY?$AA@ 100011e4     ic2uf.obj
 0001:000001f8       ??_C@_0M@LAALAFHL@gl_FragData?$AA@ 100011f8     ic2uf.obj
 0001:00000204       ??_C@_0N@OHGIGEGG@gl_FragColor?$AA@ 10001204     ic2uf.obj
 0001:00000214       ??_C@_0N@KEMBCBC@gl_FragDepth?$AA@ 10001214     ic2uf.obj
 0001:00000224       ??_C@_0P@IILMBLMA@gl_FrontFacing?$AA@ 10001224     ic2uf.obj
 0001:00000234       ??_C@_0BE@CDEHDHPO@gl_PMXSwapFrontFace?$AA@ 10001234     ic2uf.obj
 0001:00000248       ??_C@_0BA@DPBMNHEM@gl_PMXPosAdjust?$AA@ 10001248     ic2uf.obj
 0001:00000258       ??_C@_0N@PNLLEOHM@gl_FragCoord?$AA@ 10001258     ic2uf.obj
 0001:00000268       ??_C@_0CM@BOACPCDO@Shader?5needs?5too?5many?5temporary?5@ 10001268     ic2uf.obj
 0001:00000294       ??_C@_0CC@OIJICMFO@Shader?5needs?5too?5many?5registers?4@ 10001294     ic2uf.obj
 0001:000002b8       ??_C@_01GFHCPBMG@C?$AA@    100012b8     glsl2uf.obj
 0001:000002c0       ??_C@_0EN@CBBGEECP@C?3?2WinCE?2OMAP?2DDK1?45?2eurasia?2too@ 100012c0     bindingsym.obj
 0001:00000310       ??_C@_06HLGAHHGE@?$FL?$CFlu?$FN?4?$AA@ 10001310     bindingsym.obj
 0001:00000318       ??_C@_01LFCBOECM@?4?$AA@   10001318     bindingsym.obj
 0001:0000031c       ??_C@_0BP@HNBKCAIH@?$EA?9?9?9?9?5ScopeModifer?5?$CF03lu?5?9?9?9?9?$EA?$AA@ 1000131c     glsl_parser:symtab.obj
 0001:0000033c       ??_C@_0BB@NDENLPKD@array?5size?5fixed?$AA@ 1000133c     glsl_core:glsltabs.obj
 0001:00000350       ??_C@_0BF@DPBHHNMA@array?5size?5non?5fixed?$AA@ 10001350     glsl_core:glsltabs.obj
 0001:00000368       ??_C@_09NOOGDAF@non?9array?$AA@ 10001368     glsl_core:glsltabs.obj
 0001:00000374       ??_C@_07PBJKAAPN@l?9value?$AA@ 10001374     glsl_core:glsltabs.obj
 0001:0000037c       ??_C@_0BA@EJBDKCFJ@non?9l?9value?$CIds?$CJ?$AA@ 1000137c     glsl_core:glsltabs.obj
 0001:0000038c       ??_C@_0M@FBLCJFCE@non?9l?9value?$AA@ 1000138c     glsl_core:glsltabs.obj
 0001:00000398       ??_C@_05DNOIDIPO@inout?$AA@ 10001398     glsl_core:glsltabs.obj
 0001:000003a0       ??_C@_03KEJHNBPP@out?$AA@  100013a0     glsl_core:glsltabs.obj
 0001:000003a4       ??_C@_02LMMGJAGL@in?$AA@   100013a4     glsl_core:glsltabs.obj
 0001:000003a8       ??_C@_05PBLCOKID@highp?$AA@ 100013a8     glsl_core:glsltabs.obj
 0001:000003b0       ??_C@_07DMCLNPOF@mediump?$AA@ 100013b0     glsl_core:glsltabs.obj
 0001:000003b8       ??_C@_04HINLHCNI@lowp?$AA@ 100013b8     glsl_core:glsltabs.obj
 0001:000003c0       ??_C@_07CIFAGBMG@unknown?$AA@ 100013c0     glsl_core:glsltabs.obj
 0001:000003c8       ??_C@_07EBNAHCGH@varying?$AA@ 100013c8     glsl_core:glsltabs.obj
 0001:000003d0       ??_C@_09HGIEBAJ@attribute?$AA@ 100013d0     glsl_core:glsltabs.obj
 0001:000003dc       ??_C@_07HIAOBKCE@uniform?$AA@ 100013dc     glsl_core:glsltabs.obj
 0001:000003e4       ??_C@_05BNCCCJPP@const?$AA@ 100013e4     glsl_core:glsltabs.obj
 0001:000003ea       ??_C@_00CNPNBAHC@?$AA@     100013ea     glsl_core:glsltabs.obj
 0001:000003ec       ??_C@_06PBJBIPGK@struct?$AA@ 100013ec     glsl_core:glsltabs.obj
 0001:000003f4       ??_C@_0O@ELDFBPJC@samplerstream?$AA@ 100013f4     glsl_core:glsltabs.obj
 0001:00000404       ??_C@_0BA@MGEPNOKN@sampler2Dshadow?$AA@ 10001404     glsl_core:glsltabs.obj
 0001:00000414       ??_C@_0BA@PPMCOCGI@sampler1Dshadow?$AA@ 10001414     glsl_core:glsltabs.obj
 0001:00000424       ??_C@_0M@JKFFOHJO@samplerCube?$AA@ 10001424     glsl_core:glsltabs.obj
 0001:00000430       ??_C@_09LAHPNHHH@sampler3D?$AA@ 10001430     glsl_core:glsltabs.obj
 0001:0000043c       ??_C@_09LBLNLNEA@sampler2D?$AA@ 1000143c     glsl_core:glsltabs.obj
 0001:00000448       ??_C@_09LDPLADBJ@sampler1D?$AA@ 10001448     glsl_core:glsltabs.obj
 0001:00000454       ??_C@_06OBMEHEFN@mat4X4?$AA@ 10001454     glsl_core:glsltabs.obj
 0001:0000045c       ??_C@_0BE@KAJFKPKD@4X4?5matrix?5of?5float?$AA@ 1000145c     glsl_core:glsltabs.obj
 0001:00000470       ??_C@_06KOIFOCJK@mat4X3?$AA@ 10001470     glsl_core:glsltabs.obj
 0001:00000478       ??_C@_0BE@EBLLKFMH@4X3?5matrix?5of?5float?$AA@ 10001478     glsl_core:glsltabs.obj
 0001:0000048c       ??_C@_06LHJONDNL@mat4X2?$AA@ 1000148c     glsl_core:glsltabs.obj
 0001:00000494       ??_C@_0BE@KOOJBDCG@4X2?5matrix?5of?5float?$AA@ 10001494     glsl_core:glsltabs.obj
 0001:000004a8       ??_C@_06HMBDEMOE@mat3X4?$AA@ 100014a8     glsl_core:glsltabs.obj
 0001:000004b0       ??_C@_0BE@EBNBAJDA@3X4?5matrix?5of?5float?$AA@ 100014b0     glsl_core:glsltabs.obj
 0001:000004c4       ??_C@_06DDFCNKCD@mat3X3?$AA@ 100014c4     glsl_core:glsltabs.obj
 0001:000004cc       ??_C@_0BE@KAPPADFE@3X3?5matrix?5of?5float?$AA@ 100014cc     glsl_core:glsltabs.obj
 0001:000004e0       ??_C@_06BCAEKNIC@mat3x2?$AA@ 100014e0     glsl_core:glsltabs.obj
 0001:000004e8       ??_C@_0BE@EPKNLFLF@3X2?5matrix?5of?5float?$AA@ 100014e8     glsl_core:glsltabs.obj
 0001:000004fc       ??_C@_06PMOCGNGB@mat2x4?$AA@ 100014fc     glsl_core:glsltabs.obj
 0001:00000504       ??_C@_0BE@CELGDCHG@2X4?5matrix?5of?5float?$AA@ 10001504     glsl_core:glsltabs.obj
 0001:00000518       ??_C@_06LDKDPLKG@mat2x3?$AA@ 10001518     glsl_core:glsltabs.obj
 0001:00000520       ??_C@_0BE@MFJIDIBC@2X3?5matrix?5of?5float?$AA@ 10001520     glsl_core:glsltabs.obj
 0001:00000534       ??_C@_06KKLIMKOH@mat2x2?$AA@ 10001534     glsl_core:glsltabs.obj
 0001:0000053c       ??_C@_0BE@CKMKIOPD@2X2?5matrix?5of?5float?$AA@ 1000153c     glsl_core:glsltabs.obj
 0001:00000550       ??_C@_05IANAGENN@bvec4?$AA@ 10001550     glsl_core:glsltabs.obj
 0001:00000558       ??_C@_0BL@FGFIOMGE@4?9component?5vector?5of?5bool?$AA@ 10001558     glsl_core:glsltabs.obj
 0001:00000574       ??_C@_05MPJBPCBK@bvec3?$AA@ 10001574     glsl_core:glsltabs.obj
 0001:0000057c       ??_C@_0BL@IEINKKOC@3?9component?5vector?5of?5bool?$AA@ 1000157c     glsl_core:glsltabs.obj
 0001:00000598       ??_C@_05NGIKMDFL@bvec2?$AA@ 10001598     glsl_core:glsltabs.obj
 0001:000005a0       ??_C@_0BL@OKABLBKD@2?9component?5vector?5of?5bool?$AA@ 100015a0     glsl_core:glsltabs.obj
 0001:000005bc       ??_C@_04DDKJGDCM@bool?$AA@ 100015bc     glsl_core:glsltabs.obj
 0001:000005c4       ??_C@_05OKBHJEBO@ivec4?$AA@ 100015c4     glsl_core:glsltabs.obj
 0001:000005cc       ??_C@_0BK@NANJEMOK@4?9component?5vector?5of?5int?$AA@ 100015cc     glsl_core:glsltabs.obj
 0001:000005e8       ??_C@_05KFFGACNJ@ivec3?$AA@ 100015e8     glsl_core:glsltabs.obj
 0001:000005f0       ??_C@_0BK@IBKDHMM@3?9component?5vector?5of?5int?$AA@ 100015f0     glsl_core:glsltabs.obj
 0001:0000060c       ??_C@_05LMENDDJI@ivec2?$AA@ 1000160c     glsl_core:glsltabs.obj
 0001:00000614       ??_C@_0BK@OPAHJBFL@2?9component?5vector?5of?5int?$AA@ 10001614     glsl_core:glsltabs.obj
 0001:00000630       ??_C@_03JBIPMCLC@int?$AA@  10001630     glsl_core:glsltabs.obj
 0001:00000634       ??_C@_04LCAMJMDC@vec4?$AA@ 10001634     glsl_core:glsltabs.obj
 0001:0000063c       ??_C@_0BM@NFDDOKMK@4?9component?5vector?5of?5float?$AA@ 1000163c     glsl_core:glsltabs.obj
 0001:00000658       ??_C@_04PNENAKPF@vec3?$AA@ 10001658     glsl_core:glsltabs.obj
 0001:00000660       ??_C@_0BM@NBDKBJJJ@3?9component?5vector?5of?5float?$AA@ 10001660     glsl_core:glsltabs.obj
 0001:0000067c       ??_C@_04OEFGDLLE@vec2?$AA@ 1000167c     glsl_core:glsltabs.obj
 0001:00000684       ??_C@_0BM@NAIPOEIE@2?9component?5vector?5of?5float?$AA@ 10001684     glsl_core:glsltabs.obj
 0001:000006a0       ??_C@_05KNFBNCOH@float?$AA@ 100016a0     glsl_core:glsltabs.obj
 0001:000006a8       ??_C@_04GKJNKENE@void?$AA@ 100016a8     glsl_core:glsltabs.obj
 0001:000006b0       ??_C@_07MALOAKCI@invalid?$AA@ 100016b0     glsl_core:glsltabs.obj
 0001:000006b8       asGLSLTypeSpecifierInfoTable 100016b8     glsl_core:glsltabs.obj
 0001:00000924       apszGLSLTypeQualifierFullDescTable 10001924     glsl_core:glsltabs.obj
 0001:00000940       GLSLPrecisionQualifierFullDescTable 10001940     glsl_core:glsltabs.obj
 0001:00000950       GLSLParameterQualifierFullDescTable 10001950     glsl_core:glsltabs.obj
 0001:00000960       GLSLLValueStatusFullDescTable 10001960     glsl_core:glsltabs.obj
 0001:00000970       GLSLArrayStatusFullDescTable 10001970     glsl_core:glsltabs.obj
 0001:00000980       asICodeOpTable             10001980     glsl_core:icgen.obj
 0001:00000ba0       asNodeTable                10001ba0     glsl_core:icgen.obj
 0001:00000ca0       ??_C@_09COACJEOO@tmp?$CFs?$EA?$CFlu?$AA@ 10001ca0     glsl_core:icgen.obj
 0001:00000cb0       ??_C@_0EF@CPJBBCJC@C?3?2WinCE?2OMAP?2DDK1?45?2eurasia?2too@ 10001cb0     glsl_core:icgen.obj
 0001:00000cf8       ??_C@_08JBFBCINF@pred?$EA?$CFlu?$AA@ 10001cf8     glsl_core:icgen.obj
 0001:00000d04       ??_C@_08MCFFGLHH@fn_main?$EA?$AA@ 10001d04     glsl_core:icgen.obj
 0001:00000d10       ??_C@_06PIKJLJJK@cst?$EA?$CFs?$AA@ 10001d10     glsl_core:common.obj
 0001:00000d18       ??_C@_0M@DADOMJOJ@cst_p?$CFlu?$EA?$CFs?$AA@ 10001d18     glsl_core:common.obj
 0001:00000d28       ??_C@_0EG@EGKHGPC@C?3?2WinCE?2OMAP?2DDK1?45?2eurasia?2too@ 10001d28     glsl_core:common.obj
 0001:00000d70       ??_C@_09IDPEJOHI@cst_rv?$EA?$CFs?$AA@ 10001d70     glsl_core:common.obj
 0001:00000d7c       ??_C@_0CD@LPLBODBK@?8?$CFs?8?5?3?5?8struct?8?5type?5redefinitio@ 10001d7c     glsl_core:common.obj
 0001:00000da0       ??_C@_0O@KLAILGIL@?$CFs?$EAstruct_def?$AA@ 10001da0     glsl_core:common.obj
 0001:00000db0       ??_C@_0DC@LCOJIAGM@?8struct?8?5?3?5duplicate?5field?5name?5@ 10001db0     glsl_core:common.obj
 0001:00000de4       ??_C@_02DKCKIIND@?$CFs?$AA@ 10001de4     glsl_core:common.obj
 0001:00000de8       ??_C@_05DNIIFBMG@?$CFs?5?$CFs?$AA@ 10001de8     glsl_core:common.obj
 0001:00000df0       ??_C@_03IKGEINEE@?$CFs?5?$AA@ 10001df0     glsl_core:common.obj
 0001:00000df4       ??_C@_09GIMGMFEA@array?5of?5?$AA@ 10001df4     glsl_core:common.obj
 0001:00000e00       ??_C@_05LAPONLG@false?$AA@ 10001e00     glsl_core:common.obj
 0001:00000e08       ??_C@_04LOAJBDKD@true?$AA@ 10001e08     glsl_core:common.obj
 0001:00000e10       ??_C@_03JALODAI@?$CFld?$AA@ 10001e10     glsl_core:common.obj
 0001:00000e14       ??_C@_07BMHOFEPE@?$CFld_low?$AA@ 10001e14     glsl_core:common.obj
 0001:00000e1c       ??_C@_07MILKPHNF@?$CFld_med?$AA@ 10001e1c     glsl_core:common.obj
 0001:00000e24       ??_C@_08NLCFPDJC@?$CFld_high?$AA@ 10001e24     glsl_core:common.obj
 0001:00000e30       ??_C@_02NJPGOMH@?$CFf?$AA@ 10001e30     glsl_core:common.obj
 0001:00000e34       ??_C@_06MJPNKJHA@?$CFf_low?$AA@ 10001e34     glsl_core:common.obj
 0001:00000e3c       ??_C@_06BNDJAKFB@?$CFf_med?$AA@ 10001e3c     glsl_core:common.obj
 0001:00000e44       ??_C@_07DBCFDHFG@?$CFf_high?$AA@ 10001e44     glsl_core:common.obj
 0001:00000e4c       ??_C@_06DJHOIPC@?$CFs?3?5?$CFs?$AA@ 10001e4c     glsl_core:error.obj
 0001:00000e54       ??_C@_0BA@FOHKMLP@?$CFs?3?5?$CFlu?3?$CFlu?3?5?$CFs?$AA@ 10001e54     glsl_core:error.obj
 0001:00000e64       ??_C@_08MLFDIMPC@INTERNAL?$AA@ 10001e64     glsl_core:error.obj
 0001:00000e70       ??_C@_05MBDEGLCK@ERROR?$AA@ 10001e70     glsl_core:error.obj
 0001:00000e78       ??_C@_07KCOHIFOP@WARNING?$AA@ 10001e78     glsl_core:error.obj
 0001:00000e80       ??_C@_07NFANNNEC@UNKNOWN?$AA@ 10001e80     glsl_core:error.obj
 0001:00000e88       ??_C@_01EEMJAFIK@?6?$AA@   10001e88     glsl_core:glsl.obj
 0001:00000e8c       ??_C@_0BG@COOJENBA@Built?9in?5vertex?5state?$AA@ 10001e8c     glsl_core:glsl.obj
 0001:00000ea4       ??_C@_0BI@FOGLGBPC@Built?9in?5fragment?5state?$AA@ 10001ea4     glsl_core:glsl.obj
 0001:00000ebc       ??_C@_0BB@GOFCBDKF@Compile?5failed?4?6?$AA@ 10001ebc     glsl_core:glsl.obj
 0001:00000ed0       ??_C@_09EHKFFFJM@Success?4?6?$AA@ 10001ed0     glsl_core:glsl.obj
 0001:00000edc       ??_C@_0CM@HLEOFKBF@?$CFd?5compilation?5errors?4?5No?5code?5g@ 10001edc     glsl_core:glsl.obj
 0001:00000f08       ??_C@_0BL@EDLNLOE@?$CFd?5compilation?5warnings?4?6?6?$AA@ 10001f08     glsl_core:glsl.obj
 0001:00000f24       ??_C@_0BB@KELPLCJN@Fragment?5Program?$AA@ 10001f24     glsl_core:glsl.obj
 0001:00000f38       ??_C@_0P@JDCINLJB@Vertex?5Program?$AA@ 10001f38     glsl_core:glsl.obj
 0001:00000f48       ??_C@_0BK@LPFOIAFP@No?5source?5code?5supplied?4?6?$AA@ 10001f48     glsl_core:glsl.obj
 0001:00000f68       asGLSLBuiltInFunctionInfoTable 10001f68     glsl_core:icbuiltin.obj
 0001:00001168       ??_C@_09MPJGCHGP@gl_Vertex?$AA@ 10002168     glsl_core:icbuiltin.obj
 0001:00001174       ??_C@_0BN@HOKGMOHF@gl_ModelViewProjectionMatrix?$AA@ 10002174     glsl_core:icbuiltin.obj
 0001:00001198       ??_C@_0EJ@HFNDMIOO@C?3?2WinCE?2OMAP?2DDK1?45?2eurasia?2too@ 10002198     glsl_core:icbuiltin.obj
 0001:000011e8       ??_C@_0EI@DFOOGKIG@C?3?2WinCE?2OMAP?2DDK1?45?2eurasia?2too@ 100021e8     glsl_core:icunroll.obj
 0001:00001230       ??_C@_0EK@GECGGIAI@C?3?2WinCE?2OMAP?2DDK1?45?2eurasia?2too@ 10002230     glsl_core:astbuiltin.obj
 0001:0000127c       ??_C@_05NHLPFGDD@rv_?$CFs?$AA@ 1000227c     glsl_core:astbuiltin.obj
 0001:00001284       ??_C@_06CFFBLOIB@noise1?$AA@ 10002284     glsl_core:astbuiltin.obj
 0001:0000128c       ??_C@_06OHMONEC@noise2?$AA@ 1000228c     glsl_core:astbuiltin.obj
 0001:00001294       ??_C@_06BHGHNMAD@noise3?$AA@ 10002294     glsl_core:astbuiltin.obj
 0001:0000129c       ??_C@_06FICGEKME@noise4?$AA@ 1000229c     glsl_core:astbuiltin.obj
 0001:000012a4       ??_C@_04EDCIEOIM@dFdx?$AA@ 100022a4     glsl_core:astbuiltin.obj
 0001:000012ac       ??_C@_04FKDDHPMN@dFdy?$AA@ 100022ac     glsl_core:astbuiltin.obj
 0001:000012b4       ??_C@_01JBBJJEPG@p?$AA@    100022b4     glsl_core:astbuiltin.obj
 0001:000012b8       ??_C@_06ECGIDAGM@fwidth?$AA@ 100022b8     glsl_core:astbuiltin.obj
 0001:000012c0       ??_C@_0BB@FNHAJCEE@textureStreamIMG?$AA@ 100022c0     glsl_core:astbuiltin.obj
 0001:000012d4       ??_C@_0BF@PEMADAKB@textureStreamProjIMG?$AA@ 100022d4     glsl_core:astbuiltin.obj
 0001:000012ec       ??_C@_0BD@GBJBFDJA@textureCubeGradARB?$AA@ 100022ec     glsl_core:astbuiltin.obj
 0001:00001300       ??_C@_0P@JOIAHBNL@textureCubeLod?$AA@ 10002300     glsl_core:astbuiltin.obj
 0001:00001310       ??_C@_0M@BNCBNMFA@textureCube?$AA@ 10002310     glsl_core:astbuiltin.obj
 0001:0000131c       ??_C@_0BB@IAJJJIBH@texture2DGradARB?$AA@ 1000231c     glsl_core:astbuiltin.obj
 0001:00001330       ??_C@_04CPEBHHIO@dPdy?$AA@ 10002330     glsl_core:astbuiltin.obj
 0001:00001338       ??_C@_04DGFKEGMP@dPdx?$AA@ 10002338     glsl_core:astbuiltin.obj
 0001:00001340       ??_C@_01EJNLAFE@P?$AA@     10002340     glsl_core:astbuiltin.obj
 0001:00001344       ??_C@_0BF@LHPJKFEA@texture2DProjGradARB?$AA@ 10002344     glsl_core:astbuiltin.obj
 0001:0000135c       ??_C@_0N@HLKCMMAC@texture2DLod?$AA@ 1000235c     glsl_core:astbuiltin.obj
 0001:0000136c       ??_C@_03ONFBEKOG@lod?$AA@  1000236c     glsl_core:astbuiltin.obj
 0001:00001370       ??_C@_0BB@GONKFCAO@texture2DProjLod?$AA@ 10002370     glsl_core:astbuiltin.obj
 0001:00001384       ??_C@_04NBAGBPGE@bias?$AA@ 10002384     glsl_core:astbuiltin.obj
 0001:0000138c       ??_C@_07JLOPPFCD@radians?$AA@ 1000238c     glsl_core:astbuiltin.obj
 0001:00001394       ??_C@_07MHOHEFBH@degrees?$AA@ 10002394     glsl_core:astbuiltin.obj
 0001:0000139c       ??_C@_03BLEJJJBH@sin?$AA@  1000239c     glsl_core:astbuiltin.obj
 0001:000013a0       ??_C@_03LALBNOCG@cos?$AA@  100023a0     glsl_core:astbuiltin.obj
 0001:000013a4       ??_C@_05FECBCJJD@angle?$AA@ 100023a4     glsl_core:astbuiltin.obj
 0001:000013ac       ??_C@_03IIINPABG@tan?$AA@  100023ac     glsl_core:astbuiltin.obj
 0001:000013b0       ??_C@_04FIHNOPOL@asin?$AA@ 100023b0     glsl_core:astbuiltin.obj
 0001:000013b8       ??_C@_04PDIFKINK@acos?$AA@ 100023b8     glsl_core:astbuiltin.obj
 0001:000013c0       ??_C@_08HJJHKHDM@y_over_x?$AA@ 100023c0     glsl_core:astbuiltin.obj
 0001:000013cc       ??_C@_04MLLJIGOK@atan?$AA@ 100023cc     glsl_core:astbuiltin.obj
 0001:000013d4       ??_C@_03JGHBODFD@pow?$AA@  100023d4     glsl_core:astbuiltin.obj
 0001:000013d8       ??_C@_03KHJOGHMM@exp?$AA@  100023d8     glsl_core:astbuiltin.obj
 0001:000013dc       ??_C@_03MGHMBJCF@log?$AA@  100023dc     glsl_core:astbuiltin.obj
 0001:000013e0       ??_C@_04HPAFEEIN@exp2?$AA@ 100023e0     glsl_core:astbuiltin.obj
 0001:000013e8       ??_C@_04KGLCPMCP@log2?$AA@ 100023e8     glsl_core:astbuiltin.obj
 0001:000013f0       ??_C@_04EIAKFFMI@sqrt?$AA@ 100023f0     glsl_core:astbuiltin.obj
 0001:000013f8       ??_C@_0M@MEMLHMJL@inversesqrt?$AA@ 100023f8     glsl_core:astbuiltin.obj
 0001:00001404       ??_C@_03BCGAIFPO@abs?$AA@  10002404     glsl_core:astbuiltin.obj
 0001:00001408       ??_C@_04HHGHLBPI@sign?$AA@ 10002408     glsl_core:astbuiltin.obj
 0001:00001410       ??_C@_05PBJFFIGL@floor?$AA@ 10002410     glsl_core:astbuiltin.obj
 0001:00001418       ??_C@_04GFPJNGEK@ceil?$AA@ 10002418     glsl_core:astbuiltin.obj
 0001:00001420       ??_C@_05JBNKFIFJ@fract?$AA@ 10002420     glsl_core:astbuiltin.obj
 0001:00001428       ??_C@_03FFONCNID@mod?$AA@  10002428     glsl_core:astbuiltin.obj
 0001:0000142c       ??_C@_03KLIPLJLL@min?$AA@  1000242c     glsl_core:astbuiltin.obj
 0001:00001430       ??_C@_03LJAEFNNE@max?$AA@  10002430     glsl_core:astbuiltin.obj
 0001:00001434       ??_C@_06OMMDKPJH@maxVal?$AA@ 10002434     glsl_core:astbuiltin.obj
 0001:0000143c       ??_C@_06OPDAEPNI@minVal?$AA@ 1000243c     glsl_core:astbuiltin.obj
 0001:00001444       ??_C@_05HADFAIAH@clamp?$AA@ 10002444     glsl_core:astbuiltin.obj
 0001:0000144c       ??_C@_01MCMALHOG@a?$AA@    1000244c     glsl_core:astbuiltin.obj
 0001:00001450       ??_C@_03LHBHAMGM@mix?$AA@  10002450     glsl_core:astbuiltin.obj
 0001:00001454       ??_C@_04IJFJNCMM@edge?$AA@ 10002454     glsl_core:astbuiltin.obj
 0001:0000145c       ??_C@_04CNBNFAL@step?$AA@  1000245c     glsl_core:astbuiltin.obj
 0001:00001464       ??_C@_05FEAGNAPL@edge1?$AA@ 10002464     glsl_core:astbuiltin.obj
 0001:0000146c       ??_C@_05ENBNOBLK@edge0?$AA@ 1000246c     glsl_core:astbuiltin.obj
 0001:00001474       ??_C@_0L@JKDMKNKF@smoothstep?$AA@ 10002474     glsl_core:astbuiltin.obj
 0001:00001480       ??_C@_06IJDLPEM@length?$AA@ 10002480     glsl_core:astbuiltin.obj
 0001:00001488       ??_C@_02JCBCEJAP@p1?$AA@   10002488     glsl_core:astbuiltin.obj
 0001:0000148c       ??_C@_02ILAJHIEO@p0?$AA@   1000248c     glsl_core:astbuiltin.obj
 0001:00001490       ??_C@_08LHFODBFO@distance?$AA@ 10002490     glsl_core:astbuiltin.obj
 0001:0000149c       ??_C@_03GCCHHAFI@dot?$AA@  1000249c     glsl_core:astbuiltin.obj
 0001:000014a0       ??_C@_05HCKPILGO@cross?$AA@ 100024a0     glsl_core:astbuiltin.obj
 0001:000014a8       ??_C@_09MMDNNKKJ@normalize?$AA@ 100024a8     glsl_core:astbuiltin.obj
 0001:000014b4       ??_C@_04GCJDEDDH@Nref?$AA@ 100024b4     glsl_core:astbuiltin.obj
 0001:000014bc       ??_C@_0M@ENCHEFMG@faceforward?$AA@ 100024bc     glsl_core:astbuiltin.obj
 0001:000014c8       ??_C@_07CCHDGNII@reflect?$AA@ 100024c8     glsl_core:astbuiltin.obj
 0001:000014d0       ??_C@_03PNFNLNLI@eta?$AA@  100024d0     glsl_core:astbuiltin.obj
 0001:000014d4       ??_C@_01NANMIPIL@N?$AA@    100024d4     glsl_core:astbuiltin.obj
 0001:000014d8       ??_C@_01JPJNBJEM@I?$AA@    100024d8     glsl_core:astbuiltin.obj
 0001:000014dc       ??_C@_07HCMBNDDM@refract?$AA@ 100024dc     glsl_core:astbuiltin.obj
 0001:000014e4       ??_C@_0P@CHOCONB@matrixCompMult?$AA@ 100024e4     glsl_core:astbuiltin.obj
 0001:000014f4       ??_C@_08OKPGNDDO@lessThan?$AA@ 100024f4     glsl_core:astbuiltin.obj
 0001:00001500       ??_C@_0O@HILDIDCG@lessThanEqual?$AA@ 10002500     glsl_core:astbuiltin.obj
 0001:00001510       ??_C@_0M@DEGMAMMN@greaterThan?$AA@ 10002510     glsl_core:astbuiltin.obj
 0001:0000151c       ??_C@_0BB@OGCPNFND@greaterThanEqual?$AA@ 1000251c     glsl_core:astbuiltin.obj
 0001:00001530       ??_C@_05OAKNMNI@equal?$AA@ 10002530     glsl_core:astbuiltin.obj
 0001:00001538       ??_C@_01EANLCPLP@y?$AA@    10002538     glsl_core:astbuiltin.obj
 0001:0000153c       ??_C@_08NLCAHAPK@notEqual?$AA@ 1000253c     glsl_core:astbuiltin.obj
 0001:00001548       ??_C@_03OBJFJEBA@any?$AA@  10002548     glsl_core:astbuiltin.obj
 0001:0000154c       ??_C@_03NFKEKGGK@all?$AA@  1000254c     glsl_core:astbuiltin.obj
 0001:00001550       ??_C@_01FJMABOPO@x?$AA@    10002550     glsl_core:astbuiltin.obj
 0001:00001554       ??_C@_03NJKJADM@not?$AA@   10002554     glsl_core:astbuiltin.obj
 0001:00001558       ??_C@_09PFEOJLIO@texture2D?$AA@ 10002558     glsl_core:astbuiltin.obj
 0001:00001564       ??_C@_05OOJODGPM@coord?$AA@ 10002564     glsl_core:astbuiltin.obj
 0001:0000156c       ??_C@_07PKJOFHPL@sampler?$AA@ 1000256c     glsl_core:astbuiltin.obj
 0001:00001574       ??_C@_0O@HKFBFKON@texture2DProj?$AA@ 10002574     glsl_core:astbuiltin.obj
 0001:00001584       ??_C@_0O@MPCJJLAI@gl_PointCoord?$AA@ 10002584     glsl_core:astbuiltin.obj
 0001:00001594       ??_C@_04EHDLHMJM@near?$AA@ 10002594     glsl_core:astbuiltin.obj
 0001:0000159c       ??_C@_03JEOKDCFP@far?$AA@  1000259c     glsl_core:astbuiltin.obj
 0001:000015a0       ??_C@_04GMLMBKFF@diff?$AA@ 100025a0     glsl_core:astbuiltin.obj
 0001:000015a8       ??_C@_0BI@JFLJOAEC@gl_DepthRangeParameters?$AA@ 100025a8     glsl_core:astbuiltin.obj
 0001:000015c0       ??_C@_0BE@BHIOMCCI@gl_MaxVertexAttribs?$AA@ 100025c0     glsl_core:astbuiltin.obj
 0001:000015d4       ??_C@_0BI@PMNFBNJJ@gl_MaxTextureImageUnits?$AA@ 100025d4     glsl_core:astbuiltin.obj
 0001:000015ec       ??_C@_0BC@IEPLMJCD@gl_MaxDrawBuffers?$AA@ 100025ec     glsl_core:astbuiltin.obj
 0001:00001600       ??_C@_0BO@EAEBIDML@gl_MaxVertexTextureImageUnits?$AA@ 10002600     glsl_core:astbuiltin.obj
 0001:00001620       ??_C@_0CA@BPGFIHPG@gl_MaxCombinedTextureImageUnits?$AA@ 10002620     glsl_core:astbuiltin.obj
 0001:00001640       ??_C@_0BL@LGAKKEID@gl_MaxVertexUniformVectors?$AA@ 10002640     glsl_core:astbuiltin.obj
 0001:0000165c       ??_C@_0BF@LOFKNIAP@gl_MaxVaryingVectors?$AA@ 1000265c     glsl_core:astbuiltin.obj
 0001:00001674       ??_C@_0BN@DEMFANDN@gl_MaxFragmentUniformVectors?$AA@ 10002674     glsl_core:astbuiltin.obj
 0001:00001694       ??_C@_0O@EHLCMLBL@gl_DepthRange?$AA@ 10002694     glsl_core:astbuiltin.obj
 0001:000016a4       ??_C@_0M@LBFKDGNK@gl_Position?$AA@ 100026a4     glsl_core:astbuiltin.obj
 0001:000016b0       ??_C@_0N@IDDEBJCE@gl_PointSize?$AA@ 100026b0     glsl_core:astbuiltin.obj
 0001:000016c0       ??_C@_0DK@IGEMMMBL@ASTBIResetBuiltInData?3?5Failed?5to@ 100026c0     glsl_core:astbuiltin.obj
 0001:000016fc       guSupportedGLSLVersions    100026fc     glsl_core:prepro.obj
 0001:00001700       ??_C@_0CC@KGJBNJBG@?8defined?8?5?3?5expected?5define?5name@ 10002700     glsl_core:prepro.obj
 0001:00001724       ??_C@_0CE@EJBLHJEA@?8defined?8?5?3?5expected?5right?5brack@ 10002724     glsl_core:prepro.obj
 0001:00001748       ??_C@_0BP@CGAKPJI@?8?$CFs?8?5?3?5Too?5few?5args?5for?5macro?6?$AA@ 10002748     glsl_core:prepro.obj
 0001:00001768       ??_C@_0CC@JCKNBEKC@?8?$CFs?8?5?3?5Expected?5comma?5or?5bracket@ 10002768     glsl_core:prepro.obj
 0001:0000178c       ??_C@_0CA@LPFIOHMP@?8?$CFs?8?5?3?5Too?5many?5args?5for?5macro?6?$AA@ 1000278c     glsl_core:prepro.obj
 0001:000017ac       ??_C@_0CB@GKCLFFFI@?8?$CFs?8?5?3?5Expected?5macro?5parameter?6@ 100027ac     glsl_core:prepro.obj
 0001:000017d0       ??_C@_07MJAJDDLG@defined?$AA@ 100027d0     glsl_core:prepro.obj
 0001:000017d8       ??_C@_0EG@NKPCEHMI@C?3?2WinCE?2OMAP?2DDK1?45?2eurasia?2too@ 100027d8     glsl_core:prepro.obj
 0001:00001820       ??_C@_0BM@DEGLEPEH@Syntax?5error?0?5expected?5?8?$CJ?8?6?$AA@ 10002820     glsl_core:prepro.obj
 0001:0000183c       ??_C@_0CD@GKAKFNBE@Syntax?5error?5?$CIadding?5node?5failed@ 1000283c     glsl_core:prepro.obj
 0001:00001860       ??_C@_0BO@DLAFAMIF@Syntax?5error?0?5unexpected?5?8?$CJ?8?6?$AA@ 10002860     glsl_core:prepro.obj
 0001:00001880       ??_C@_0BC@IBKDGGAO@Syntax?5error?5?$CI2?$CJ?6?$AA@ 10002880     glsl_core:prepro.obj
 0001:00001894       ??_C@_0O@JJFGCDGG@Syntax?5error?6?$AA@ 10002894     glsl_core:prepro.obj
 0001:000018a4       ??_C@_0BC@DJBPABGL@Syntax?5error?5?$CI3?$CJ?6?$AA@ 100028a4     glsl_core:prepro.obj
 0001:000018b8       ??_C@_0BA@JNEPDCCE@Child?5was?5?8?$CFs?8?6?$AA@ 100028b8     glsl_core:prepro.obj
 0001:000018c8       ??_C@_0CD@HCBNCNFN@Max?5number?5of?5nested?5?$CDif?8s?5is?525@ 100028c8     glsl_core:prepro.obj
 0001:000018ec       ??_C@_0CF@KPOHIJFF@invalid?5integer?5constant?5express@ 100028ec     glsl_core:prepro.obj
 0001:00001914       ??_C@_0CC@GKPFBPGO@?8?8?5?3?5syntax?5error?5?$CDelif?5mismatch@ 10002914     glsl_core:prepro.obj
 0001:00001938       ??_C@_0CH@MFAFPAKL@?8?8?5?3?5syntax?5error?5?$CDelse?5after?5a?5@ 10002938     glsl_core:prepro.obj
 0001:00001960       ??_C@_0CC@JDDDANGC@?8?8?5?3?5syntax?5error?5?$CDelse?5mismatch@ 10002960     glsl_core:prepro.obj
 0001:00001984       ??_C@_0DL@KPBHBIBO@Syntax?5error?0?5?$CDif?$FLn?$FNdef?5expected@ 10002984     glsl_core:prepro.obj
 0001:000019c0       ??_C@_0DA@CMGMBEJC@Syntax?5error?0?5?$CDif?$FLn?$FNdef?5expected@ 100029c0     glsl_core:prepro.obj
 0001:000019f0       ??_C@_0BP@GBGBLHBE@Syntax?5error?0?5?$CDendif?5mismatch?6?$AA@ 100029f0     glsl_core:prepro.obj
 0001:00001a10       ??_C@_03OFAPEBGM@?$CFs?6?$AA@ 10002a10     glsl_core:prepro.obj
 0001:00001a14       ??_C@_0BN@KIPMODCH@?8?8?5?3?5syntax?5error?5?$CI2?$CJ?5?$CDline?6?$AA@ 10002a14     glsl_core:prepro.obj
 0001:00001a34       ??_C@_0BN@EDMLFICE@?8?8?5?3?5syntax?5error?5?$CI1?$CJ?5?$CDline?6?$AA@ 10002a34     glsl_core:prepro.obj
 0001:00001a54       ??_C@_0BN@KMAJDDBK@?8?8?5?3?5syntax?5error?5?$CI0?$CJ?5?$CDline?6?$AA@ 10002a54     glsl_core:prepro.obj
 0001:00001a74       ??_C@_0BP@PBODAIDK@?8?8?5?3?5syntax?5error?5?$CDpragma?5?$CI1?$CJ?6?$AA@ 10002a74     glsl_core:prepro.obj
 0001:00001a94       ??_C@_0BP@HOIBJPGN@?8?8?5?3?5syntax?5error?5?$CDpragma?5?$CI5?$CJ?6?$AA@ 10002a94     glsl_core:prepro.obj
 0001:00001ab4       ??_C@_03MCADLMAF@off?$AA@  10002ab4     glsl_core:prepro.obj
 0001:00001ab8       ??_C@_02LIELOMNJ@on?$AA@   10002ab8     glsl_core:prepro.obj
 0001:00001abc       ??_C@_0BP@ODFGKHNE@?8?8?5?3?5syntax?5error?5?$CDpragma?5?$CI2?$CJ?6?$AA@ 10002abc     glsl_core:prepro.obj
 0001:00001adc       ??_C@_0BP@FLOKMALB@?8?8?5?3?5syntax?5error?5?$CDpragma?5?$CI3?$CJ?6?$AA@ 10002adc     glsl_core:prepro.obj
 0001:00001afc       ??_C@_0BP@MGDNPIAI@?8?8?5?3?5syntax?5error?5?$CDpragma?5?$CI4?$CJ?6?$AA@ 10002afc     glsl_core:prepro.obj
 0001:00001b1c       ??_C@_09LKJAEOAL@invariant?$AA@ 10002b1c     glsl_core:prepro.obj
 0001:00001b28       ??_C@_05DENLBJCI@STDGL?$AA@ 10002b28     glsl_core:prepro.obj
 0001:00001b30       ??_C@_05GFCDIDHO@debug?$AA@ 10002b30     glsl_core:prepro.obj
 0001:00001b38       ??_C@_08GHMAOHAP@optimize?$AA@ 10002b38     glsl_core:prepro.obj
 0001:00001b44       ??_C@_0CA@EEONNNLN@?8?$CFs?8?5?3?5Expected?5macro?5argument?6?$AA@ 10002b44     glsl_core:prepro.obj
 0001:00001b64       ??_C@_0CH@BHFFCOAB@Syntax?5error?0?5?8?$CFs?8?5macro?5redefin@ 10002b64     glsl_core:prepro.obj
 0001:00001b90       ??_C@_0EK@FBBHFMHJ@Syntax?5error?0?5cannot?5?$CDdefine?5?$CFs?0@ 10002b90     glsl_core:prepro.obj
 0001:00001bdc       ??_C@_02FKHNAOPL@__?$AA@   10002bdc     glsl_core:prepro.obj
 0001:00001be0       ??_C@_0EL@LFKEIEFK@Syntax?5error?0?5cannot?5?$CDdefine?5?$CFs?0@ 10002be0     glsl_core:prepro.obj
 0001:00001c2c       ??_C@_03JMNLHFFI@GL_?$AA@  10002c2c     glsl_core:prepro.obj
 0001:00001c30       ??_C@_0CI@IJIPBHKF@Syntax?5error?0?5invalid?5name?5for?5?$CD@ 10002c30     glsl_core:prepro.obj
 0001:00001c58       ??_C@_0DC@OPENOEK@Syntax?5error?0?5no?5parameter?5speci@ 10002c58     glsl_core:prepro.obj
 0001:00001c8c       ??_C@_0CJ@LCIHINM@Syntax?5error?0?5?8?$CFs?8?5has?5not?5been?5@ 10002c8c     glsl_core:prepro.obj
 0001:00001cb8       ??_C@_0EJ@BKPGFLAN@Syntax?5error?0?5cannot?5?$CDundef?5?$CFs?0?5@ 10002cb8     glsl_core:prepro.obj
 0001:00001d08       ??_C@_0EK@OCIHNAHI@Syntax?5error?0?5cannot?5?$CDundef?5?$CFs?0?5@ 10002d08     glsl_core:prepro.obj
 0001:00001d54       ??_C@_0CH@MLOHABDG@Syntax?5error?0?5invalid?5name?5for?5?$CD@ 10002d54     glsl_core:prepro.obj
 0001:00001d7c       ??_C@_0DB@LIINDMKH@Syntax?5error?0?5no?5parameter?5speci@ 10002d7c     glsl_core:prepro.obj
 0001:00001db0       ??_C@_0CN@OPCCPMJP@Syntax?5error?0?5GLSL?5Version?5?$CFu?5no@ 10002db0     glsl_core:prepro.obj
 0001:00001de0       ??_C@_0DH@IBPICOMB@Syntax?5error?0?5invalid?5parameter?5@ 10002de0     glsl_core:prepro.obj
 0001:00001e18       ??_C@_0DD@ENEBBIIF@Syntax?5error?0?5no?5parameter?5speci@ 10002e18     glsl_core:prepro.obj
 0001:00001e4c       ??_C@_0DP@LOEJHIFO@?$CDversion?5must?5occur?5before?5any?5o@ 10002e4c     glsl_core:prepro.obj
 0001:00001e8c       ??_C@_0BH@BIPDNBHG@GL_IMG_texture_stream2?$AA@ 10002e8c     glsl_core:prepro.obj
 0001:00001ea4       ??_C@_0BM@PDHDFJJA@GL_OES_standard_derivatives?$AA@ 10002ea4     glsl_core:prepro.obj
 0001:00001ec0       ??_C@_0BG@MLPOBCKO@GL_OES_standard_noise?$AA@ 10002ec0     glsl_core:prepro.obj
 0001:00001ed8       ??_C@_0BC@HOAGCCFG@GL_OES_texture_3D?$AA@ 10002ed8     glsl_core:prepro.obj
 0001:00001eec       ??_C@_0CE@OPJBKFOM@?8?8?5?3?5?5extension?5name?5not?5specifi@ 10002eec     glsl_core:prepro.obj
 0001:00001f10       ??_C@_0CI@GHIJPKCB@?8?8?5?3?5?5?8?3?8?5missing?5after?5extensio@ 10002f10     glsl_core:prepro.obj
 0001:00001f38       ??_C@_0CN@PKNKALFI@?8?8?5?3?5?5behaviour?5for?5extension?5no@ 10002f38     glsl_core:prepro.obj
 0001:00001f68       ??_C@_0CH@PIOIPIG@?8?8?5?3?5?5behaviour?5?8?$CFs?8?5is?5not?5supp@ 10002f68     glsl_core:prepro.obj
 0001:00001f90       ??_C@_07DBNODEFN@disable?$AA@ 10002f90     glsl_core:prepro.obj
 0001:00001f98       ??_C@_04FNLOFOEM@warn?$AA@ 10002f98     glsl_core:prepro.obj
 0001:00001fa0       ??_C@_0EC@FNDPJJJD@?8?8?5?3?5extension?5?8all?8?5cannot?5have@ 10002fa0     glsl_core:prepro.obj
 0001:00001fe4       ??_C@_06OFNJOBDK@enable?$AA@ 10002fe4     glsl_core:prepro.obj
 0001:00001fec       ??_C@_0BM@DLKHKEPF@Extension?5?$CFs?5not?5supported?6?$AA@ 10002fec     glsl_core:prepro.obj
 0001:00002008       ??_C@_07FFLLPPLH@require?$AA@ 10003008     glsl_core:prepro.obj
 0001:00002010       ??_C@_07CPCPJPKL@version?$AA@ 10003010     glsl_core:prepro.obj
 0001:00002018       ??_C@_09ODADEDNA@extension?$AA@ 10003018     glsl_core:prepro.obj
 0001:00002024       ??_C@_06PGFLMPLC@pragma?$AA@ 10003024     glsl_core:prepro.obj
 0001:0000202c       ??_C@_04HJPCFDOP@line?$AA@ 1000302c     glsl_core:prepro.obj
 0001:00002034       ??_C@_05KKCIMGE@error?$AA@ 10003034     glsl_core:prepro.obj
 0001:0000203c       ??_C@_05PKCPKOLM@undef?$AA@ 1000303c     glsl_core:prepro.obj
 0001:00002044       ??_C@_06EPMMJFDC@define?$AA@ 10003044     glsl_core:prepro.obj
 0001:0000204c       ??_C@_05PAODFFED@endif?$AA@ 1000304c     glsl_core:prepro.obj
 0001:00002054       ??_C@_04GNFOIEOK@elif?$AA@ 10003054     glsl_core:prepro.obj
 0001:0000205c       ??_C@_06ENONKJGC@ifndef?$AA@ 1000305c     glsl_core:prepro.obj
 0001:00002064       ??_C@_05LOELCHJN@ifdef?$AA@ 10003064     glsl_core:prepro.obj
 0001:0000206c       ??_C@_04FHMCPBIP@else?$AA@ 1000306c     glsl_core:prepro.obj
 0001:00002074       ??_C@_02HEBPBKGD@if?$AA@   10003074     glsl_core:prepro.obj
 0001:00002078       ??_C@_0BK@GJEIJPFO@?8?8?5?3?5?5?5Invalid?5directive?6?$AA@ 10003078     glsl_core:prepro.obj
 0001:00002094       ??_C@_0BN@FIDJAKIO@?8?8?5?3?5?5?5Invalid?5directive?5?$CFs?6?$AA@ 10003094     glsl_core:prepro.obj
 0001:000020b4       ??_C@_0P@BBCFBFHE@?$CDdefine?5?$CFs?5?$CFs?6?$AA@ 100030b4     glsl_core:prepro.obj
 0001:000020c4       ??_C@_0DH@OOJOKFBO@Premature?5end?5of?5source?$DL?5preproc@ 100030c4     glsl_core:prepro.obj
 0001:000020fc       ??_C@_0M@NHEOPBPN@__VERSION__?$AA@ 100030fc     glsl_core:prepro.obj
 0001:00002108       ??_C@_08FMJNKKCK@__FILE__?$AA@ 10003108     glsl_core:prepro.obj
 0001:00002114       ??_C@_03FKNCMABI@?$CFlu?$AA@ 10003114     glsl_core:prepro.obj
 0001:00002118       ??_C@_08ICCNKGAE@__LINE__?$AA@ 10003118     glsl_core:prepro.obj
 0001:00002124       ??_C@_0BD@JNHPGIN@Preprocessor?5state?$AA@ 10003124     glsl_core:prepro.obj
 0001:00002138       ??_C@_05LFMKIPII@GL_ES?$AA@ 10003138     glsl_core:prepro.obj
 0001:00002140       ??_C@_0BL@MEHCMLOH@GL_FRAGMENT_PRECISION_HIGH?$AA@ 10003140     glsl_core:prepro.obj
 0001:0000215c       ??_C@_01HIHLOKLC@1?$AA@    1000315c     glsl_core:prepro.obj
 0001:00002160       ??_C@_0DA@OFOIIK@?$CFsnot?5supported?5in?5this?5language@ 10003160     glsl_core:glsltree.obj
 0001:00002190       ??_C@_01CLKCMJKC@?5?$AA@   10003190     glsl_core:glsltree.obj
 0001:00002194       ??_C@_07BGPGDKED@?8?$CFs?8?5?3?5?$AA@ 10003194     glsl_core:glsltree.obj
 0001:0000219c       ??_C@_0DF@OHKGDFCN@sampler3D?5requires?5the?5extension@ 1000319c     glsl_core:glsltree.obj
 0001:000021d8       ??_C@_0EI@LCMGNHO@C?3?2WinCE?2OMAP?2DDK1?45?2eurasia?2too@ 100031d8     glsl_core:glsltree.obj
 0001:00002220       ??_C@_0M@GPJHHEN@prec_mod?$EA?$CFs?$AA@ 10003220     glsl_core:glsltree.obj
 0001:0000222c       ??_C@_0BN@PFCALEBB@?8?$CFs?8?5?3?5undeclared?5identifer?6?$AA@ 1000322c     glsl_core:glsltree.obj
 0001:0000224c       ??_C@_0BC@BMKFIMFD@suffix?5for?5floats?$AA@ 1000324c     glsl_core:glsltree.obj
 0001:00002260       ??_C@_0CO@OEODLIAF@?8?$CFs?8?5?3?5no?5matching?5overloaded?5fu@ 10003260     glsl_core:glsltree.obj
 0001:00002290       ??_C@_0DL@GAGGKDE@Invalid?5call?5to?5function?5?$CFs?3?5ext@ 10003290     glsl_core:glsltree.obj
 0001:000022cc       ??_C@_0BE@MKEJKJNF@IMG_texture_stream2?$AA@ 100032cc     glsl_core:glsltree.obj
 0001:000022e0       ??_C@_0BD@HMADEMII@OES_standard_noise?$AA@ 100032e0     glsl_core:glsltree.obj
 0001:000022f4       ??_C@_0BJ@BBLIOIPO@OES_standard_derivatives?$AA@ 100032f4     glsl_core:glsltree.obj
 0001:00002310       ??_C@_0JK@IAGAKDJC@?8?$CFs?8?5?3?5more?5than?5one?5function?5ma@ 10003310     glsl_core:glsltree.obj
 0001:000023ac       ??_C@_0DI@FBAOMKMA@?8?$CFs?8?5?3?5expected?5formal?5parameter@ 100033ac     glsl_core:glsltree.obj
 0001:000023e4       ??_C@_0CE@FEHIBDDG@?8?$CFs?8?5?3?5function?5already?5has?5a?5bo@ 100033e4     glsl_core:glsltree.obj
 0001:00002408       ??_C@_0EA@EHOOEHJF@?8?$CFs?8?5?3?5overloaded?5functions?5must@ 10003408     glsl_core:glsltree.obj
 0001:00002448       ??_C@_0EF@IPIFIILD@?8?$CFs?8?5?3?5overloaded?5functions?5must@ 10003448     glsl_core:glsltree.obj
 0001:00002490       ??_C@_0DL@BCPLAMHH@?8?$CFs?8?5?3?5overloaded?5function?5must?5@ 10003490     glsl_core:glsltree.obj
 0001:000024cc       ??_C@_0DM@NFAOPOPI@?8?$CFs?8?5?3?5overloaded?5functions?5must@ 100034cc     glsl_core:glsltree.obj
 0001:00002508       ??_C@_0CN@ONFDOADB@?8?$CFs?8?5?3?5?5main?5function?5cannot?5ret@ 10003508     glsl_core:glsltree.obj
 0001:00002538       ??_C@_0CO@DANJKBKG@?8?$CFs?8?5?3?5function?5cannot?5take?5any?5@ 10003538     glsl_core:glsltree.obj
 0001:00002568       ??_C@_04GHJNJNPO@main?$AA@ 10003568     glsl_core:glsltree.obj
 0001:00002570       ??_C@_09EALEHKDP@_?$EAswizzle?$AA@ 10003570     glsl_core:glsltree.obj
 0001:0000257c       ??_C@_0DO@GGEOHJHJ@?8?$CFs?8?5?3?5vector?5field?5components?5d@ 1000357c     glsl_core:glsltree.obj
 0001:000025bc       ??_C@_0CH@HBLJCFGF@?8?$CFs?8?5?3?5illegal?5vector?5field?5sele@ 100035bc     glsl_core:glsltree.obj
 0001:000025e4       ??_C@_0N@LGCNPFJO@struct_?$CFs?$EA?$CFs?$AA@ 100035e4     glsl_core:glsltree.obj
 0001:000025f4       ??_C@_0CD@FEPDOILB@?8?$CFs?8?5?3?5no?5such?5field?5in?5structur@ 100035f4     glsl_core:glsltree.obj
 0001:00002618       ??_C@_0FA@IMJOPAMG@?8?$CFs?8?5?3?5field?5selection?5requires?5@ 10003618     glsl_core:glsltree.obj
 0001:00002668       ??_C@_0CM@GMGAPJE@?8?$CFs?8?5?3?5only?5varyings?5can?5be?5made@ 10003668     glsl_core:glsltree.obj
 0001:00002698       ??_C@_0EB@FPLDGAMG@?8?$CFs?8?5?3?5invariant?5status?5can?5only@ 10003698     glsl_core:glsltree.obj
 0001:000026dc       ??_C@_0DJ@ECIMHPED@?8void?8?5?3?5cannot?5be?5an?5argument?5t@ 100036dc     glsl_core:glsltree.obj
 0001:00002718       ??_C@_0CD@CNJMOGG@?8?$CFs?8?5?3?5illegal?5use?5of?5type?5?8void@ 10003718     glsl_core:glsltree.obj
 0001:0000273c       ??_C@_0DK@POLMABBI@Function?5call?5depth?5?$DO?51024?5detec@ 1000373c     glsl_core:glsltree.obj
 0001:00002778       ??_C@_0BM@PKEIGAJI@Function?5?8?$CFs?8?5has?5no?5body?4?6?$AA@ 10003778     glsl_core:glsltree.obj
 0001:00002794       ??_C@_0BN@EKNNMDAK@main?$CI?$CJ?5function?5is?5missing?4?6?$AA@ 10003794     glsl_core:glsltree.obj
 0001:000027b8       ??_C@_0ED@HBLOLBFI@gl_Position?5must?5be?5written?5by?5a@ 100037b8     glsl_core:glsltree.obj
 0001:000027fc       ??_C@_0N@GGFFEPLF@returnval_?$CFs?$AA@ 100037fc     glsl_core:icemul.obj
 0001:00002810       ??_C@_0EG@HFFNOAOM@C?3?2WinCE?2OMAP?2DDK1?45?2eurasia?2too@ 10003810     glsl_core:icemul.obj
 0001:00002858       ??_C@_0M@JMJDFMPD@pmx_arccos2?$AA@ 10003858     glsl_core:icemul.obj
 0001:00002864       ??_C@_02IIINKMCA@r0?$AA@   10003864     glsl_core:icemul.obj
 0001:00002868       ??_C@_0M@MNOGKEIO@pmx_arcsin2?$AA@ 10003868     glsl_core:icemul.obj
 0001:00002874       ??_C@_0L@GKLBCFHE@pmx_arctan?$AA@ 10003874     glsl_core:icemul.obj
 0001:00002880       ??_C@_0M@LKHCFAHB@pmx_arctan2?$AA@ 10003880     glsl_core:icemul.obj
 0001:0000288c       ??_C@_0BA@LGHEAAEH@pmx_noise1_?$CFluD?$AA@ 1000388c     glsl_core:icemul.obj
 0001:0000289c       ??_C@_0BK@LKJPEAGA@gl_PMXDepthTextureDesc?$CFlu?$AA@ 1000389c     glsl_core:icemul.obj
 0001:000028b8       ??_C@_0O@OIPBGHC@acosConstant2?$AA@ 100038b8     glsl_core:icemul.obj
 0001:000028c8       ??_C@_0O@CFKCEFLB@acosConstant1?$AA@ 100038c8     glsl_core:icemul.obj
 0001:000028d8       ??_C@_0O@DMLJHEPA@acosConstant0?$AA@ 100038d8     glsl_core:icemul.obj
 0001:000028e8       ??_C@_0O@FCLDNNGD@atanConstant3?$AA@ 100038e8     glsl_core:icemul.obj
 0001:000028f8       ??_C@_0O@ELKIOMCC@atanConstant2?$AA@ 100038f8     glsl_core:icemul.obj
 0001:00002908       ??_C@_0O@GAIFLPOB@atanConstant1?$AA@ 10003908     glsl_core:icemul.obj
 0001:00002918       ??_C@_0O@HJJOIOKA@atanConstant0?$AA@ 10003918     glsl_core:icemul.obj
 0001:00002928       ??_C@_0P@NGCBMMJA@atan2Constant1?$AA@ 10003928     glsl_core:icemul.obj
 0001:00002938       ??_C@_0P@MPDKPNNB@atan2Constant0?$AA@ 10003938     glsl_core:icemul.obj
 0001:00002948       ??_C@_0P@BJDPKMJH@noiseConstant2?$AA@ 10003948     glsl_core:icemul.obj
 0001:00002958       ??_C@_0P@DCBCPPFE@noiseConstant1?$AA@ 10003958     glsl_core:icemul.obj
 0001:00002968       ??_C@_0P@CLAJMOBF@noiseConstant0?$AA@ 10003968     glsl_core:icemul.obj
 0001:00002978       ??_C@_0BC@KHKLJCIM@gl_PMXPermTexture?$AA@ 10003978     glsl_core:icemul.obj
 0001:0000298c       ??_C@_0BC@DINMMLAH@gl_PMXGradTexture?$AA@ 1000398c     glsl_core:icemul.obj
 0001:000029a0       ??_C@_09GHEIANLA@rs_?$CFs?$EA?$CFlu?$AA@ 100039a0     glsl_core:semantic.obj
 0001:000029b0       ??_C@_0EI@ODHNOPIP@C?3?2WinCE?2OMAP?2DDK1?45?2eurasia?2too@ 100039b0     glsl_core:semantic.obj
 0001:000029f8       ??_C@_0N@LCEEANFM@rs_?$CFs_?$CFs?$EA?$CFlu?$AA@ 100039f8     glsl_core:semantic.obj
 0001:00002a08       ??_C@_02GPECMEKF@?$FL?$FN?$AA@ 10003a08     glsl_core:semantic.obj
 0001:00002a0c       ??_C@_06DDGKKJGO@fn_?$CFs?$EA?$AA@ 10003a0c     glsl_core:semantic.obj
 0001:00002a14       ??_C@_0N@MKOCCMOM@fc_?$CFs_?$CFs?$EA?$CFlu?$AA@ 10003a14     glsl_core:semantic.obj
 0001:00002a24       ??_C@_0BH@BCBDPBHB@?8?$CFs?8?5is?5not?5constant?4?6?$AA@ 10003a24     glsl_core:semantic.obj
 0001:00002a40       ??_C@_0IB@GFOIJAH@?8?$CFs?8?5?3?5?5Wrong?5operand?5type?4?5No?5o@ 10003a40     glsl_core:semantic.obj
 0001:00002ac8       ??_C@_0KM@IIDJDOIG@?8?$CFs?8?5?3?5?5Wrong?5operand?5types?4?5No?5@ 10003ac8     glsl_core:semantic.obj
 0001:00002b78       ??_C@_0FA@FOGICJBC@?8?$CFs?8?5?3?5?5Wrong?5operand?5types?4?5Arr@ 10003b78     glsl_core:semantic.obj
 0001:00002bc8       ??_C@_0DN@OGJMDMOH@?8?$CFs?8?5?3?5?5Wrong?5operand?5types?4?5Arr@ 10003bc8     glsl_core:semantic.obj
 0001:00002c08       ??_C@_0DM@LACJEOBJ@?8?$CFs?8?5?3?5l?9value?5of?5swizzle?5cannot@ 10003c08     glsl_core:semantic.obj
 0001:00002c44       ??_C@_0CO@GKOHIBMO@?8?$CFs?8?5?3?5?5l?9value?5required?5?$CIcan?8t?5@ 10003c44     glsl_core:semantic.obj
 0001:00002c74       ??_C@_0BK@GDICGMNC@?8?$CFs?8?5?3?5?5l?9value?5required?6?$AA@ 10003c74     glsl_core:semantic.obj
 0001:00002c90       ??_C@_0FC@CPFEMAHP@?8?$FL?8?5?3?5?5array?5must?5be?5redeclared?5@ 10003c90     glsl_core:semantic.obj
 0001:00002ce4       ??_C@_0BO@NHLIFECN@Array?5index?5?8?$CFd?8?5is?5negative?6?$AA@ 10003ce4     glsl_core:semantic.obj
 0001:00002d04       ??_C@_0DC@LAGKKDPB@Array?5index?5?8?$CFd?8?5out?5of?5bounds?4?5@ 10003d04     glsl_core:semantic.obj
 0001:00002d38       ??_C@_0CJ@FHCFPJKN@?8?$FL?8?5?3?5field?5selection?5out?5of?5ran@ 10003d38     glsl_core:semantic.obj
 0001:00002d64       ??_C@_0CH@HELBFBNP@?8?$CFs?8?5?3?5used?5without?5being?5initia@ 10003d64     glsl_core:semantic.obj
 0001:00002d90       ??_C@_0HB@DKFOGIGJ@Fragment?5shader?5may?5not?5write?5to@ 10003d90     glsl_core:semantic.obj
 0001:00002e04       ??_C@_0CF@KDAONFKO@?8?$CFs?8?5?3?5only?5allowed?5at?5global?5sc@ 10003e04     glsl_core:semantic.obj
 0001:00002e2c       ??_C@_0CO@NGBAHMIE@?8?$CFs?5?$CFs?8?5?3?5cannot?5declare?5arrays?5@ 10003e2c     glsl_core:semantic.obj
 0001:00002e5c       ??_C@_0CK@JHIFCNNH@?8?$CFs?8?5?3?5?5supported?5in?5vertex?5shad@ 10003e5c     glsl_core:semantic.obj
 0001:00002e88       ??_C@_0DO@CDLOBBKG@?8?$CFs?8?5?3?5may?5only?5be?5a?5float?0?5floa@ 10003e88     glsl_core:semantic.obj
 0001:00002ec8       ??_C@_0CA@GMKFDLOI@?8gl_?8?5?3?5reserved?5built?9in?5name?6?$AA@ 10003ec8     glsl_core:semantic.obj
 0001:00002ee8       ??_C@_03EKEJMIG@gl_?$AA@   10003ee8     glsl_core:semantic.obj
 0001:00002eec       ??_C@_0BF@IPJBEHEB@?8?$CFs?8?5?3?5redefinition?6?$AA@ 10003eec     glsl_core:semantic.obj
 0001:00002f04       ??_C@_0DG@MPDECNKE@?8?$CFs?8?5?3?5higher?5index?5value?5alread@ 10003f04     glsl_core:semantic.obj
 0001:00002f3c       ??_C@_0DD@GKJIHCLB@?8?$CFs?8?5?3?5redeclaration?5of?5array?5wi@ 10003f3c     glsl_core:semantic.obj
 0001:00002f70       ??_C@_0CJ@IINGJFMA@?8?$CFs?8?5?3?5redeclaration?5of?5array?5wi@ 10003f70     glsl_core:semantic.obj
 0001:00002f9c       ??_C@_0CF@HEGOMBE@?8?$CFs?8?5?3?5declaring?5non?9array?5as?5ar@ 10003f9c     glsl_core:semantic.obj
 0001:00002fc8       ??_C@_0HH@CLEFIBKB@Calls?5to?5any?5function?5that?5may?5r@ 10003fc8     glsl_core:semantic.obj
 0001:00003040       ??_C@_0DL@NFEJNCDD@?8constructor?8?5?3?5not?5enough?5data?5@ 10004040     glsl_core:semantic.obj
 0001:0000307c       ??_C@_0DB@FADFBNNI@?8constructor?8?5?3?5no?5arguments?5sup@ 1000407c     glsl_core:semantic.obj
 0001:000030b0       ??_C@_0CE@PGLIGOHF@?8constructor?8?5?3?5too?5many?5argumen@ 100040b0     glsl_core:semantic.obj
 0001:000030d8       ??_C@_0FO@GMHJKCLB@?8constructor?8?5?3?5only?5a?5single?5ma@ 100040d8     glsl_core:semantic.obj
 0001:00003138       ??_C@_0CM@MHBMNBMB@?8constructor?8?5?3?5cannot?5convert?5a@ 10004138     glsl_core:semantic.obj
 0001:00003164       ??_C@_0CK@FIECGCOG@?8constructor?8?5?3?5cannot?5convert?5a@ 10004164     glsl_core:semantic.obj
 0001:00003190       ??_C@_0EL@EPHDCKFB@?8?$CFs?8?5?3?5Parameter?5array?5size?5does@ 10004190     glsl_core:semantic.obj
 0001:000031e0       ??_C@_0EK@DMJPANOP@?8?$CFs?8?5?3?5Cannot?5convert?5parameter?5@ 100041e0     glsl_core:semantic.obj
 0001:0000322c       ??_C@_0DG@BMMJAPJE@?8?$CFs?8?5?3?5Cannot?5convert?5parameter?5@ 1000422c     glsl_core:semantic.obj
 0001:00003268       ??_C@_0EM@EHJBNNAN@?8Error?8?5?3?5Constant?5value?5cannot?5@ 10004268     glsl_core:semantic.obj
 0001:000032b8       ??_C@_0GL@NHELLIMD@?8constructor?8?5?3?5Number?5of?5constr@ 100042b8     glsl_core:semantic.obj
 0001:00003324       ??_C@_0M@HCIFEBGA@constructor?$AA@ 10004324     glsl_core:semantic.obj
 0001:00003330       ??_C@_0DB@ODIKGIDJ@?8discard?8?5?3?5only?5supported?5in?5fr@ 10004330     glsl_core:semantic.obj
 0001:00003364       ??_C@_0CD@ODLIIFHP@?8?8?5?3?5boolean?5expression?5expected@ 10004364     glsl_core:semantic.obj
 0001:00003388       ??_C@_0DB@FPHKHOBM@?8return?8?5?3?5function?5return?5has?5w@ 10004388     glsl_core:semantic.obj
 0001:000033bc       ??_C@_0DB@IBLCMOKH@?8return?8?5?3?5function?5return?5is?5no@ 100043bc     glsl_core:semantic.obj
 0001:000033f0       ??_C@_0DA@KIPLKFMI@?8return?8?5?3?5void?5function?5cannot?5@ 100043f0     glsl_core:semantic.obj
 0001:00003420       ??_C@_0DC@IABKOPGF@?8return?8?5?3?5non?9void?5function?5mus@ 10004420     glsl_core:semantic.obj
 0001:00003454       ??_C@_0CO@PFBDOOMF@?8assign?8?5?3?5?5cannot?5convert?5from?5@ 10004454     glsl_core:semantic.obj
 0001:00003484       ??_C@_0DF@OMAKOKIJ@?8const?8?5?3?5?5non?9matching?5types?5fo@ 10004484     glsl_core:semantic.obj
 0001:000034bc       ??_C@_06IMFOKBKF@assign?$AA@ 100044bc     glsl_core:semantic.obj
 0001:000034c4       ??_C@_0CN@CAADMAMN@?8?$DN?8?5?3?5?5assigning?5non?9constant?5to@ 100044c4     glsl_core:semantic.obj
 0001:000034f4       ??_C@_0DC@OPFDDKKG@?8?$CFs?8?5?3?5?5cannot?5initialize?5this?5t@ 100044f4     glsl_core:semantic.obj
 0001:00003528       ??_C@_0KJ@EPEAGGHJ@?8?3?8?5?3?5?5wrong?5operand?5types?5?5no?5o@ 10004528     glsl_core:semantic.obj
 0001:000035d4       ??_C@_0CC@MKLDGFDA@?8?8?5?3?5boolean?5expression?5expected@ 100045d4     glsl_core:semantic.obj
 0001:000035f8       ??_C@_0DK@DADEIOGK@?8?8?5?3?5left?5of?5?8?$FL?8?5is?5not?5of?5type?5@ 100045f8     glsl_core:semantic.obj
 0001:00003634       ??_C@_0DM@POAJCJK@?8?$CFs?8?5?3?5left?5of?5?8?$FL?8?5is?5not?5of?5typ@ 10004634     glsl_core:semantic.obj
 0001:00003670       ??_C@_0CE@HCDENGKP@?8?$FL?$FN?8?5?3?5integer?5expression?5requir@ 10004670     glsl_core:semantic.obj
 0001:00003694       ??_C@_0CJ@LDAPHGKE@?8?4?8?5?3?5cannot?5apply?5dot?5operator?5@ 10004694     glsl_core:semantic.obj
 0001:000036c0       ??_C@_0CM@FMCOHPCK@?8?$CFs?8?5?3?5vector?5field?5selection?5ou@ 100046c0     glsl_core:semantic.obj
 0001:000036f0       ??_C@_0EH@KMEPABJP@?8?$CFs?8?5?3?5field?5selection?5requires?5@ 100046f0     glsl_core:semantic.obj
 0001:00003738       ??_C@_0CN@KPECCIGP@?8?4?8?5?3?5cannot?5apply?5dot?5operator?5@ 10004738     glsl_core:semantic.obj
 0001:00003768       ??_C@_0DD@JAEBPOMH@?8?$CFs?8?5?3?5?4length?$CI?$CJ?5requires?5array?5@ 10004768     glsl_core:semantic.obj
 0001:0000379c       ??_C@_0N@LEEGPDKF@no?9symbol?9id?$AA@ 1000479c     glsl_core:semantic.obj
 0001:000037f4       ??_C@_0M@NAPNMHJB@1?45?415?42856?$AA@ 100047f4     glsl_binshader:esbinshader.obj
 0001:00003800       ??_C@_07GLJEJNB@EMITCUT?$AA@ 10004800     usc:usc_utils.obj
 0001:00003808       ??_C@_03ODLKKDDL@CUT?$AA@  10004808     usc:usc_utils.obj
 0001:0000380c       ??_C@_04GBCMHBCE@EMIT?$AA@ 1000480c     usc:usc_utils.obj
 0001:00003814       ??_C@_05IALEHOEG@MOVVI?$AA@ 10004814     usc:usc_utils.obj
 0001:0000381c       ??_C@_04PHPDOHKP@DIV2?$AA@ 1000481c     usc:usc_utils.obj
 0001:00003824       ??_C@_05BFJLGMF@MOVCP?$AA@ 10004824     usc:usc_utils.obj
 0001:0000382c       ??_C@_06FGGEKBGC@DOT4CP?$AA@ 1000482c     usc:usc_utils.obj
 0001:00003834       ??_C@_04KIMHDDNA@LOGP?$AA@ 10004834     usc:usc_utils.obj
 0001:0000383c       ??_C@_04HBHAILHC@EXPP?$AA@ 1000483c     usc:usc_utils.obj
 0001:00003844       ??_C@_08LKBLKNDD@MOVA_INT?$AA@ 10004844     usc:usc_utils.obj
 0001:00003850       ??_C@_08GONKFOLN@MOVA_RNE?$AA@ 10004850     usc:usc_utils.obj
 0001:0000385c       ??_C@_08INHPMPD@MOVA_TRC?$AA@ 1000485c     usc:usc_utils.obj
 0001:00003868       ??_C@_03CAOCJACM@MOV?$AA@  10004868     usc:usc_utils.obj
 0001:0000386c       ??_C@_03GEANJIEE@NOP?$AA@  1000486c     usc:usc_utils.obj
 0001:00003870       ??_C@_09IHCHNAND@ENDSWITCH?$AA@ 10004870     usc:usc_utils.obj
 0001:0000387c       ??_C@_07MGCPDNLD@DEFAULT?$AA@ 1000487c     usc:usc_utils.obj
 0001:00003884       ??_C@_04OGNCDOIK@CASE?$AA@ 10004884     usc:usc_utils.obj
 0001:0000388c       ??_C@_06DKNFLPLN@SWITCH?$AA@ 1000488c     usc:usc_utils.obj
 0001:00003894       ??_C@_07FMKELLMM@IFNZBIT?$AA@ 10004894     usc:usc_utils.obj
 0001:0000389c       ??_C@_0O@DACOILJI@CONTINUENZBIT?$AA@ 1000489c     usc:usc_utils.obj
 0001:000038ac       ??_C@_08CEMFIBFD@RETNZBIT?$AA@ 100048ac     usc:usc_utils.obj
 0001:000038b8       ??_C@_09IKPIPGBO@CALLNZBIT?$AA@ 100048b8     usc:usc_utils.obj
 0001:000038c4       ??_C@_0L@EHPDBPCP@BREAKNZBIT?$AA@ 100048c4     usc:usc_utils.obj
 0001:000038d0       ??_C@_0N@NLKMEFNE@GLSLLOOPTAIL?$AA@ 100048d0     usc:usc_utils.obj
 0001:000038e0       ??_C@_0N@DNBOGBJP@GLSLCONTINUE?$AA@ 100048e0     usc:usc_utils.obj
 0001:000038f0       ??_C@_0M@IIPMBMC@GLSLENDLOOP?$AA@ 100048f0     usc:usc_utils.obj
 0001:000038fc       ??_C@_0P@BNMDBKOA@GLSLSTATICLOOP?$AA@ 100048fc     usc:usc_utils.obj
 0001:0000390c       ??_C@_08CIJJABIK@GLSLLOOP?$AA@ 1000490c     usc:usc_utils.obj
 0001:00003918       ??_C@_05LAJLJJBC@CALLP?$AA@ 10004918     usc:usc_utils.obj
 0001:00003920       ??_C@_06IFIODKDJ@BREAKP?$AA@ 10004920     usc:usc_utils.obj
 0001:00003928       ??_C@_03PGALJLHC@IFP?$AA@  10004928     usc:usc_utils.obj
 0001:0000392c       ??_C@_05EILEDKCG@LABEL?$AA@ 1000492c     usc:usc_utils.obj
 0001:00003934       ??_C@_04DLKKMOMO@SETP?$AA@ 10004934     usc:usc_utils.obj
 0001:0000393c       ??_C@_06OEGBHLKL@BREAKC?$AA@ 1000493c     usc:usc_utils.obj
 0001:00003944       ??_C@_05IAGBLAKG@BREAK?$AA@ 10004944     usc:usc_utils.obj
 0001:0000394c       ??_C@_03JHOENKOA@IFC?$AA@  1000494c     usc:usc_utils.obj
 0001:00003950       ??_C@_06EBGPDKJM@ENDREP?$AA@ 10004950     usc:usc_utils.obj
 0001:00003958       ??_C@_03HDFFPFLF@REP?$AA@  10004958     usc:usc_utils.obj
 0001:0000395c       ??_C@_07OEFEMAML@ENDLOOP?$AA@ 1000495c     usc:usc_utils.obj
 0001:00003964       ??_C@_04KGNEGCGI@LOOP?$AA@ 10004964     usc:usc_utils.obj
 0001:0000396c       ??_C@_03BHDJDALB@RET?$AA@  1000496c     usc:usc_utils.obj
 0001:00003970       ??_C@_06KFOFNBHF@CALLNZ?$AA@ 10004970     usc:usc_utils.obj
 0001:00003978       ??_C@_04CAGKGBIO@CALL?$AA@ 10004978     usc:usc_utils.obj
 0001:00003980       ??_C@_05DLHFLCAN@ENDIF?$AA@ 10004980     usc:usc_utils.obj
 0001:00003988       ??_C@_04JLPIBDPH@ELSE?$AA@ 10004988     usc:usc_utils.obj
 0001:00003990       ??_C@_02NJNGHICB@IF?$AA@   10004990     usc:usc_utils.obj
 0001:00003994       ??_C@_07BKIPBFEF@KPNZBIT?$AA@ 10004994     usc:usc_utils.obj
 0001:0000399c       ??_C@_04CJHNKBPM@KPLE?$AA@ 1000499c     usc:usc_utils.obj
 0001:000039a4       ??_C@_04HKKEICOM@KPLT?$AA@ 100049a4     usc:usc_utils.obj
 0001:000039ac       ??_C@_05GGJNPOKM@LDBUF?$AA@ 100049ac     usc:usc_utils.obj
 0001:000039b4       ??_C@_05CLKBFMGL@LDCLZ?$AA@ 100049b4     usc:usc_utils.obj
 0001:000039bc       ??_C@_03KDLOPOLM@LDC?$AA@  100049bc     usc:usc_utils.obj
 0001:000039c0       ??_C@_03OMPPGIHL@LDD?$AA@  100049c0     usc:usc_utils.obj
 0001:000039c4       ??_C@_07DFIAJNK@LDPIFTC?$AA@ 100049c4     usc:usc_utils.obj
 0001:000039cc       ??_C@_03MCFBLPCO@LDP?$AA@  100049cc     usc:usc_utils.obj
 0001:000039d0       ??_C@_03CECGOCHD@LDL?$AA@  100049d0     usc:usc_utils.obj
 0001:000039d4       ??_C@_03LKKFMPPN@LDB?$AA@  100049d4     usc:usc_utils.obj
 0001:000039d8       ??_C@_02ONCLNIEI@LD?$AA@   100049d8     usc:usc_utils.obj
 0001:000039dc       ??_C@_03CDEJPCIF@XOR?$AA@  100049dc     usc:usc_utils.obj
 0001:000039e0       ??_C@_03PBAHGDAB@SHR?$AA@  100049e0     usc:usc_utils.obj
 0001:000039e4       ??_C@_02PDPFNDMG@OR?$AA@   100049e4     usc:usc_utils.obj
 0001:000039e8       ??_C@_03GBFNEA@NOT?$AA@    100049e8     usc:usc_utils.obj
 0001:000039ec       ??_C@_03BLGELAIE@ASR?$AA@  100049ec     usc:usc_utils.obj
 0001:000039f0       ??_C@_03CFEGFMNO@SHL?$AA@  100049f0     usc:usc_utils.obj
 0001:000039f4       ??_C@_03BDACDFHA@AND?$AA@  100049f4     usc:usc_utils.obj
 0001:000039f8       ??_C@_04IEDALHLA@SQRT?$AA@ 100049f8     usc:usc_utils.obj
 0001:00003a00       ??_C@_03FJGHKDBE@DIV?$AA@  10004a00     usc:usc_utils.obj
 0001:00003a04       ??_C@_07MPADIFOA@MOVCBIT?$AA@ 10004a04     usc:usc_utils.obj
 0001:00003a0c       ??_C@_06CELPKKED@SETBNE?$AA@ 10004a0c     usc:usc_utils.obj
 0001:00003a14       ??_C@_06HEOCFNDN@SETBLT?$AA@ 10004a14     usc:usc_utils.obj
 0001:00003a1c       ??_C@_06CLGOJBMM@SETBGE?$AA@ 10004a1c     usc:usc_utils.obj
 0001:00003a24       ??_C@_06GEEJCPH@SETBEQ?$AA@ 10004a24     usc:usc_utils.obj
 0001:00003a2c       ??_C@_03BMCMHJGB@SGN?$AA@  10004a2c     usc:usc_utils.obj
 0001:00003a30       ??_C@_03PPNIKAKK@SGE?$AA@  10004a30     usc:usc_utils.obj
 0001:00003a34       ??_C@_03KAFEGMFL@SLT?$AA@  10004a34     usc:usc_utils.obj
 0001:00003a38       ??_C@_06CPNAGDBH@OGLLIT?$AA@ 10004a38     usc:usc_utils.obj
 0001:00003a40       ??_C@_03KOOFOJHJ@LIT?$AA@  10004a40     usc:usc_utils.obj
 0001:00003a44       ??_C@_03HKOAOHDA@DST?$AA@  10004a44     usc:usc_utils.obj
 0001:00003a48       ??_C@_03MPEOJJHN@DSY?$AA@  10004a48     usc:usc_utils.obj
 0001:00003a4c       ??_C@_03NGFFKIDM@DSX?$AA@  10004a4c     usc:usc_utils.obj
 0001:00003a50       ??_C@_04PEPPOICM@M3X2?$AA@ 10004a50     usc:usc_utils.obj
 0001:00003a58       ??_C@_04ONOENJGN@M3X3?$AA@ 10004a58     usc:usc_utils.obj
 0001:00003a60       ??_C@_04KCKFEPKK@M3X4?$AA@ 10004a60     usc:usc_utils.obj
 0001:00003a68       ??_C@_04HADDOBNE@M4X3?$AA@ 10004a68     usc:usc_utils.obj
 0001:00003a70       ??_C@_04DPHCHHBD@M4X4?$AA@ 10004a70     usc:usc_utils.obj
 0001:00003a78       ??_C@_07PKBLCBGP@SINCOS2?$AA@ 10004a78     usc:usc_utils.obj
 0001:00003a80       ??_C@_06NMMLFNJO@SINCOS?$AA@ 10004a80     usc:usc_utils.obj
 0001:00003a88       ??_C@_03BPJLEIIC@ABS?$AA@  10004a88     usc:usc_utils.obj
 0001:00003a8c       ??_C@_03IPJPMEHL@NRM?$AA@  10004a8c     usc:usc_utils.obj
 0001:00003a90       ??_C@_03KJLECDHJ@CRS?$AA@  10004a90     usc:usc_utils.obj
 0001:00003a94       ??_C@_03LEPPJAKI@MAX?$AA@  10004a94     usc:usc_utils.obj
 0001:00003a98       ??_C@_03KGHEHEMH@MIN?$AA@  10004a98     usc:usc_utils.obj
 0001:00003a9c       ??_C@_03JLIKCOCP@POW?$AA@  10004a9c     usc:usc_utils.obj
 0001:00003aa0       ??_C@_03NKPKGAOM@LRP?$AA@  10004aa0     usc:usc_utils.obj
 0001:00003aa4       ??_C@_04KJMDDEDC@CEIL?$AA@ 10004aa4     usc:usc_utils.obj
 0001:00003aac       ??_C@_03FBKOMNAB@RND?$AA@  10004aac     usc:usc_utils.obj
 0001:00003ab0       ??_C@_03EILFPMEA@RNE?$AA@  10004ab0     usc:usc_utils.obj
 0001:00003ab4       ??_C@_03COLIFOAO@TRC?$AA@  10004ab4     usc:usc_utils.obj
 0001:00003ab8       ??_C@_03JBMJGMHA@FLR?$AA@  10004ab8     usc:usc_utils.obj
 0001:00003abc       ??_C@_03NEKIMBBK@FRC?$AA@  10004abc     usc:usc_utils.obj
 0001:00003ac0       ??_C@_03LJALPNPL@CND?$AA@  10004ac0     usc:usc_utils.obj
 0001:00003ac4       ??_C@_03JFODJEPH@CMP?$AA@  10004ac4     usc:usc_utils.obj
 0001:00003ac8       ??_C@_03MLIHNEFJ@LOG?$AA@  10004ac8     usc:usc_utils.obj
 0001:00003acc       ??_C@_03KKGFKKLA@EXP?$AA@  10004acc     usc:usc_utils.obj
 0001:00003ad0       ??_C@_05LCJGEIPC@RSQRT?$AA@ 10004ad0     usc:usc_utils.obj
 0001:00003ad8       ??_C@_05NDDJDMFB@RECIP?$AA@ 10004ad8     usc:usc_utils.obj
 0001:00003ae0       ??_C@_04IHEGMLJL@DOT4?$AA@ 10004ae0     usc:usc_utils.obj
 0001:00003ae8       ??_C@_04MIAHFNFM@DOT3?$AA@ 10004ae8     usc:usc_utils.obj
 0001:00003af0       ??_C@_07JJJNIFD@DOT2ADD?$AA@ 10004af0     usc:usc_utils.obj
 0001:00003af8       ??_C@_03FCIIMNPF@MAD?$AA@  10004af8     usc:usc_utils.obj
 0001:00003afc       ??_C@_03IBHOEMFB@MUL?$AA@  10004afc     usc:usc_utils.obj
 0001:00003b00       ??_C@_03KPDLEBHD@SUB?$AA@  10004b00     usc:usc_utils.obj
 0001:00003b04       ??_C@_03BOJFLAKG@ADD?$AA@  10004b04     usc:usc_utils.obj
 0001:00003b08       g_asInputInstDesc          10004b08     usc:usc_utils.obj
 0001:00004060       g_auSetBitCount            10005060     usc:usc.obj
 0001:000040a0       g_abSingleBitSet           100050a0     usc:usc.obj
 0001:000040e0       g_puSwapRedAndBlueChan     100050e0     usc:usc.obj
 0001:00004100       g_puSwapRedAndBlueMask     10005100     usc:usc.obj
 0001:00004140       g_aiSingleComponent        10005140     usc:usc.obj
 0001:00004180       g_puInvertCompOp           10005180     usc:usc.obj
 0001:0000419c       g_puNegateCompOp           1000519c     usc:usc.obj
 0001:000041bc       ??_C@_0DI@LMDLALDC@C?3?2WinCE?2OMAP?2DDK1?45?2eurasia?2too@ 100051bc     usc:data.obj
 0001:000041f4       ??_C@_0DH@CFEHIAHM@C?3?2WinCE?2OMAP?2DDK1?45?2eurasia?2too@ 100051f4     usc:dce.obj
 0001:0000422c       ??_C@_0BA@GBOIHAHE@Invalid_Max_Arg?$AA@ 1000522c     usc:inst.obj
 0001:0000423c       ??_C@_05DOJLHMDO@IEMIT?$AA@ 1000523c     usc:inst.obj
 0001:00004244       ??_C@_07KMCIDPAC@IIADD16?$AA@ 10005244     usc:inst.obj
 0001:0000424c       ??_C@_08GBDOAHMO@IISUBU16?$AA@ 1000524c     usc:inst.obj
 0001:00004258       ??_C@_04PLJJJCGI@IWOP?$AA@ 10005258     usc:inst.obj
 0001:00004260       ??_C@_0N@LFLGJNGE@ISMP_USP_NDR?$AA@ 10005260     usc:inst.obj
 0001:00004270       ??_C@_0N@GMCKLOJH@ISMPGRAD_USP?$AA@ 10005270     usc:inst.obj
 0001:00004280       ??_C@_0BA@CLBBCJAE@ISMPREPLACE_USP?$AA@ 10005280     usc:inst.obj
 0001:00004290       ??_C@_0N@BJLPOEIG@ISMPBIAS_USP?$AA@ 10005290     usc:inst.obj
 0001:000042a0       ??_C@_08LONNMFB@ISMP_USP?$AA@ 100052a0     usc:inst.obj
 0001:000042ac       ??_C@_09HGMODOHB@ISTARRC10?$AA@ 100052ac     usc:inst.obj
 0001:000042b8       ??_C@_09BHEKGJMF@ISTARRF16?$AA@ 100052b8     usc:inst.obj
 0001:000042c4       ??_C@_09HAKCHIKP@ISTARRF32?$AA@ 100052c4     usc:inst.obj
 0001:000042d0       ??_C@_09HJAMICPK@ILDARRC10?$AA@ 100052d0     usc:inst.obj
 0001:000042dc       ??_C@_09BIIINFEO@ILDARRF16?$AA@ 100052dc     usc:inst.obj
 0001:000042e8       ??_C@_09HPGAMECE@ILDARRF32?$AA@ 100052e8     usc:inst.obj
 0001:000042f4       ??_C@_07CDGDIKMM@IMOVIDX?$AA@ 100052f4     usc:inst.obj
 0001:000042fc       ??_C@_07OFECAAOA@IFMAD16?$AA@ 100052fc     usc:inst.obj
 0001:00004304       ??_C@_07LFJGBJEN@IFMUL16?$AA@ 10005304     usc:inst.obj
 0001:0000430c       ??_C@_07FKGAEPOL@IFADD16?$AA@ 1000530c     usc:inst.obj
 0001:00004314       ??_C@_07KAGCCBJF@IFMOV16?$AA@ 10005314     usc:inst.obj
 0001:0000431c       ??_C@_09JIJJHKMC@IMOVC_I16?$AA@ 1000531c     usc:inst.obj
 0001:00004328       ??_C@_09PPHBGLKI@IMOVC_I32?$AA@ 10005328     usc:inst.obj
 0001:00004334       ??_C@_08EABOAKIG@IMOVC_U8?$AA@ 10005334     usc:inst.obj
 0001:00004340       ??_C@_09KBHODNCA@IMOVC_C10?$AA@ 10005340     usc:inst.obj
 0001:0000434c       ??_C@_05LGBLJPKP@IMOVC?$AA@ 1000534c     usc:inst.obj
 0001:00004354       ??_C@_08PHMAHIDJ@IFP16DOT?$AA@ 10005354     usc:inst.obj
 0001:00004360       ??_C@_06ODHFKLFG@IFPDOT?$AA@ 10005360     usc:inst.obj
 0001:00004368       ??_C@_05BCEHFFAN@IFDPC?$AA@ 10005368     usc:inst.obj
 0001:00004370       ??_C@_07GALLBODK@IFPSUB8?$AA@ 10005370     usc:inst.obj
 0001:00004378       ??_C@_07JGLDJGJA@IFPADD8?$AA@ 10005378     usc:inst.obj
 0001:00004380       ??_C@_05OLPEMHGE@IFPMA?$AA@ 10005380     usc:inst.obj
 0001:00004388       ??_C@_05DAIMFOJL@ILRP1?$AA@ 10005388     usc:inst.obj
 0001:00004390       ??_C@_05ECHJLDAI@ISOP3?$AA@ 10005390     usc:inst.obj
 0001:00004398       ??_C@_05FLGCICEJ@ISOP2?$AA@ 10005398     usc:inst.obj
 0001:000043a0       ??_C@_06EJAKDDF@ISOPWM?$AA@ 100053a0     usc:inst.obj
 0001:000043a8       ??_C@_04NGIIIKHN@INOP?$AA@ 100053a8     usc:inst.obj
 0001:000043b0       ??_C@_05HEFIDKGH@ISMBO?$AA@ 100053b0     usc:inst.obj
 0001:000043b8       ??_C@_06ECCFMIAK@ISETFC?$AA@ 100053b8     usc:inst.obj
 0001:000043c0       ??_C@_04EFEJLDND@ISMR?$AA@ 100053c0     usc:inst.obj
 0001:000043c8       ??_C@_06HPKHFKK@ISMLSI?$AA@ 100053c8     usc:inst.obj
 0001:000043d0       ??_C@_0M@FOBIOFFC@IDRVPADDING?$AA@ 100053d0     usc:inst.obj
 0001:000043dc       ??_C@_05OIMNNLA@ISAVL?$AA@ 100053dc     usc:inst.obj
 0001:000043e4       ??_C@_05ICGKJOIJ@ISETL?$AA@ 100053e4     usc:inst.obj
 0001:000043ec       ??_C@_05GPCJLNJO@ILAPC?$AA@ 100053ec     usc:inst.obj
 0001:000043f4       ??_C@_06LFIJHEFB@ILABEL?$AA@ 100053f4     usc:inst.obj
 0001:000043fc       ??_C@_05HPNNGMJE@ICALL?$AA@ 100053fc     usc:inst.obj
 0001:00004404       ??_C@_03MDDEFBCM@IBR?$AA@  10005404     usc:inst.obj
 0001:00004408       ??_C@_04MOABNMAD@IRLP?$AA@ 10005408     usc:inst.obj
 0001:00004410       ??_C@_03MLOMMCHP@IOR?$AA@  10005410     usc:inst.obj
 0001:00004414       ??_C@_04JBMMOALM@IXOR?$AA@ 10005414     usc:inst.obj
 0001:0000441c       ??_C@_04KBIHCHEJ@IAND?$AA@ 1000541c     usc:inst.obj
 0001:00004424       ??_C@_04KJOBKCLN@IASR?$AA@ 10005424     usc:inst.obj
 0001:0000442c       ??_C@_04EDICHBDI@ISHR?$AA@ 1000542c     usc:inst.obj
 0001:00004434       ??_C@_04JHMDEOOH@ISHL?$AA@ 10005434     usc:inst.obj
 0001:0000443c       ??_C@_08PHKGJIOA@ISMPGRAD?$AA@ 1000543c     usc:inst.obj
 0001:00004448       ??_C@_0M@JNGNGGOJ@ISMPREPLACE?$AA@ 10005448     usc:inst.obj
 0001:00004454       ??_C@_08LNNNEDJI@ISMPBIAS?$AA@ 10005454     usc:inst.obj
 0001:00004460       ??_C@_04HHHPNBFB@ISMP?$AA@ 10005460     usc:inst.obj
 0001:00004468       ??_C@_08JMCNMCIP@ICOMBC10?$AA@ 10005468     usc:inst.obj
 0001:00004474       ??_C@_0L@BKKPBEBB@IPCKC10F16?$AA@ 10005474     usc:inst.obj
 0001:00004480       ??_C@_0N@KMJHJNGP@IUNPCKF32F16?$AA@ 10005480     usc:inst.obj
 0001:00004490       ??_C@_0N@MLFADKMC@IUNPCKF32S16?$AA@ 10005490     usc:inst.obj
 0001:000044a0       ??_C@_0N@OODLGFBO@IUNPCKF32U16?$AA@ 100054a0     usc:inst.obj
 0001:000044b0       ??_C@_0M@CPPBGAGA@IUNPCKF32S8?$AA@ 100054b0     usc:inst.obj
 0001:000044bc       ??_C@_0M@CLHMBMNC@IUNPCKF32U8?$AA@ 100054bc     usc:inst.obj
 0001:000044c8       ??_C@_0M@DKMNDKHE@IUNPCKF32O8?$AA@ 100054c8     usc:inst.obj
 0001:000044d4       ??_C@_0N@MNBDMKNL@IUNPCKF32C10?$AA@ 100054d4     usc:inst.obj
 0001:000044e4       ??_C@_0L@KADPNPHM@IPCKF16F32?$AA@ 100054e4     usc:inst.obj
 0001:000044f0       ??_C@_0L@MHNHMOBG@IPCKF16F16?$AA@ 100054f0     usc:inst.obj
 0001:000044fc       ??_C@_0N@HDBIDNAJ@IUNPCKF16S16?$AA@ 100054fc     usc:inst.obj
 0001:0000450c       ??_C@_0N@FGHDGCNF@IUNPCKF16U16?$AA@ 1000550c     usc:inst.obj
 0001:0000451c       ??_C@_0M@NKFDKEFH@IUNPCKF16S8?$AA@ 1000551c     usc:inst.obj
 0001:00004528       ??_C@_0M@NONONIOF@IUNPCKF16U8?$AA@ 10005528     usc:inst.obj
 0001:00004534       ??_C@_0M@MPGPPOED@IUNPCKF16O8?$AA@ 10005534     usc:inst.obj
 0001:00004540       ??_C@_0N@HFFLMNBA@IUNPCKF16C10?$AA@ 10005540     usc:inst.obj
 0001:00004550       ??_C@_0L@HNEHAFHL@IPCKC10F32?$AA@ 10005550     usc:inst.obj
 0001:0000455c       ??_C@_0L@HLCLEDKF@IPCKC10C10?$AA@ 1000555c     usc:inst.obj
 0001:00004568       ??_C@_09FFKGHMEC@IPCKU8F32?$AA@ 10005568     usc:inst.obj
 0001:00004574       ??_C@_09DCEOGNCI@IPCKU8F16?$AA@ 10005574     usc:inst.obj
 0001:00004580       ??_C@_0L@INMOFKDI@IUNPCKU8U8?$AA@ 10005580     usc:inst.obj
 0001:0000458c       ??_C@_0N@EGNBDIKH@IUNPCKS16F32?$AA@ 1000558c     usc:inst.obj
 0001:0000459c       ??_C@_0L@PGAJFJCP@IPCKU16F32?$AA@ 1000559c     usc:inst.obj
 0001:000045a8       ??_C@_0N@ECOJBMPH@IUNPCKU16F16?$AA@ 100055a8     usc:inst.obj
 0001:000045b8       ??_C@_0N@EFOEIG@IUNPCKU16U16?$AA@ 100055b8     usc:inst.obj
 0001:000045c8       ??_C@_0M@FLJMKINA@IUNPCKU16U8?$AA@ 100055c8     usc:inst.obj
 0001:000045d4       ??_C@_0M@IJEIDHHP@IUNPCKS16S8?$AA@ 100055d4     usc:inst.obj
 0001:000045e0       ??_C@_05KGKBODJH@IIMAE?$AA@ 100055e0     usc:inst.obj
 0001:000045e8       ??_C@_06LECJPGPN@IIMA16?$AA@ 100055e8     usc:inst.obj
 0001:000045f0       ??_C@_04OLFEMIFO@IWDF?$AA@ 100055f0     usc:inst.obj
 0001:000045f8       ??_C@_04FLJCOIPC@IIDF?$AA@ 100055f8     usc:inst.obj
 0001:00004600       ??_C@_05PDIIHMEN@IELDQ?$AA@ 10005600     usc:inst.obj
 0001:00004608       ??_C@_05MEDNJKFJ@IELDD?$AA@ 10005608     usc:inst.obj
 0001:00004610       ??_C@_05LACDNGLD@ISTLD?$AA@ 10005610     usc:inst.obj
 0001:00004618       ??_C@_05CIKIBHP@ILDLD?$AA@ 10005618     usc:inst.obj
 0001:00004620       ??_C@_05LIPLEFOA@ISTAD?$AA@ 10005620     usc:inst.obj
 0001:00004628       ??_C@_05KFCBCCM@ILDAD?$AA@ 10005628     usc:inst.obj
 0001:00004630       ??_C@_05NBMMJHCB@ISTLW?$AA@ 10005630     usc:inst.obj
 0001:00004638       ??_C@_05GDGFMAON@ILDLW?$AA@ 10005638     usc:inst.obj
 0001:00004640       ??_C@_05NJBEAEHC@ISTAW?$AA@ 10005640     usc:inst.obj
 0001:00004648       ??_C@_05GLLNFDLO@ILDAW?$AA@ 10005648     usc:inst.obj
 0001:00004650       ??_C@_05OGHJHBDF@ISTLB?$AA@ 10005650     usc:inst.obj
 0001:00004658       ??_C@_05FENACGPJ@ILDLB?$AA@ 10005658     usc:inst.obj
 0001:00004660       ??_C@_05OOKBOCGG@ISTAB?$AA@ 10005660     usc:inst.obj
 0001:00004668       ??_C@_05FMAILFKK@ILDAB?$AA@ 10005668     usc:inst.obj
 0001:00004670       ??_C@_0L@HBCKEBHF@ILOADCONST?$AA@ 10005670     usc:inst.obj
 0001:0000467c       ??_C@_09ELIHHLFM@ITESTMASK?$AA@ 1000567c     usc:inst.obj
 0001:00004688       ??_C@_04MDACDIGN@IEFO?$AA@ 10005688     usc:inst.obj
 0001:00004690       ??_C@_08KHAKLILD@IFSUBFLR?$AA@ 10005690     usc:inst.obj
 0001:0000469c       ??_C@_05NLJNBIFK@IFMAX?$AA@ 1000569c     usc:inst.obj
 0001:000046a4       ??_C@_05MJBGPMDF@IFMIN?$AA@ 100056a4     usc:inst.obj
 0001:000046ac       ??_C@_05KACMBBIP@IFDSY?$AA@ 100056ac     usc:inst.obj
 0001:000046b4       ??_C@_05LJDHCAMO@IFDSX?$AA@ 100056b4     usc:inst.obj
 0001:000046bc       ??_C@_05MFAHCCEC@IFEXP?$AA@ 100056bc     usc:inst.obj
 0001:000046c4       ??_C@_05KEOFFMKL@IFLOG?$AA@ 100056c4     usc:inst.obj
 0001:000046cc       ??_C@_05BNIHJDME@IFRSQ?$AA@ 100056cc     usc:inst.obj
 0001:000046d4       ??_C@_05BILKABPF@IFRCP?$AA@ 100056d4     usc:inst.obj
 0001:000046dc       ??_C@_05GIIHBPDD@IFDDP?$AA@ 100056dc     usc:inst.obj
 0001:000046e4       ??_C@_04BPGJENHD@IFDP?$AA@ 100056e4     usc:inst.obj
 0001:000046ec       ??_C@_05FPDPMGFM@IFMSA?$AA@ 100056ec     usc:inst.obj
 0001:000046f4       ??_C@_05KADFIDBN@IFADM?$AA@ 100056f4     usc:inst.obj
 0001:000046fc       ??_C@_05DNOKEFAH@IFMAD?$AA@ 100056fc     usc:inst.obj
 0001:00004704       ??_C@_05OOBMMEKD@IFMUL?$AA@ 10005704     usc:inst.obj
 0001:0000470c       ??_C@_05MAFJMJIB@IFSUB?$AA@ 1000570c     usc:inst.obj
 0001:00004714       ??_C@_05HBPHDIFE@IFADD?$AA@ 10005714     usc:inst.obj
 0001:0000471c       ??_C@_05EPIABINO@IFMOV?$AA@ 1000571c     usc:inst.obj
 0001:00004724       ??_C@_05CAOAIINM@ILIMM?$AA@ 10005724     usc:inst.obj
 0001:0000472c       ??_C@_04JCGHICBF@IMOV?$AA@ 1000572c     usc:inst.obj
 0001:00004734       ??_C@_07DJMIGIHO@Invalid?$AA@ 10005734     usc:inst.obj
 0001:00004740       g_psInstDesc               10005740     usc:inst.obj
 0001:000063b0       ??_C@_0DI@PJFNKDJK@C?3?2WinCE?2OMAP?2DDK1?45?2eurasia?2too@ 100073b0     usc:inst.obj
 0001:00006408       ??_C@_0DL@CONPCOHF@C?3?2WinCE?2OMAP?2DDK1?45?2eurasia?2too@ 10007408     usc:iselect.obj
 0001:00006444       ??_C@_0DK@KGKLNNJA@C?3?2WinCE?2OMAP?2DDK1?45?2eurasia?2too@ 10007444     usc:intcvt.obj
 0001:000064b8       ??_C@_0DK@OJOGAIBB@C?3?2WinCE?2OMAP?2DDK1?45?2eurasia?2too@ 100074b8     usc:uspbin.obj
 0001:000064f4       ??_C@_0CI@HIPBGDKP@Failed?5to?5alloc?5space?5for?5USP?5PC@ 100074f4     usc:uspbin.obj
 0001:0000651c       ??_C@_0DL@FPPLJLIJ@C?3?2WinCE?2OMAP?2DDK1?45?2eurasia?2too@ 1000751c     usc:regpack.obj
 0001:00006558       ??_C@_0DM@GGMBHHBI@C?3?2WinCE?2OMAP?2DDK1?45?2eurasia?2too@ 10007558     usc:finalise.obj
 0001:000065a4       ??_C@_0DM@BOMHCCGI@C?3?2WinCE?2OMAP?2DDK1?45?2eurasia?2too@ 100075a4     usc:regalloc.obj
 0001:000065e0       ??_C@_0DN@EJFCDDCM@C?3?2WinCE?2OMAP?2DDK1?45?2eurasia?2too@ 100075e0     usc:iregalloc.obj
 0001:00006620       ??_C@_0CA@JOBGIMJA@Can?8t?5assign?5internal?5registers?$AA@ 10007620     usc:iregalloc.obj
 0001:00006640       ??_C@_0DN@NIODOEEB@C?3?2WinCE?2OMAP?2DDK1?45?2eurasia?2too@ 10007640     usc:pregalloc.obj
 0001:00006680       ??_C@_04GHFGAMGM@BEEF?$AA@ 10007680     usc:efo.obj
 0001:00006688       ??_C@_04CAPGHGLM@AEEF?$AA@ 10007688     usc:efo.obj
 0001:00006690       ??_C@_04BMCBJMBE@AFBE?$AA@ 10007690     usc:efo.obj
 0001:00006698       ??_C@_04CFLJGADJ@AEBF?$AA@ 10007698     usc:efo.obj
 0001:000066a0       ??_C@_03MIIOGCGK@FBC?$AA@  100076a0     usc:efo.obj
 0001:000066a4       ??_C@_03MKMINMDD@FAC?$AA@  100076a4     usc:efo.obj
 0001:000066a8       ??_C@_03NKDLMNIE@EBC?$AA@  100076a8     usc:efo.obj
 0001:000066ac       ??_C@_03NIHNHDNN@EAC?$AA@  100076ac     usc:efo.obj
 0001:000066b0       ??_C@_04GDNLHANO@BECF?$AA@ 100076b0     usc:efo.obj
 0001:000066b8       ??_C@_04CEHLAKAO@AECF?$AA@ 100076b8     usc:efo.obj
 0001:000066c0       ??_C@_03EFKKELGE@BAC?$AA@  100076c0     usc:efo.obj
 0001:000066c4       ??_C@_03FFFJFKND@ABC?$AA@  100076c4     usc:efo.obj
 0001:000066c8       ??_C@_02MJNHLAAE@EG?$AA@   100076c8     usc:efo.obj
 0001:000066cc       ??_C@_03BGNCNGMO@A?9C?$AA@ 100076cc     usc:efo.obj
 0001:000066d0       ??_C@_03EGHHJCA@B?9C?$AA@  100076d0     usc:efo.obj
 0001:000066d4       ??_C@_02MLJBAOFN@FG?$AA@   100076d4     usc:efo.obj
 0001:000066d8       ??_C@_03PNNMIEJN@E?9G?$AA@ 100076d8     usc:efo.obj
 0001:000066dc       ??_C@_02KKLCNNNM@AC?$AA@   100076dc     usc:efo.obj
 0001:000066e0       ??_C@_03OPGJCLHD@F?9G?$AA@ 100076e0     usc:efo.obj
 0001:000066e4       ??_C@_02KIPEGDIF@BC?$AA@   100076e4     usc:efo.obj
 0001:000066e8       ??_C@_03HAJFIBDK@BEA?$AA@  100076e8     usc:efo.obj
 0001:000066ec       ??_C@_03HCNDDPGD@BFA?$AA@  100076ec     usc:efo.obj
 0001:000066f0       ??_C@_03EJANHNBH@AEB?$AA@  100076f0     usc:efo.obj
 0001:000066f4       ??_C@_03ELELMDEO@AFB?$AA@  100076f4     usc:efo.obj
 0001:000066f8       ??_C@_02IPBDCKJM@?9G?$AA@  100076f8     usc:efo.obj
 0001:000066fc       ??_C@_02OLHPOPJI@?9C?$AA@  100076fc     usc:efo.obj
 0001:00006700       ??_C@_01BBODEMC@G?$AA@     10007700     usc:efo.obj
 0001:00006704       ??_C@_03JNKHJILP@_EF?$AA@  10007704     usc:efo.obj
 0001:00006708       ??_C@_02NJEJINBK@?9A?$AA@  10007708     usc:efo.obj
 0001:0000670c       ??_C@_03MIGDBDOF@F1E?$AA@  1000770c     usc:efo.obj
 0001:00006710       ??_C@_02PCGENONJ@?9B?$AA@  10007710     usc:efo.obj
 0001:00006714       ??_C@_03PBPLOPMI@E1F?$AA@  10007714     usc:efo.obj
 0001:00006718       ??_C@_02LNCFEIBO@?9E?$AA@  10007718     usc:efo.obj
 0001:0000671c       ??_C@_03CDGNEBLG@B1A?$AA@  1000771c     usc:efo.obj
 0001:00006720       ??_C@_02JGAIBLNN@?9F?$AA@  10007720     usc:efo.obj
 0001:00006724       ??_C@_03BKPFLNJL@A1B?$AA@  10007724     usc:efo.obj
 0001:00006728       ??_C@_03MBGGECJM@EAB?$AA@  10007728     usc:efo.obj
 0001:0000672c       ??_C@_02NAMMIBEF@EF?$AA@   1000772c     usc:efo.obj
 0001:00006730       ??_C@_03CNGBLIBD@AEF?$AA@  10007730     usc:efo.obj
 0001:00006734       ??_C@_02LDKJOMJN@AB?$AA@   10007734     usc:efo.obj
 0001:00006738       ??_C@_03BDPAOMOC@BAE?$AA@  10007738     usc:efo.obj
 0001:0000673c       ??_C@_02NFIDJHMA@BF?$AA@   1000773c     usc:efo.obj
 0001:00006740       ??_C@_03DINNLPCB@BAF?$AA@  10007740     usc:efo.obj
 0001:00006744       ??_C@_02POKOMEAD@BE?$AA@   10007744     usc:efo.obj
 0001:00006748       ??_C@_03DADPNFF@ABE?$AA@   10007748     usc:efo.obj
 0001:0000674c       ??_C@_02NHMFCJJJ@AF?$AA@   1000774c     usc:efo.obj
 0001:00006750       ??_C@_03CICOKOJG@ABF?$AA@  10007750     usc:efo.obj
 0001:00006754       ??_C@_02PMOIHKFK@AE?$AA@   10007754     usc:efo.obj
 0001:00006758       ??_C@_03KGJCAALM@BF_?$AA@  10007758     usc:efo.obj
 0001:0000675c       ??_C@_03KENELOOF@BE_?$AA@  1000775c     usc:efo.obj
 0001:00006760       ??_C@_03LECHKPFC@AF_?$AA@  10007760     usc:efo.obj
 0001:00006764       ??_C@_03LGGBBBAL@AE_?$AA@  10007764     usc:efo.obj
 0001:00006768       ??_C@_03COPJDPDH@FB_?$AA@  10007768     usc:efo.obj
 0001:0000676c       ??_C@_01FHEEJDEE@A?$AA@    1000776c     usc:efo.obj
 0001:00006770       ??_C@_03DMEMJANJ@EB_?$AA@  10007770     usc:efo.obj
 0001:00006774       ??_C@_01DDCIFGEA@E?$AA@    10007774     usc:efo.obj
 0001:00006778       ??_C@_03CMLPIBGO@FA_?$AA@  10007778     usc:efo.obj
 0001:0000677c       ??_C@_01BIAFAFID@F?$AA@    1000777c     usc:efo.obj
 0001:00006780       ??_C@_01HMGJMAIH@B?$AA@    10007780     usc:efo.obj
 0001:00006784       ??_C@_03DOAKCOIA@EA_?$AA@  10007784     usc:efo.obj
 0001:00007348       ??_C@_0DH@EJEGDMMN@C?3?2WinCE?2OMAP?2DDK1?45?2eurasia?2too@ 10008348     usc:efo.obj
 0001:00007380       ??_C@_0DK@NOACKCKA@C?3?2WinCE?2OMAP?2DDK1?45?2eurasia?2too@ 10008380     usc:f16opt.obj
 0001:000073bc       ??_C@_0DH@NEBGLCIK@C?3?2WinCE?2OMAP?2DDK1?45?2eurasia?2too@ 100083bc     usc:ssa.obj
 0001:00007470       ??_C@_0DN@CCHOCDJP@C?3?2WinCE?2OMAP?2DDK1?45?2eurasia?2too@ 10008470     usc:icvt_core.obj
 0001:000074b0       ??_C@_0CK@IIKBJMGF@Texture?5dimensionality?5must?5be?51@ 100084b0     usc:icvt_core.obj
 0001:000074e0       ??_C@_0EG@PONEANLB@Destination?5modifiers?5on?5texture@ 100084e0     usc:icvt_core.obj
 0001:00007528       ??_C@_0DF@BEHGFGAJ@Pixelflex?5only?5supports?5texture?5@ 10008528     usc:icvt_core.obj
 0001:00007560       ??_C@_0CI@BNIJLCI@?$HLIF?1BREAK?1CALL?$HNP?5with?5invalid?5sw@ 10008560     usc:icvt_core.obj
 0001:00007588       ??_C@_0DI@IPLDEMFP@if?5source?5argument?5must?5be?5eithe@ 10008588     usc:icvt_core.obj
 0001:000075c0       ??_C@_0CM@FBJPAGGL@if?5source?5argument?5must?5be?5a?5boo@ 100085c0     usc:icvt_core.obj
 0001:000075ec       ??_C@_0BF@MFMPPLG@No?5loop?5terminator?4?6?$AA@ 100085ec     usc:icvt_core.obj
 0001:00007604       ??_C@_0O@MNLANCOH@MAIN?5FUNCTION?$AA@ 10008604     usc:icvt_core.obj
 0001:00007614       ??_C@_0BB@FLLMPGAP@SECONDARY?5UPDATE?$AA@ 10008614     usc:icvt_core.obj
 0001:000076b8       ??_C@_0DK@GEKJFBBI@C?3?2WinCE?2OMAP?2DDK1?45?2eurasia?2too@ 100086b8     usc:layout.obj
 0001:000076f4       ??_C@_0CG@HHEEPOEO@Error?5generating?5subroutine?5USSE@ 100086f4     usc:layout.obj
 0001:0000771c       ??_C@_0CA@BIADDCMB@Error?5generating?5main?5USSE?5code?$AA@ 1000871c     usc:layout.obj
 0001:0000773c       ??_C@_0CF@PJEBCOKN@Error?5generating?5SA?9update?5USSE?5@ 1000873c     usc:layout.obj
 0001:00007770       ??_C@_0DH@NANOKOKC@C?3?2WinCE?2OMAP?2DDK1?45?2eurasia?2too@ 10008770     usc:asm.obj
 0001:000077a8       ??_C@_0DM@CHKIKECB@C?3?2WinCE?2OMAP?2DDK1?45?2eurasia?2too@ 100087a8     usc:icvt_c10.obj
 0001:000077e4       ??_C@_0DM@KHKMKOHJ@C?3?2WinCE?2OMAP?2DDK1?45?2eurasia?2too@ 100087e4     usc:icvt_f32.obj
 0001:00007820       ??_C@_0CM@FKMLGAIF@LDBUF?5not?5supported?5for?5USP?5Bina@ 10008820     usc:icvt_f32.obj
 0001:0000785c       ??_C@_0DM@FCAOGKEO@C?3?2WinCE?2OMAP?2DDK1?45?2eurasia?2too@ 1000885c     usc:icvt_f16.obj
 0001:00007898       ??_C@_0DM@FGPKBMKM@C?3?2WinCE?2OMAP?2DDK1?45?2eurasia?2too@ 10008898     usc:icvt_i32.obj
 0001:000078d4       ??_C@_0DL@DIKHIELF@C?3?2WinCE?2OMAP?2DDK1?45?2eurasia?2too@ 100088d4     usc:precovr.obj
 0001:00007910       ??_C@_0BK@FGDIKLKK@Invalid?5program?5structure?$AA@ 10008910     usc:precovr.obj
 0001:0000792c       ??_C@_06CMDGOKBM@SGX545?$AA@ 1000892c     useasm:utils.obj
 0001:00007934       ??_C@_06HKGMENJK@SGX543?$AA@ 10008934     useasm:utils.obj
 0001:0000793c       ??_C@_06EIFKCPBI@SGX541?$AA@ 1000893c     useasm:utils.obj
 0001:00007944       ??_C@_06FBEBBOFJ@SGX540?$AA@ 10008944     useasm:utils.obj
 0001:0000794c       ??_C@_06CJHJPMJJ@SGX535?$AA@ 1000894c     useasm:utils.obj
 0001:00007954       ??_C@_06ENBFDJJN@SGX531?$AA@ 10008954     useasm:utils.obj
 0001:0000795c       ??_C@_06FEAOAINM@SGX530?$AA@ 1000895c     useasm:utils.obj
 0001:00007964       ??_C@_06FFMMGCOL@SGX520?$AA@ 10008964     useasm:utils.obj
 0001:00007c40       ??_C@_07KHFILGPJ@isubu32?$AA@ 10008c40     useasm:usetab.obj
 0001:00007c48       ??_C@_06JKELAJFH@isub32?$AA@ 10008c48     useasm:usetab.obj
 0001:00007c50       ??_C@_05NCHGGDHJ@sprvv?$AA@ 10008c50     useasm:usetab.obj
 0001:00007c58       ??_C@_06HFBPFKMP@idxscw?$AA@ 10008c58     useasm:usetab.obj
 0001:00007c60       ??_C@_06IGIKOIK@idxscr?$AA@ 10008c60     useasm:usetab.obj
 0001:00007c68       ??_C@_0L@JLOMIJPI@vpckc10c10?$AA@ 10008c68     useasm:usetab.obj
 0001:00007c74       ??_C@_0L@JNIAMPCG@vpckc10f32?$AA@ 10008c74     useasm:usetab.obj
 0001:00007c80       ??_C@_0L@PKGINOEM@vpckc10f16?$AA@ 10008c80     useasm:usetab.obj
 0001:00007c8c       ??_C@_0L@PONMFEDE@vpckf32c10?$AA@ 10008c8c     useasm:usetab.obj
 0001:00007c98       ??_C@_0L@PILABCOK@vpckf32f32?$AA@ 10008c98     useasm:usetab.obj
 0001:00007ca4       ??_C@_0L@JPFIADIA@vpckf32f16?$AA@ 10008ca4     useasm:usetab.obj
 0001:00007cb0       ??_C@_0L@PIJPKECN@vpckf32s16?$AA@ 10008cb0     useasm:usetab.obj
 0001:00007cbc       ??_C@_0L@NNPEPLPB@vpckf32u16?$AA@ 10008cbc     useasm:usetab.obj
 0001:00007cc8       ??_C@_09PGEODABJ@vpckf32o8?$AA@ 10008cc8     useasm:usetab.obj
 0001:00007cd4       ??_C@_09ODHCGKAN@vpckf32s8?$AA@ 10008cd4     useasm:usetab.obj
 0001:00007ce0       ??_C@_09OHPPBGLP@vpckf32u8?$AA@ 10008ce0     useasm:usetab.obj
 0001:00007cec       ??_C@_0L@EGJEFDPP@vpckf16c10?$AA@ 10008cec     useasm:usetab.obj
 0001:00007cf8       ??_C@_0L@EAPIBFCB@vpckf16f32?$AA@ 10008cf8     useasm:usetab.obj
 0001:00007d04       ??_C@_0L@CHBAAEEL@vpckf16f16?$AA@ 10008d04     useasm:usetab.obj
 0001:00007d10       ??_C@_0L@EANHKDOG@vpckf16s16?$AA@ 10008d10     useasm:usetab.obj
 0001:00007d1c       ??_C@_0L@GFLMPMDK@vpckf16u16?$AA@ 10008d1c     useasm:usetab.obj
 0001:00007d28       ??_C@_09DOMPECO@vpckf16o8?$AA@ 10008d28     useasm:usetab.obj
 0001:00007d34       ??_C@_09BGNAKODK@vpckf16s8?$AA@ 10008d34     useasm:usetab.obj
 0001:00007d40       ??_C@_09BCFNNCII@vpckf16u8?$AA@ 10008d40     useasm:usetab.obj
 0001:00007d4c       ??_C@_0L@HFBOKGEI@vpcks16f32?$AA@ 10008d4c     useasm:usetab.obj
 0001:00007d58       ??_C@_0L@BCPGLHCC@vpcks16f16?$AA@ 10008d58     useasm:usetab.obj
 0001:00007d64       ??_C@_0L@HFDBBAIP@vpcks16s16?$AA@ 10008d64     useasm:usetab.obj
 0001:00007d70       ??_C@_0L@FAFKEPFD@vpcks16u16?$AA@ 10008d70     useasm:usetab.obj
 0001:00007d7c       ??_C@_09FAPHGHAG@vpcks16o8?$AA@ 10008d7c     useasm:usetab.obj
 0001:00007d88       ??_C@_09EFMLDNBC@vpcks16s8?$AA@ 10008d88     useasm:usetab.obj
 0001:00007d94       ??_C@_09EBEGEBKA@vpcks16u8?$AA@ 10008d94     useasm:usetab.obj
 0001:00007da0       ??_C@_0L@BGMOJDHC@vpcku16f32?$AA@ 10008da0     useasm:usetab.obj
 0001:00007dac       ??_C@_0L@HBCGICBI@vpcku16f16?$AA@ 10008dac     useasm:usetab.obj
 0001:00007db8       ??_C@_0L@BGOBCFLF@vpcku16s16?$AA@ 10008db8     useasm:usetab.obj
 0001:00007dc4       ??_C@_0L@DDIKHKGJ@vpcku16u16?$AA@ 10008dc4     useasm:usetab.obj
 0001:00007dd0       ??_C@_09IGKOIEBL@vpcku16o8?$AA@ 10008dd0     useasm:usetab.obj
 0001:00007ddc       ??_C@_09JDJCNOAP@vpcku16s8?$AA@ 10008ddc     useasm:usetab.obj
 0001:00007de8       ??_C@_09JHBPKCLN@vpcku16u8?$AA@ 10008de8     useasm:usetab.obj
 0001:00007df4       ??_C@_09HNLHPHGL@vpcko8f32?$AA@ 10008df4     useasm:usetab.obj
 0001:00007e00       ??_C@_09BKFPOGAB@vpcko8f16?$AA@ 10008e00     useasm:usetab.obj
 0001:00007e0c       ??_C@_09HNJIEBKM@vpcko8s16?$AA@ 10008e0c     useasm:usetab.obj
 0001:00007e18       ??_C@_09FIPDBOHA@vpcko8u16?$AA@ 10008e18     useasm:usetab.obj
 0001:00007e24       ??_C@_08JEJLGJEL@vpcko8o8?$AA@ 10008e24     useasm:usetab.obj
 0001:00007e30       ??_C@_08IBKHDDFP@vpcko8s8?$AA@ 10008e30     useasm:usetab.obj
 0001:00007e3c       ??_C@_08IFCKEPON@vpcko8u8?$AA@ 10008e3c     useasm:usetab.obj
 0001:00007e48       ??_C@_09JKDDFIL@vpcks8f32?$AA@ 10008e48     useasm:usetab.obj
 0001:00007e54       ??_C@_09GOELCEOB@vpcks8f16?$AA@ 10008e54     useasm:usetab.obj
 0001:00007e60       ??_C@_09JIMIDEM@vpcks8s16?$AA@ 10008e60     useasm:usetab.obj
 0001:00007e6c       ??_C@_09CMOHNMJA@vpcks8u16?$AA@ 10008e6c     useasm:usetab.obj
 0001:00007e78       ??_C@_08DBILBDMI@vpcks8o8?$AA@ 10008e78     useasm:usetab.obj
 0001:00007e84       ??_C@_08CELHEJNM@vpcks8s8?$AA@ 10008e84     useasm:usetab.obj
 0001:00007e90       ??_C@_08CADKDFGO@vpcks8u8?$AA@ 10008e90     useasm:usetab.obj
 0001:00007e9c       ??_C@_09NPPKNGJG@vpcku8f32?$AA@ 10008e9c     useasm:usetab.obj
 0001:00007ea8       ??_C@_09LIBCMHPM@vpcku8f16?$AA@ 10008ea8     useasm:usetab.obj
 0001:00007eb4       ??_C@_09NPNFGAFB@vpcku8s16?$AA@ 10008eb4     useasm:usetab.obj
 0001:00007ec0       ??_C@_09PKLODPIN@vpcku8u16?$AA@ 10008ec0     useasm:usetab.obj
 0001:00007ecc       ??_C@_08LOMLOGGI@vpcku8o8?$AA@ 10008ecc     useasm:usetab.obj
 0001:00007ed8       ??_C@_08KLPHLMHM@vpcku8s8?$AA@ 10008ed8     useasm:usetab.obj
 0001:00007ee4       ??_C@_08KPHKMAMO@vpcku8u8?$AA@ 10008ee4     useasm:usetab.obj
 0001:00007ef0       ??_C@_04DGGKFKKC@vexp?$AA@ 10008ef0     useasm:usetab.obj
 0001:00007ef8       ??_C@_04FHIICEEL@vlog?$AA@ 10008ef8     useasm:usetab.obj
 0001:00007f00       ??_C@_04OOOKOLCE@vrsq?$AA@ 10008f00     useasm:usetab.obj
 0001:00007f08       ??_C@_04OLNHHJBF@vrcp?$AA@ 10008f08     useasm:usetab.obj
 0001:00007f10       ??_C@_07IFLIPEJM@vf16sub?$AA@ 10008f10     useasm:usetab.obj
 0001:00007f18       ??_C@_06BKGGAFJG@vf16dp?$AA@ 10008f18     useasm:usetab.obj
 0001:00007f20       ??_C@_07JOHMCFEH@vf16max?$AA@ 10008f20     useasm:usetab.obj
 0001:00007f28       ??_C@_07IMPHMBCI@vf16min?$AA@ 10008f28     useasm:usetab.obj
 0001:00007f30       ??_C@_07OFMNCMJC@vf16dsy?$AA@ 10008f30     useasm:usetab.obj
 0001:00007f38       ??_C@_07PMNGBNND@vf16dsx?$AA@ 10008f38     useasm:usetab.obj
 0001:00007f40       ??_C@_07POCLHEPF@vf16frc?$AA@ 10008f40     useasm:usetab.obj
 0001:00007f48       ??_C@_07DEBGAFEJ@vf16add?$AA@ 10008f48     useasm:usetab.obj
 0001:00007f50       ??_C@_07KLPNPJLO@vf16mul?$AA@ 10008f50     useasm:usetab.obj
 0001:00007f58       ??_C@_07HIALHIBK@vf16mad?$AA@ 10008f58     useasm:usetab.obj
 0001:00007f60       ??_C@_04DDDELBGB@vsub?$AA@ 10008f60     useasm:usetab.obj
 0001:00007f68       ??_C@_03PAAOMFKJ@vdp?$AA@  10008f68     useasm:usetab.obj
 0001:00007f6c       ??_C@_04FDEBGJGP@vdsy?$AA@ 10008f6c     useasm:usetab.obj
 0001:00007f74       ??_C@_04EKFKFICO@vdsx?$AA@ 10008f74     useasm:usetab.obj
 0001:00007f7c       ??_C@_04CIPAGALK@vmax?$AA@ 10008f7c     useasm:usetab.obj
 0001:00007f84       ??_C@_04DKHLIENF@vmin?$AA@ 10008f84     useasm:usetab.obj
 0001:00007f8c       ??_C@_04EIKHDBAI@vfrc?$AA@ 10008f8c     useasm:usetab.obj
 0001:00007f94       ??_C@_04ICJKEALE@vadd?$AA@ 10008f94     useasm:usetab.obj
 0001:00007f9c       ??_C@_04BNHBLMED@vmul?$AA@ 10008f9c     useasm:usetab.obj
 0001:00007fa4       ??_C@_04MOIHDNOH@vmad?$AA@ 10008fa4     useasm:usetab.obj
 0001:00007fac       ??_C@_07PJIFHDOJ@vmovcu8?$AA@ 10008fac     useasm:usetab.obj
 0001:00007fb4       ??_C@_05IPANMIKP@vmovc?$AA@ 10008fb4     useasm:usetab.obj
 0001:00007fbc       ??_C@_04LMONGADO@vmov?$AA@ 10008fbc     useasm:usetab.obj
 0001:00007fc4       ??_C@_05HKPHADDM@vmov4?$AA@ 10008fc4     useasm:usetab.obj
 0001:00007fcc       ??_C@_05DFLGJFPL@vmov3?$AA@ 10008fcc     useasm:usetab.obj
 0001:00007fd4       ??_C@_05LKKHNEHN@vssq4?$AA@ 10008fd4     useasm:usetab.obj
 0001:00007fdc       ??_C@_05PFOGECLK@vssq3?$AA@ 10008fdc     useasm:usetab.obj
 0001:00007fe4       ??_C@_05IBKMJGII@vsub4?$AA@ 10008fe4     useasm:usetab.obj
 0001:00007fec       ??_C@_05MOONAAEP@vsub3?$AA@ 10008fec     useasm:usetab.obj
 0001:00007ff4       ??_C@_05HHKEBOCC@vadd4?$AA@ 10008ff4     useasm:usetab.obj
 0001:00007ffc       ??_C@_05DIOFIIOF@vadd3?$AA@ 10008ffc     useasm:usetab.obj
 0001:00008004       ??_C@_05FEOCJCGB@vmul4?$AA@ 10009004     useasm:usetab.obj
 0001:0000800c       ??_C@_05BLKDAEKG@vmul3?$AA@ 1000900c     useasm:usetab.obj
 0001:00008014       ??_C@_05IFIKADBB@vmad4?$AA@ 10009014     useasm:usetab.obj
 0001:0000801c       ??_C@_05MKMLJFNG@vmad3?$AA@ 1000901c     useasm:usetab.obj
 0001:00008024       ??_C@_04BENAOGHO@vdp4?$AA@ 10009024     useasm:usetab.obj
 0001:0000802c       ??_C@_04FLJBHALJ@vdp3?$AA@ 1000902c     useasm:usetab.obj
 0001:00008034       ??_C@_09NODGMHNE@emitvcbst?$AA@ 10009034     useasm:usetab.obj
 0001:00008040       ??_C@_0L@FBFICDMG@emitvcbvtx?$AA@ 10009040     useasm:usetab.obj
 0001:0000804c       ??_C@_09PIDAEGKH@emitmtest?$AA@ 1000904c     useasm:usetab.obj
 0001:00008058       ??_C@_0L@JIHCAFMB@emitmtevtx?$AA@ 10009058     useasm:usetab.obj
 0001:00008064       ??_C@_03PENBPHC@cfi?$AA@   10009064     useasm:usetab.obj
 0001:00008068       ??_C@_02POBAIDHK@ci?$AA@   10009068     useasm:usetab.obj
 0001:0000806c       ??_C@_02HJIIJPLF@cf?$AA@   1000906c     useasm:usetab.obj
 0001:00008070       ??_C@_05PACJMPIO@moest?$AA@ 10009070     useasm:usetab.obj
 0001:00008078       ??_C@_06FOOALFNH@fnrm16?$AA@ 10009078     useasm:usetab.obj
 0001:00008080       ??_C@_06DJAIKELN@fnrm32?$AA@ 10009080     useasm:usetab.obj
 0001:00008088       ??_C@_06KNGBBCNH@sablnd?$AA@ 10009088     useasm:usetab.obj
 0001:00008090       ??_C@_06DPIIDNJL@fpsub8?$AA@ 10009090     useasm:usetab.obj
 0001:00008098       ??_C@_06MJIALFDB@fpadd8?$AA@ 10009098     useasm:usetab.obj
 0001:000080a0       ??_C@_06OKMGDJHC@fpmul8?$AA@ 100090a0     useasm:usetab.obj
 0001:000080a8       ??_C@_06BELDBAKP@isubu8?$AA@ 100090a8     useasm:usetab.obj
 0001:000080b0       ??_C@_06CCEGFCNB@iaddu8?$AA@ 100090b0     useasm:usetab.obj
 0001:000080b8       ??_C@_04HIHJCIAG@fpma?$AA@ 100090b8     useasm:usetab.obj
 0001:000080c0       ??_C@_06BODAOOPP@movmsk?$AA@ 100090c0     useasm:usetab.obj
 0001:000080c8       ??_C@_04CFJGHAMN@movc?$AA@ 100090c8     useasm:usetab.obj
 0001:000080d0       ??_C@_07BANDBPIA@iaddu32?$AA@ 100090d0     useasm:usetab.obj
 0001:000080d8       ??_C@_06DBFEDEDN@imov16?$AA@ 100090d8     useasm:usetab.obj
 0001:000080e0       ??_C@_06MNLAAEHH@imulu8?$AA@ 100090e0     useasm:usetab.obj
 0001:000080e8       ??_C@_05KNHGNCD@imul8?$AA@ 100090e8     useasm:usetab.obj
 0001:000080f0       ??_C@_05NPJJGJMK@isub8?$AA@ 100090f0     useasm:usetab.obj
 0001:000080f8       ??_C@_05CJJBOBGA@iadd8?$AA@ 100090f8     useasm:usetab.obj
 0001:00008100       ??_C@_06KMLOELCJ@iadd32?$AA@ 10009100     useasm:usetab.obj
 0001:00008108       ??_C@_07EIGBPOGB@imulu16?$AA@ 10009108     useasm:usetab.obj
 0001:00008110       ??_C@_07MALAKHJD@isubu16?$AA@ 10009110     useasm:usetab.obj
 0001:00008118       ??_C@_07HHDLAOOK@iaddu16?$AA@ 10009118     useasm:usetab.obj
 0001:00008120       ??_C@_06CEKAAMOF@imul16?$AA@ 10009120     useasm:usetab.obj
 0001:00008128       ??_C@_06PNKDBIDN@isub16?$AA@ 10009128     useasm:usetab.obj
 0001:00008130       ??_C@_06MLFGFKED@iadd16?$AA@ 10009130     useasm:usetab.obj
 0001:00008138       ??_C@_05OJCDMDMI@asop2?$AA@ 10009138     useasm:usetab.obj
 0001:00008140       ??_C@_04BNKIMGJI@lrp2?$AA@ 10009140     useasm:usetab.obj
 0001:00008148       ??_C@_04DGIFJFFL@lrp1?$AA@ 10009148     useasm:usetab.obj
 0001:00008150       ??_C@_04JEDFNLGM@alrp?$AA@ 10009150     useasm:usetab.obj
 0001:00008158       ??_C@_05BLLJMLJF@arsop?$AA@ 10009158     useasm:usetab.obj
 0001:00008160       ??_C@_04IILBKMIG@asop?$AA@ 10009160     useasm:usetab.obj
 0001:00008168       ??_C@_04OBPEPKPD@asub?$AA@ 10009168     useasm:usetab.obj
 0001:00008170       ??_C@_04FAFKALCG@aadd?$AA@ 10009170     useasm:usetab.obj
 0001:00008178       ??_C@_07NOKJPFJG@aintrp2?$AA@ 10009178     useasm:usetab.obj
 0001:00008180       ??_C@_07PFIEKGFF@aintrp1?$AA@ 10009180     useasm:usetab.obj
 0001:00008188       ??_C@_04HDJKLMOD@phas?$AA@ 10009188     useasm:usetab.obj
 0001:00008190       ??_C@_04IPMEAKK@setm?$AA@  10009190     useasm:usetab.obj
 0001:00008198       ??_C@_03EEOHENCN@wop?$AA@  10009198     useasm:usetab.obj
 0001:0000819c       ??_C@_06CNLPFHCD@depthf?$AA@ 1000919c     useasm:usetab.obj
 0001:000081a4       ??_C@_05LMCKLHKJ@atst8?$AA@ 100091a4     useasm:usetab.obj
 0001:000081ac       ??_C@_05FFPFIJHE@ptoff?$AA@ 100091ac     useasm:usetab.obj
 0001:000081b4       ??_C@_06GIPMBBEA@pcoeff?$AA@ 100091b4     useasm:usetab.obj
 0001:000081bc       ??_C@_03OJMAPEGJ@str?$AA@  100091bc     useasm:usetab.obj
 0001:000081c0       ??_C@_03PNJMBANA@ldr?$AA@  100091c0     useasm:usetab.obj
 0001:000081c4       ??_C@_07KLENHKKM@fsubflr?$AA@ 100091c4     useasm:usetab.obj
 0001:000081cc       ??_C@_07EOGFDLKI@release?$AA@ 100091cc     useasm:usetab.obj
 0001:000081d4       ??_C@_04MKMCLCOO@lock?$AA@ 100091d4     useasm:usetab.obj
 0001:000081dc       ??_C@_06OPKGODIN@fddpc4?$AA@ 100091dc     useasm:usetab.obj
 0001:000081e4       ??_C@_06KAOHHFEK@fddpc3?$AA@ 100091e4     useasm:usetab.obj
 0001:000081ec       ??_C@_05FCEHFDPG@fddpc?$AA@ 100091ec     useasm:usetab.obj
 0001:000081f4       ??_C@_05KHLNJIGF@fddp4?$AA@ 100091f4     useasm:usetab.obj
 0001:000081fc       ??_C@_05OIPMAOKC@fddp3?$AA@ 100091fc     useasm:usetab.obj
 0001:00008204       ??_C@_04PLAKPAFB@fddp?$AA@ 10009204     useasm:usetab.obj
 0001:0000820c       ??_C@_05GGKGEFIE@fdpc4?$AA@ 1000920c     useasm:usetab.obj
 0001:00008214       ??_C@_05CJOHNDED@fdpc3?$AA@ 10009214     useasm:usetab.obj
 0001:0000821c       ??_C@_04IBMKLKGP@fdpc?$AA@ 1000921c     useasm:usetab.obj
 0001:00008224       ??_C@_04HEDAHBPM@fdp4?$AA@ 10009224     useasm:usetab.obj
 0001:0000822c       ??_C@_04DLHBOHDL@fdp3?$AA@ 1000922c     useasm:usetab.obj
 0001:00008234       ??_C@_05HEIOGBDD@setfc?$AA@ 10009234     useasm:usetab.obj
 0001:0000823c       ??_C@_03DKPPLHHB@imo?$AA@  1000923c     useasm:usetab.obj
 0001:00008240       ??_C@_04OHNFNFAF@smbo?$AA@ 10009240     useasm:usetab.obj
 0001:00008248       ??_C@_05DBFBNMJD@smlsi?$AA@ 10009248     useasm:usetab.obj
 0001:00008250       ??_C@_03PKDHGMJG@smr?$AA@  10009250     useasm:usetab.obj
 0001:00008254       ??_C@_04HBIOGLNI@smoa?$AA@ 10009254     useasm:usetab.obj
 0001:0000825c       ??_C@_06EOEAAGLO@u16tnz?$AA@ 1000925c     useasm:usetab.obj
 0001:00008264       ??_C@_05NKPLKFJF@u16tz?$AA@ 10009264     useasm:usetab.obj
 0001:0000826c       ??_C@_04FMGLMKJC@ftnz?$AA@ 1000926c     useasm:usetab.obj
 0001:00008274       ??_C@_03EGNONJMM@ftz?$AA@  10009274     useasm:usetab.obj
 0001:00008278       ??_C@_03GJPGFFDI@nop?$AA@  10009278     useasm:usetab.obj
 0001:0000827c       ??_C@_03FGBGECCC@dma?$AA@  1000927c     useasm:usetab.obj
 0001:00008280       ??_C@_03ODCMFNNH@sms?$AA@  10009280     useasm:usetab.obj
 0001:00008284       ??_C@_03BJDMMCMD@ams?$AA@  10009284     useasm:usetab.obj
 0001:00008288       ??_C@_03DHGNGCAI@smm?$AA@  10009288     useasm:usetab.obj
 0001:0000828c       ??_C@_03MNHNPNBM@amm?$AA@  1000928c     useasm:usetab.obj
 0001:00008290       ??_C@_03JEAJBGIL@sda?$AA@  10009290     useasm:usetab.obj
 0001:00008294       ??_C@_03DILMFJIH@sdm?$AA@  10009294     useasm:usetab.obj
 0001:00008298       ??_C@_07KLCMLLPD@setpneq?$AA@ 10009298     useasm:usetab.obj
 0001:000082a0       ??_C@_07DCGPGNGK@setplte?$AA@ 100092a0     useasm:usetab.obj
 0001:000082a8       ??_C@_06IKNJBMPL@setplt?$AA@ 100092a8     useasm:usetab.obj
 0001:000082b0       ??_C@_06PIHPNDDB@setpeq?$AA@ 100092b0     useasm:usetab.obj
 0001:000082b8       ??_C@_07OFGOOKGL@setpgte?$AA@ 100092b8     useasm:usetab.obj
 0001:000082c0       ??_C@_06IGIMPDBK@setpgt?$AA@ 100092c0     useasm:usetab.obj
 0001:000082c8       ??_C@_04FDNECGOD@fsub?$AA@ 100092c8     useasm:usetab.obj
 0001:000082d0       ??_C@_04DGLGBLMD@fssq?$AA@ 100092d0     useasm:usetab.obj
 0001:000082d8       ??_C@_04OCHKNHDG@fadd?$AA@ 100092d8     useasm:usetab.obj
 0001:000082e0       ??_C@_04HNJBCLMB@fmul?$AA@ 100092e0     useasm:usetab.obj
 0001:000082e8       ??_C@_04NMANPHLM@fmov?$AA@ 100092e8     useasm:usetab.obj
 0001:000082f0       ??_C@_03CNBJFNFA@mov?$AA@  100092f0     useasm:usetab.obj
 0001:000082f4       ??_C@_07OLONFCKE@emitpds?$AA@ 100092f4     useasm:usetab.obj
 0001:000082fc       ??_C@_0O@LEENHJNO@emitprimitive?$AA@ 100092fc     useasm:usetab.obj
 0001:0000830c       ??_C@_07DBFEHHMD@emitvtx?$AA@ 1000930c     useasm:usetab.obj
 0001:00008314       ??_C@_06GCOMBHEL@emitst?$AA@ 10009314     useasm:usetab.obj
 0001:0000831c       ??_C@_07MBBIDM@emitpix?$AA@ 1000931c     useasm:usetab.obj
 0001:00008324       ??_C@_08MCBPOJOO@emitpix2?$AA@ 10009324     useasm:usetab.obj
 0001:00008330       ??_C@_08OJDCLKCN@emitpix1?$AA@ 10009330     useasm:usetab.obj
 0001:0000833c       ??_C@_04LDGNGHLO@limm?$AA@ 1000933c     useasm:usetab.obj
 0001:00008344       ??_C@_03FECKBHBL@wdf?$AA@  10009344     useasm:usetab.obj
 0001:00008348       ??_C@_03OEOMDHLH@idf?$AA@  10009348     useasm:usetab.obj
 0001:0000834c       ??_C@_0L@JODEDCHK@bexception?$AA@ 1000934c     useasm:usetab.obj
 0001:00008358       ??_C@_04PMKEFCPM@lapc?$AA@ 10009358     useasm:usetab.obj
 0001:00008360       ??_C@_02FGOECCNH@br?$AA@   10009360     useasm:usetab.obj
 0001:00008364       ??_C@_02DHALGDEF@ba?$AA@   10009364     useasm:usetab.obj
 0001:00008368       ??_C@_04GAAFJDCP@eldq?$AA@ 10009368     useasm:usetab.obj
 0001:00008370       ??_C@_04FHLAHFDL@eldd?$AA@ 10009370     useasm:usetab.obj
 0001:00008378       ??_C@_04GCOCNAN@sttq?$AA@  10009378     useasm:usetab.obj
 0001:00008380       ??_C@_04DBJLMLBJ@sttd?$AA@ 10009380     useasm:usetab.obj
 0001:00008388       ??_C@_04FAHEIKIL@sttw?$AA@ 10009388     useasm:usetab.obj
 0001:00008390       ??_C@_04GHMBGMJP@sttb?$AA@ 10009390     useasm:usetab.obj
 0001:00008398       ??_C@_04LEIHHKMB@ldtq?$AA@ 10009398     useasm:usetab.obj
 0001:000083a0       ??_C@_04IDDCJMNF@ldtd?$AA@ 100093a0     useasm:usetab.obj
 0001:000083a8       ??_C@_04OCNNNNEH@ldtw?$AA@ 100093a8     useasm:usetab.obj
 0001:000083b0       ??_C@_04NFGIDLFD@ldtb?$AA@ 100093b0     useasm:usetab.obj
 0001:000083b8       ??_C@_04BEBLNPMF@stlq?$AA@ 100093b8     useasm:usetab.obj
 0001:000083c0       ??_C@_04CDKODJNB@stld?$AA@ 100093c0     useasm:usetab.obj
 0001:000083c8       ??_C@_04ECEBHIED@stlw?$AA@ 100093c8     useasm:usetab.obj
 0001:000083d0       ??_C@_04HFPEJOFH@stlb?$AA@ 100093d0     useasm:usetab.obj
 0001:000083d8       ??_C@_04KGLCIIAJ@ldlq?$AA@ 100093d8     useasm:usetab.obj
 0001:000083e0       ??_C@_04JBAHGOBN@ldld?$AA@ 100093e0     useasm:usetab.obj
 0001:000083e8       ??_C@_04PAOICPIP@ldlw?$AA@ 100093e8     useasm:usetab.obj
 0001:000083f0       ??_C@_04MHFNMJJL@ldlb?$AA@ 100093f0     useasm:usetab.obj
 0001:000083f8       ??_C@_04BMMDEMJG@staq?$AA@ 100093f8     useasm:usetab.obj
 0001:00008400       ??_C@_04CLHGKKIC@stad?$AA@ 10009400     useasm:usetab.obj
 0001:00008408       ??_C@_04EKJJOLBA@staw?$AA@ 10009408     useasm:usetab.obj
 0001:00008410       ??_C@_04HNCMANAE@stab?$AA@ 10009410     useasm:usetab.obj
 0001:00008418       ??_C@_04KOGKBLFK@ldaq?$AA@ 10009418     useasm:usetab.obj
 0001:00008420       ??_C@_04JJNPPNEO@ldad?$AA@ 10009420     useasm:usetab.obj
 0001:00008428       ??_C@_04PIDALMNM@ldaw?$AA@ 10009428     useasm:usetab.obj
 0001:00008430       ??_C@_04MPIFFKMI@ldab?$AA@ 10009430     useasm:usetab.obj
 0001:00008438       ??_C@_09KIDJGAAM@smp3dgrad?$AA@ 10009438     useasm:usetab.obj
 0001:00008444       ??_C@_09OEOGLLI@smp2dgrad?$AA@ 10009444     useasm:usetab.obj
 0001:00008450       ??_C@_09DPKGHBCF@smp1dgrad?$AA@ 10009450     useasm:usetab.obj
 0001:0000845c       ??_C@_0N@IMLLGHGO@smp3dreplace?$AA@ 1000945c     useasm:usetab.obj
 0001:0000846c       ??_C@_0N@GDHJAMFA@smp2dreplace?$AA@ 1000946c     useasm:usetab.obj
 0001:0000847c       ??_C@_0N@IIEOLHFD@smp1dreplace?$AA@ 1000947c     useasm:usetab.obj
 0001:0000848c       ??_C@_09OCECLLHE@smp3dbias?$AA@ 1000948c     useasm:usetab.obj
 0001:00008498       ??_C@_09EEDFLAMA@smp2dbias?$AA@ 10009498     useasm:usetab.obj
 0001:000084a4       ??_C@_09HFNNKKFN@smp1dbias?$AA@ 100094a4     useasm:usetab.obj
 0001:000084b0       ??_C@_05OOKKMHDJ@smp3d?$AA@ 100094b0     useasm:usetab.obj
 0001:000084b8       ??_C@_05OPGIKNAO@smp2d?$AA@ 100094b8     useasm:usetab.obj
 0001:000084c0       ??_C@_05ONCOBDFH@smp1d?$AA@ 100094c0     useasm:usetab.obj
 0001:000084c8       ??_C@_06GGGOMLOL@ssum16?$AA@ 100094c8     useasm:usetab.obj
 0001:000084d0       ??_C@_05COGELEAH@firhh?$AA@ 100094d0     useasm:usetab.obj
 0001:000084d8       ??_C@_04JDNAGPBH@firh?$AA@ 100094d8     useasm:usetab.obj
 0001:000084e0       ??_C@_05FCKLBLAM@bilin?$AA@ 100094e0     useasm:usetab.obj
 0001:000084e8       ??_C@_05DINMDKHN@firvh?$AA@ 100094e8     useasm:usetab.obj
 0001:000084f0       ??_C@_04EHJBFAMI@firv?$AA@ 100094f0     useasm:usetab.obj
 0001:000084f8       ??_C@_07DLAPIEBJ@adifsum?$AA@ 100094f8     useasm:usetab.obj
 0001:00008500       ??_C@_04FNGKAKMF@adif?$AA@ 10009500     useasm:usetab.obj
 0001:00008508       ??_C@_04CHNIFDFF@idiv?$AA@ 10009508     useasm:usetab.obj
 0001:00008510       ??_C@_05EIKDCMOM@ima32?$AA@ 10009510     useasm:usetab.obj
 0001:00008518       ??_C@_04DFCMAMPF@imae?$AA@ 10009518     useasm:usetab.obj
 0001:00008520       ??_C@_05CPELDNIG@ima16?$AA@ 10009520     useasm:usetab.obj
 0001:00008528       ??_C@_04DKDJCPOM@ima8?$AA@ 10009528     useasm:usetab.obj
 0001:00008530       ??_C@_0L@DAOCLPMG@u16dot4off?$AA@ 10009530     useasm:usetab.obj
 0001:0000853c       ??_C@_0L@ICMCGDNG@u16dot3off?$AA@ 1000953c     useasm:usetab.obj
 0001:00008548       ??_C@_09GIAJOEKF@u8dot4off?$AA@ 10009548     useasm:usetab.obj
 0001:00008554       ??_C@_09NKCJDILF@u8dot3off?$AA@ 10009554     useasm:usetab.obj
 0001:00008560       ??_C@_07EFHPPAJH@u16dot4?$AA@ 10009560     useasm:usetab.obj
 0001:00008568       ??_C@_07KDOGGFA@u16dot3?$AA@ 10009568     useasm:usetab.obj
 0001:00008570       ??_C@_06NDMPFPGO@u8dot4?$AA@ 10009570     useasm:usetab.obj
 0001:00008578       ??_C@_06JMIOMJKJ@u8dot3?$AA@ 10009578     useasm:usetab.obj
 0001:00008580       ??_C@_04EEHAHIMI@sop3?$AA@ 10009580     useasm:usetab.obj
 0001:00008588       ??_C@_06GEKMOMGC@sop2wm?$AA@ 10009588     useasm:usetab.obj
 0001:00008590       ??_C@_04FNGLEJIJ@sop2?$AA@ 10009590     useasm:usetab.obj
 0001:00008598       ??_C@_03HBHPADEG@rlp?$AA@  10009598     useasm:usetab.obj
 0001:0000859c       ??_C@_03JFEOOAEC@rol?$AA@  1000959c     useasm:usetab.obj
 0001:000085a0       ??_C@_03BGJPHNPI@asr?$AA@  100095a0     useasm:usetab.obj
 0001:000085a4       ??_C@_03PMPMKOHN@shr?$AA@  100095a4     useasm:usetab.obj
 0001:000085a8       ??_C@_03CILNJBKC@shl?$AA@  100095a8     useasm:usetab.obj
 0001:000085ac       ??_C@_03COLCDPPJ@xor?$AA@  100095ac     useasm:usetab.obj
 0001:000085b0       ??_C@_02FODMLBIE@or?$AA@   100095b0     useasm:usetab.obj
 0001:000085b4       ??_C@_03BOPJPIAM@and?$AA@  100095b4     useasm:usetab.obj
 0001:000085b8       ??_C@_0M@CDGCCNBB@unpckc10c10?$AA@ 100095b8     useasm:usetab.obj
 0001:000085c4       ??_C@_09KNIBBCKD@unpcku8u8?$AA@ 100095c4     useasm:usetab.obj
 0001:000085d0       ??_C@_0M@MLPMEEHP@unpcks16c10?$AA@ 100095d0     useasm:usetab.obj
 0001:000085dc       ??_C@_0L@GDPGIBDB@unpcks16o8?$AA@ 100095dc     useasm:usetab.obj
 0001:000085e8       ??_C@_0L@HGMKNLCF@unpcks16s8?$AA@ 100095e8     useasm:usetab.obj
 0001:000085f4       ??_C@_0L@HCEHKHJH@unpcks16u8?$AA@ 100095f4     useasm:usetab.obj
 0001:00008600       ??_C@_0M@MNLPLEGG@unpcks16s16?$AA@ 10009600     useasm:usetab.obj
 0001:0000860c       ??_C@_0M@OINEOLLK@unpcks16u16?$AA@ 1000960c     useasm:usetab.obj
 0001:00008618       ??_C@_0M@KKHIBDML@unpcks16f16?$AA@ 10009618     useasm:usetab.obj
 0001:00008624       ??_C@_0M@KICMHBEF@unpcku16c10?$AA@ 10009624     useasm:usetab.obj
 0001:00008630       ??_C@_0L@LFKPGCCM@unpcku16o8?$AA@ 10009630     useasm:usetab.obj
 0001:0000863c       ??_C@_0L@KAJDDIDI@unpcku16s8?$AA@ 1000963c     useasm:usetab.obj
 0001:00008648       ??_C@_0L@KEBOEEIK@unpcku16u8?$AA@ 10009648     useasm:usetab.obj
 0001:00008654       ??_C@_0M@KOGPIBFM@unpcku16s16?$AA@ 10009654     useasm:usetab.obj
 0001:00008660       ??_C@_0M@ILAENOIA@unpcku16u16?$AA@ 10009660     useasm:usetab.obj
 0001:0000866c       ??_C@_0M@MJKICGPB@unpcku16f16?$AA@ 1000966c     useasm:usetab.obj
 0001:00008678       ??_C@_0M@POBKPHBG@unpckf16c10?$AA@ 10009678     useasm:usetab.obj
 0001:00008684       ??_C@_0L@DAONBCBJ@unpckf16o8?$AA@ 10009684     useasm:usetab.obj
 0001:00008690       ??_C@_0L@CFNBEIAN@unpckf16s8?$AA@ 10009690     useasm:usetab.obj
 0001:0000869c       ??_C@_0L@CBFMDELP@unpckf16u8?$AA@ 1000969c     useasm:usetab.obj
 0001:000086a8       ??_C@_0M@PIFJAHAP@unpckf16s16?$AA@ 100096a8     useasm:usetab.obj
 0001:000086b4       ??_C@_0M@NNDCFIND@unpckf16u16?$AA@ 100096b4     useasm:usetab.obj
 0001:000086c0       ??_C@_0M@JPJOKAKC@unpckf16f16?$AA@ 100096c0     useasm:usetab.obj
 0001:000086cc       ??_C@_0M@EGFCPANN@unpckf32c10?$AA@ 100096cc     useasm:usetab.obj
 0001:000086d8       ??_C@_0L@MFEPNGCO@unpckf32o8?$AA@ 100096d8     useasm:usetab.obj
 0001:000086e4       ??_C@_0L@NAHDIMDK@unpckf32s8?$AA@ 100096e4     useasm:usetab.obj
 0001:000086f0       ??_C@_0L@NEPOPAII@unpckf32u8?$AA@ 100096f0     useasm:usetab.obj
 0001:000086fc       ??_C@_0M@EABBAAME@unpckf32s16?$AA@ 100096fc     useasm:usetab.obj
 0001:00008708       ??_C@_0M@GFHKFPBI@unpckf32u16?$AA@ 10009708     useasm:usetab.obj
 0001:00008714       ??_C@_0M@CHNGKHGJ@unpckf32f16?$AA@ 10009714     useasm:usetab.obj
 0001:00008720       ??_C@_0M@EADOLGAD@unpckf32f32?$AA@ 10009720     useasm:usetab.obj
 0001:0000872c       ??_C@_09DDFDIML@pckc10s16?$AA@ 1000972c     useasm:usetab.obj
 0001:00008738       ??_C@_09CGFOGHBH@pckc10u16?$AA@ 10009738     useasm:usetab.obj
 0001:00008744       ??_C@_09GEPCJPGG@pckc10f16?$AA@ 10009744     useasm:usetab.obj
 0001:00008750       ??_C@_09DBKIOAM@pckc10f32?$AA@ 10009750     useasm:usetab.obj
 0001:0000875c       ??_C@_08IDEMMIKL@pcko8s16?$AA@ 1000975c     useasm:usetab.obj
 0001:00008768       ??_C@_08KGCHJHHH@pcko8u16?$AA@ 10009768     useasm:usetab.obj
 0001:00008774       ??_C@_08OEILGPAG@pcko8f16?$AA@ 10009774     useasm:usetab.obj
 0001:00008780       ??_C@_08IDGDHOGM@pcko8f32?$AA@ 10009780     useasm:usetab.obj
 0001:0000878c       ??_C@_08PHFIAKEL@pcks8s16?$AA@ 1000978c     useasm:usetab.obj
 0001:00008798       ??_C@_08NCDDFFJH@pcks8u16?$AA@ 10009798     useasm:usetab.obj
 0001:000087a4       ??_C@_08JAJPKNOG@pcks8f16?$AA@ 100097a4     useasm:usetab.obj
 0001:000087b0       ??_C@_08PHHHLMIM@pcks8f32?$AA@ 100097b0     useasm:usetab.obj
 0001:000087bc       ??_C@_08CBABOJFG@pcku8s16?$AA@ 100097bc     useasm:usetab.obj
 0001:000087c8       ??_C@_08EGKLGIK@pcku8u16?$AA@ 100097c8     useasm:usetab.obj
 0001:000087d4       ??_C@_08EGMGEOPL@pcku8f16?$AA@ 100097d4     useasm:usetab.obj
 0001:000087e0       ??_C@_08CBCOFPJB@pcku8f32?$AA@ 100097e0     useasm:usetab.obj
 0001:000087ec       ??_C@_09OLKLFBKF@pcks16s16?$AA@ 100097ec     useasm:usetab.obj
 0001:000087f8       ??_C@_09MOMAAOHJ@pcks16u16?$AA@ 100097f8     useasm:usetab.obj
 0001:00008804       ??_C@_09IMGMPGAI@pcks16f16?$AA@ 10009804     useasm:usetab.obj
 0001:00008810       ??_C@_09OLIEOHGC@pcks16f32?$AA@ 10009810     useasm:usetab.obj
 0001:0000881c       ??_C@_09IIHLGEJP@pcku16s16?$AA@ 1000981c     useasm:usetab.obj
 0001:00008828       ??_C@_09KNBADLED@pcku16u16?$AA@ 10009828     useasm:usetab.obj
 0001:00008834       ??_C@_09OPLMMDDC@pcku16f16?$AA@ 10009834     useasm:usetab.obj
 0001:00008840       ??_C@_09IIFENCFI@pcku16f32?$AA@ 10009840     useasm:usetab.obj
 0001:0000884c       ??_C@_09NOENOCMM@pckf16s16?$AA@ 1000984c     useasm:usetab.obj
 0001:00008858       ??_C@_09PLCGLNBA@pckf16u16?$AA@ 10009858     useasm:usetab.obj
 0001:00008864       ??_C@_09LJIKEFGB@pckf16f16?$AA@ 10009864     useasm:usetab.obj
 0001:00008870       ??_C@_09NOGCFEAL@pckf16f32?$AA@ 10009870     useasm:usetab.obj
 0001:0000887c       ??_C@_03HMHMOHCI@efo?$AA@  1000987c     useasm:usetab.obj
 0001:00008880       ??_C@_07BJAGEKCG@fmaxmin?$AA@ 10009880     useasm:usetab.obj
 0001:00008888       ??_C@_07IHOEOAG@fminmax?$AA@ 10009888     useasm:usetab.obj
 0001:00008890       ??_C@_06ICDMGFKB@fmad16?$AA@ 10009890     useasm:usetab.obj
 0001:00008898       ??_C@_04DDKBPOON@fdsy?$AA@ 10009898     useasm:usetab.obj
 0001:000088a0       ??_C@_04CKLKMPKM@fdsx?$AA@ 100098a0     useasm:usetab.obj
 0001:000088a8       ??_C@_04EIBAPHDI@fmax?$AA@ 100098a8     useasm:usetab.obj
 0001:000088b0       ??_C@_04FKJLBDFH@fmin?$AA@ 100098b0     useasm:usetab.obj
 0001:000088b8       ??_C@_03KABHJCDG@fdp?$AA@  100098b8     useasm:usetab.obj
 0001:000088bc       ??_C@_04EBKFHEMK@fcos?$AA@ 100098bc     useasm:usetab.obj
 0001:000088c4       ??_C@_04OKFNDDPL@fsin?$AA@ 100098c4     useasm:usetab.obj
 0001:000088cc       ??_C@_05OBEHOPDB@fsqrt?$AA@ 100098cc     useasm:usetab.obj
 0001:000088d4       ??_C@_04FGIKMNCA@fexp?$AA@ 100098d4     useasm:usetab.obj
 0001:000088dc       ??_C@_04DHGILDMJ@flog?$AA@ 100098dc     useasm:usetab.obj
 0001:000088e4       ??_C@_04IOAKHMKG@frsq?$AA@ 100098e4     useasm:usetab.obj
 0001:000088ec       ??_C@_04ILDHOOJH@frcp?$AA@ 100098ec     useasm:usetab.obj
 0001:000088f4       ??_C@_04CIEHKGIK@ffrc?$AA@ 100098f4     useasm:usetab.obj
 0001:000088fc       ??_C@_04MMLCCJDO@fmsa?$AA@ 100098fc     useasm:usetab.obj
 0001:00008904       ??_C@_04DDLIGMHP@fadm?$AA@ 10009904     useasm:usetab.obj
 0001:0000890c       ??_C@_04KOGHKKGF@fmad?$AA@ 1000990c     useasm:usetab.obj
 0001:00008914       ??_C@_0BA@LLCLJIP@float?5immediate?$AA@ 10009914     useasm:usetab.obj
 0001:00008924       ??_C@_0BA@GKADHLJN@named?5temporary?$AA@ 10009924     useasm:usetab.obj
 0001:00008934       ??_C@_0BC@EOODDAGN@filter?5coefficent?$AA@ 10009934     useasm:usetab.obj
 0001:00008948       ??_C@_0BE@FBIDIDIB@8?9bit?5source?5select?$AA@ 10009948     useasm:usetab.obj
 0001:0000895c       ??_C@_07FAJBBDOC@swizzle?$AA@ 1000995c     useasm:usetab.obj
 0001:00008964       ??_C@_0N@KBLPGIGB@address?5mode?$AA@ 10009964     useasm:usetab.obj
 0001:00008974       ??_C@_09DBIHEPNC@clipplane?$AA@ 10009974     useasm:usetab.obj
 0001:00008980       ??_C@_09OKBKKDGM@predicate?$AA@ 10009980     useasm:usetab.obj
 0001:0000898c       ??_C@_05IDCCNNGI@label?$AA@ 1000998c     useasm:usetab.obj
 0001:00008994       ??_C@_03HDFKMEON@drc?$AA@  10009994     useasm:usetab.obj
 0001:00008998       ??_C@_04OHHBHOGB@link?$AA@ 10009998     useasm:usetab.obj
 0001:000089a0       ??_C@_09MBGEJPJA@immediate?$AA@ 100099a0     useasm:usetab.obj
 0001:000089ac       ??_C@_08LEPPLCNF@internal?$AA@ 100099ac     useasm:usetab.obj
 0001:000089b8       ??_C@_08KFDOCAEB@constant?$AA@ 100099b8     useasm:usetab.obj
 0001:000089c4       ??_C@_06FJKEMHGD@global?$AA@ 100099c4     useasm:usetab.obj
 0001:000089cc       ??_C@_05FKHKFDID@index?$AA@ 100099cc     useasm:usetab.obj
 0001:000089d4       ??_C@_0BE@EDPEAKOB@secondary?5attribute?$AA@ 100099d4     useasm:usetab.obj
 0001:000089e8       ??_C@_0BC@FEBGALFK@primary?5attribute?$AA@ 100099e8     useasm:usetab.obj
 0001:000089fc       ??_C@_06DKIGHACF@output?$AA@ 100099fc     useasm:usetab.obj
 0001:00008a04       ??_C@_09CAHPDAG@temporary?$AA@ 10009a04     useasm:usetab.obj
 0001:00008a10       pszTypeToString            10009a10     useasm:usetab.obj
 0001:00008a68       g_pfHardwareConstants      10009a68     useasm:usetab.obj
 0001:00008b48       g_asUseInstDesc            10009b48     useasm:usetab.obj
 0001:00009c34       ??_C@_08CGPOONCN@source?52?$AA@ 1000ac34     useasm:useasm.obj
 0001:00009c40       ??_C@_08NNDLOOO@source?51?$AA@ 1000ac40     useasm:useasm.obj
 0001:00009c4c       ??_C@_08BEMIIPKP@source?50?$AA@ 1000ac4c     useasm:useasm.obj
 0001:00009c58       ??_C@_0M@BLMAJMLK@destination?$AA@ 1000ac58     useasm:useasm.obj
 0001:00009ca0       ??_C@_0EL@CEJMDIFD@Branch?5destination?5is?5out?5of?5ran@ 1000aca0     useasm:useasm.obj
 0001:00009cf0       ??_C@_0EM@IGAKCAGC@Branch?5destination?5is?5out?5of?5ran@ 1000acf0     useasm:useasm.obj
 0001:00009d40       ??_C@_0JC@CGJAIGHK@The?5destination?5label?5for?5a?5bran@ 1000ad40     useasm:useasm.obj
 0001:00009dd4       ??_C@_0DK@NIFCHDCD@A?5swizzle?5is?5invalid?5for?5argumen@ 1000add4     useasm:useasm.obj
 0001:00009e10       ??_C@_0EC@FENPMIAM@The?5modifiers?5?4flt32?0?5?4flt16?0?5?4c@ 1000ae10     useasm:useasm.obj
 0001:00009e54       ??_C@_0DE@EJENDBGB@?4u8?5is?5invalid?5for?5argument?5?$CFd?5f@ 1000ae54     useasm:useasm.obj
 0001:00009e88       ??_C@_0DF@KNCENLBB@?4c10?5is?5invalid?5for?5argument?5?$CFd?5@ 1000ae88     useasm:useasm.obj
 0001:00009ec0       ??_C@_0DH@LCLAOIMP@?4flt16?5is?5invalid?5for?5argument?5?$CF@ 1000aec0     useasm:useasm.obj
 0001:00009ef8       ??_C@_0DH@IAOLGEKP@?4flt32?5is?5invalid?5for?5argument?5?$CF@ 1000aef8     useasm:useasm.obj
 0001:00009f30       ??_C@_0EC@LIBCAICE@Disable?5writeback?5is?5invalid?5for@ 1000af30     useasm:useasm.obj
 0001:00009f74       ??_C@_0DG@MICEFMNE@?4comp?5is?5invalid?5for?5argument?5?$CFd@ 1000af74     useasm:useasm.obj
 0001:00009fac       ??_C@_0DH@BJDJAOJN@?4alpha?5is?5invalid?5for?5argument?5?$CF@ 1000afac     useasm:useasm.obj
 0001:00009fe4       ??_C@_0DG@NIHNAGBL@?4high?5is?5invalid?5for?5argument?5?$CFd@ 1000afe4     useasm:useasm.obj
 0001:0000a01c       ??_C@_0DF@HFACOLNL@?4low?5is?5invalid?5for?5argument?5?$CFd?5@ 1000b01c     useasm:useasm.obj
 0001:0000a054       ??_C@_0DI@BMAPILCJ@?4invert?5is?5invalid?5for?5argument?5@ 1000b054     useasm:useasm.obj
 0001:0000a08c       ??_C@_0DK@PJAHFLKI@A?5bytemask?5is?5invalid?5for?5argume@ 1000b08c     useasm:useasm.obj
 0001:0000a0c8       ??_C@_0EC@IJJBJBBP@A?5component?5select?5is?5invalid?5fo@ 1000b0c8     useasm:useasm.obj
 0001:0000a10c       ??_C@_0DE@NBGIMLFH@?4abs?5is?5invalid?5for?5argument?5?$CFd?5@ 1000b10c     useasm:useasm.obj
 0001:0000a140       ??_C@_0DE@MPDILDBH@?4neg?5is?5invalid?5for?5argument?5?$CFd?5@ 1000b140     useasm:useasm.obj
 0001:0000a174       ??_C@_0CH@OGBNJBLO@?4freep?5is?5invalid?5for?5this?5instr@ 1000b174     useasm:useasm.obj
 0001:0000a19c       ??_C@_0CG@HDBABLGF@?4minp?5is?5invalid?5for?5this?5instru@ 1000b19c     useasm:useasm.obj
 0001:0000a1c4       ??_C@_0CG@JNEGBJAJ@?4irsd?5is?5invalid?5for?5this?5instru@ 1000b1c4     useasm:useasm.obj
 0001:0000a1ec       ??_C@_0CH@MOFKMNFF@?4pwait?5is?5invalid?5for?5this?5instr@ 1000b1ec     useasm:useasm.obj
 0001:0000a214       ??_C@_0CI@FJKAAMII@?4noread?5is?5invalid?5for?5this?5inst@ 1000b214     useasm:useasm.obj
 0001:0000a23c       ??_C@_0CM@BKAEHGEJ@?4dm_nomatch?5is?5invalid?5for?5this?5@ 1000b23c     useasm:useasm.obj
 0001:0000a268       ??_C@_0CI@LAPAEMDG@?4global?5is?5invalid?5for?5this?5inst@ 1000b268     useasm:useasm.obj
 0001:0000a290       ??_C@_0CI@JBBFIBPL@?4gpiext?5is?5invalid?5for?5this?5inst@ 1000b290     useasm:useasm.obj
 0001:0000a2b8       ??_C@_0CK@DEEAJLON@?4bypassl1?5is?5invalid?5for?5this?5in@ 1000b2b8     useasm:useasm.obj
 0001:0000a2e4       ??_C@_0CF@EHCJCPGO@?4cut?5is?5invalid?5for?5this?5instruc@ 1000b2e4     useasm:useasm.obj
 0001:0000a30c       ??_C@_0CL@OGDOHFNH@?4threepart?5is?5invalid?5for?5this?5i@ 1000b30c     useasm:useasm.obj
 0001:0000a338       ??_C@_0CJ@FCBBHHDD@?4twopart?5is?5invalid?5for?5this?5ins@ 1000b338     useasm:useasm.obj
 0001:0000a364       ??_C@_0CJ@GOGNFJGL@?4trigger?5is?5invalid?5for?5this?5ins@ 1000b364     useasm:useasm.obj
 0001:0000a390       ??_C@_0CJ@GIKGIFLP@?4syncend?5is?5invalid?5for?5this?5ins@ 1000b390     useasm:useasm.obj
 0001:0000a3bc       ??_C@_0CG@IHPDGLHB@?4sinf?5is?5invalid?5for?5this?5instru@ 1000b3bc     useasm:useasm.obj
 0001:0000a3e4       ??_C@_0CF@NKHJPKHH@?4rsd?5is?5invalid?5for?5this?5instruc@ 1000b3e4     useasm:useasm.obj
 0001:0000a40c       ??_C@_0CI@NKNMDDOG@?4pcff16?5is?5invalid?5for?5this?5inst@ 1000b40c     useasm:useasm.obj
 0001:0000a434       ??_C@_0CF@CNBHLDDL@?4pcf?5is?5invalid?5for?5this?5instruc@ 1000b434     useasm:useasm.obj
 0001:0000a45c       ??_C@_0CG@KBDEHIIG@?4incs?5is?5invalid?5for?5this?5instru@ 1000b45c     useasm:useasm.obj
 0001:0000a484       ??_C@_0CF@HDBKEIDN@?4tog?5is?5invalid?5for?5this?5instruc@ 1000b484     useasm:useasm.obj
 0001:0000a4ac       ??_C@_0CF@CPPKEJPF@?4c10?5is?5invalid?5for?5this?5instruc@ 1000b4ac     useasm:useasm.obj
 0001:0000a4d4       ??_C@_0CH@JJCJAFEG@?4tpres?5is?5invalid?5for?5this?5instr@ 1000b4d4     useasm:useasm.obj
 0001:0000a4fc       ??_C@_0CF@KOMKFHLA@?4i10?5is?5invalid?5for?5this?5instruc@ 1000b4fc     useasm:useasm.obj
 0001:0000a524       ??_C@_0CF@KACIFBOK@?4flt?5is?5invalid?5for?5this?5instruc@ 1000b524     useasm:useasm.obj
 0001:0000a54c       ??_C@_0CF@KDIDNMAN@?4i32?5is?5invalid?5for?5this?5instruc@ 1000b54c     useasm:useasm.obj
 0001:0000a574       ??_C@_0CF@HFMHLBAE@?4i16?5is?5invalid?5for?5this?5instruc@ 1000b574     useasm:useasm.obj
 0001:0000a59c       ??_C@_0CF@GBAIFKNL@?4sat?5is?5invalid?5for?5this?5instruc@ 1000b59c     useasm:useasm.obj
 0001:0000a5c4       ??_C@_0DE@KONNOGII@pre?9?1post?9increment?5is?5invalid?5f@ 1000b5c4     useasm:useasm.obj
 0001:0000a5f8       ??_C@_0CH@MJONMLMP@?4scale?5is?5invalid?5for?5this?5instr@ 1000b5f8     useasm:useasm.obj
 0001:0000a620       ??_C@_0CH@BGLMLOBA@?4taske?5is?5invalid?5for?5this?5instr@ 1000b620     useasm:useasm.obj
 0001:0000a648       ??_C@_0CH@OIAHEBAH@?4tasks?5is?5invalid?5for?5this?5instr@ 1000b648     useasm:useasm.obj
 0001:0000a670       ??_C@_0CI@JKBHNFPL@?4fcfill?5is?5invalid?5for?5this?5inst@ 1000b670     useasm:useasm.obj
 0001:0000a698       ??_C@_0CJ@POAKEGNN@?4bpcache?5is?5invalid?5for?5this?5ins@ 1000b698     useasm:useasm.obj
 0001:0000a6c4       ??_C@_0CK@NHGHHGDI@?4onceonly?5is?5invalid?5for?5this?5in@ 1000b6c4     useasm:useasm.obj
 0001:0000a6f0       ??_C@_0CH@NCCAPODE@?4fetch?5is?5invalid?5for?5this?5instr@ 1000b6f0     useasm:useasm.obj
 0001:0000a718       ??_C@_0CL@BFLFDPDE@testenable?5is?5invalid?5for?5this?5i@ 1000b718     useasm:useasm.obj
 0001:0000a744       ??_C@_0CM@GBLJGDF@rangeneable?5is?5invalid?5for?5this?5@ 1000b744     useasm:useasm.obj
 0001:0000a770       ??_C@_0CO@LDDPCEIK@postincrement?5is?5invalid?5for?5thi@ 1000b770     useasm:useasm.obj
 0001:0000a7a0       ??_C@_0CN@ILKEEOL@preincrement?5is?5invalid?5for?5this@ 1000b7a0     useasm:useasm.obj
 0001:0000a7d0       ??_C@_0CH@PGFJCIMI@?4flt16?5is?5invalid?5for?5this?5instr@ 1000b7d0     useasm:useasm.obj
 0001:0000a7f8       ??_C@_0DD@MCGMIGNN@This?5instruction?5can?8t?5be?5part?5o@ 1000b7f8     useasm:useasm.obj
 0001:0000a82c       ??_C@_0CJ@OKDELEHB@?4renable?5is?5invalid?5for?5this?5ins@ 1000b82c     useasm:useasm.obj
 0001:0000a858       ??_C@_0CF@FIFBOHH@?4abs?5is?5invalid?5for?5this?5instruc@ 1000b858     useasm:useasm.obj
 0001:0000a880       ??_C@_0CF@KMGKJBBN@?4mon?5is?5invalid?5for?5this?5instruc@ 1000b880     useasm:useasm.obj
 0001:0000a8a8       ??_C@_0CG@HGFIGOGH@?4mask?5is?5invalid?5for?5this?5instru@ 1000b8a8     useasm:useasm.obj
 0001:0000a8d0       ??_C@_0CJ@BJIFKGIO@?4partial?5is?5invalid?5for?5this?5ins@ 1000b8d0     useasm:useasm.obj
 0001:0000a8fc       ??_C@_0CK@IEFIOMMP@?4savelink?5is?5invalid?5for?5this?5in@ 1000b8fc     useasm:useasm.obj
 0001:0000a928       ??_C@_0CH@EIPKEMIK@?4synce?5is?5invalid?5for?5this?5instr@ 1000b928     useasm:useasm.obj
 0001:0000a950       ??_C@_0CF@KFDDBKGG@?4end?5is?5invalid?5for?5this?5instruc@ 1000b950     useasm:useasm.obj
 0001:0000a978       ??_C@_0CM@ONJAAFFM@A?5predicate?5is?5invalid?5for?5this?5@ 1000b978     useasm:useasm.obj
 0001:0000a9a4       ??_C@_0CO@HKFMBEAO@A?5repeat?5mask?5is?5invalid?5for?5thi@ 1000b9a4     useasm:useasm.obj
 0001:0000a9d4       ??_C@_0CI@BKLOOKDP@?4repeat?5is?5invalid?5for?5this?5inst@ 1000b9d4     useasm:useasm.obj
 0001:0000a9fc       ??_C@_0CJ@JOPLONOF@?4nosched?5is?5invalid?5for?5this?5ins@ 1000b9fc     useasm:useasm.obj
 0001:0000aa28       ??_C@_0CH@LGEBLDJN@?4syncs?5is?5invalid?5for?5this?5instr@ 1000ba28     useasm:useasm.obj
 0001:0000aa50       ??_C@_0CE@LNKCCLIM@?4i8?5is?5invalid?5for?5this?5instruct@ 1000ba50     useasm:useasm.obj
 0001:0000aa74       ??_C@_0CJ@MMEFPBHM@?4skipinv?5is?5invalid?5for?5this?5ins@ 1000ba74     useasm:useasm.obj
 0001:0000aaa0       ??_C@_0DP@KIFGKPIF@Offset?5into?5indexed?5register?5ban@ 1000baa0     useasm:useasm.obj
 0001:0000aae0       ??_C@_0CC@LJGIDMA@Register?5type?5?$CFs?5is?5not?5indexabl@ 1000bae0     useasm:useasm.obj
 0001:0000ab04       ??_C@_0CK@BPJMEOGN@?$CFs?5is?5not?5a?5valid?5destination?5ty@ 1000bb04     useasm:useasm.obj
 0001:0000ab30       ??_C@_0CK@FBILJLCJ@Destination?5must?5be?5a?5modifiable@ 1000bb30     useasm:useasm.obj
 0001:0000ab5c       ??_C@_0DJ@BHIIGCLJ@Indexed?5registers?5aren?8t?5a?5valid@ 1000bb5c     useasm:useasm.obj
 0001:0000ab98       ??_C@_0DC@JLMEGCKC@Argument?5?$CFd?5type?5can?8t?5be?5?$CFs?5for@ 1000bb98     useasm:useasm.obj
 0001:0000abcc       ??_C@_0BN@HHKHJGCN@Argument?5?$CFd?5can?8t?5be?5indexed?$AA@ 1000bbcc     useasm:useasm.obj
 0001:0000abec       ??_C@_0BN@JEIEJKM@Argument?5?$CFd?5type?5can?8t?5be?5?$CFs?$AA@ 1000bbec     useasm:useasm.obj
 0001:0000ac0c       ??_C@_0BK@NIKBIDKC@Argument?5?$CFd?5can?8t?5indexed?$AA@ 1000bc0c     useasm:useasm.obj
 0001:0000ac28       ??_C@_0HF@OJAOJKHK@Sequence?5number?5?$CIg?$CFd?$CJ?0?5edge?5mask@ 1000bc28     useasm:useasm.obj
 0001:0000aca0       ??_C@_0DK@LCPGEMNK@Task?5queue?5data?5?$CIg?$CFd?5to?5g?$CFd?$CJ?5can@ 1000bca0     useasm:useasm.obj
 0001:0000acdc       ??_C@_0CI@BLCMIAIL@Invalid?5global?5register?5specifie@ 1000bcdc     useasm:useasm.obj
 0001:0000ad04       ??_C@_0CN@LAECMJLC@?$CFs?5type?5can?8t?5be?5global?5for?5this@ 1000bd04     useasm:useasm.obj
 0001:0000ad34       ??_C@_0DG@NFHFDDMG@?$CFs?5immediate?5value?5is?5too?5small?5@ 1000bd34     useasm:useasm.obj
 0001:0000ad6c       ??_C@_0DF@HLDFHJJG@?$CFs?5immediate?5value?5is?5too?5large?5@ 1000bd6c     useasm:useasm.obj
 0001:0000ada4       ??_C@_0DL@PKMEEOIP@Source?51?5immediate?5value?5is?5too?5@ 1000bda4     useasm:useasm.obj
 0001:0000ade0       ??_C@_08IPCCDMEN@Source?51?$AA@ 1000bde0     useasm:useasm.obj
 0001:0000adec       ??_C@_0CK@INEOLDIC@Invalid?5constant?5register?5specif@ 1000bdec     useasm:useasm.obj
 0001:0000ae18       ??_C@_0CO@LBPJMKJE@Invalid?5fp?5internal?5register?5spe@ 1000be18     useasm:useasm.obj
 0001:0000ae48       ??_C@_0CK@JGFFOFI@Invalid?5internal?5register?5specif@ 1000be48     useasm:useasm.obj
 0001:0000ae74       ??_C@_0CH@OHEKEBML@Invalid?5index?5mask?5specified?5?$CIwa@ 1000be74     useasm:useasm.obj
 0001:0000ae9c       ??_C@_0DG@PBPNOJGF@Invalid?5secondary?5attribute?5regi@ 1000be9c     useasm:useasm.obj
 0001:0000aed4       ??_C@_0DE@LFLBECCD@Invalid?5primary?5attribute?5regist@ 1000bed4     useasm:useasm.obj
 0001:0000af08       ??_C@_0CI@JCGMLMHK@Invalid?5output?5register?5specifie@ 1000bf08     useasm:useasm.obj
 0001:0000af30       ??_C@_0CL@BINLLFEH@Invalid?5temporary?5register?5speci@ 1000bf30     useasm:useasm.obj
 0001:0000af5c       ??_C@_0CM@IBHBOODC@Invalid?5predicate?5type?5for?5this?5@ 1000bf5c     useasm:useasm.obj
 0001:0000af88       ??_C@_0DN@GHBJDHKE@The?5third?5argument?5to?5dot3?1dot4?5@ 1000bf88     useasm:useasm.obj
 0001:0000afc8       ??_C@_0DH@BBGJEJBC@No?5flags?5are?5valid?5for?5the?5third@ 1000bfc8     useasm:useasm.obj
 0001:0000b000       ??_C@_0EE@JPJEDBPB@The?5third?5argument?5to?5dot3?1dot4?5@ 1000c000     useasm:useasm.obj
 0001:0000b044       ??_C@_0DP@MPNPCIOH@The?5second?5argument?5to?5dot3?1dot4@ 1000c044     useasm:useasm.obj
 0001:0000b084       ??_C@_0DI@NLNHCCFG@No?5flags?5are?5valid?5for?5the?5secon@ 1000c084     useasm:useasm.obj
 0001:0000b0c0       ??_C@_0EF@EFCBABKE@The?5second?5argument?5to?5dot3?1dot4@ 1000c0c0     useasm:useasm.obj
 0001:0000b108       ??_C@_0DJ@JGDEEONP@Invalid?5integer?5source?5for?5the?5t@ 1000c108     useasm:useasm.obj
 0001:0000b148       ??_C@_0EE@ELFDABMP@Only?5the?5complement?5flag?5is?5vali@ 1000c148     useasm:useasm.obj
 0001:0000b190       ??_C@_0EC@DANPAEGJ@The?5third?5argument?5to?5aintrp1?5mu@ 1000c190     useasm:useasm.obj
 0001:0000b1d4       ??_C@_0DK@OPCNMALF@Invalid?5integer?5source?5for?5the?5s@ 1000c1d4     useasm:useasm.obj
 0001:0000b210       ??_C@_0DG@NPKDEALG@No?5flags?5are?5valid?5for?5the?5secon@ 1000c210     useasm:useasm.obj
 0001:0000b248       ??_C@_0ED@NIBLILEL@The?5second?5argument?5to?5aintrp1?5m@ 1000c248     useasm:useasm.obj
 0001:0000b28c       ??_C@_0CM@NAFINKIH@The?5fifth?5argument?5to?5aadd?1asub?5@ 1000c28c     useasm:useasm.obj
 0001:0000b2b8       ??_C@_0DH@LBMFOABC@No?5flags?5are?5valid?5for?5the?5fifth@ 1000c2b8     useasm:useasm.obj
 0001:0000b2f0       ??_C@_0EE@NHDHBHPH@The?5fifth?5argument?5to?5aadd?1asub?5@ 1000c2f0     useasm:useasm.obj
 0001:0000b338       ??_C@_0EH@BNLGGDIJ@Only?5the?5complement?5flag?5is?5vali@ 1000c338     useasm:useasm.obj
 0001:0000b380       ??_C@_0EF@BHNJGLAO@The?5fourth?5argument?5to?5aadd?1asub@ 1000c380     useasm:useasm.obj
 0001:0000b3c8       ??_C@_0CM@LAIDNOIF@The?5third?5argument?5to?5aadd?1asub?5@ 1000c3c8     useasm:useasm.obj
 0001:0000b3f8       ??_C@_0EG@KPNPAEGJ@Only?5the?5complement?5flag?5is?5vali@ 1000c3f8     useasm:useasm.obj
 0001:0000b440       ??_C@_0EE@HCICJMII@The?5third?5argument?5to?5aadd?1asub?5@ 1000c440     useasm:useasm.obj
 0001:0000b488       ??_C@_0FM@FCNEOKCI@Invalid?5choice?5for?5the?5second?5ar@ 1000c488     useasm:useasm.obj
 0001:0000b4e8       ??_C@_0EH@COHNMHNB@Only?5the?5complement?5flag?5is?5vali@ 1000c4e8     useasm:useasm.obj
 0001:0000b530       ??_C@_0EF@KIDHKMNN@The?5second?5argument?5to?5aadd?1asub@ 1000c530     useasm:useasm.obj
 0001:0000b578       ??_C@_0DO@NPGGCMGL@The?5first?5argument?5to?5aadd?1asub?5@ 1000c578     useasm:useasm.obj
 0001:0000b5b8       ??_C@_0CN@JFFLIFPF@An?5integer?5source?5selection?5is?5n@ 1000c5b8     useasm:useasm.obj
 0001:0000b5e8       ??_C@_0DH@DLDDAMMA@No?5flags?5are?5valid?5for?5the?5first@ 1000c5e8     useasm:useasm.obj
 0001:0000b620       ??_C@_0EE@BEBPNCHP@The?5first?5argument?5to?5aadd?1asub?5@ 1000c620     useasm:useasm.obj
 0001:0000b664       ??_C@_0CN@IACABJMC@Coissued?5instruction?5with?5no?5alp@ 1000c664     useasm:useasm.obj
 0001:0000b694       ??_C@_0BP@IIAMCHDC@Integer?5dot4?5can?8t?5be?5coissued?$AA@ 1000c694     useasm:useasm.obj
 0001:0000b6b4       ??_C@_0DF@OBCJJOLL@Maximum?5repeat?5count?5on?5an?5integ@ 1000c6b4     useasm:useasm.obj
 0001:0000b6f0       ??_C@_0EN@JPNNFBOP@Only?5?4bytemask1111?5is?5supported?5@ 1000c6f0     useasm:useasm.obj
 0001:0000b740       ??_C@_0FG@MFNCNONI@Only?5?4bytemask1111?5is?5supported?5@ 1000c740     useasm:useasm.obj
 0001:0000b798       ??_C@_0DD@JKMDHDLF@A?5?$CFs?5instruction?5must?5have?5at?5le@ 1000c798     useasm:useasm.obj
 0001:0000b7cc       ??_C@_0DM@GCKABEIE@Conditional?5code?5update?5isn?8t?5av@ 1000c7cc     useasm:useasm.obj
 0001:0000b808       ??_C@_0EP@POLKDPLI@For?5a?5test?5instruction?5with?5a?5re@ 1000c808     useasm:useasm.obj
 0001:0000b858       ??_C@_0EC@NOAGCNPB@A?5repeated?5dotproduct?5with?5test?5@ 1000c858     useasm:useasm.obj
 0001:0000b89c       ??_C@_0DO@IKLPLKIL@A?5repeated?5test?5instruction?5isn?8@ 1000c89c     useasm:useasm.obj
 0001:0000b8dc       ??_C@_0DE@KBHBIIMG@The?5maximum?5repeat?5count?5for?5thi@ 1000c8dc     useasm:useasm.obj
 0001:0000b910       ??_C@_0DB@JAOCBPNH@A?5repeat?5count?5is?5not?5valid?5for?5@ 1000c910     useasm:useasm.obj
 0001:0000b944       ??_C@_0DA@INBPMMOK@A?5repeat?5mask?5is?5not?5valid?5for?5t@ 1000c944     useasm:useasm.obj
 0001:0000b978       ??_C@_0GO@JJLBEPIH@For?5?$CFs?5with?5test?5the?5type?5of?5?$CFs?5@ 1000c978     useasm:useasm.obj
 0001:0000b9e8       ??_C@_0FD@DCBOAODI@A?5C10?5format?5destination?5isn?8t?5s@ 1000c9e8     useasm:useasm.obj
 0001:0000ba3c       ??_C@_0CM@MLIIJFEL@The?5maximum?5predicate?5register?5n@ 1000ca3c     useasm:useasm.obj
 0001:0000ba68       ??_C@_0CG@GNGAJDLD@Predicate?5registers?5are?5not?5inde@ 1000ca68     useasm:useasm.obj
 0001:0000ba90       ??_C@_0EL@MGFIGPBH@The?5second?5destination?5for?5a?5tes@ 1000ca90     useasm:useasm.obj
 0001:0000badc       ??_C@_0DM@JKJAHMJO@No?5flags?5are?5valid?5for?5the?5predi@ 1000cadc     useasm:useasm.obj
 0001:0000bb18       ??_C@_0BH@CFEGILC@Unknown?5test?5mask?5type?$AA@ 1000cb18     useasm:useasm.obj
 0001:0000bb30       ??_C@_0BP@LBJMFOHM@Unknown?5channel?5combine?5option?$AA@ 1000cb30     useasm:useasm.obj
 0001:0000bb50       ??_C@_0CO@KFAIKBA@?4cperchan?5isn?8t?5supported?5on?5thi@ 1000cb50     useasm:useasm.obj
 0001:0000bb80       ??_C@_0DL@CIAFLBE@Partial?5modifier?5is?5only?5availab@ 1000cb80     useasm:useasm.obj
 0001:0000bbc0       ??_C@_0EP@HBANCFBC@Saturation?5modifier?5is?5only?5avai@ 1000cbc0     useasm:useasm.obj
 0001:0000bc10       ??_C@_0FG@HDDPHDFM@Only?5?40?5is?5a?5valid?5component?5sel@ 1000cc10     useasm:useasm.obj
 0001:0000bc68       ??_C@_0FM@BHACNAEE@Only?5?40?5and?5?42?5are?5valid?5compone@ 1000cc68     useasm:useasm.obj
 0001:0000bcc4       ??_C@_0BG@BCKONFFM@sop2?5must?5be?5coissued?$AA@ 1000ccc4     useasm:useasm.obj
 0001:0000bce0       ??_C@_0EP@OFCLCBOD@Invalid?5choice?5for?5the?5fifth?5arg@ 1000cce0     useasm:useasm.obj
 0001:0000bd30       ??_C@_0DC@FMNAGAJ@No?5flags?5are?5valid?5for?5the?5fifth@ 1000cd30     useasm:useasm.obj
 0001:0000bd68       ??_C@_0FK@HNEAMMLH@Invalid?5choice?5for?5the?5fourth?5ar@ 1000cd68     useasm:useasm.obj
 0001:0000bdc4       ??_C@_0DE@HFBEDGPO@No?5flags?5are?5valid?5for?5the?5fourt@ 1000cdc4     useasm:useasm.obj
 0001:0000bdf8       ??_C@_0EC@PPEKPMIP@The?5fourth?5argument?5to?5asop2?5sho@ 1000cdf8     useasm:useasm.obj
 0001:0000be40       ??_C@_0FO@OLALHECM@Invalid?5choice?5for?5the?5third?5arg@ 1000ce40     useasm:useasm.obj
 0001:0000bea0       ??_C@_0DE@CMCBMCHC@Only?5?4comp?5is?5valid?5for?5the?5thir@ 1000cea0     useasm:useasm.obj
 0001:0000bed8       ??_C@_0EB@OGKIIKPK@The?5third?5argument?5to?5asop2?5shou@ 1000ced8     useasm:useasm.obj
 0001:0000bf20       ??_C@_0GB@FOOKGLAG@Invalid?5choice?5for?5the?5second?5ar@ 1000cf20     useasm:useasm.obj
 0001:0000bf84       ??_C@_0DF@BKFNFPMB@Only?5?4comp?5is?5valid?5for?5the?5seco@ 1000cf84     useasm:useasm.obj
 0001:0000bfc0       ??_C@_0EC@JKPDJLLN@The?5second?5argument?5to?5asop2?5sho@ 1000cfc0     useasm:useasm.obj
 0001:0000c004       ??_C@_0DD@KLICCPHA@No?5flags?5are?5valid?5for?5the?5first@ 1000d004     useasm:useasm.obj
 0001:0000c038       ??_C@_0EB@BIMJBGCB@The?5first?5argument?5to?5asop2?5shou@ 1000d038     useasm:useasm.obj
 0001:0000c07c       ??_C@_0CB@PNFMFKCL@sop2?5must?5be?5coissued?5with?5asop2@ 1000d07c     useasm:useasm.obj
 0001:0000c0a0       ??_C@_0FJ@BADDHEFO@Invalid?5choice?5for?5the?5seventh?5a@ 1000d0a0     useasm:useasm.obj
 0001:0000c0fc       ??_C@_0DE@KEDJMMFI@No?5flags?5are?5valid?5for?5the?5seven@ 1000d0fc     useasm:useasm.obj
 0001:0000c130       ??_C@_0EC@HGMCGKBA@The?5seventh?5argument?5to?5sop2?5sho@ 1000d130     useasm:useasm.obj
 0001:0000c178       ??_C@_0HE@GKGLGGOL@Invalid?5choice?5for?5the?5sixth?5arg@ 1000d178     useasm:useasm.obj
 0001:0000c1ec       ??_C@_0DM@OGJGMIAI@Only?5the?5?4comp?5flag?5is?5valid?5for@ 1000d1ec     useasm:useasm.obj
 0001:0000c228       ??_C@_0EA@JBHMMHBL@The?5sixth?5argument?5to?5sop2?5shoul@ 1000d228     useasm:useasm.obj
 0001:0000c268       ??_C@_0HG@HJBDHCLG@Invalid?5choice?5for?5the?5fifth?5arg@ 1000d268     useasm:useasm.obj
 0001:0000c2e0       ??_C@_0DM@OEOABLFP@Only?5the?5?4comp?5flag?5is?5valid?5for@ 1000d2e0     useasm:useasm.obj
 0001:0000c320       ??_C@_0EA@PEDOBCNH@The?5fifth?5argument?5to?5sop2?5shoul@ 1000d320     useasm:useasm.obj
 0001:0000c360       ??_C@_0FB@HBOJEBLF@Invalid?5choices?5for?5the?5fourth?5a@ 1000d360     useasm:useasm.obj
 0001:0000c3b4       ??_C@_0CK@DBEGJBPP@Integer?5source?5selectors?5aren?8t?5@ 1000d3b4     useasm:useasm.obj
 0001:0000c3e0       ??_C@_0DD@GDJINGEN@No?5flags?5are?5valid?5for?5the?5fourt@ 1000d3e0     useasm:useasm.obj
 0001:0000c418       ??_C@_0EB@JLEKLKIL@The?5fourth?5argument?5to?5sop2?5shou@ 1000d418     useasm:useasm.obj
 0001:0000c45c       ??_C@_0DF@CEJLKMBG@Only?5nearest?5rounding?5is?5support@ 1000d45c     useasm:useasm.obj
 0001:0000c494       ??_C@_0CM@OHMDJNLO@An?5integer?5source?5selector?5can?8t@ 1000d494     useasm:useasm.obj
 0001:0000c4c0       ??_C@_0DC@PDLMCMGO@No?5flags?5are?5valid?5for?5an?5intege@ 1000d4c0     useasm:useasm.obj
 0001:0000c4f8       ??_C@_0EP@KFBPJKBI@The?5fourth?5argument?5to?5a?5pack?5in@ 1000d4f8     useasm:useasm.obj
 0001:0000c548       ??_C@_0FK@IMCFLHOE@Invalid?5bytemask?5specified?5?$CIlega@ 1000d548     useasm:useasm.obj
 0001:0000c5a4       ??_C@_0DM@CMGEAEEG@Invalid?5bytemask?5specified?5?$CIlega@ 1000d5a4     useasm:useasm.obj
 0001:0000c5e0       ??_C@_0DD@DLOGHDFD@The?5renable?5flag?5isn?8t?5supported@ 1000d5e0     useasm:useasm.obj
 0001:0000c618       ??_C@_0EO@CDMEKOCM@The?5renable?5flag?5is?5only?5valid?5w@ 1000d618     useasm:useasm.obj
 0001:0000c668       ??_C@_0FI@FHLKJJEN@The?5scale?5flag?5is?5only?5valid?5whe@ 1000d668     useasm:useasm.obj
 0001:0000c6c0       ??_C@_0CD@DJDKIHIP@The?5maximum?5predicate?5number?5is?5@ 1000d6c0     useasm:useasm.obj
 0001:0000c6e4       ??_C@_0CF@LNBFBGED@Predicate?5registers?5can?8t?5be?5ind@ 1000d6e4     useasm:useasm.obj
 0001:0000c70c       ??_C@_0DF@HMHEIKHA@No?5flags?5are?5valid?5for?5the?5predi@ 1000d70c     useasm:useasm.obj
 0001:0000c744       ??_C@_0CP@OJDGHEAF@The?5second?5argument?5to?5rlp?5must?5@ 1000d744     useasm:useasm.obj
 0001:0000c778       ??_C@_0IC@NPHCGHMI@An?5immediate?5source?5argument?5to?5@ 1000d778     useasm:useasm.obj
 0001:0000c7fc       ??_C@_0DB@JHGOCNIO@imul8?1imulu8?5is?5only?5valid?5with?5@ 1000d7fc     useasm:useasm.obj
 0001:0000c830       ??_C@_0DC@NCLFMCHI@fpadd8?1fpsub8?5is?5only?5valid?5with@ 1000d830     useasm:useasm.obj
 0001:0000c864       ??_C@_0DA@KAKEJMDJ@A?5mask?5is?5not?5valid?5on?5a?5dotprod@ 1000d864     useasm:useasm.obj
 0001:0000c894       ??_C@_0DC@PDHCBKCD@A?5repeat?5is?5not?5valid?5on?5a?5dotpr@ 1000d894     useasm:useasm.obj
 0001:0000c8c8       ??_C@_0EI@JILLLJML@This?5instruction?5isn?8t?5available@ 1000d8c8     useasm:useasm.obj
 0001:0000c910       ??_C@_0CE@PCBCMLOI@The?5maximum?5clip?5plane?5number?5is@ 1000d910     useasm:useasm.obj
 0001:0000c934       ??_C@_0CH@BBGNDHF@A?5clip?5plane?5argument?5is?5not?5ind@ 1000d934     useasm:useasm.obj
 0001:0000c95c       ??_C@_0CM@KGNDPEIK@No?5flags?5are?5valid?5for?5a?5clippla@ 1000d95c     useasm:useasm.obj
 0001:0000c988       ??_C@_0EL@OICFHNIF@The?5second?5argument?5to?5a?5fdpc?5in@ 1000d988     useasm:useasm.obj
 0001:0000c9d4       ??_C@_0DI@HLMNAEHK@Only?5i0?5and?5i1?5may?5be?5destinatio@ 1000d9d4     useasm:useasm.obj
 0001:0000ca0c       ??_C@_0CF@KCFJPPBJ@Internal?5registers?5are?5not?5index@ 1000da0c     useasm:useasm.obj
 0001:0000ca34       ??_C@_0DF@KGNOHAA@No?5flags?5are?5valid?5for?5an?5intern@ 1000da34     useasm:useasm.obj
 0001:0000ca70       ??_C@_0FC@GFPCKLPP@The?5second?5argument?5to?5a?5fddp?5in@ 1000da70     useasm:useasm.obj
 0001:0000cac8       ??_C@_0EL@NPBIKIOJ@The?5fourth?5argument?5to?5a?5fdpc?5in@ 1000dac8     useasm:useasm.obj
 0001:0000cb18       ??_C@_0EL@DBBJIGNF@The?5third?5argument?5to?5a?5fddpc?5in@ 1000db18     useasm:useasm.obj
 0001:0000cb68       ??_C@_0FD@HOIBEICL@The?5second?5argument?5to?5a?5fddpc?5i@ 1000db68     useasm:useasm.obj
 0001:0000cbbc       ??_C@_0DG@EDCHLIHP@Only?5?4tz?0?5?4t?$CBz?0?5?4tn?5or?5?4tp?$HMz?5are@ 1000dbbc     useasm:useasm.obj
 0001:0000cbf8       ??_C@_0EG@LBAJMGGK@A?5movc?5instruction?5must?5specify?5@ 1000dbf8     useasm:useasm.obj
 0001:0000cc40       ??_C@_0GA@OJMMLLIA@On?5this?5processor?5MOVC?5on?5C10?5fo@ 1000dc40     useasm:useasm.obj
 0001:0000cca0       ??_C@_0DP@CLFDAIAM@A?5movc?5instruction?5must?5include?5@ 1000dca0     useasm:useasm.obj
 0001:0000cce0       ??_C@_0FL@OJDHBDDM@The?5instruction?5is?5affected?5by?5B@ 1000dce0     useasm:useasm.obj
 0001:0000cd40       ??_C@_0IC@ONGMFPGB@The?5instruction?5is?5affected?5by?5B@ 1000dd40     useasm:useasm.obj
 0001:0000cdc4       ??_C@_0DP@GHIBIMHL@The?5maximum?5repeat?5count?5for?5an?5@ 1000ddc4     useasm:useasm.obj
 0001:0000ce08       ??_C@_0EC@JJHLNPNF@The?5seventh?5argument?5to?5sop2wm?5i@ 1000de08     useasm:useasm.obj
 0001:0000ce4c       ??_C@_0DG@GBFNJGMB@No?5flags?5are?5valid?5for?5the?5seven@ 1000de4c     useasm:useasm.obj
 0001:0000ce88       ??_C@_0EE@EGJILBFH@The?5seventh?5argument?5to?5sop2wm?5s@ 1000de88     useasm:useasm.obj
 0001:0000ced0       ??_C@_0EA@HOMFHCNO@The?5sixth?5argument?5to?5sop2wm?5is?5@ 1000ded0     useasm:useasm.obj
 0001:0000cf10       ??_C@_0DE@FDGMDKAF@No?5flags?5are?5valid?5for?5the?5sixth@ 1000df10     useasm:useasm.obj
 0001:0000cf48       ??_C@_0EC@NALFAHH@The?5sixth?5argument?5to?5sop2wm?5sho@ 1000df48     useasm:useasm.obj
 0001:0000cf8c       ??_C@_0DP@BGLACGDG@The?5fifth?5argument?5to?5sop2wm?5is?5@ 1000df8c     useasm:useasm.obj
 0001:0000cfcc       ??_C@_0DM@MLIHGKIL@Only?5?4comp?5is?5a?5valid?5flag?5for?5t@ 1000dfcc     useasm:useasm.obj
 0001:0000d008       ??_C@_0EC@JMPNILCM@The?5fifth?5argument?5to?5sop2wm?5sho@ 1000e008     useasm:useasm.obj
 0001:0000d050       ??_C@_0EA@NCGPJLOA@The?5fourth?5argument?5to?5sop2wm?5is@ 1000e050     useasm:useasm.obj
 0001:0000d090       ??_C@_0DN@NLJCHBJL@Only?5?4comp?5is?5a?5valid?5flag?5for?5t@ 1000e090     useasm:useasm.obj
 0001:0000d0d0       ??_C@_0ED@FCPONNNK@The?5fourth?5argument?5to?5sop2wm?5sh@ 1000e0d0     useasm:useasm.obj
 0001:0000d118       ??_C@_0EN@MDJOPIF@Invalid?5choice?5for?5the?5third?5arg@ 1000e118     useasm:useasm.obj
 0001:0000d168       ??_C@_0DC@DCENAPP@No?5flags?5are?5valid?5for?5the?5third@ 1000e168     useasm:useasm.obj
 0001:0000d19c       ??_C@_0DO@EELLDBBD@The?5third?5argument?5to?5asop?5must?5@ 1000e19c     useasm:useasm.obj
 0001:0000d1e0       ??_C@_0HF@CBIPLOPP@Invalid?5choice?5for?5the?5second?5ar@ 1000e1e0     useasm:useasm.obj
 0001:0000d258       ??_C@_0DL@GPHBDAAM@Only?5?4comp?5is?5a?5valid?5flag?5for?5t@ 1000e258     useasm:useasm.obj
 0001:0000d294       ??_C@_0DP@KOIBPLMG@The?5second?5argument?5to?5asop?5must@ 1000e294     useasm:useasm.obj
 0001:0000d2d8       ??_C@_0HE@JFMMNFAC@Invalid?5choice?5for?5the?5first?5arg@ 1000e2d8     useasm:useasm.obj
 0001:0000d34c       ??_C@_0DK@OKDCCLBL@Only?5?4comp?5is?5a?5valid?5flag?5for?5t@ 1000e34c     useasm:useasm.obj
 0001:0000d388       ??_C@_0DO@EOKHKJGH@The?5first?5argument?5to?5asop?5must?5@ 1000e388     useasm:useasm.obj
 0001:0000d3c8       ??_C@_0CA@LJJNKDND@lrp1?5must?5be?5coissued?5with?5asop?$AA@ 1000e3c8     useasm:useasm.obj
 0001:0000d3e8       ??_C@_0BH@DOCDFOCO@lrp1?5must?5be?5coisssued?$AA@ 1000e3e8     useasm:useasm.obj
 0001:0000d400       ??_C@_0BG@CHKAJNEL@lrp1?5must?5be?5coissued?$AA@ 1000e400     useasm:useasm.obj
 0001:0000d418       ??_C@_0EO@FKMJCGBG@Invalid?5choice?5for?5the?5seventh?5a@ 1000e418     useasm:useasm.obj
 0001:0000d468       ??_C@_0DE@MPNHBAIK@No?5flags?5are?5valid?5for?5the?5seven@ 1000e468     useasm:useasm.obj
 0001:0000d4a0       ??_C@_0EB@NCENCBNO@The?5seventh?5argument?5to?5lrp1?5mus@ 1000e4a0     useasm:useasm.obj
 0001:0000d4e8       ??_C@_0EN@NGJPOHKM@Invalid?5choice?5for?5the?5sixth?5arg@ 1000e4e8     useasm:useasm.obj
 0001:0000d538       ??_C@_0DM@INHIBENK@Only?5the?5?4comp?5flag?5is?5valid?5for@ 1000e538     useasm:useasm.obj
 0001:0000d574       ??_C@_0DP@NEMNCNNA@The?5sixth?5argument?5to?5lrp1?5must?5@ 1000e574     useasm:useasm.obj
 0001:0000d5b8       ??_C@_0FA@BCOHELNN@Invalid?5choice?5for?5the?5fifth?5arg@ 1000e5b8     useasm:useasm.obj
 0001:0000d608       ??_C@_0CM@KDAMEKKC@An?5integer?5source?5selector?5is?5no@ 1000e608     useasm:useasm.obj
 0001:0000d634       ??_C@_0DM@IPAOMHIN@Only?5the?5?4comp?5flag?5is?5valid?5for@ 1000e634     useasm:useasm.obj
 0001:0000d670       ??_C@_0DP@CGMBCHII@The?5fifth?5argument?5to?5lrp1?5must?5@ 1000e670     useasm:useasm.obj
 0001:0000d6b0       ??_C@_0BG@IEPGBLOC@lrp2?5must?5be?5coissued?$AA@ 1000e6b0     useasm:useasm.obj
 0001:0000d6c8       ??_C@_0EJ@KJLKFMN@Only?5zero?0?5one?5and?5s2a?5are?5valid@ 1000e6c8     useasm:useasm.obj
 0001:0000d714       ??_C@_0DE@FDNIJKHO@Only?5?4comp?5is?5valid?5for?5the?5seco@ 1000e714     useasm:useasm.obj
 0001:0000d748       ??_C@_0DP@GCMJDOBH@The?5second?5argument?5to?5alrp?5must@ 1000e748     useasm:useasm.obj
 0001:0000d788       ??_C@_0EI@POLJNHOP@Only?5zero?0?5one?5and?5s1a?5are?5valid@ 1000e788     useasm:useasm.obj
 0001:0000d7d0       ??_C@_0DD@LEOOHHIE@Only?5?4comp?5is?5valid?5for?5the?5firs@ 1000e7d0     useasm:useasm.obj
 0001:0000d804       ??_C@_0DO@ICOPGMLG@The?5first?5argument?5to?5alrp?5must?5@ 1000e804     useasm:useasm.obj
 0001:0000d844       ??_C@_0CA@BBLPFF@lrp2?5must?5be?5coissued?5with?5alrp?$AA@ 1000e844     useasm:useasm.obj
 0001:0000d868       ??_C@_0FD@JFBMKMNH@Invalid?5choice?5for?5the?5seventh?5a@ 1000e868     useasm:useasm.obj
 0001:0000d8c0       ??_C@_0EN@GMGJLELO@If?5the?5seventh?5argument?5to?5lrp2?5@ 1000e8c0     useasm:useasm.obj
 0001:0000d910       ??_C@_0FB@FJHLFMAN@If?5the?5seventh?5argument?5to?5lrp2?5@ 1000e910     useasm:useasm.obj
 0001:0000d968       ??_C@_0EP@GBKEKGGN@If?5the?5seventh?5argument?5to?5lrp2?5@ 1000e968     useasm:useasm.obj
 0001:0000d9b8       ??_C@_0EK@MPPLIHCI@If?5the?5seventh?5argument?5to?5lrp2?5@ 1000e9b8     useasm:useasm.obj
 0001:0000da04       ??_C@_0DN@BJBDMCPE@Only?5the?5?4comp?5flag?5is?5valid?5for@ 1000ea04     useasm:useasm.obj
 0001:0000da48       ??_C@_0EA@MACNPBPH@The?5eighth?5argument?5to?5lrp2?5must@ 1000ea48     useasm:useasm.obj
 0001:0000da88       ??_C@_0DO@GLBNDEGP@Only?5the?5?4comp?5flag?5is?5valid?5for@ 1000ea88     useasm:useasm.obj
 0001:0000dac8       ??_C@_0EB@JPKFCBLJ@The?5seventh?5argument?5to?5lrp2?5mus@ 1000eac8     useasm:useasm.obj
 0001:0000db10       ??_C@_0HH@IBAGBKNH@Invalid?5choice?5for?5the?5sixth?5arg@ 1000eb10     useasm:useasm.obj
 0001:0000db88       ??_C@_0DM@KGFFEHBJ@Only?5the?5?4comp?5flag?5is?5valid?5for@ 1000eb88     useasm:useasm.obj
 0001:0000dbc4       ??_C@_0DP@JJCFCNLH@The?5sixth?5argument?5to?5lrp2?5must?5@ 1000ebc4     useasm:useasm.obj
 0001:0000dc08       ??_C@_0HI@KGJMFIGE@Invalid?5choice?5for?5the?5fifth?5arg@ 1000ec08     useasm:useasm.obj
 0001:0000dc80       ??_C@_0DM@PNPLCKBO@Only?5the?5?4comp?5flag?5is?5valid?5for@ 1000ec80     useasm:useasm.obj
 0001:0000dcbc       ??_C@_0DP@JFIMNECE@The?5fifth?5argument?5to?5sop3?5must?5@ 1000ecbc     useasm:useasm.obj
 0001:0000dd00       ??_C@_0EP@LFLPCFJM@Invalid?5choice?5for?5the?5second?5ar@ 1000ed00     useasm:useasm.obj
 0001:0000dd50       ??_C@_0DE@GEPIHLDC@No?5flags?5are?5valid?5for?5the?5secon@ 1000ed50     useasm:useasm.obj
 0001:0000dd88       ??_C@_0EA@CILJPHKB@The?5second?5argument?5to?5arsop?5mus@ 1000ed88     useasm:useasm.obj
 0001:0000ddc8       ??_C@_0FO@BGCOGJJP@Invalid?5choice?5for?5the?5first?5arg@ 1000edc8     useasm:useasm.obj
 0001:0000de28       ??_C@_0DE@LFEIHKHD@Only?5?4comp?5is?5valid?5for?5the?5firs@ 1000ee28     useasm:useasm.obj
 0001:0000de5c       ??_C@_0DP@IJIIECIN@The?5first?5argument?5to?5arsop?5must@ 1000ee5c     useasm:useasm.obj
 0001:0000dea0       ??_C@_0EK@DIJKPKNM@SOP3?5with?5ARSOP?5and?5a?5complement@ 1000eea0     useasm:useasm.obj
 0001:0000def0       ??_C@_0EO@BNBKMGBP@Invalid?5choice?5for?5the?5second?5ar@ 1000eef0     useasm:useasm.obj
 0001:0000df40       ??_C@_0DD@KDAMLAMK@No?5flags?5are?5valid?5for?5the?5secon@ 1000ef40     useasm:useasm.obj
 0001:0000df78       ??_C@_0FN@ONPCNNEO@Invalid?5choice?5for?5the?5first?5arg@ 1000ef78     useasm:useasm.obj
 0001:0000dfd8       ??_C@_0DD@KIGKAAGO@Only?5?4comp?5is?5valid?5for?5the?5firs@ 1000efd8     useasm:useasm.obj
 0001:0000e010       ??_C@_0FE@LNCOBNA@Invalid?5choice?5for?5the?5first?5arg@ 1000f010     useasm:useasm.obj
 0001:0000e068       ??_C@_0FE@JJEFPIJ@Invalid?5choice?5for?5the?5first?5arg@ 1000f068     useasm:useasm.obj
 0001:0000e0c0       ??_C@_0ED@PGOFNOAD@sop3?5with?5a?5negate?5destination?5m@ 1000f0c0     useasm:useasm.obj
 0001:0000e104       ??_C@_0CE@OHCGBBLC@sop3?5without?5a?5coissued?5instruct@ 1000f104     useasm:useasm.obj
 0001:0000e128       ??_C@_0BG@MFEMFFAE@sop3?5must?5be?5coissued?$AA@ 1000f128     useasm:useasm.obj
 0001:0000e140       ??_C@_0EL@GLFHPIPJ@Invalid?5choice?5for?5eighth?5argume@ 1000f140     useasm:useasm.obj
 0001:0000e190       ??_C@_0EA@DOIIACDM@The?5eighth?5argument?5to?5sop3?5must@ 1000f190     useasm:useasm.obj
 0001:0000e1d0       ??_C@_0EP@LLOJFENH@Invalid?5choice?5for?5the?5seventh?5a@ 1000f1d0     useasm:useasm.obj
 0001:0000e220       ??_C@_0DE@LNCCPNBJ@No?5flags?5are?5valid?5for?5the?5seven@ 1000f220     useasm:useasm.obj
 0001:0000e258       ??_C@_0EB@GBAANCHC@The?5seventh?5argument?5to?5sop3?5mus@ 1000f258     useasm:useasm.obj
 0001:0000e2a0       ??_C@_0HE@NOFOGDCI@Invalid?5choice?5for?5the?5sixth?5arg@ 1000f2a0     useasm:useasm.obj
 0001:0000e314       ??_C@_0DK@GPFHLHKL@Only?5?4comp?5is?5a?5valid?5flag?5for?5t@ 1000f314     useasm:useasm.obj
 0001:0000e350       ??_C@_0DP@GHIANOHM@The?5sixth?5argument?5to?5sop3?5must?5@ 1000f350     useasm:useasm.obj
 0001:0000e390       ??_C@_0HE@OENIBECC@Invalid?5choice?5for?5the?5fifth?5arg@ 1000f390     useasm:useasm.obj
 0001:0000e404       ??_C@_0DK@GNCBGEPM@Only?5?4comp?5is?5a?5valid?5flag?5for?5t@ 1000f404     useasm:useasm.obj
 0001:0000e440       ??_C@_0BH@NMPINIEC@sop3?5can?8t?5be?5repeated?$AA@ 1000f440     useasm:useasm.obj
 0001:0000e458       ??_C@_0DK@OMANMEPM@Only?5s2a?5is?5a?5valid?5choice?5for?5t@ 1000f458     useasm:useasm.obj
 0001:0000e494       ??_C@_0DK@DPJMNKAL@Only?5?4comp?5is?5a?5valid?5flag?5for?5t@ 1000f494     useasm:useasm.obj
 0001:0000e4d0       ??_C@_0DP@BFGILNHD@The?5tenth?5argument?5to?5ima8?5must?5@ 1000f4d0     useasm:useasm.obj
 0001:0000e510       ??_C@_0DL@FMNMANPN@Only?5s1a?5is?5a?5valid?5choice?5for?5t@ 1000f510     useasm:useasm.obj
 0001:0000e54c       ??_C@_0DL@PMLPCLJP@Only?5?4comp?5is?5a?5valid?5flag?5for?5t@ 1000f54c     useasm:useasm.obj
 0001:0000e588       ??_C@_0EA@OKAGHCFL@The?5nineth?5argument?5to?5ima8?5must@ 1000f588     useasm:useasm.obj
 0001:0000e5c8       ??_C@_0ED@FKCOCDED@Only?5s0a?5and?5s1a?5are?5valid?5choic@ 1000f5c8     useasm:useasm.obj
 0001:0000e60c       ??_C@_0DL@HABGHCJK@Only?5?4comp?5is?5a?5valid?5flag?5for?5t@ 1000f60c     useasm:useasm.obj
 0001:0000e648       ??_C@_0EA@EABBPNKK@The?5eighth?5argument?5to?5ima8?5must@ 1000f648     useasm:useasm.obj
 0001:0000e688       ??_C@_0ED@FDKGPKDC@Only?5s2?5and?5s2a?5are?5valid?5choice@ 1000f688     useasm:useasm.obj
 0001:0000e6cc       ??_C@_0DM@LBKALADI@Only?5?4comp?5is?5a?5valid?5flag?5for?5t@ 1000f6cc     useasm:useasm.obj
 0001:0000e708       ??_C@_0EB@BPJJCNOE@The?5seventh?5argument?5to?5ima8?5mus@ 1000f708     useasm:useasm.obj
 0001:0000e750       ??_C@_0EB@CLJBDDPJ@Only?5s1?5and?5s1a?5are?5valid?5choice@ 1000f750     useasm:useasm.obj
 0001:0000e794       ??_C@_0DK@BBBOOAIP@Only?5?4comp?5is?5a?5valid?5flag?5for?5t@ 1000f794     useasm:useasm.obj
 0001:0000e7d0       ??_C@_0DP@BJBJCBOK@The?5sixth?5argument?5to?5ima8?5must?5@ 1000f7d0     useasm:useasm.obj
 0001:0000e810       ??_C@_0EK@KADHKBHD@Only?5s0?0?5s1?0?5s0a?5and?5s1a?5are?5val@ 1000f810     useasm:useasm.obj
 0001:0000e85c       ??_C@_0DK@BDGIDDNI@Only?5?4comp?5is?5a?5valid?5flag?5for?5t@ 1000f85c     useasm:useasm.obj
 0001:0000e898       ??_C@_0DP@OLBFCLLC@The?5fifth?5argument?5to?5ima8?5must?5@ 1000f898     useasm:useasm.obj
 0001:0000e8d8       ??_C@_0EK@HCFFGHCH@Third?5argument?5to?5ima16?5is?58?9bit@ 1000f8d8     useasm:useasm.obj
 0001:0000e928       ??_C@_0EL@EFNHNPFP@Second?5argument?5to?5ima16?5is?58?9bi@ 1000f928     useasm:useasm.obj
 0001:0000e974       ??_C@_0DD@DHKGKKGN@No?5flags?5are?5valid?5for?5the?5sixth@ 1000f974     useasm:useasm.obj
 0001:0000e9a8       ??_C@_0CM@KFKJJGEN@The?5sixth?5argument?5to?5ima16?5isn?8@ 1000f9a8     useasm:useasm.obj
 0001:0000e9d4       ??_C@_0DC@FLFMKFFD@The?5sixth?5argument?5to?5ima16?5must@ 1000f9d4     useasm:useasm.obj
 0001:0000ea08       ??_C@_0EN@LDKLHMAN@Invalid?5source?5data?5format?5for?5i@ 1000fa08     useasm:useasm.obj
 0001:0000ea58       ??_C@_0DD@MCKLBIOJ@No?5flags?5are?5valid?5for?5the?5fifth@ 1000fa58     useasm:useasm.obj
 0001:0000ea8c       ??_C@_0CM@LHIIENBO@The?5fifth?5argument?5to?5ima16?5isn?8@ 1000fa8c     useasm:useasm.obj
 0001:0000eab8       ??_C@_0DC@CIEPCOAH@The?5fifth?5argument?5to?5ima16?5must@ 1000fab8     useasm:useasm.obj
 0001:0000eaec       ??_C@_0DJ@KMFCNFLN@Only?5one?5of?5?4s?5and?5?4u?5can?5be?5spe@ 1000faec     useasm:useasm.obj
 0001:0000eb28       ??_C@_0DN@LMMEBOND@The?5maximum?5destination?5shift?5fo@ 1000fb28     useasm:useasm.obj
 0001:0000eb68       ??_C@_0EA@BEAJFKLN@The?5maximum?5register?5number?5for?5@ 1000fb68     useasm:useasm.obj
 0001:0000eba8       ??_C@_0CL@DOOAPBOB@The?5eighth?5source?5to?5imae?5can?8t?5@ 1000fba8     useasm:useasm.obj
 0001:0000ebd4       ??_C@_0DB@PKHIFEJJ@No?5flags?5are?5valid?5for?5the?5eight@ 1000fbd4     useasm:useasm.obj
 0001:0000ec08       ??_C@_0EI@OMIBHEJN@The?5eighth?5source?5to?5imae?5should@ 1000fc08     useasm:useasm.obj
 0001:0000ec50       ??_C@_0EH@DLKGLNI@Only?5cie?5or?5nothing?5are?5valid?5ch@ 1000fc50     useasm:useasm.obj
 0001:0000ec98       ??_C@_0DE@MMHOIJCE@No?5flags?5are?5valid?5for?5the?5seven@ 1000fc98     useasm:useasm.obj
 0001:0000eccc       ??_C@_0CN@IKCGDAFI@The?5seventh?5argument?5to?5imae?5isn@ 1000fccc     useasm:useasm.obj
 0001:0000ecfc       ??_C@_0DE@IAOPODPF@The?5seventh?5argument?5to?5imae?5mus@ 1000fcfc     useasm:useasm.obj
 0001:0000ed30       ??_C@_0EF@JBDPGDKG@Only?5coe?5or?5nothing?5are?5valid?5ch@ 1000fd30     useasm:useasm.obj
 0001:0000ed78       ??_C@_0DC@GPPMJACC@No?5flags?5are?5valid?5for?5the?5sixth@ 1000fd78     useasm:useasm.obj
 0001:0000edac       ??_C@_0CL@CDIKAGGM@The?5sixth?5argument?5to?5imae?5isn?8t@ 1000fdac     useasm:useasm.obj
 0001:0000edd8       ??_C@_0DC@HDJGOJKK@The?5sixth?5argument?5to?5imae?5must?5@ 1000fdd8     useasm:useasm.obj
 0001:0000ee0c       ??_C@_0DD@DNBAOKIA@?4low?5and?5?4high?5are?5meaningless?5f@ 1000fe0c     useasm:useasm.obj
 0001:0000ee40       ??_C@_0EG@PNOIEBGC@One?5of?5?4low?5or?5?4high?5should?5be?5s@ 1000fe40     useasm:useasm.obj
 0001:0000ee88       ??_C@_0EH@DLDLJEEK@One?5of?5?4low?5or?5?4high?5should?5be?5s@ 1000fe88     useasm:useasm.obj
 0001:0000eed0       ??_C@_0EG@HGBJOGAP@One?5of?5?4low?5or?5?4high?5should?5be?5s@ 1000fed0     useasm:useasm.obj
 0001:0000ef18       ??_C@_0BN@MCMCHHHO@Invalid?5data?5format?5for?5imae?$AA@ 1000ff18     useasm:useasm.obj
 0001:0000ef38       ??_C@_0DC@GNIKEDHF@No?5flags?5are?5valid?5for?5the?5fifth@ 1000ff38     useasm:useasm.obj
 0001:0000ef6c       ??_C@_0CL@LFLIAFDF@The?5fifth?5argument?5to?5imae?5isn?8t@ 1000ff6c     useasm:useasm.obj
 0001:0000ef98       ??_C@_0DB@NOAIOELF@The?5fifth?5argument?5to?5imae?5must?5@ 1000ff98     useasm:useasm.obj
 0001:0000efcc       ??_C@_0DM@EHOELKCO@The?5maximum?5destination?5shift?5fo@ 1000ffcc     useasm:useasm.obj
 0001:0000f008       ??_C@_0DE@JCLFGKBG@Maximum?5repeat?5count?5on?5an?5integ@ 10010008     useasm:useasm.obj
 0001:0000f040       ??_C@_0EG@JFIEFIAN@Only?5u8?5or?5s8?5are?5valid?5as?5a?5cho@ 10010040     useasm:useasm.obj
 0001:0000f088       ??_C@_0DF@BFAJNMNE@No?5flags?5are?5valid?5for?5the?5ninet@ 10010088     useasm:useasm.obj
 0001:0000f0c0       ??_C@_0EB@EPNJCIMP@The?5nineth?5argument?5to?5ssum16?5mu@ 100100c0     useasm:useasm.obj
 0001:0000f108       ??_C@_0EM@CDDPPEDE@Only?5iadd?5or?5nothing?5is?5valid?5as@ 10010108     useasm:useasm.obj
 0001:0000f154       ??_C@_0DF@HKMJENGI@No?5flags?5are?5valid?5for?5the?5eight@ 10010154     useasm:useasm.obj
 0001:0000f190       ??_C@_0EB@IFMJPNMK@The?5eighth?5argument?5to?5ssum16?5mu@ 10010190     useasm:useasm.obj
 0001:0000f1d8       ??_C@_0ED@OAGGGGIH@Only?5i0?5or?5r1?5valid?5as?5a?5choice?5@ 100101d8     useasm:useasm.obj
 0001:0000f21c       ??_C@_0CF@BGFEHLBP@An?5internal?5register?5isn?8t?5index@ 1001021c     useasm:useasm.obj
 0001:0000f244       ??_C@_0DG@GDJPLBEI@No?5flags?5are?5valid?5for?5the?5seven@ 10010244     useasm:useasm.obj
 0001:0000f280       ??_C@_0EC@BEPCBJIN@The?5seventh?5argument?5to?5ssum16?5m@ 10010280     useasm:useasm.obj
 0001:0000f2c8       ??_C@_0EL@BECKFGPA@Only?5iadd?5or?5nothing?5is?5valid?5as@ 100102c8     useasm:useasm.obj
 0001:0000f314       ??_C@_0DE@FBKOBNIM@No?5flags?5are?5valid?5for?5the?5sixth@ 10010314     useasm:useasm.obj
 0001:0000f348       ??_C@_0EA@PDEMLEIG@The?5sixth?5argument?5to?5ssum16?5mus@ 10010348     useasm:useasm.obj
 0001:0000f388       ??_C@_0EL@HFHGKGHC@Only?5idst?5or?5nothing?5is?5valid?5as@ 10010388     useasm:useasm.obj
 0001:0000f3d4       ??_C@_0CL@KCGNBGBH@An?5integer?5source?5selector?5isn?8t@ 100103d4     useasm:useasm.obj
 0001:0000f400       ??_C@_0DE@LLIOFHAH@No?5flags?5are?5valid?5for?5the?5fifth@ 10010400     useasm:useasm.obj
 0001:0000f438       ??_C@_0EA@JGAOGBEK@The?5fifth?5argument?5to?5ssum16?5mus@ 10010438     useasm:useasm.obj
 0001:0000f478       ??_C@_0DE@IJOOAFAA@Maximum?5repeat?5count?5on?5an?5SSUM1@ 10010478     useasm:useasm.obj
 0001:0000f4ac       ??_C@_0CJ@EGABLJED@ssum16?5isn?8t?5available?5on?5this?5p@ 100104ac     useasm:useasm.obj
 0001:0000f4d8       ??_C@_0EL@LEHINHKP@Only?5scale?5or?5nothing?5is?5valid?5a@ 100104d8     useasm:useasm.obj
 0001:0000f524       ??_C@_0DD@MBMDINHI@No?5flags?5are?5valid?5for?5the?5eight@ 10010524     useasm:useasm.obj
 0001:0000f558       ??_C@_0DP@DNLIJOFH@The?5eighth?5argument?5to?5firv?5must@ 10010558     useasm:useasm.obj
 0001:0000f598       ??_C@_0EL@PLEHJOGF@Only?5iadd?5or?5nothing?5is?5valid?5as@ 10010598     useasm:useasm.obj
 0001:0000f5e4       ??_C@_0DE@LOMDNFBJ@No?5flags?5are?5valid?5for?5the?5seven@ 100105e4     useasm:useasm.obj
 0001:0000f618       ??_C@_0EA@LAOANIGO@The?5seventh?5argument?5to?5firv?5mus@ 10010618     useasm:useasm.obj
 0001:0000f658       ??_C@_0EM@PPMBHMLB@Only?5?$CLsrc2?42?5or?5nothing?5is?5valid@ 10010658     useasm:useasm.obj
 0001:0000f6a4       ??_C@_0DC@BNEBMMBP@No?5flags?5are?5valid?5for?5the?5sixth@ 100106a4     useasm:useasm.obj
 0001:0000f6d8       ??_C@_0DO@IGFJMJCL@The?5sixth?5argument?5to?5firv?5must?5@ 100106d8     useasm:useasm.obj
 0001:0000f718       ??_C@_0CL@MDHBFNJL@The?5fifth?5argument?5to?5firv?5isn?8t@ 10010718     useasm:useasm.obj
 0001:0000f744       ??_C@_0DC@BPDHBPEI@No?5flags?5are?5valid?5for?5the?5fifth@ 10010744     useasm:useasm.obj
 0001:0000f778       ??_C@_0DP@LCJNOCNN@The?5fifth?5argument?5to?5firv?5must?5@ 10010778     useasm:useasm.obj
 0001:0000f7b8       ??_C@_0HP@FKECLPEM@The?5register?5bank?5for?5firv?5sourc@ 100107b8     useasm:useasm.obj
 0001:0000f838       ??_C@_0EG@NEGMNEOD@The?5register?5banks?5for?5source?50?5@ 10010838     useasm:useasm.obj
 0001:0000f880       ??_C@_0CD@BDBMNPHP@Maximum?5repeat?5count?5on?5firv?5is?5@ 10010880     useasm:useasm.obj
 0001:0000f8a8       ??_C@_0EK@MMLIIHNN@Only?5scale?5or?5nothing?5is?5valid?5a@ 100108a8     useasm:useasm.obj
 0001:0000f8f8       ??_C@_0EJ@NGJACPPH@Only?5iadd?5or?5nothing?5is?5valid?5as@ 100108f8     useasm:useasm.obj
 0001:0000f944       ??_C@_0DO@OIFDNPHI@The?5fifth?5argument?5to?5firv?5must?5@ 10010944     useasm:useasm.obj
 0001:0000f988       ??_C@_0EN@EIOOMBFD@Only?5?$CLsrc2?42?5or?5nothing?5is?5valid@ 10010988     useasm:useasm.obj
 0001:0000f9d8       ??_C@_0DP@FGKELBIB@The?5fourth?5argument?5to?5firv?5must@ 100109d8     useasm:useasm.obj
 0001:0000fa18       ??_C@_0EE@EGNLBLOB@The?5register?5bank?5for?5firvh?5sour@ 10010a18     useasm:useasm.obj
 0001:0000fa5c       ??_C@_0CE@HBKLLEAA@Maximum?5repeat?5count?5on?5firvh?5is@ 10010a5c     useasm:useasm.obj
 0001:0000fa80       ??_C@_0CI@CFGKFHCM@firvh?5isn?8t?5available?5on?5this?5pr@ 10010a80     useasm:useasm.obj
 0001:0000faa8       ??_C@_0EA@CNFLJPLE@The?5nineth?5argument?5to?5bilin?5mus@ 10010aa8     useasm:useasm.obj
 0001:0000fae8       ??_C@_0DE@OJKKKHIL@No?5flags?5are?5valid?5for?5the?5ninet@ 10010ae8     useasm:useasm.obj
 0001:0000fb1c       ??_C@_0CN@DJDNLEIC@The?5nineth?5argument?5to?5bilin?5isn@ 10010b1c     useasm:useasm.obj
 0001:0000fb4c       ??_C@_0DH@HFBBMNAM@The?5nineth?5argument?5to?5bilin?5mus@ 10010b4c     useasm:useasm.obj
 0001:0000fb88       ??_C@_0EA@OPFHNAEG@The?5eighth?5argument?5to?5bilin?5mus@ 10010b88     useasm:useasm.obj
 0001:0000fbc8       ??_C@_0DE@JJEMPKFN@No?5flags?5are?5valid?5for?5the?5eight@ 10010bc8     useasm:useasm.obj
 0001:0000fbfc       ??_C@_0CN@MBAHDJDB@The?5eighth?5argument?5to?5bilin?5isn@ 10010bfc     useasm:useasm.obj
 0001:0000fc30       ??_C@_0EJ@BIMEJMPB@The?5eighth?5argument?5to?5bilin?5mus@ 10010c30     useasm:useasm.obj
 0001:0000fc80       ??_C@_0EB@LANPAAAI@The?5seventh?5argument?5to?5bilin?5mu@ 10010c80     useasm:useasm.obj
 0001:0000fcc4       ??_C@_0DF@KDIGKLML@No?5flags?5are?5valid?5for?5the?5seven@ 10010cc4     useasm:useasm.obj
 0001:0000fcfc       ??_C@_0CO@HELDAPEL@The?5seventh?5argument?5to?5bilin?5is@ 10010cfc     useasm:useasm.obj
 0001:0000fd30       ??_C@_0EF@CJMNJFOI@The?5seventh?5argument?5to?5bilin?5mu@ 10010d30     useasm:useasm.obj
 0001:0000fd78       ??_C@_0EG@CPMAHDPO@The?5sixth?5argument?5to?5bilin?5must@ 10010d78     useasm:useasm.obj
 0001:0000fdc0       ??_C@_0DD@EKEGIMOH@No?5flags?5are?5valid?5for?5the?5sixth@ 10010dc0     useasm:useasm.obj
 0001:0000fdf4       ??_C@_0CM@FFKOFHMI@The?5sixth?5argument?5to?5bilin?5isn?8@ 10010df4     useasm:useasm.obj
 0001:0000fe20       ??_C@_0EA@HDMMDEFM@The?5sixth?5argument?5to?5bilin?5must@ 10010e20     useasm:useasm.obj
 0001:0000fe60       ??_C@_0EA@BGIOOBJA@The?5fifth?5argument?5to?5bilin?5must@ 10010e60     useasm:useasm.obj
 0001:0000fea0       ??_C@_0DD@LPELDOGD@No?5flags?5are?5valid?5for?5the?5fifth@ 10010ea0     useasm:useasm.obj
 0001:0000fed4       ??_C@_0CM@EHIPIMJL@The?5fifth?5argument?5to?5bilin?5isn?8@ 10010ed4     useasm:useasm.obj
 0001:0000ff00       ??_C@_0EB@ILBDCOKI@The?5fifth?5argument?5to?5bilin?5must@ 10010f00     useasm:useasm.obj
 0001:0000ff44       ??_C@_0CE@PONMLKAD@Maximum?5repeat?5count?5on?5bilin?5is@ 10010f44     useasm:useasm.obj
 0001:0000ff68       ??_C@_0DE@JHKIEKPM@The?5range?5of?5the?5nineth?5argument@ 10010f68     useasm:useasm.obj
 0001:0000ff9c       ??_C@_0DH@KHNFKIAG@The?5nineth?5argument?5to?5firh?5must@ 10010f9c     useasm:useasm.obj
 0001:0000ffd4       ??_C@_0DF@JCFPNCKH@The?5range?5of?5the?5eighth?5argument@ 10010fd4     useasm:useasm.obj
 0001:0001000c       ??_C@_0DH@BGJCEECP@The?5eighth?5argument?5to?5firh?5must@ 1001100c     useasm:useasm.obj
 0001:00010044       ??_C@_0CI@HEOOLMFP@The?5maximum?5filter?5coefficent?5se@ 10011044     useasm:useasm.obj
 0001:0001006c       ??_C@_0DC@CJJPPKOA@No?5flags?5are?5valid?5for?5a?5filter?5@ 1001106c     useasm:useasm.obj
 0001:000100a0       ??_C@_0CI@BPHBGDKA@Filter?5coefficent?5sets?5aren?8t?5in@ 100110a0     useasm:useasm.obj
 0001:000100c8       ??_C@_0DN@NIIJMAFI@The?5seventh?5argument?5to?5firh?5mus@ 100110c8     useasm:useasm.obj
 0001:00010108       ??_C@_0CK@MCCCMAME@No?5flags?5are?5valid?5for?5an?5immedi@ 10011108     useasm:useasm.obj
 0001:00010134       ??_C@_0CE@BOJPMEGF@An?5immediate?5value?5is?5not?5indexa@ 10011134     useasm:useasm.obj
 0001:00010158       ??_C@_0DK@HBKJDJHH@The?5sixth?5argument?5to?5firh?5must?5@ 10011158     useasm:useasm.obj
 0001:00010194       ??_C@_0DC@MLHGCAJH@No?5flags?5are?5valid?5for?5the?5fifth@ 10011194     useasm:useasm.obj
 0001:000101c8       ??_C@_0CL@PEPPBDAK@The?5fifth?5argument?5to?5firh?5isn?8t@ 100111c8     useasm:useasm.obj
 0001:000101f4       ??_C@_0DN@JOJEKONN@The?5fifth?5argument?5to?5firh?5must?5@ 100111f4     useasm:useasm.obj
 0001:00010238       ??_C@_0HP@FIJDICNA@The?5register?5bank?5for?5firh?5sourc@ 10011238     useasm:useasm.obj
 0001:000102b8       ??_C@_0EG@FDFDPJHP@The?5register?5banks?5for?5source?50?5@ 100112b8     useasm:useasm.obj
 0001:00010300       ??_C@_0CD@HKCNPMGG@Maximum?5repeat?5count?5on?5firh?5is?5@ 10011300     useasm:useasm.obj
 0001:00010324       ??_C@_0DP@DKFIGMEP@The?5destination?5argument?5to?5firh@ 10011324     useasm:useasm.obj
 0001:00010364       ??_C@_0DF@BDOGECIG@The?5range?5of?5the?5nineth?5argument@ 10011364     useasm:useasm.obj
 0001:0001039c       ??_C@_0DI@PJONGPDL@The?5nineth?5argument?5to?5firhh?5mus@ 1001139c     useasm:useasm.obj
 0001:000103d4       ??_C@_0DG@KGIDPMLA@The?5range?5of?5the?5eighth?5argument@ 100113d4     useasm:useasm.obj
 0001:0001040c       ??_C@_0DI@LLOOLALL@The?5eighth?5argument?5to?5firhh?5mus@ 1001140c     useasm:useasm.obj
 0001:00010444       ??_C@_0DO@EEFEJEHK@The?5seventh?5argument?5to?5firhh?5mu@ 10011444     useasm:useasm.obj
 0001:00010484       ??_C@_0DL@OHNCDOMJ@The?5sixth?5argument?5to?5firhh?5must@ 10011484     useasm:useasm.obj
 0001:000104c0       ??_C@_0DD@MDIEJBGI@No?5flags?5are?5valid?5for?5the?5fifth@ 100114c0     useasm:useasm.obj
 0001:000104f4       ??_C@_0CM@DLIOMDAE@The?5fifth?5argument?5to?5firhh?5isn?8@ 100114f4     useasm:useasm.obj
 0001:00010520       ??_C@_0DO@NGNIOBOG@The?5fifth?5argument?5to?5firhh?5must@ 10011520     useasm:useasm.obj
 0001:00010560       ??_C@_0IA@FCFJDLLG@The?5register?5bank?5for?5firhh?5sour@ 10011560     useasm:useasm.obj
 0001:000105e0       ??_C@_0EH@HPAOOKCK@The?5register?5banks?5for?5source?50?5@ 100115e0     useasm:useasm.obj
 0001:00010628       ??_C@_0CE@BFKJCNOD@Maximum?5repeat?5count?5on?5firhh?5is@ 10011628     useasm:useasm.obj
 0001:0001064c       ??_C@_0CI@CPDCNICP@firhh?5isn?8t?5available?5on?5this?5pr@ 1001164c     useasm:useasm.obj
 0001:00010674       ??_C@_0DC@OJMFLOPA@A?5repeat?5count?5isn?8t?5supported?5o@ 10011674     useasm:useasm.obj
 0001:000106a8       ??_C@_0DJ@PFEOBFIJ@Valid?5values?5for?5argument?5?$CFd?5to?5@ 100116a8     useasm:useasm.obj
 0001:000106e4       ??_C@_0DK@PJMBECMK@On?5this?5core?5SMP?5result?5format?5c@ 100116e4     useasm:useasm.obj
 0001:00010720       ??_C@_0CL@ONLJAILI@The?5maximum?5number?5of?5a?5drc?5regi@ 10011720     useasm:useasm.obj
 0001:0001074c       ??_C@_0DJ@KMKOLKOO@No?5flags?5are?5valid?5for?5a?5depende@ 1001174c     useasm:useasm.obj
 0001:00010788       ??_C@_0EE@BEFGELHF@A?5dependent?5read?5counter?5registe@ 10011788     useasm:useasm.obj
 0001:000107d0       ??_C@_0FI@CPMJEANO@The?5fourth?5argument?5to?5a?5sampler@ 100117d0     useasm:useasm.obj
 0001:00010828       ??_C@_0FD@LADDBKEH@The?5destination?5for?5a?5SMP?5must?5b@ 10011828     useasm:useasm.obj
 0001:0001087c       ??_C@_0CM@KHPAMMAK@The?5destination?5for?5an?5SMP?5can?8t@ 1001187c     useasm:useasm.obj
 0001:000108a8       ??_C@_0DC@EEBJMIBO@A?5?$CFs?5instruction?5can?8t?5be?5predic@ 100118a8     useasm:useasm.obj
 0001:000108dc       ??_C@_0DC@DNHACGFH@?4fcfill?5and?5?4bypassl1?5can?8t?5be?5s@ 100118dc     useasm:useasm.obj
 0001:00010910       ??_C@_0DD@BEGMGHDH@?4bpcache?5and?5?4bypassl1?5can?8t?5be?5@ 10011910     useasm:useasm.obj
 0001:00010944       ??_C@_0DB@JCFACDNN@?4bpcache?5and?5?4fcfill?5can?8t?5be?5sp@ 10011944     useasm:useasm.obj
 0001:00010978       ??_C@_0FD@KGBKPKPH@The?5last?5argument?5to?5a?5load?5inst@ 10011978     useasm:useasm.obj
 0001:000109cc       ??_C@_0CL@NHIEGIGG@The?5destination?5for?5an?5LD?5can?8t?5@ 100119cc     useasm:useasm.obj
 0001:000109f8       ??_C@_0FD@DHDGKGAN@The?5destination?5for?5an?5LD?5must?5b@ 100119f8     useasm:useasm.obj
 0001:00010a4c       ??_C@_0DD@ECJPHDDF@A?5load?1store?5can?8t?5be?5both?5pre?9?5@ 10011a4c     useasm:useasm.obj
 0001:00010a80       ??_C@_0FC@LJJNHLCE@?$CFs?5can?8t?5be?5used?5with?5non?9pre?1po@ 10011a80     useasm:useasm.obj
 0001:00010ad8       ??_C@_0EN@GCEEDLLB@Pre?1post?9increment?5can?8t?5be?5spec@ 10011ad8     useasm:useasm.obj
 0001:00010b28       ??_C@_0ED@IMFMHAAP@Source?51?5can?8t?5be?5immediate?5for?5@ 10011b28     useasm:useasm.obj
 0001:00010b6c       ??_C@_0CA@BFMOGGHL@?$CFs?5isn?8t?5supported?5on?5this?5core?$AA@ 10011b6c     useasm:useasm.obj
 0001:00010b8c       ??_C@_0CJ@NLADGPEP@The?5argument?5to?5a?5branch?5must?5be@ 10011b8c     useasm:useasm.obj
 0001:00010bb8       ??_C@_0DD@COOIGJEM@Pn?5isn?8t?5a?5valid?5predicate?5for?5b@ 10011bb8     useasm:useasm.obj
 0001:00010bec       ??_C@_0DI@LKENEFMD@Only?5drc0?5can?5be?5used?5with?5PBE?5d@ 10011bec     useasm:useasm.obj
 0001:00010c24       ??_C@_0BL@DDAKDDCD@Invalid?5data?5path?5selector?$AA@ 10011c24     useasm:useasm.obj
 0001:00010c40       ??_C@_0CM@EIBHGDCN@No?5flags?5are?5valid?5for?5a?5data?5pa@ 10011c40     useasm:useasm.obj
 0001:00010c6c       ??_C@_0CG@LCIGPPNF@A?5data?5path?5selector?5is?5not?5inde@ 10011c6c     useasm:useasm.obj
 0001:00010c94       ??_C@_0DI@IKADLPJL@The?5second?5argument?5to?5idf?5must?5@ 10011c94     useasm:useasm.obj
 0001:00010ccc       ??_C@_0CG@BCCKICBA@The?5maximum?5drc?5register?5number?5@ 10011ccc     useasm:useasm.obj
 0001:00010cf4       ??_C@_0CG@NKPGJMIA@No?5flags?5are?5valid?5for?5a?5drc?5reg@ 10011cf4     useasm:useasm.obj
 0001:00010d1c       ??_C@_0CA@BNCKADBN@A?5drc?5register?5is?5not?5indexable?$AA@ 10011d1c     useasm:useasm.obj
 0001:00010d3c       ??_C@_0DB@EIJIPLBA@The?5first?5argument?5to?5idf?5must?5b@ 10011d3c     useasm:useasm.obj
 0001:00010d70       ??_C@_0CL@HOIKEHND@The?5argument?5to?5wdf?5must?5be?5a?5dr@ 10011d70     useasm:useasm.obj
 0001:00010d9c       ??_C@_0DI@ECFOFJCH@The?5last?5argument?5to?5an?5emit?5mus@ 10011d9c     useasm:useasm.obj
 0001:00010dd8       ??_C@_0EE@FPKMHEIB@The?5maximum?5immediate?5value?5for?5@ 10011dd8     useasm:useasm.obj
 0001:00010e1c       ??_C@_0DJ@EENABCEN@The?5first?5argument?5to?5an?5emit?5mu@ 10011e1c     useasm:useasm.obj
 0001:00010e58       ??_C@_0CF@OIPADGLP@?$CFs?5isn?8t?5supported?5on?5this?5proce@ 10011e58     useasm:useasm.obj
 0001:00010e80       ??_C@_0CL@BLKOKIML@No?5flags?5are?5valid?5for?5argument?5@ 10011e80     useasm:useasm.obj
 0001:00010eb0       ??_C@_0FK@GPIOMEID@Argument?5?$CFd?5to?5smoa?5is?5not?5a?5leg@ 10011eb0     useasm:useasm.obj
 0001:00010f0c       ??_C@_0CM@OICCJGCF@Argument?5?$CFd?5to?5smoa?5must?5be?5an?5a@ 10011f0c     useasm:useasm.obj
 0001:00010f38       ??_C@_0CL@BPCDNEHJ@No?5flags?5are?5valid?5for?5argument?5@ 10011f38     useasm:useasm.obj
 0001:00010f64       ??_C@_0CF@KHLJFLDD@Argument?5?$CFd?5to?5smoa?5can?8t?5be?5ind@ 10011f64     useasm:useasm.obj
 0001:00010f90       ??_C@_0EB@LMPOCDMD@Argument?5?$CFd?5to?5smoa?5is?5out?5of?5ra@ 10011f90     useasm:useasm.obj
 0001:00010fd4       ??_C@_0CP@JENPMIGB@Argument?5?$CFd?5to?5smoa?5must?5be?5an?5i@ 10011fd4     useasm:useasm.obj
 0001:00011008       ??_C@_0EI@CHCGIOOA@Loading?5the?5MOE?5state?5from?5regis@ 10012008     useasm:useasm.obj
 0001:00011050       ??_C@_0DA@OPFKEKGA@Argument?5?$CFd?5to?5smlsi?5should?5be?5a@ 10012050     useasm:useasm.obj
 0001:00011080       ??_C@_0EG@BJPEDDED@Argument?5?$CFd?5to?5smlsi?5is?5out?5of?5r@ 10012080     useasm:useasm.obj
 0001:000110c8       ??_C@_0DA@FCAKILOF@Argument?5?$CFd?5to?5smlsi?5must?5be?5an?5@ 100120c8     useasm:useasm.obj
 0001:000110f8       ??_C@_0CM@LFIFLNIO@No?5flags?5are?5valid?5for?5argument?5@ 100120f8     useasm:useasm.obj
 0001:00011124       ??_C@_0CG@PJFPKLPN@Argument?5?$CFd?5to?5smlsi?5can?8t?5be?5in@ 10012124     useasm:useasm.obj
 0001:0001114c       ??_C@_0DP@NNLBIBNI@Argument?5?$CFd?5to?5smlsi?5is?5out?5of?5r@ 1001214c     useasm:useasm.obj
 0001:0001118c       ??_C@_0CL@MJEEEJFH@Argument?5?$CFd?5to?5smlsi?5isn?8t?5a?5val@ 1001218c     useasm:useasm.obj
 0001:000111b8       ??_C@_0DM@BDMFEIMC@Argument?5?$CFd?5uses?5component?5selec@ 100121b8     useasm:useasm.obj
 0001:000111f4       ??_C@_0DN@CBDPLAND@Argument?5?$CFd?5to?5smlsi?5must?5be?5an?5@ 100121f4     useasm:useasm.obj
 0001:00011238       ??_C@_0EH@PIBJEHLO@Loading?5the?5MOE?5state?5from?5regis@ 10012238     useasm:useasm.obj
 0001:00011280       ??_C@_0CJ@GGNGAINM@No?5flags?5are?5valid?5for?5argument?5@ 10012280     useasm:useasm.obj
 0001:000112ac       ??_C@_0CD@DAICKOIL@Argument?5?$CFd?5to?5?$CFs?5can?8t?5be?5index@ 100122ac     useasm:useasm.obj
 0001:000112d0       ??_C@_0DL@DAGJDBAJ@Argument?5?$CFd?5to?5?$CFs?5is?5out?5of?5rang@ 100122d0     useasm:useasm.obj
 0001:0001130c       ??_C@_0DN@OPLIFLFN@Argument?5?$CFd?5to?5imo?5is?5out?5of?5ran@ 1001230c     useasm:useasm.obj
 0001:0001134c       ??_C@_0DH@LBKJPHME@Argument?5?$CFd?5to?5smr?1smbo?1imo?5must@ 1001234c     useasm:useasm.obj
 0001:00011388       ??_C@_0EC@LGDHIHKO@Loading?5the?5MOE?5state?5from?5regis@ 10012388     useasm:useasm.obj
 0001:000113cc       ??_C@_0CM@PAFKAACO@No?5flags?5are?5valid?5for?5argument?5@ 100123cc     useasm:useasm.obj
 0001:000113f8       ??_C@_0CG@JIFDPGCJ@Argument?5?$CFd?5to?5setfc?5can?8t?5be?5in@ 100123f8     useasm:useasm.obj
 0001:00011420       ??_C@_0DA@FIKLGADO@Argument?5?$CFd?5to?5setfc?5is?5must?5be?5@ 10012420     useasm:useasm.obj
 0001:00011450       ??_C@_0DA@PNIDFAOJ@Argument?5?$CFd?5to?5setfc?5must?5be?5an?5@ 10012450     useasm:useasm.obj
 0001:00011480       ??_C@_0DC@IGFMAGID@Only?5?$CFd?5mutex?$CIes?$CJ?5are?5supported?5@ 10012480     useasm:useasm.obj
 0001:000114b4       ??_C@_0CE@FKFABDHJ@An?5immediate?5value?5can?8t?5be?5inde@ 100124b4     useasm:useasm.obj
 0001:000114d8       ??_C@_0CK@FKJKMHCB@No?5flags?5are?5valid?5for?5the?5argum@ 100124d8     useasm:useasm.obj
 0001:00011504       ??_C@_0CI@GKLFIIMC@The?5argument?5to?5?$CFs?5must?5be?5an?5im@ 10012504     useasm:useasm.obj
 0001:00011530       ??_C@_0EI@IMBJAMEN@The?5maximum?5immediate?5value?5for?5@ 10012530     useasm:useasm.obj
 0001:00011578       ??_C@_0DB@KGKPELKC@The?5third?5argument?5to?5ldr?5must?5b@ 10012578     useasm:useasm.obj
 0001:000115b0       ??_C@_0EP@HFAIINHO@The?5destination?5for?5ldr?5must?5be?5@ 100125b0     useasm:useasm.obj
 0001:00011600       ??_C@_0CJ@PBDIHBBP@The?5destination?5for?5ldr?5can?8t?5be@ 10012600     useasm:useasm.obj
 0001:0001162c       ??_C@_0DP@EOJFCBDD@The?5seventh?5argument?5to?5atst8?5mu@ 1001262c     useasm:useasm.obj
 0001:0001166c       ??_C@_0DC@GPFGCALA@An?5integer?5source?5selector?5value@ 1001266c     useasm:useasm.obj
 0001:000116a0       ??_C@_0DM@KLBODCDM@The?5sixth?5argument?5to?5atst8?5must@ 100126a0     useasm:useasm.obj
 0001:000116e0       ??_C@_0EF@HHNKPNHB@No?5flags?5except?5disable?5writebac@ 100126e0     useasm:useasm.obj
 0001:00011728       ??_C@_0CG@EAILMAJF@A?5predicate?5register?5is?5not?5inde@ 10012728     useasm:useasm.obj
 0001:00011750       ??_C@_0DP@IJEBNLPN@The?5destination?5argument?5to?5atst@ 10012750     useasm:useasm.obj
 0001:00011790       ??_C@_0DJ@CANNFGLC@The?5fifth?5argument?5to?5depthf?5mus@ 10012790     useasm:useasm.obj
 0001:000117cc       ??_C@_0DO@JJIFGFHO@The?5fourth?5argument?5to?5depthf?5mu@ 100127cc     useasm:useasm.obj
 0001:0001180c       ??_C@_0DG@DJLDOPBE@The?5maximum?5monitor?5supported?5on@ 1001280c     useasm:useasm.obj
 0001:00011844       ??_C@_0CM@EANNIMNI@Monitors?5aren?8t?5supported?5on?5thi@ 10012844     useasm:useasm.obj
 0001:00011870       ??_C@_0DA@NGKNOLIJ@The?5argument?5to?5setm?5must?5be?5an?5@ 10012870     useasm:useasm.obj
 0001:000118a0       ??_C@_0CK@FLEIDBJB@The?5maximum?5immediate?5value?5for?5@ 100128a0     useasm:useasm.obj
 0001:000118cc       ??_C@_0CP@KDAJINNH@The?5argument?5to?5wop?5must?5be?5an?5i@ 100128cc     useasm:useasm.obj
 0001:000118fc       ??_C@_0BE@CMNIOOMH@Unknown?5instruction?$AA@ 100128fc     useasm:useasm.obj
 0001:00011910       ??_C@_0BN@FNBEMNH@?$CFs?5should?5have?5been?5coissued?$AA@ 10012910     useasm:useasm.obj
 0001:000152fc       ??_C@_0BG@DGOKCLLK@?8?$CFs?8?5?3?5syntax?5error?$DL?6?$AA@ 100162fc     glsl_parser:glsl_parser.tab.obj
 0001:00015314       ??_C@_0CA@HKJBOAOI@Unexpected?5end?5of?5source?5found?6?$AA@ 10016314     glsl_parser:glsl_parser.tab.obj
 0001:00015334       ??_C@_0DJ@DBGDKEFE@?8?$CFs?8?5?3?5samplers?5must?5be?5uniform?5@ 10016334     glsl_parser:glsl_parser.tab.obj
 0001:00015370       ??_C@_0CL@KIIMFJCA@?8?$CFs?8?5?3?5No?5precision?5defined?5for?5@ 10016370     glsl_parser:glsl_parser.tab.obj
 0001:0001539c       ??_C@_0CK@GKAFBAFJ@?8?$CFs?8?5?3?5Precision?5not?5valid?5for?5t@ 1001639c     glsl_parser:glsl_parser.tab.obj
 0001:000153c8       ??_C@_0CE@PMKGJOAO@?8?$FL?$FN?8?5?3?5array?5size?5must?5be?5declar@ 100163c8     glsl_parser:glsl_parser.tab.obj
 0001:000153ec       ??_C@_0CH@NJDKMFMB@array?5size?5must?5be?5a?5positive?5in@ 100163ec     glsl_parser:glsl_parser.tab.obj
 0001:00015414       ??_C@_0CO@BGIDIOLP@?8?$CFs?8?5?3?5array?5size?5must?5be?5a?5posi@ 10016414     glsl_parser:glsl_parser.tab.obj
 0001:00015444       ??_C@_0DN@CADEFAIB@?8?$CFs?8?5?3?5variables?5with?5qualifier?5@ 10016444     glsl_parser:glsl_parser.tab.obj
 0001:00015484       ??_C@_0O@FEHBKOKI@glsl_parser?4y?$AA@ 10016484     glsl_parser:glsl_parser.tab.obj
 0001:00015498       ??_C@_0EB@DOMKMCDB@?8?$CFs?8?5?3?5cannot?5initialise?5arrays?5@ 10016498     glsl_parser:glsl_parser.tab.obj
 0001:000154dc       ??_C@_0CP@JKBBBOPM@?8?$CFs?8?5?3?5Multi?5dimensional?5arrays?5@ 100164dc     glsl_parser:glsl_parser.tab.obj
 0001:00015510       ??_C@_0EO@FFIINGPK@?8?$CFs?5?$CFs?8?5?3?5cannot?5declare?5arrays?5@ 10016510     glsl_parser:glsl_parser.tab.obj
 0001:00015560       ??_C@_0CK@BBJNPKFJ@?8const?8?5?3?5qualifier?5not?5allowed?5@ 10016560     glsl_parser:glsl_parser.tab.obj
 0001:0001558c       ??_C@_0CM@LBKLBFLP@?8const?8?5?3?5qualifier?5not?5allowed?5@ 1001658c     glsl_parser:glsl_parser.tab.obj
 0001:000155b8       ??_C@_0CJ@NOLGEFIO@?8?$CFs?8?5?3?5function?5does?5not?5return?5@ 100165b8     glsl_parser:glsl_parser.tab.obj
 0001:000155e4       ??_C@_0CL@OFJKFHNC@?8break?8?5?3?5statement?5only?5allowed@ 100165e4     glsl_parser:glsl_parser.tab.obj
 0001:00015610       ??_C@_0CO@PFCGAGEH@?8continue?8?5?3?5statement?5only?5allo@ 10016610     glsl_parser:glsl_parser.tab.obj
 0001:00015640       ??_C@_0BC@OJDELNKH@UnnamedStruct?$EA?$CFlu?$AA@ 10016640     glsl_parser:glsl_parser.tab.obj
 0001:00015654       ??_C@_09HJGOLHNF@precision?$AA@ 10016654     glsl_parser:glsl_parser.tab.obj
 0001:00015660       ??_C@_0N@ELIDAMNI@array?5syntax?$AA@ 10016660     glsl_parser:glsl_parser.tab.obj
 0001:00015670       ??_C@_0BO@MCHGFDAD@?8?$CFs?8?5?3?5undeclared?5identifier?6?$AA@ 10016670     glsl_parser:glsl_parser.tab.obj
 0001:00015690       ??_C@_08JOJIKHG@centroid?$AA@ 10016690     glsl_parser:glsl_parser.tab.obj
 0001:0001569c       ??_C@_0BN@DNFFKEGM@shader?5in?5?$CG?5out?5declarations?$AA@ 1001669c     glsl_parser:glsl_parser.tab.obj
 0001:000156c0       ??_C@_0EK@NNILFADL@?8?$CFs?8?5?3?5default?5precision?5modifie@ 100166c0     glsl_parser:glsl_parser.tab.obj
 0001:0001570c       ??_C@_0BC@CBBBIGCN@bitwise?5operators?$AA@ 1001670c     glsl_parser:glsl_parser.tab.obj
 0001:00015720       ??_C@_0BB@OIDAKBBK@modulus?5operator?$AA@ 10016720     glsl_parser:glsl_parser.tab.obj
 0001:00015734       ??_C@_0BD@HGJHFDNH@array?5constructors?$AA@ 10016734     glsl_parser:glsl_parser.tab.obj
 0001:00015748       ??_C@_0DK@NKMODJLF@?8?$CFs?8?5?3?5cannot?5pass?5array?5of?5unde@ 10016748     glsl_parser:glsl_parser.tab.obj
 0001:00015784       ??_C@_05IFHLPLPC@using?$AA@ 10016784     glsl_parser:lex.obj
 0001:0001578c       ??_C@_09KPMGAFNI@namespace?$AA@ 1001678c     glsl_parser:lex.obj
 0001:00015798       ??_C@_04HJDBPPOC@cast?$AA@ 10016798     glsl_parser:lex.obj
 0001:000157a0       ??_C@_06FPFOALMG@sizeof?$AA@ 100167a0     glsl_parser:lex.obj
 0001:000157a8       ??_C@_0BE@HDPBANEK@sampler2DRectShadow?$AA@ 100167a8     glsl_parser:lex.obj
 0001:000157bc       ??_C@_0O@FCABDPDE@sampler3DRect?$AA@ 100167bc     glsl_parser:lex.obj
 0001:000157cc       ??_C@_0O@PEHGDEIA@sampler2DRect?$AA@ 100167cc     glsl_parser:lex.obj
 0001:000157dc       ??_C@_0BA@JPCOHDB@sampler2DShadow?$AA@ 100167dc     glsl_parser:lex.obj
 0001:000157ec       ??_C@_0BA@DAHPNLPE@sampler1DShadow?$AA@ 100167ec     glsl_parser:lex.obj
 0001:000157fc       ??_C@_05BLEBCGML@fvec4?$AA@ 100167fc     glsl_parser:lex.obj
 0001:00015804       ??_C@_05FEAALAAM@fvec3?$AA@ 10016804     glsl_parser:lex.obj
 0001:0001580c       ??_C@_05ENBLIBEN@fvec2?$AA@ 1001680c     glsl_parser:lex.obj
 0001:00015814       ??_C@_05FGIJIHMA@dvec4?$AA@ 10016814     glsl_parser:lex.obj
 0001:0001581c       ??_C@_05BJMIBBAH@dvec3?$AA@ 1001681c     glsl_parser:lex.obj
 0001:00015824       ??_C@_05NDCAEG@dvec2?$AA@  10016824     glsl_parser:lex.obj
 0001:0001582c       ??_C@_05CBELEHLL@hvec4?$AA@ 1001682c     glsl_parser:lex.obj
 0001:00015834       ??_C@_05GOAKNBHM@hvec3?$AA@ 10016834     glsl_parser:lex.obj
 0001:0001583c       ??_C@_05HHBBOADN@hvec2?$AA@ 1001683c     glsl_parser:lex.obj
 0001:00015844       ??_C@_05DFJCHPDH@input?$AA@ 10016844     glsl_parser:lex.obj
 0001:0001584c       ??_C@_06GJJMFEHD@superp?$AA@ 1001684c     glsl_parser:lex.obj
 0001:00015854       ??_C@_08CLLOMHGD@unsigned?$AA@ 10016854     glsl_parser:lex.obj
 0001:00015860       ??_C@_05OFLEIIDM@fixed?$AA@ 10016860     glsl_parser:lex.obj
 0001:00015868       ??_C@_04GBGPFKGN@half?$AA@ 10016868     glsl_parser:lex.obj
 0001:00015870       ??_C@_06BNJCAIGJ@double?$AA@ 10016870     glsl_parser:lex.obj
 0001:00015878       ??_C@_05BFKKPKCG@short?$AA@ 10016878     glsl_parser:lex.obj
 0001:00015880       ??_C@_04GOKPGOLB@long?$AA@ 10016880     glsl_parser:lex.obj
 0001:00015888       ??_C@_04FMBJNPFB@flat?$AA@ 10016888     glsl_parser:lex.obj
 0001:00015890       ??_C@_09NFKLEKPH@interface?$AA@ 10016890     glsl_parser:lex.obj
 0001:0001589c       ??_C@_08OIBPHJGN@external?$AA@ 1001689c     glsl_parser:lex.obj
 0001:000158a8       ??_C@_06PAMNHHEG@extern?$AA@ 100168a8     glsl_parser:lex.obj
 0001:000158b0       ??_C@_06GGHJAEBN@static?$AA@ 100168b0     glsl_parser:lex.obj
 0001:000158b8       ??_C@_06EOMAMIIF@public?$AA@ 100168b8     glsl_parser:lex.obj
 0001:000158c0       ??_C@_08PABEKFH@volatile?$AA@ 100168c0     glsl_parser:lex.obj
 0001:000158cc       ??_C@_08OIGDDPGB@noinline?$AA@ 100168cc     glsl_parser:lex.obj
 0001:000158d8       ??_C@_06OGMBMJA@inline?$AA@ 100168d8     glsl_parser:lex.obj
 0001:000158e0       ??_C@_07DLHCIBDH@default?$AA@ 100168e0     glsl_parser:lex.obj
 0001:000158e8       ??_C@_06DOPOGBGP@switch?$AA@ 100168e8     glsl_parser:lex.obj
 0001:000158f0       ??_C@_04MABHPDAO@goto?$AA@ 100168f0     glsl_parser:lex.obj
 0001:000158f8       ??_C@_06DAGLPGKC@packed?$AA@ 100168f8     glsl_parser:lex.obj
 0001:00015900       ??_C@_04IIAJELJL@this?$AA@ 10016900     glsl_parser:lex.obj
 0001:00015908       ??_C@_08FJNLKCPH@template?$AA@ 10016908     glsl_parser:lex.obj
 0001:00015914       ??_C@_07FIDIHKEG@typedef?$AA@ 10016914     glsl_parser:lex.obj
 0001:0001591c       ??_C@_04DBJPMPLO@enum?$AA@ 1001691c     glsl_parser:lex.obj
 0001:00015924       ??_C@_05MNALHJLP@union?$AA@ 10016924     glsl_parser:lex.obj
 0001:0001592c       ??_C@_05ENKANFLO@class?$AA@ 1001692c     glsl_parser:lex.obj
 0001:00015934       ??_C@_03NLMFHDGG@asm?$AA@  10016934     glsl_parser:lex.obj
 0001:00015938       ??_C@_0BB@LEFHFFO@samplerStreamIMG?$AA@ 10016938     glsl_parser:lex.obj
 0001:0001594c       ??_C@_04DDDHBIAD@mat4?$AA@ 1001694c     glsl_parser:lex.obj
 0001:00015954       ??_C@_04HMHGIOME@mat3?$AA@ 10016954     glsl_parser:lex.obj
 0001:0001595c       ??_C@_04GFGNLPIF@mat2?$AA@ 1001695c     glsl_parser:lex.obj
 0001:00015964       ??_C@_06LNOFJDNM@return?$AA@ 10016964     glsl_parser:lex.obj
 0001:0001596c       ??_C@_07FGAIHHOI@discard?$AA@ 1001696c     glsl_parser:lex.obj
 0001:00015974       ??_C@_05OODBEKIG@while?$AA@ 10016974     glsl_parser:lex.obj
 0001:0001597c       ??_C@_03JOHEBPFF@for?$AA@  1001697c     glsl_parser:lex.obj
 0001:00015980       ??_C@_02KNAFDCHJ@do?$AA@   10016980     glsl_parser:lex.obj
 0001:00015984       ??_C@_08DLICDMBN@continue?$AA@ 10016984     glsl_parser:lex.obj
 0001:00015990       ??_C@_05ELPHFHOI@break?$AA@ 10016990     glsl_parser:lex.obj
 0001:00015c3c       ??_C@_0CO@FIFCCL@Reached?5end?5of?5GLSL?5source?5insid@ 10016c3c     glsl_parser:lex.obj
 0001:00015c6c       ??_C@_0CP@BAHGCENG@?$CFd?3?$CFd?$CFd?5?8?$CFc?8?5is?5an?5invalid?5chara@ 10016c6c     glsl_parser:lex.obj
 0001:00015c9c       ??_C@_0CJ@PKMNFKJG@?$CFd?3?$CFd?3?$CFd?5invalid?5number?5literal?5@ 10016c9c     glsl_parser:lex.obj
 0001:00015cc8       ??_C@_0CB@CLPPICJH@?$CFd?3?$CFd?3?$CFd?5reserved?5keyword?5?8?$CFs?8?4?6@ 10016cc8     glsl_parser:lex.obj
 0001:00016210       UFRegATableGetMaxComponent 10017210 f   ic2uf.obj
 0001:0001678c       GetStructAllocInfo         1001778c f   ic2uf.obj
 0001:0001a614       DestroyUniFlexCode         1001b614 f   ic2uf.obj
 0001:0001b250       GenerateUniPatchInput      1001c250 f   ic2uf.obj
 0001:0001b568       GetSupportedExtensions     1001c568 f   ic2uf.obj
 0001:0001f07c       GenerateUniFlexInput       1002007c f   ic2uf.obj
 0001:0001f2f0       GLSLFreeCompiledUniflexProgram 100202f0 f   glsl2uf.obj
 0001:0001f4ec       GLSLCompileToUniflex       100204ec f   glsl2uf.obj
 0001:0001f68c       GLSLDisplayMetrics         1002068c f   glsl2uf.obj
 0001:0001ffac       GenerateBindingSymbolList  10020fac f   bindingsym.obj
 0001:000200f4       DestroyBindingSymbolList   100210f4 f   bindingsym.obj
 0001:000201b0       InitSymbolTableManager     100211b0 f   glsl_parser:symtab.obj
 0001:000201d4       DestroySymbolTableManager  100211d4 f   glsl_parser:symtab.obj
 0001:00020304       RemoveSymbolTableFromManager 10021304 f   glsl_parser:symtab.obj
 0001:00020348       CreateSymTable             10021348 f   glsl_parser:symtab.obj
 0001:00020440       DestroySymTable            10021440 f   glsl_parser:symtab.obj
 0001:00020598       FindSymbol                 10021598 f   glsl_parser:symtab.obj
 0001:00020620       GetSymbolDatafn            10021620 f   glsl_parser:symtab.obj
 0001:00020814       AddSymbol                  10021814 f   glsl_parser:symtab.obj
 0001:0002084c       RemoveSymbol               1002184c f   glsl_parser:symtab.obj
 0001:000208a0       GetSymbolNamefn            100218a0 f   glsl_parser:symtab.obj
 0001:000208d0       IncreaseScopeLevel         100218d0 f   glsl_parser:symtab.obj
 0001:0002095c       DecreaseScopeLevel         1002195c f   glsl_parser:symtab.obj
 0001:000209f8       GetScopeLevel              100219f8 f   glsl_parser:symtab.obj
 0001:00020a00       GetSymbolScopeLevelfn      10021a00 f   glsl_parser:symtab.obj
 0001:00020a3c       ResetGetNextSymbolCounter  10021a3c f   glsl_parser:symtab.obj
 0001:00020a4c       GetNextSymbol              10021a4c f   glsl_parser:symtab.obj
 0001:00020ae4       ICAddTemporary             10021ae4 f   glsl_core:icgen.obj
 0001:00020c50       ICAddBoolPredicate         10021c50 f   glsl_core:icgen.obj
 0001:00020d94       ICInitICOperand            10021d94 f   glsl_core:icgen.obj
 0001:00020dd0       ICInitOperandInfo          10021dd0 f   glsl_core:icgen.obj
 0001:00020ef8       ICAddOperandOffset         10021ef8 f   glsl_core:icgen.obj
 0001:00020f40       ICFreeOperandOffsetList    10021f40 f   glsl_core:icgen.obj
 0001:00021110       ICRemoveInstruction        10022110 f   glsl_core:icgen.obj
 0001:00021138       ICRemoveInstructionRange   10022138 f   glsl_core:icgen.obj
 0001:000211dc       ICGetSymbolInformation     100221dc f   glsl_core:icgen.obj
 0001:000212f0       ICGetSymbolFullType        100222f0 f   glsl_core:icgen.obj
 0001:00021344       ICGetSymbolTypeSpecifier   10022344 f   glsl_core:icgen.obj
 0001:00021360       ICGetSymbolPrecision       10022360 f   glsl_core:icgen.obj
 0001:0002137c       GetIndexedType             1002237c f   glsl_core:icgen.obj
 0001:000214fc       IsSymbolIntConstant        100224fc f   glsl_core:icgen.obj
 0001:00021598       IsSymbolLValue             10022598 f   glsl_core:icgen.obj
 0001:00021794       CloneICodeInstructions     10022794 f   glsl_core:icgen.obj
 0001:00021904       ICAddICInstruction0        10022904 f   glsl_core:icgen.obj
 0001:00021960       ICAddICInstruction1        10022960 f   glsl_core:icgen.obj
 0001:000219cc       ICAddICInstruction1a       100229cc f   glsl_core:icgen.obj
 0001:00021a58       ICAddICInstruction2        10022a58 f   glsl_core:icgen.obj
 0001:00021ad4       ICAddICInstruction2a       10022ad4 f   glsl_core:icgen.obj
 0001:00021b70       ICAddICInstruction2b       10022b70 f   glsl_core:icgen.obj
 0001:00021c24       ICAddICInstruction2c       10022c24 f   glsl_core:icgen.obj
 0001:00021cc0       ICAddICInstruction3        10022cc0 f   glsl_core:icgen.obj
 0001:00021d4c       ICAddICInstruction3a       10022d4c f   glsl_core:icgen.obj
 0001:00021df8       ICAddICInstruction3b       10022df8 f   glsl_core:icgen.obj
 0001:00021ebc       ICAddICInstruction3c       10022ebc f   glsl_core:icgen.obj
 0001:00021f80       ICAddICInstruction3d       10022f80 f   glsl_core:icgen.obj
 0001:0002205c       ICAddICInstruction3e       1002305c f   glsl_core:icgen.obj
 0001:00022120       ICAddICInstruction4        10023120 f   glsl_core:icgen.obj
 0001:000221bc       ICAddICInstruction         100231bc f   glsl_core:icgen.obj
 0001:0002226c       ICAddICInstructiona        1002326c f   glsl_core:icgen.obj
 0001:0002233c       ICIsSymbolScalar           1002333c f   glsl_core:icgen.obj
 0001:0002256c       ICAddICInstructionIFP      1002356c f   glsl_core:icgen.obj
 0001:00022758       ICCombineTwoConstantSwizzles 10023758 f   glsl_core:icgen.obj
 0001:000227e4       ICAdjustOperandLastOffset  100237e4 f   glsl_core:icgen.obj
 0001:00023668       ICProcessNodeOperand       10024668 f   glsl_core:icgen.obj
 0001:000267a0       ICTraverseAST              100277a0 f   glsl_core:icgen.obj
 0001:000269b4       ASTValidateNodeCreationFn  100279b4 f   glsl_core:common.obj
 0001:000269d4       ASTCreateNewNodeFn         100279d4 f   glsl_core:common.obj
 0001:00026a48       ASTAddNodeChildFn          10027a48 f   glsl_core:common.obj
 0001:00026bc8       AddIdentifierDataToTable   10027bc8 f   glsl_core:common.obj
 0001:00026cc4       AddSwizzleData             10027cc4 f   glsl_core:common.obj
 0001:00026cfc       AddMemberSelectionData     10027cfc f   glsl_core:common.obj
 0001:00026d34       AddIdentifierDatafn        10027d34 f   glsl_core:common.obj
 0001:00026d5c       AddParameterDatafn         10027d5c f   glsl_core:common.obj
 0001:00026e6c       AddResultDatafn            10027e6c f   glsl_core:common.obj
 0001:00026e94       AddFunctionCallData        10027e94 f   glsl_core:common.obj
 0001:00026f2c       AddFunctionDefinitionData  10027f2c f   glsl_core:common.obj
 0001:0002729c       AddStructureDefinition     1002829c f   glsl_core:common.obj
 0001:00027744       GetSymbolTableDatafn       10028744 f   glsl_core:common.obj
 0001:000277b4       GetSymbolInfofn            100287b4 f   glsl_core:common.obj
 0001:00027be4       AddBuiltInIdentifier       10028be4 f   glsl_core:common.obj
 0001:00027ce8       AddBoolConstant            10028ce8 f   glsl_core:common.obj
 0001:00027df8       AddIntConstant             10028df8 f   glsl_core:common.obj
 0001:00027f3c       AddFloatConstant           10028f3c f   glsl_core:common.obj
 0001:000280f8       AddFloatVecConstant        100290f8 f   glsl_core:common.obj
 0001:000281bc       SetErrorLog                100291bc f   glsl_core:error.obj
 0001:000281d8       FreeErrorLogMessages       100291d8 f   glsl_core:error.obj
 0001:000283d0       LogProgramError            100293d0 f   glsl_core:error.obj
 0001:00028408       LogProgramWarning          10029408 f   glsl_core:error.obj
 0001:00028440       LogProgramNodeError        10029440 f   glsl_core:error.obj
 0001:00028478       LogProgramNodeWarning      10029478 f   glsl_core:error.obj
 0001:000284b0       LogProgramTokenError       100294b0 f   glsl_core:error.obj
 0001:000284ec       LogProgramTokenWarning     100294ec f   glsl_core:error.obj
 0001:00028528       LogProgramParserError      10029528 f   glsl_core:error.obj
 0001:00028778       GLSLFreeBuiltInState       10029778 f   glsl_core:glsl.obj
 0001:000287d8       GLSLInitCompiler           100297d8 f   glsl_core:glsl.obj
 0001:000288dc       GLSLShutDownCompiler       100298dc f   glsl_core:glsl.obj
 0001:00028940       GLSLGenerateInfoLog        10029940 f   glsl_core:glsl.obj
 0001:00028a6c       GLSLFreeInfoLog            10029a6c f   glsl_core:glsl.obj
 0001:00028a8c       GLSLCompileToIntermediateCode 10029a8c f   glsl_core:glsl.obj
 0001:00028d2c       GLSLFreeIntermediateCode   10029d2c f   glsl_core:glsl.obj
 0001:00029f2c       ICFindBuiltInVariables     1002af2c f   glsl_core:icbuiltin.obj
 0001:0002b3e8       ICProcessBuiltInFunctionCall 1002c3e8 f   glsl_core:icbuiltin.obj
 0001:0002c334       ICUnrollLoopFOR            1002d334 f   glsl_core:icunroll.obj
 0001:0002db74       ASTBIAddBuiltInData        1002eb74 f   glsl_core:astbuiltin.obj
 0001:0002fd78       ASTBIResetBuiltInData      10030d78 f   glsl_core:astbuiltin.obj
 0001:00032b54       PPPreProcessTokenList      10033b54 f   glsl_core:prepro.obj
 0001:00033180       PPDestroyPreProcessorData  10034180 f   glsl_core:prepro.obj
 0001:000331a0       ASTCheckFeatureVersion     100341a0 f   glsl_core:glsltree.obj
 0001:00033294       IsSamplerTypeSupported     10034294 f   glsl_core:glsltree.obj
 0001:000332e4       ASTIncreaseScope           100342e4 f   glsl_core:glsltree.obj
 0001:0003344c       ModifyDefaultPrecision     1003444c f   glsl_core:glsltree.obj
 0001:000335b0       ASTDecreaseScope           100345b0 f   glsl_core:glsltree.obj
 0001:00033604       ASTCreateIDENTIFIERNode    10034604 f   glsl_core:glsltree.obj
 0001:00033718       ASTCreateIDENTIFIERUseNode 10034718 f   glsl_core:glsltree.obj
 0001:00033730       ASTCreateFLOATCONSTANTNode 10034730 f   glsl_core:glsltree.obj
 0001:00033848       ASTCreateINTCONSTANTNode   10034848 f   glsl_core:glsltree.obj
 0001:00033904       ASTCreateBOOLCONSTANTNode  10034904 f   glsl_core:glsltree.obj
 0001:000339ec       ASTFindFunction            100349ec f   glsl_core:glsltree.obj
 0001:00033dfc       ASTRegisterFunctionCall    10034dfc f   glsl_core:glsltree.obj
 0001:00033f44       ASTCreateFunctionNode      10034f44 f   glsl_core:glsltree.obj
 0001:000348c0       ASTProcessFieldSelection   100358c0 f   glsl_core:glsltree.obj
 0001:00034b60       ASTUpdateInvariantStatus   10035b60 f   glsl_core:glsltree.obj
 0001:00034c28       ASTAddFunctionState        10035c28 f   glsl_core:glsltree.obj
 0001:00034d34       ASTProcessLanguageVersion  10035d34 f   glsl_core:glsltree.obj
 0001:00034d90       CreateGLSLTreeContext      10035d90 f   glsl_core:glsltree.obj
 0001:0003515c       CheckGLSLTreeCompleteness  1003615c f   glsl_core:glsltree.obj
 0001:000352a0       DestroyGLSLTreeContext     100362a0 f   glsl_core:glsltree.obj
 0001:000352f4       GenerateICodeProgram       100362f4 f   glsl_core:icode.obj
 0001:00035500       DestroyICodeProgram        10036500 f   glsl_core:icode.obj
 0001:0003608c       ICEmulateBIFNtan           1003708c f   glsl_core:icemul.obj
 0001:00036ae8       ICEmulateBIFNArcTrigs      10037ae8 f   glsl_core:icemul.obj
 0001:00036e00       ICEmulateBIFNpow           10037e00 f   glsl_core:icemul.obj
 0001:00036f50       ICEmulateBIFNfract         10037f50 f   glsl_core:icemul.obj
 0001:00037064       ICEmulateBIFNmod           10038064 f   glsl_core:icemul.obj
 0001:0003792c       ICEmulateBIFNshadowFunc    1003892c f   glsl_core:icemul.obj
 0001:00037cf4       ICEmulateBIFNnoise1        10038cf4 f   glsl_core:icemul.obj
 0001:00037e14       ICEmulateBIFNnoise2        10038e14 f   glsl_core:icemul.obj
 0001:000380fc       ICEmulateBIFNnoise3        100390fc f   glsl_core:icemul.obj
 0001:000384a0       ICEmulateBIFNnoise4        100394a0 f   glsl_core:icemul.obj
 0001:000388d4       ICAddArcSinCos2FunctionBody 100398d4 f   glsl_core:icemul.obj
 0001:00039280       ICAddArcTanFunctionBody    1003a280 f   glsl_core:icemul.obj
 0001:00039c1c       ICAddArcTan2FunctionBody   1003ac1c f   glsl_core:icemul.obj
 0001:0003a470       ICAddNoise1DFunctionBody   1003b470 f   glsl_core:icemul.obj
 0001:0003ab5c       ICAddNoise2DFunctionBody   1003bb5c f   glsl_core:icemul.obj
 0001:0003b588       ICAddNoise3DFunctionBody   1003c588 f   glsl_core:icemul.obj
 0001:0003cadc       ICAddNoise4DFunctionBody   1003dadc f   glsl_core:icemul.obj
 0001:0003ecdc       ICEmulateTextureProj       1003fcdc f   glsl_core:icemul.obj
 0001:0003f0e8       ASTSemCreateHashedFunctionName 100400e8 f   glsl_core:semantic.obj
 0001:0003f300       ASTSemGetSizeInfo          10040300 f   glsl_core:semantic.obj
 0001:00042564       ASTSemCheckTypeSpecifiersMatch 10043564 f   glsl_core:semantic.obj
 0001:00042870       ASTSemGetArraySize         10043870 f   glsl_core:semantic.obj
 0001:00042f54       ASTUpdateConditionalIdentifierUsage 10043f54 f   glsl_core:semantic.obj
 0001:000436e8       ASTSemAddIdentifierToSymbolTable 100446e8 f   glsl_core:semantic.obj
 0001:00044664       ASTSemCheckTypesAndCalculateResult 10045664 f   glsl_core:semantic.obj
 0001:00045e4c       EmulateBuiltInFunction     10046e4c f   glsl_core:glslfns.obj
 0001:000480f4       SGXBS_CreateBinaryProgram  100490f4 f   glsl_binshader:esbinshader.obj
 0001:000482e0       PVRUniFlexInitInst         100492e0 f   usc:usc_utils.obj
 0001:00048308       UscAbort                   10049308 f   usc:usc.obj
 0001:00048330       UscAlloc                   10049330 f   usc:usc.obj
 0001:0004839c       _UscFree                   1004939c f   usc:usc.obj
 0001:000483e8       GetNextRegister            100493e8 f   usc:usc.obj
 0001:00048534       SetBlockSwitch             10049534 f   usc:usc.obj
 0001:000486a0       SetBlockUnconditional      100496a0 f   usc:usc.obj
 0001:000487c4       SetSyncEndOnSuccessor      100497c4 f   usc:usc.obj
 0001:00048840       RedirectEdgesFromPredecessors 10049840 f   usc:usc.obj
 0001:0004897c       RedirectEdge               1004997c f   usc:usc.obj
 0001:000489f0       AllocateBlock              100499f0 f   usc:usc.obj
 0001:00048b48       FreeBlock                  10049b48 f   usc:usc.obj
 0001:00048d38       IsCall                     10049d38 f   usc:usc.obj
 0001:00048dd8       DoDataflow                 10049dd8 f   usc:usc.obj
 0001:00048fac       DoOnCfgBasicBlocks         10049fac f   usc:usc.obj
 0001:00049058       DoOnAllBasicBlocks         1004a058 f   usc:usc.obj
 0001:00049140       DebugPrintSF               1004a140 f   usc:usc.obj
 0001:0004918c       InlineFunction             1004a18c f   usc:usc.obj
 0001:000494fc       PVRUniFlexDestroyContext   1004a4fc f   usc:usc.obj
 0001:00049514       AppendInst                 1004a514 f   usc:usc.obj
 0001:000495ac       RemoveInst                 1004a5ac f   usc:usc.obj
 0001:00049608       MaskToSwiz                 1004a608 f   usc:usc.obj
 0001:00049644       CompOpToTest               1004a644 f   usc:usc.obj
 0001:000496e8       GetPredicate               1004a6e8 f   usc:usc.obj
 0001:00049788       AllocFunction              1004a788 f   usc:usc.obj
 0001:00049834       FreeFunction               1004a834 f   usc:usc.obj
 0001:00049a0c       InitialiseIndexableTemps   1004aa0c f   usc:usc.obj
 0001:00049a44       InitState                  1004aa44 f   usc:usc.obj
 0001:00049d68       ReleaseFixedReg            1004ad68 f   usc:usc.obj
 0001:00049dd0       ReleaseState               1004add0 f   usc:usc.obj
 0001:0004a254       PVRUniFlexCreateContext    1004b254 f   usc:usc.obj
 0001:0004a2c8       PVRUniFlexDestroyUspBin    1004b2c8 f   usc:usc.obj
 0001:0004a2d8       GetNextRegisterCount       1004b2d8 f   usc:usc.obj
 0001:0004a2fc       SetBlockConditional        1004b2fc f   usc:usc.obj
 0001:0004a480       MergeBasicBlocks           1004b480 f   usc:usc.obj
 0001:0004a758       MergeAllBasicBlocks        1004b758 f   usc:usc.obj
 0001:0004a78c       FinaliseIntermediateCode   1004b78c f   usc:usc.obj
 0001:0004a8c8       InsertInstBefore           1004b8c8 f   usc:usc.obj
 0001:0004ac24       ConvertSwitchBP            1004bc24 f   usc:usc.obj
 0001:0004ad7c       AddNewRegisterArray        1004bd7c f   usc:usc.obj
 0001:0004c590       CompileIntermediate        1004d590 f   usc:usc.obj
 0001:0004c99c       PVRUniFlexCompileToUspBin  1004d99c f   usc:usc.obj
 0001:0004cae4       ResizeArray                1004dae4 f   usc:data.obj
 0001:0004cc08       ClearArray                 1004dc08 f   usc:data.obj
 0001:0004ccb8       FreeArray                  1004dcb8 f   usc:data.obj
 0001:0004ccfc       NewArray                   1004dcfc f   usc:data.obj
 0001:0004cf58       ArrayGet                   1004df58 f   usc:data.obj
 0001:0004d060       ArraySet                   1004e060 f   usc:data.obj
 0001:0004d0b0       ClearVector                1004e0b0 f   usc:data.obj
 0001:0004d124       FreeVector                 1004e124 f   usc:data.obj
 0001:0004d164       InitVector                 1004e164 f   usc:data.obj
 0001:0004d19c       NewVector                  1004e19c f   usc:data.obj
 0001:0004d1cc       VectorGet                  1004e1cc f   usc:data.obj
 0001:0004d318       ArrayElemOp                1004e318 f   usc:data.obj
 0001:0004d744       VectorOp                   1004e744 f   usc:data.obj
 0001:0004d800       VectorCopy                 1004e800 f   usc:data.obj
 0001:0004d91c       VectorSet                  1004e91c f   usc:data.obj
 0001:0004da24       VectorGetRange             1004ea24 f   usc:data.obj
 0001:0004dca8       VectorSetRange             1004eca8 f   usc:data.obj
 0001:0004dd70       VectorOrRange              1004ed70 f   usc:data.obj
 0001:0004de2c       VectorAndRange             1004ee2c f   usc:data.obj
 0001:0004def4       NewGraph                   1004eef4 f   usc:data.obj
 0001:0004df28       ClearGraph                 1004ef28 f   usc:data.obj
 0001:0004df68       FreeGraph                  1004ef68 f   usc:data.obj
 0001:0004dfa8       GraphGet                   1004efa8 f   usc:data.obj
 0001:0004e040       GraphSet                   1004f040 f   usc:data.obj
 0001:0004e11c       GraphColRef                1004f11c f   usc:data.obj
 0001:0004e154       GraphDupCol                1004f154 f   usc:data.obj
 0001:0004e244       GraphClearCol              1004f244 f   usc:data.obj
 0001:0004e280       GraphOrCol                 1004f280 f   usc:data.obj
 0001:0004e388       GraphCopy                  1004f388 f   usc:data.obj
 0001:0004e514       InsertSort                 1004f514 f   usc:data.obj
 0001:0004e65c       InitialiseAdjacencyList    1004f65c f   usc:data.obj
 0001:0004e670       DeleteAdjacencyList        1004f670 f   usc:data.obj
 0001:0004e6a4       DeleteAdjacencyListIndirect 1004f6a4 f   usc:data.obj
 0001:0004e6e0       ReplaceInAdjacencyList     1004f6e0 f   usc:data.obj
 0001:0004e77c       RemoveFromAdjacencyList    1004f77c f   usc:data.obj
 0001:0004e888       AddToAdjacencyList         1004f888 f   usc:data.obj
 0001:0004e8f8       CloneAdjacencyList         1004f8f8 f   usc:data.obj
 0001:0004e990       UscStackMake               1004f990 f   usc:data.obj
 0001:0004e9d8       UscStackDelete             1004f9d8 f   usc:data.obj
 0001:0004ea1c       UscStackPush               1004fa1c f   usc:data.obj
 0001:0004ea94       UscStackPop                1004fa94 f   usc:data.obj
 0001:0004ebc4       UscTreeDelete              1004fbc4 f   usc:data.obj
 0001:0004ebf8       UscTreeGetPtr              1004fbf8 f   usc:data.obj
 0001:0004ec68       UscTreeAdd                 1004fc68 f   usc:data.obj
 0001:0004ef18       UscTreeIter                1004ff18 f   usc:data.obj
 0001:0004f04c       SubstElemDelete            1005004c f   usc:data.obj
 0001:0004f07c       RegSubstAlloc              1005007c f   usc:data.obj
 0001:0004f0ac       RegSubstDelete             100500ac f   usc:data.obj
 0001:0004f0dc       BaseRegSubstAdd            100500dc f   usc:data.obj
 0001:0004f178       RegSubstFind               10050178 f   usc:data.obj
 0001:0004f214       ClearRegLiveSet            10050214 f   usc:dce.obj
 0001:0004f274       InitRegLiveSet             10050274 f   usc:dce.obj
 0001:0004f2e8       FreeRegLiveSet             100502e8 f   usc:dce.obj
 0001:0004f338       AllocRegLiveSet            10050338 f   usc:dce.obj
 0001:0004fbd8       GetLiveChansInArgument     10050bd8 f   usc:dce.obj
 0001:0004ffe4       GetLiveChansInArg          10050fe4 f   usc:dce.obj
 0001:000501f0       GetRegisterLiveMask        100511f0 f   usc:dce.obj
 0001:00050340       SetRegisterLiveMask        10051340 f   usc:dce.obj
 0001:00050718       IncreaseRegisterLiveMask   10051718 f   usc:dce.obj
 0001:00050b9c       IncreaseIndexLiveMask      10051b9c f   usc:dce.obj
 0001:000513f0       DeadCodeSplitBlock         100523f0 f   usc:dce.obj
 0001:000514b0       DeadCodeEliminationBP      100524b0 f   usc:dce.obj
 0001:00051a1c       DoSALiveness               10052a1c f   usc:dce.obj
 0001:00051b20       DeadCodeElimination        10052b20 f   usc:dce.obj
 0001:00051f08       InitRegUseDef              10052f08 f   usc:dce.obj
 0001:00051f80       ClearRegUseDef             10052f80 f   usc:dce.obj
 0001:00051fe0       InitUseDef                 10052fe0 f   usc:dce.obj
 0001:00051ffc       ClearUseDef                10052ffc f   usc:dce.obj
 0001:00052020       GetRegUseDef               10053020 f   usc:dce.obj
 0001:0005211c       IncreaseRegUseDef          1005311c f   usc:dce.obj
 0001:00052278       ReduceRegUseDef            10053278 f   usc:dce.obj
 0001:000523f4       InstUseSubset              100533f4 f   usc:dce.obj
 0001:00052794       InstUse                    10053794 f   usc:dce.obj
 0001:000527a8       InstDef                    100537a8 f   usc:dce.obj
 0001:0005299c       ComputeInstUseDef          1005399c f   usc:dce.obj
 0001:00052a00       DisjointUseDef             10053a00 f   usc:dce.obj
 0001:00052d18       RegUseInst                 10053d18 f   usc:dce.obj
 0001:00052da4       RegUseBlock                10053da4 f   usc:dce.obj
 0001:00052f40       InstUseDefined             10053f40 f   usc:dce.obj
 0001:00052fe8       InstDefReferenced          10053fe8 f   usc:dce.obj
 0001:000530cc       CanHaveSourceModifier      100540cc f   usc:inst.obj
 0001:00053140       GetUSPPerSampleTemporaryCount 10054140 f   usc:inst.obj
 0001:00053178       GetDestinationRegisterGroupDetails 10054178 f   usc:inst.obj
 0001:000531b4       GetRegisterGroupCount      100541b4 f   usc:inst.obj
 0001:000531e8       GetRegisterGroupDetails    100541e8 f   usc:inst.obj
 0001:00053360       IsArgInRegisterGroup       10054360 f   usc:inst.obj
 0001:000533ec       HasC10FmtControl           100543ec f   usc:inst.obj
 0001:0005343c       RequiresGradients          1005443c f   usc:inst.obj
 0001:00053470       CanUseRepeatMask           10054470 f   usc:inst.obj
 0001:0005348c       GetMaxRepeatCountInst      1005448c f   usc:inst.obj
 0001:000534b4       CanRepeatInst              100544b4 f   usc:inst.obj
 0001:0005358c       HasF16F32SelectInst        1005458c f   usc:inst.obj
 0001:000535dc       WroteAllLiveChannels       100545dc f   usc:inst.obj
 0001:000535f8       CanUseDest                 100545f8 f   usc:inst.obj
 0001:0005368c       CanUseSrc                  1005468c f   usc:inst.obj
 0001:00053934       GetChannelsWrittenInRegister 10054934 f   usc:inst.obj
 0001:000539b4       GetChannelsWrittenInArg    100549b4 f   usc:inst.obj
 0001:00053b50       FreeInst                   10054b50 f   usc:inst.obj
 0001:00053bb4       InitInstArg                10054bb4 f   usc:inst.obj
 0001:00053f54       SetOpcode                  10054f54 f   usc:inst.obj
 0001:00054094       AllocateInst               10055094 f   usc:inst.obj
 0001:00054170       CopyInst                   10055170 f   usc:inst.obj
 0001:0005449c       FormMove                   1005549c f   usc:inst.obj
 0001:00054530       IsMove                     10055530 f   usc:inst.obj
 0001:00054784       GetDestMaskIdx             10055784 f   usc:inst.obj
 0001:00054790       GetDestMask                10055790 f   usc:inst.obj
 0001:000547c4       ConvertRegister            100557c4 f   usc:inst.obj
 0001:00054850       SameRegister               10055850 f   usc:inst.obj
 0001:00054898       EqualArgsIgnoreNegate      10055898 f   usc:inst.obj
 0001:00054960       EqualArgs                  10055960 f   usc:inst.obj
 0001:00054974       IsDeschedBeforeInst        10055974 f   usc:inst.obj
 0001:000549a8       IsDeschedAfterInst         100559a8 f   usc:inst.obj
 0001:000549ec       IsDeschedulingPoint        100559ec f   usc:inst.obj
 0001:00054a24       CanUseSource0              10055a24 f   usc:inst.obj
 0001:00054ba4       EqualInstructionParameters 10055ba4 f   usc:inst.obj
 0001:00054f04       EqualInstructionModes      10055f04 f   usc:inst.obj
 0001:00055024       IsInstAffectedByBRN21752   10056024 f   usc:inst.obj
 0001:00055058       GetMinimalDestinationMask  10056058 f   usc:inst.obj
 0001:00057324       OverwritesIndex            10058324 f   usc:iselect.obj
 0001:00057ae0       GlobalDefaultUpdateBlock   10058ae0 f   usc:iselect.obj
 0001:00058188       DoGlobalMoveReplace        10059188 f   usc:iselect.obj
 0001:00059760       FlattenProgramConditionals 1005a760 f   usc:iselect.obj
 0001:0005aaa8       ConvertPredicatedMovesToMovcBP 1005baa8 f   usc:iselect.obj
 0001:0005ae20       ApplyIMAEComponentSelect   1005be20 f   usc:iselect.obj
 0001:0005c0f4       FixInvalidSourceBanks      1005d0f4 f   usc:iselect.obj
 0001:0005cfb4       SimplifyArithmetic         1005dfb4 f   usc:iselect.obj
 0001:0005d4b0       EliminateGlobalMove        1005e4b0 f   usc:iselect.obj
 0001:0005d560       EliminateMovesBP           1005e560 f   usc:iselect.obj
 0001:0005d8e8       EliminateMovesAndFuncs     1005e8e8 f   usc:iselect.obj
 0001:0005d96c       MergeIdenticalInstructionsBP 1005e96c f   usc:iselect.obj
 0001:0005e2b8       ExtractConstantCalculations 1005f2b8 f   usc:iselect.obj
 0001:0005e59c       OptimiseUSPSamplesBP       1005f59c f   usc:iselect.obj
 0001:0005e65c       RemoveUnnecessarySaturationsBP 1005f65c f   usc:iselect.obj
 0001:0005e908       GenerateNonEfoInstructionsBP 1005f908 f   usc:iselect.obj
 0001:0005ebf0       IsSOPWMMultiply            1005fbf0 f   usc:intcvt.obj
 0001:0005ec7c       IsSOPWMMove                1005fc7c f   usc:intcvt.obj
 0001:00066c08       IntegerOptimize            10067c08 f   usc:intcvt.obj
 0001:00066f30       GetHWOperandsUsedForArg    10067f30 f   usc:uspbin.obj
 0001:00069344       CreateUspBinOutput         1006a344 f   usc:uspbin.obj
 0001:00069544       DestroyUspBinOutput        1006a544 f   usc:uspbin.obj
 0001:00069bb4       InsertAlternateResults     1006abb4 f   usc:uspbin.obj
 0001:00069dc8       IsInstReferingShaderResult 1006adc8 f   usc:uspbin.obj
 0001:0006a010       CalcDoms                   1006b010 f   usc:domcalc.obj
 0001:0006a300       Dominates                  1006b300 f   usc:domcalc.obj
 0001:0006a338       PostDominated              1006b338 f   usc:domcalc.obj
 0001:0006a3dc       ComputeLoopNestingTree     1006b3dc f   usc:domcalc.obj
 0001:0006a4c0       IsLoopHeader               1006b4c0 f   usc:domcalc.obj
 0001:0006a518       LoopDepth                  1006b518 f   usc:domcalc.obj
 0001:0006a640       ReplaceConstantRegNumsBySecAttrs 1006b640 f   usc:regpack.obj
 0001:0006a6f8       GetHardwareConstantValueu  1006b6f8 f   usc:regpack.obj
 0001:0006a724       GetHardwareConstantValue   1006b724 f   usc:regpack.obj
 0001:0006a734       IsStaticC10Value           1006b734 f   usc:regpack.obj
 0001:0006a904       GetSAProgNumResultRegisters 1006b904 f   usc:regpack.obj
 0001:0006a914       DropSAProgResult           1006b914 f   usc:regpack.obj
 0001:0006a9cc       BaseAddNewSAProgResult     1006b9cc f   usc:regpack.obj
 0001:0006aaa4       AddNewSAProgResult         1006baa4 f   usc:regpack.obj
 0001:0006aadc       ReplaceSpillAreaOffsetByStatic 1006badc f   usc:regpack.obj
 0001:0006ab08       AddNewInRegisterConstant   1006bb08 f   usc:regpack.obj
 0001:0006ab90       AddStaticSecAttrRange      1006bb90 f   usc:regpack.obj
 0001:0006acec       AddStaticSecAttr           1006bcec f   usc:regpack.obj
 0001:0006ad10       ReplaceHardwareConstBySecAttr 1006bd10 f   usc:regpack.obj
 0001:0006b010       AddDummyIteration          1006c010 f   usc:regpack.obj
 0001:0006b0b0       AddIteratedValue           1006c0b0 f   usc:regpack.obj
 0001:0006b1b0       GetIteratedValue           1006c1b0 f   usc:regpack.obj
 0001:0006b250       UpdateFixedRegsForPixelShaderInputs 1006c250 f   usc:regpack.obj
 0001:0006b334       AddOrCreateNonDependentTextureSample 1006c334 f   usc:regpack.obj
 0001:0006b4f4       RemoveUnusedPixelShaderInputs 1006c4f4 f   usc:regpack.obj
 0001:0006c20c       SetC10RGBAConstant         1006d20c f   usc:regpack.obj
 0001:0006c288       IsC10RGBAConstant          1006d288 f   usc:regpack.obj
 0001:0006c2dc       CalculateHardwareRegisterLimits 1006d2dc f   usc:regpack.obj
 0001:0006c9f8       PackConstantRegisters      1006d9f8 f   usc:regpack.obj
 0001:0006d7e0       ReorderInstructionsBP      1006e7e0 f   usc:reorder.obj
 0001:0006d9e0       SplitFeedback              1006e9e0 f   usc:reorder.obj
 0001:0006e218       PeepholeOptimizeBlock      1006f218 f   usc:reorder.obj
 0001:0006e260       SupportNoSched             1006f260 f   usc:finalise.obj
 0001:0006e29c       UpdateIRegsLive            1006f29c f   usc:finalise.obj
 0001:0006f56c       SetupSkipInvalidFlag       1007056c f   usc:finalise.obj
 0001:000709e0       GenerateFetchInstructionsBP 100719e0 f   usc:finalise.obj
 0001:00070a7c       IsAsyncWBInst              10071a7c f   usc:finalise.obj
 0001:00071794       FinaliseShader             10072794 f   usc:finalise.obj
 0001:000724b0       GetIRegsWrittenMask        100734b0 f   usc:regalloc.obj
 0001:00072510       GetIRegsReadMask           10073510 f   usc:regalloc.obj
 0001:000725d4       UpdateIRegs                100735d4 f   usc:regalloc.obj
 0001:00072d60       CmpNodeActivity            10073d60 f   usc:regalloc.obj
 0001:00072e20       InitRegInterval            10073e20 f   usc:regalloc.obj
 0001:00072e60       DeleteRegInterval          10073e60 f   usc:regalloc.obj
 0001:00072e90       FreeRegIntervalList        10073e90 f   usc:regalloc.obj
 0001:00072f10       EarlierThan                10073f10 f   usc:regalloc.obj
 0001:00072f20       IntervalLive               10073f20 f   usc:regalloc.obj
 0001:00072f68       IntervalLength             10073f68 f   usc:regalloc.obj
 0001:00072f70       ProcListFindPos            10073f70 f   usc:regalloc.obj
 0001:00073038       RegIntvlFindWith           10074038 f   usc:regalloc.obj
 0001:0007317c       ProcListFindStart          1007417c f   usc:regalloc.obj
 0001:000731a4       ProcListCons               100741a4 f   usc:regalloc.obj
 0001:000731b4       RegIntvlDrop               100741b4 f   usc:regalloc.obj
 0001:000731f0       ProcListAdd                100741f0 f   usc:regalloc.obj
 0001:00073278       ProcListRemove             10074278 f   usc:regalloc.obj
 0001:00079fe4       AssignRegisters            1007afe4 f   usc:regalloc.obj
 0001:0007a0c0       MergeIntervals             1007b0c0 f   usc:regalloc.obj
 0001:000821dc       AssignInternalRegisters    100831dc f   usc:iregalloc.obj
 0001:00083160       AssignPredicateRegisters   10084160 f   usc:pregalloc.obj
 0001:0008459c       SetupSyncStartInformation  1008559c f   usc:pregalloc.obj
 0001:0008619c       SetupEfoUsage              1008719c f   usc:efo.obj
 0001:0008e8f4       GenerateEfoInstructionsBP  1008f8f4 f   usc:efo.obj
 0001:00091e38       EliminateF16MovesBP        10092e38 f   usc:f16opt.obj
 0001:000925c0       CombineFMad16Swizzle       100935c0 f   usc:f16opt.obj
 0001:000925d0       SubstituteFMad16Swizzle    100935d0 f   usc:f16opt.obj
 0001:00092f8c       AssignIndexRegistersBP     10093f8c f   usc:indexreg.obj
 0001:000943c8       ValueNumbering             100953c8 f   usc:ssa.obj
 0001:00094968       LoadConstantNoHWReg        10095968 f   usc:icvt_core.obj
 0001:00094d18       LoadConstant               10095d18 f   usc:icvt_core.obj
 0001:00094e68       UnpackU24Channel           10095e68 f   usc:icvt_core.obj
 0001:0009509c       NewVecArrayData            1009609c f   usc:icvt_core.obj
 0001:000950ec       LoadStoreIndexableTemp     100960ec f   usc:icvt_core.obj
 0001:0009542c       StoreIndexableTemp         1009642c f   usc:icvt_core.obj
 0001:00096064       LabelToInst                10097064 f   usc:icvt_core.obj
 0001:00096098       IsInputInstFlowControl     10097098 f   usc:icvt_core.obj
 0001:00099f24       GetPredicateInst           1009af24 f   usc:icvt_core.obj
 0001:00099f8c       GetRegisterFormat          1009af8c f   usc:icvt_core.obj
 0001:0009a5d4       AddFixedReg                1009b5d4 f   usc:icvt_core.obj
 0001:0009ac00       ConvertSamplerInstructionCore 1009bc00 f   usc:icvt_core.obj
 0001:0009cb00       ConvertVertexInputInstructionCore 1009db00 f   usc:icvt_core.obj
 0001:0009e048       ConvertToIntermediate      1009f048 f   usc:icvt_core.obj
 0001:0009e78c       NewDGraphState             1009f78c f   usc:dgraph.obj
 0001:0009e984       FreeDGraphState            1009f984 f   usc:dgraph.obj
 0001:0009eb28       AddNewInstToDGraph         1009fb28 f   usc:dgraph.obj
 0001:0009ebf4       GetNextAvailable           1009fbf4 f   usc:dgraph.obj
 0001:0009ecbc       AddDependency              1009fcbc f   usc:dgraph.obj
 0001:0009f080       RemoveDependency           100a0080 f   usc:dgraph.obj
 0001:0009f148       SplitInstructions          100a0148 f   usc:dgraph.obj
 0001:0009f4f8       MergeInstructions          100a04f8 f   usc:dgraph.obj
 0001:0009f878       RemoveInstruction          100a0878 f   usc:dgraph.obj
 0001:0009fa28       ComputeClosedDependencyGraph 100a0a28 f   usc:dgraph.obj
 0001:0009fc38       UpdateClosedDependencyGraph 100a0c38 f   usc:dgraph.obj
 0001:000a001c       ComputeDependencyGraph     100a101c f   usc:dgraph.obj
 0001:000a0544       AddClosedDependency        100a1544 f   usc:dgraph.obj
 0001:000a05b4       TypeUsesFormatControl      100a15b4 f   usc:groupinst.obj
 0001:000a0d94       MoeArgToInstArg            100a1d94 f   usc:groupinst.obj
 0001:000a101c       IsValidSwapInst            100a201c f   usc:groupinst.obj
 0001:000a5040       GroupInstructionsProgram   100a6040 f   usc:groupinst.obj
 0001:000a5310       IsIllegalInstructionPair   100a6310 f   usc:layout.obj
 0001:000a5390       IsSyncEndDest              100a6390 f   usc:layout.obj
 0001:000a5478       NoSchedLabelCB             100a6478 f   usc:layout.obj
 0001:000a5498       CommonBranchCB             100a6498 f   usc:layout.obj
 0001:000a5a84       LayoutProgram              100a6a84 f   usc:layout.obj
 0001:000a5d3c       CanSetEndFlag              100a6d3c f   usc:layout.obj
 0001:000a5df8       PointActionsHwCB           100a6df8 f   usc:layout.obj
 0001:000a7b84       EncodeInst                 100a8b84 f   usc:asm.obj
 0001:000a7bdc       EncodeJump                 100a8bdc f   usc:asm.obj
 0001:000a7d04       ConvertInputWriteMaskToIntermediate 100a8d04 f   usc:icvt_c10.obj
 0001:000a7d14       ConvertInputChannelToIntermediate 100a8d14 f   usc:icvt_c10.obj
 0001:000a952c       CanOverrideSwiz            100aa52c f   usc:icvt_c10.obj
 0001:000a9c64       GetSourceC10               100aac64 f   usc:icvt_c10.obj
 0001:000aa538       CheckDuplicateChannel      100ab538 f   usc:icvt_c10.obj
 0001:000adcc8       CreateComparisonC10        100aecc8 f   usc:icvt_c10.obj
 0001:000ae770       GetGradientsC10            100af770 f   usc:icvt_c10.obj
 0001:000ae8a8       GetLODAdjustmentC10        100af8a8 f   usc:icvt_c10.obj
 0001:000ae9c0       GetSampleCoordinatesC10    100af9c0 f   usc:icvt_c10.obj
 0001:000aeef8       ConvertInstToIntermediateC10 100afef8 f   usc:icvt_c10.obj
 0001:000af188       PackPSOutputNum            100b0188 f   usc:icvt_f32.obj
 0001:000af228       GetPSOutputSource          100b0228 f   usc:icvt_f32.obj
 0001:000af280       GenerateDestModF32         100b0280 f   usc:icvt_f32.obj
 0001:000af498       LoadIteratedValue          100b0498 f   usc:icvt_f32.obj
 0001:000af708       ApplySourceModF32          100b0708 f   usc:icvt_f32.obj
 0001:000af930       DestChanOverlapsSrc        100b0930 f   usc:icvt_f32.obj
 0001:000afdfc       UnpackTextureChannelToF32  100b0dfc f   usc:icvt_f32.obj
 0001:000b0b68       GetIndexScalarFactor       100b1b68 f   usc:icvt_f32.obj
 0001:000b0b9c       ConvertIntegerAddressValue 100b1b9c f   usc:icvt_f32.obj
 0001:000b0c54       ConvertFloatAddressValue   100b1c54 f   usc:icvt_f32.obj
 0001:000b0d2c       SetupAddressValue          100b1d2c f   usc:icvt_f32.obj
 0001:000b1030       GetVSOutputSource          100b2030 f   usc:icvt_f32.obj
 0001:000b12b8       GetDestinationF32          100b22b8 f   usc:icvt_f32.obj
 0001:000b13c0       GetSourceF32               100b23c0 f   usc:icvt_f32.obj
 0001:000b1ed8       ConvertBitwiseInstructionF32 100b2ed8 f   usc:icvt_f32.obj
 0001:000b2388       ConvertVertexInputInstructionTypeless 100b3388 f   usc:icvt_f32.obj
 0001:000b2cdc       CreateComparisonFloat      100b3cdc f   usc:icvt_f32.obj
 0001:000b2dbc       ConvertSetpInstructionNonC10 100b3dbc f   usc:icvt_f32.obj
 0001:000b300c       ConvertComparisonInstructionF32 100b400c f   usc:icvt_f32.obj
 0001:000b3914       UnpackTexture              100b4914 f   usc:icvt_f32.obj
 0001:000b3a78       GetGradientsF32            100b4a78 f   usc:icvt_f32.obj
 0001:000b3b54       GetLODAdjustmentF32        100b4b54 f   usc:icvt_f32.obj
 0001:000b3c00       GetSampleCoordinatesF32    100b4c00 f   usc:icvt_f32.obj
 0001:000b3e94       ConvertSamplerInstructionF32 100b4e94 f   usc:icvt_f32.obj
 0001:000b4714       ConvertTexkillInstructionFloat 100b5714 f   usc:icvt_f32.obj
 0001:000b4a84       ConvertIntegerDot34        100b5a84 f   usc:icvt_f32.obj
 0001:000b5600       ConvertAddressValue        100b6600 f   usc:icvt_f32.obj
 0001:000b5690       ConvertMovaInstructionFloat 100b6690 f   usc:icvt_f32.obj
 0001:000b5804       ConvertInstToIntermediateF32 100b6804 f   usc:icvt_f32.obj
 0001:000b6634       GetSingleSourceF16         100b7634 f   usc:icvt_f16.obj
 0001:000b6664       GetSingleSourceConvertToF32 100b7664 f   usc:icvt_f16.obj
 0001:000b72ec       GetGradientsF16            100b82ec f   usc:icvt_f16.obj
 0001:000b743c       GetLODAdjustmentF16        100b843c f   usc:icvt_f16.obj
 0001:000b8de8       GetSampleCoordinatesF16    100b9de8 f   usc:icvt_f16.obj
 0001:000b95c0       ConvertInstToIntermediateF16 100ba5c0 f   usc:icvt_f16.obj
 0001:000b9864       GetSourceTypeless          100ba864 f   usc:icvt_i32.obj
 0001:000b988c       GetDestinationTypeless     100ba88c f   usc:icvt_i32.obj
 0001:000ba814       ConvertF32ConversionInstructionInt32 100bb814 f   usc:icvt_i32.obj
 0001:000bae1c       CreateComparisonInt16      100bbe1c f   usc:icvt_i32.obj
 0001:000bb010       ZeroExtendInteger          100bc010 f   usc:icvt_i32.obj
 0001:000bb114       SignExtendInteger          100bc114 f   usc:icvt_i32.obj
 0001:000bb284       IntegerNegate              100bc284 f   usc:icvt_i32.obj
 0001:000bcc08       GenerateIntegerArithmetic  100bdc08 f   usc:icvt_i32.obj
 0001:000bd258       CreateComparisonInt32      100be258 f   usc:icvt_i32.obj
 0001:000be1e0       ConvertInstToIntermediateInt32 100bf1e0 f   usc:icvt_i32.obj
 0001:000be3a8       SwizzleMask                100bf3a8 f   usc:precovr.obj
 0001:000bf828       OverrideFloat16Precisions  100c0828 f   usc:precovr.obj
 0001:000bfda8       GetSourceLiveChans         100c0da8 f   usc:precovr.obj
 0001:000c0828       ConvertOperationsToInteger 100c1828 f   usc:precovr.obj
 0001:000c0cdc       GetFeatureEntry            100c1cdc f   useasm:utils.obj
 0001:000c0d48       GetBugEntry                100c1d48 f   useasm:utils.obj
 0001:000c0db4       FixBRN21697                100c1db4 f   useasm:utils.obj
 0001:000c0dd8       FixBRN21713                100c1dd8 f   useasm:utils.obj
 0001:000c0dfc       FixBRN23062                100c1dfc f   useasm:utils.obj
 0001:000c0e20       FixBRN23164                100c1e20 f   useasm:utils.obj
 0001:000c0e44       FixBRN23461                100c1e44 f   useasm:utils.obj
 0001:000c0e68       FixBRN23960                100c1e68 f   useasm:utils.obj
 0001:000c0e8c       FixBRN24895                100c1e8c f   useasm:utils.obj
 0001:000c0eb0       FixBRN25355                100c1eb0 f   useasm:utils.obj
 0001:000c0ed4       FixBRN25060                100c1ed4 f   useasm:utils.obj
 0001:000c0ef8       FixBRN26570                100c1ef8 f   useasm:utils.obj
 0001:000c0f1c       FixBRN26681                100c1f1c f   useasm:utils.obj
 0001:000c0f40       FixBRN27984                100c1f40 f   useasm:utils.obj
 0001:000c0f64       IsEnhancedNoSched          100c1f64 f   useasm:utils.obj
 0001:000c0f88       IsHighPrecisionFIR         100c1f88 f   useasm:utils.obj
 0001:000c0fac       IsLoadMOEStateFromRegisters 100c1fac f   useasm:utils.obj
 0001:000c0fd0       IsPerInstMoeIncrements     100c1fd0 f   useasm:utils.obj
 0001:000c0ff4       HasNewEfoOptions           100c1ff4 f   useasm:utils.obj
 0001:000c1018       HasPackMultipleRoundModes  100c2018 f   useasm:utils.obj
 0001:000c103c       HasNoInstructionPairing    100c203c f   useasm:utils.obj
 0001:000c1060       NumberOfMutexesSupported   100c2060 f   useasm:utils.obj
 0001:000c1074       NumberOfMonitorsSupported  100c2074 f   useasm:utils.obj
 0001:000c1088       NumberOfProgramCounterBits 100c2088 f   useasm:utils.obj
 0001:000c109c       SupportsFmad16Swizzles     100c209c f   useasm:utils.obj
 0001:000c10c0       NoRepeatMaskOnBitwiseInstructions 100c20c0 f   useasm:utils.obj
 0001:000c10e4       UseAsmInitReg              100c20e4 f   useasm:utils.obj
 0001:000c1114       OpcodeArgumentCount        100c2114 f   useasm:usetab.obj
 0001:000c112c       OpcodeName                 100c212c f   useasm:usetab.obj
 0001:000c1f5c       FloatToCstIndex            100c2f5c f   useasm:useasm.obj
 0001:000d11b8       UseAssembleInstruction     100d21b8 f   useasm:useasm.obj
 0001:000d1d58       PVRSRVAllocUserModeMem     100d2d58 f   srvclum:SRVCLUM.dll
 0001:000d1d68       PVRSRVReallocUserModeMem   100d2d68 f   srvclum:SRVCLUM.dll
 0001:000d1d78       PVRSRVFreeUserModeMem      100d2d78 f   srvclum:SRVCLUM.dll
 0001:000d1d88       PVRSRVCallocUserModeMem    100d2d88 f   srvclum:SRVCLUM.dll
 0001:000d1d98       PVRSRVSetLocale            100d2d98 f   srvclum:SRVCLUM.dll
 0001:000d1da8       DllMain                    100d2da8 f   corelib0:dllmain.obj
 0001:000d1ec4       _DllMainCRTStartup         100d2ec4 f   corelib0:pegdmain.obj
 0001:000d1ef4       __GSHandlerCheckCommon     100d2ef4 f   corelib0:gshandler.obj
 0001:000d1f30       __GSHandlerCheck           100d2f30 f   corelib0:gshandler.obj
 0001:000d1f54       __security_init_cookie     100d2f54 f   corelib0:seccinit.obj
 0001:000d1fb0       __security_check_cookie    100d2fb0 f   corelib0:armsecgs.obj
 0001:000d1fc4       __gsfailure                100d2fc4 f   corelib0:armsecgs.obj
 0001:000d20d0       _cexit                     100d30d0 f   corelib0:cexit.obj
 0001:000d20ec       _initterm                  100d30ec f   corelib0:crt0dat.obj
 0001:000d2120       _cinit                     100d3120 f   corelib0:crt0dat.obj
 0001:000d2154       memcpy                     100d3154 f   corelib1:COREDLL.dll
 0001:000d2164       memset                     100d3164 f   corelib1:COREDLL.dll
 0001:000d2174       fflush                     100d3174 f   corelib1:COREDLL.dll
 0001:000d2184       strcpy                     100d3184 f   corelib1:COREDLL.dll
 0001:000d2194       strlen                     100d3194 f   corelib1:COREDLL.dll
 0001:000d21a4       sprintf                    100d31a4 f   corelib1:COREDLL.dll
 0001:000d21b4       strncpy                    100d31b4 f   corelib1:COREDLL.dll
 0001:000d21c4       strcmp                     100d31c4 f   corelib1:COREDLL.dll
 0001:000d21d4       _vsnprintf                 100d31d4 f   corelib1:COREDLL.dll
 0001:000d21e4       vsprintf                   100d31e4 f   corelib1:COREDLL.dll
 0001:000d21f4       strcat                     100d31f4 f   corelib1:COREDLL.dll
 0001:000d2204       printf                     100d3204 f   corelib1:COREDLL.dll
 0001:000d2214       strncmp                    100d3214 f   corelib1:COREDLL.dll
 0001:000d2224       strtol                     100d3224 f   corelib1:COREDLL.dll
 0001:000d2234       strstr                     100d3234 f   corelib1:COREDLL.dll
 0001:000d2244       strtod                     100d3244 f   corelib1:COREDLL.dll
 0001:000d2254       longjmp                    100d3254 f   corelib1:COREDLL.dll
 0001:000d2264       setjmp                     100d3264 f   corelib1:COREDLL.dll
 0001:000d2274       memmove                    100d3274 f   corelib1:COREDLL.dll
 0001:000d2284       memcmp                     100d3284 f   corelib1:COREDLL.dll
 0001:000d2294       _XcptFilter                100d3294 f   corelib1:COREDLL.dll
 0001:000d22a4       __C_specific_handler       100d32a4 f   corelib1:COREDLL.dll
 0001:000d22b4       __security_gen_cookie2     100d32b4 f   corelib1:COREDLL.dll
 0001:000d22c4       __report_gsfailure         100d32c4 f   corelib1:COREDLL.dll
 0001:000d22d4       free                       100d32d4 f   corelib1:COREDLL.dll
 0001:000d22e4       DebugCreateHeapfn          100d32e4 f   glsl_parser:memmgr.obj
 0001:000d2368       DebugAllocHeapItemfn       100d3368 f   glsl_parser:memmgr.obj
 0001:000d23b8       DebugFreeHeapItemfn        100d33b8 f   glsl_parser:memmgr.obj
 0001:000d23c8       DebugDestroyHeapfn         100d33c8 f   glsl_parser:memmgr.obj
 0001:000d2424       DestroyParseContext        100d3424 f   glsl_parser:parser.obj
 0001:000d24ac       CreateParseContext         100d34ac f   glsl_parser:parser.obj
 0001:000d2df4       glsl_parse                 100d3df4 f   glsl_parser:glsl_parser.tab.obj
 0001:000d5470       LexDestroyTokenList        100d6470 f   glsl_parser:lex.obj
 0001:000d61c0       LexCreateTokenList         100d71c0 f   glsl_parser:lex.obj
 0001:000d6324       DisableThreadLibraryCalls  100d7324 f   coredll:COREDLL.dll
 0001:000d6334       TerminateProcess           100d7334 f   coredll:COREDLL.dll
 0001:000d63d8       __IMPORT_DESCRIPTOR_SRVCLUM 100d73d8     srvclum:SRVCLUM.dll
 0001:000d63ec       __IMPORT_DESCRIPTOR_COREDLL 100d73ec     corelib1:COREDLL.dll
 0001:000d6400       __NULL_IMPORT_DESCRIPTOR   100d7400     srvclum:SRVCLUM.dll
 0002:00000000       __imp___ges                100d8000     corelib1:COREDLL.dll
 0002:00000004       __imp_DisableThreadLibraryCalls 100d8004     coredll:COREDLL.dll
 0002:00000008       __imp_memcpy               100d8008     corelib1:COREDLL.dll
 0002:0000000c       __imp___rt_udiv            100d800c     corelib1:COREDLL.dll
 0002:00000010       __imp_memset               100d8010     corelib1:COREDLL.dll
 0002:00000014       __imp_fflush               100d8014     corelib1:COREDLL.dll
 0002:00000018       __imp_strcpy               100d8018     corelib1:COREDLL.dll
 0002:0000001c       __imp_strlen               100d801c     corelib1:COREDLL.dll
 0002:00000020       __imp___itos               100d8020     corelib1:COREDLL.dll
 0002:00000024       __imp_sprintf              100d8024     corelib1:COREDLL.dll
 0002:00000028       __imp_strncpy              100d8028     corelib1:COREDLL.dll
 0002:0000002c       __imp_strcmp               100d802c     corelib1:COREDLL.dll
 0002:00000030       __imp___stod               100d8030     corelib1:COREDLL.dll
 0002:00000034       __imp__vsnprintf           100d8034     corelib1:COREDLL.dll
 0002:00000038       __imp_vsprintf             100d8038     corelib1:COREDLL.dll
 0002:0000003c       __imp_strcat               100d803c     corelib1:COREDLL.dll
 0002:00000040       __imp___rt_sdiv            100d8040     corelib1:COREDLL.dll
 0002:00000044       __imp_printf               100d8044     corelib1:COREDLL.dll
 0002:00000048       __imp_strncmp              100d8048     corelib1:COREDLL.dll
 0002:0000004c       __imp_strtol               100d804c     corelib1:COREDLL.dll
 0002:00000050       __imp_strstr               100d8050     corelib1:COREDLL.dll
 0002:00000054       __imp_strtod               100d8054     corelib1:COREDLL.dll
 0002:00000058       __imp___dtos               100d8058     corelib1:COREDLL.dll
 0002:0000005c       __imp___adds               100d805c     corelib1:COREDLL.dll
 0002:00000060       __imp_tan                  100d8060     corelib1:COREDLL.dll
 0002:00000064       __imp___nes                100d8064     corelib1:COREDLL.dll
 0002:00000068       __imp___stoi               100d8068     corelib1:COREDLL.dll
 0002:0000006c       __imp___muls               100d806c     corelib1:COREDLL.dll
 0002:00000070       __imp___negs               100d8070     corelib1:COREDLL.dll
 0002:00000074       __imp___divs               100d8074     corelib1:COREDLL.dll
 0002:00000078       __imp___subs               100d8078     corelib1:COREDLL.dll
 0002:0000007c       __imp_TerminateProcess     100d807c     coredll:COREDLL.dll
 0002:00000080       __imp___les                100d8080     corelib1:COREDLL.dll
 0002:00000084       __imp___gts                100d8084     corelib1:COREDLL.dll
 0002:00000088       __imp___lts                100d8088     corelib1:COREDLL.dll
 0002:0000008c       __imp_sin                  100d808c     corelib1:COREDLL.dll
 0002:00000090       __imp_cos                  100d8090     corelib1:COREDLL.dll
 0002:00000094       __imp_asin                 100d8094     corelib1:COREDLL.dll
 0002:00000098       __imp_acos                 100d8098     corelib1:COREDLL.dll
 0002:0000009c       __imp_atan2                100d809c     corelib1:COREDLL.dll
 0002:000000a0       __imp_atan                 100d80a0     corelib1:COREDLL.dll
 0002:000000a4       __imp_exp                  100d80a4     corelib1:COREDLL.dll
 0002:000000a8       __imp_pow                  100d80a8     corelib1:COREDLL.dll
 0002:000000ac       __imp_log                  100d80ac     corelib1:COREDLL.dll
 0002:000000b0       __imp___divd               100d80b0     corelib1:COREDLL.dll
 0002:000000b4       __imp_fabs                 100d80b4     corelib1:COREDLL.dll
 0002:000000b8       __imp_ceil                 100d80b8     corelib1:COREDLL.dll
 0002:000000bc       __imp_floor                100d80bc     corelib1:COREDLL.dll
 0002:000000c0       __imp_sqrt                 100d80c0     corelib1:COREDLL.dll
 0002:000000c4       __imp___eqs                100d80c4     corelib1:COREDLL.dll
 0002:000000c8       __imp_longjmp              100d80c8     corelib1:COREDLL.dll
 0002:000000cc       __imp_setjmp               100d80cc     corelib1:COREDLL.dll
 0002:000000d0       __imp_memmove              100d80d0     corelib1:COREDLL.dll
 0002:000000d4       __imp_memcmp               100d80d4     corelib1:COREDLL.dll
 0002:000000d8       __imp__XcptFilter          100d80d8     corelib1:COREDLL.dll
 0002:000000dc       __imp___C_specific_handler 100d80dc     corelib1:COREDLL.dll
 0002:000000e0       __imp___security_gen_cookie2 100d80e0     corelib1:COREDLL.dll
 0002:000000e4       __imp___report_gsfailure   100d80e4     corelib1:COREDLL.dll
 0002:000000e8       __imp_free                 100d80e8     corelib1:COREDLL.dll
 0002:000000ec       \177COREDLL_NULL_THUNK_DATA 100d80ec     corelib1:COREDLL.dll
 0002:000000f0       __imp_PVRSRVSetLocale      100d80f0     srvclum:SRVCLUM.dll
 0002:000000f4       __imp_PVRSRVCallocUserModeMem 100d80f4     srvclum:SRVCLUM.dll
 0002:000000f8       __imp_PVRSRVFreeUserModeMem 100d80f8     srvclum:SRVCLUM.dll
 0002:000000fc       __imp_PVRSRVReallocUserModeMem 100d80fc     srvclum:SRVCLUM.dll
 0002:00000100       __imp_PVRSRVAllocUserModeMem 100d8100     srvclum:SRVCLUM.dll
 0002:00000104       \177SRVCLUM_NULL_THUNK_DATA 100d8104     srvclum:SRVCLUM.dll
 0002:00000108       __security_cookie          100d8108     corelib0:seccinit.obj
 0002:0000010c       __security_cookie_complement 100d810c     corelib0:seccinit.obj
 0002:00000110       _exitflag                  100d8110     corelib0:cexit.obj
 0002:00000114       __onexitend                100d8114     <common>
 0002:00000118       __onexitbegin              100d8118     <common>
 0002:0000011c       _pRawDllMain               100d811c     <common>

 entry point at        0001:000d1ec4

 Static symbols

 0001:00015d18       IC2UF_GetDestMask          10016d18 f   ic2uf.obj
 0001:00015e34       ConvertToUFDestination     10016e34 f   ic2uf.obj
 0001:00015e98       ConvertToUFSource          10016e98 f   ic2uf.obj
 0001:00015f7c       ConvertToUFPredicate       10016f7c f   ic2uf.obj
 0001:00015fb8       AddHWSymbolToList          10016fb8 f   ic2uf.obj
 0001:00016094       CreateInstruction          10017094 f   ic2uf.obj
 0001:00016110       UFRegATableAssignRegisters 10017110 f   ic2uf.obj
 0001:0001621c       GetTemporary               1001721c f   ic2uf.obj
 0001:00016290       GetIntConst                10017290 f   ic2uf.obj
 0001:0001630c       AddMOVAToUFCode            1001730c f   ic2uf.obj
 0001:00016388       BuildStructBaseMembers     10017388 f   ic2uf.obj
 0001:000164fc       BuildStructAllocInfo       100174fc f   ic2uf.obj
 0001:000167f0       AssignSamplerTexUnit       100177f0 f   ic2uf.obj
 0001:000168e8       ConvertPrecisionToUFRegFormat 100178e8 f   ic2uf.obj
 0001:00016994       UpdateOperandUFSwiz        10017994 f   ic2uf.obj
 0001:00016b1c       ApplyMoreSwiz              10017b1c f   ic2uf.obj
 0001:00016b88       ChooseMatrixColumn         10017b88 f   ic2uf.obj
 0001:00016c78       ChooseMatrixComponent      10017c78 f   ic2uf.obj
 0001:00016dec       ChooseVectorComponent      10017dec f   ic2uf.obj
 0001:00016e78       ChooseArrayElement         10017e78 f   ic2uf.obj
 0001:00016ebc       ChooseStructMember         10017ebc f   ic2uf.obj
 0001:00016f50       AddAluToUFCode             10017f50 f   ic2uf.obj
 0001:00016ff4       AddIFCToUFCode             10017ff4 f   ic2uf.obj
 0001:00017080       AddUpRelativeOffsetToUFCode 10018080 f   ic2uf.obj
 0001:000171e4       ProcessOperandOffsets      100181e4 f   ic2uf.obj
 0001:000175fc       GetHWSymbolEntry           100185fc f   ic2uf.obj
 0001:000178dc       AddSimpleALUToUFCode       100188dc f   ic2uf.obj
 0001:00017a54       AddComparisonToUFCode      10018a54 f   ic2uf.obj
 0001:00017c64       AddIFComparisonToUFCode    10018c64 f   ic2uf.obj
 0001:00017d04       AddVectorSALLToUFCode      10018d04 f   ic2uf.obj
 0001:00017e84       AddNOTToUFCode             10018e84 f   ic2uf.obj
 0001:00017f1c       ProcessICInstIFNOT         10018f1c f   ic2uf.obj
 0001:00017fa8       ProcessICInstLOOP          10018fa8 f   ic2uf.obj
 0001:00018010       AddDirectTextureLookupToUFCodeFn 10019010 f   ic2uf.obj
 0001:00018168       UpdateInterferenceGraph    10019168 f   ic2uf.obj
 0001:00018200       GetChannelsLiveInSource    10019200 f   ic2uf.obj
 0001:00018478       GetFunctionNestingLevel    10019478 f   ic2uf.obj
 0001:00018548       GenerateInterferenceGraph  10019548 f   ic2uf.obj
 0001:000189c4       AssignTempRegisters        100199c4 f   ic2uf.obj
 0001:00018de8       GenerateFrontFacingData    10019de8 f   ic2uf.obj
 0001:00018f08       AddDataConversionMOV       10019f08 f   ic2uf.obj
 0001:000192a4       ProcessICInstMUL           1001a2a4 f   ic2uf.obj
 0001:00019780       ProcessICInstDIV           1001a780 f   ic2uf.obj
 0001:00019858       ProcessICInstLABEL         1001a858 f   ic2uf.obj
 0001:00019920       ProcessICInstCALL          1001a920 f   ic2uf.obj
 0001:000199f0       ProcessICInstSANY          1001a9f0 f   ic2uf.obj
 0001:00019af4       ProcessICInstDOT           1001aaf4 f   ic2uf.obj
 0001:00019bd8       ProcessICInstCROSS         1001abd8 f   ic2uf.obj
 0001:00019ce8       ProcessICInstNRM3          1001ace8 f   ic2uf.obj
 0001:00019df4       ProcessICInstMOD           1001adf4 f   ic2uf.obj
 0001:00019f8c       ProcessVPInstTEXLDPFn      1001af8c f   ic2uf.obj
 0001:0001a110       ProcessFPInstTEXLDPFn      1001b110 f   ic2uf.obj
 0001:0001a224       ProcessICInstTEXLDDFn      1001b224 f   ic2uf.obj
 0001:0001a364       CreateUniFlexContext       1001b364 f   ic2uf.obj
 0001:0001a6e4       PrepareUFCodeOutput        1001b6e4 f   ic2uf.obj
 0001:0001a7e0       ReassignVSOutputRegisters  1001b7e0 f   ic2uf.obj
 0001:0001a938       DoesTypeContainBigArrays   1001b938 f   ic2uf.obj
 0001:0001aa4c       FindEmptyRectSpace         1001ba4c f   ic2uf.obj
 0001:0001af70       AllocateAllVaryings        1001bf70 f   ic2uf.obj
 0001:0001b574       GetTypeAllocInfo           1001c574 f   ic2uf.obj
 0001:0001b748       AssignHWSymbolRegisters    1001c748 f   ic2uf.obj
 0001:0001b8c8       AllocateHWSymbolRegisters  1001c8c8 f   ic2uf.obj
 0001:0001bba4       ProcessICOperand           1001cba4 f   ic2uf.obj
 0001:0001bc9c       AllocateAllUFRegisters     1001cc9c f   ic2uf.obj
 0001:0001c008       InitICUFOperand            1001d008 f   ic2uf.obj
 0001:0001c058       IC2UF_GetPredicate         1001d058 f   ic2uf.obj
 0001:0001c0b8       GetFixedConst              1001d0b8 f   ic2uf.obj
 0001:0001c120       AddDFDYToUFCode            1001d120 f   ic2uf.obj
 0001:0001c218       AddArrayComparison         1001d218 f   ic2uf.obj
 0001:0001c5b4       AddPredicatedWholeTypeComparision 1001d5b4 f   ic2uf.obj
 0001:0001ca4c       GenerateColorOutput        1001da4c f   ic2uf.obj
 0001:0001cc18       GenerateZOutput            1001dc18 f   ic2uf.obj
 0001:0001cce4       GenerateFaceSelection      1001dce4 f   ic2uf.obj
 0001:0001ce30       GenerateFragCoordAdjust    1001de30 f   ic2uf.obj
 0001:0001d0a8       AddArrayMOV                1001e0a8 f   ic2uf.obj
 0001:0001d3e8       ProcessICInstMOV           1001e3e8 f   ic2uf.obj
 0001:0001d980       AddWholeTypeComparision    1001e980 f   ic2uf.obj
 0001:0001db8c       ProcessICInstEXP           1001eb8c f   ic2uf.obj
 0001:0001dc50       ProcessICInstLOG           1001ec50 f   ic2uf.obj
 0001:0001dd10       ProcessICInstSINCOS        1001ed10 f   ic2uf.obj
 0001:0001df64       ProcessICInstTAN           1001ef64 f   ic2uf.obj
 0001:0001e21c       GenerateUniFlexInstructions 1001f21c f   ic2uf.obj
 0001:0001ef88       PostGenerateUniFlexCode    1001ff88 f   ic2uf.obj
 0001:0001f350       GLSLGenerateUniflexProgram 10020350 f   glsl2uf.obj
 0001:0001f690       CopyConstantData           10020690 f   bindingsym.obj
 0001:0001f780       ProcessBindingSymbolEntry  10020780 f   bindingsym.obj
 0001:0001f988       AddBindingSymbol           10020988 f   bindingsym.obj
 0001:0001fa78       RecursivelyAddStructMembers 10020a78 f   bindingsym.obj
 0001:0001fd98       ProcessHWSymbolEntry       10020d98 f   bindingsym.obj
 0001:00020200       AttachSymbolTableToContext 10021200 f   glsl_parser:symtab.obj
 0001:000204ac       FindSymbolInTable          100214ac f   glsl_parser:symtab.obj
 0001:000205b8       GetSymbolTableEntry        100215b8 f   glsl_parser:symtab.obj
 0001:00020648       AddSymbolToTable           10021648 f   glsl_parser:symtab.obj
 0001:00020e0c       ICSetupICOperand           10021e0c f   glsl_core:icgen.obj
 0001:00020f7c       UnhookInstructions         10021f7c f   glsl_core:icgen.obj
 0001:00021000       InsertInstructionsAfter    10022000 f   glsl_core:icgen.obj
 0001:00021080       FreeICInstruction          10022080 f   glsl_core:icgen.obj
 0001:00021178       ICGetNewInstruction        10022178 f   glsl_core:icgen.obj
 0001:00021644       IsSymbolBoolConstant       10022644 f   glsl_core:icgen.obj
 0001:000216e0       ValidateICInstruction      100226e0 f   glsl_core:icgen.obj
 0001:000223d4       IsSimpleConditionCheck     100233d4 f   glsl_core:icgen.obj
 0001:000224b0       ICAddICInstruction3aWithPred 100234b0 f   glsl_core:icgen.obj
 0001:00022608       GenerateCodeForPredicateXOR 10023608 f   glsl_core:icgen.obj
 0001:000227f4       ReplaceInlinedInstOperand  100237f4 f   glsl_core:icgen.obj
 0001:00022a18       ProcessNodeFUNCTIONDEFINITION 10023a18 f   glsl_core:icgen.obj
 0001:00022b2c       GetTypeNumElements         10023b2c f   glsl_core:icgen.obj
 0001:00022c08       IsFunctionToBeInlined      10023c08 f   glsl_core:icgen.obj
 0001:00022dbc       ProcessNodeSHADER          10023dbc f   glsl_core:icgen.obj
 0001:000230d4       EvaluateNodeARRAYSPECIFIER 100240d4 f   glsl_core:icgen.obj
 0001:0002320c       EvaluateNodeFIELDSELECTION 1002420c f   glsl_core:icgen.obj
 0001:00023334       PostEvaluateFunctionCall   10024334 f   glsl_core:icgen.obj
 0001:00023420       PostEvaluateNode           10024420 f   glsl_core:icgen.obj
 0001:00023598       IsNodeDirectOperand        10024598 f   glsl_core:icgen.obj
 0001:00023744       ProcessNodeBasicOp         10024744 f   glsl_core:icgen.obj
 0001:00023874       ProcessNodePreIncDec       10024874 f   glsl_core:icgen.obj
 0001:000239b4       InsertPostfixCode          100249b4 f   glsl_core:icgen.obj
 0001:00023b4c       ProcessNodeComparisonOp    10024b4c f   glsl_core:icgen.obj
 0001:00023c7c       GenerateOptimisedConditionCode 10024c7c f   glsl_core:icgen.obj
 0001:00023dac       GenerateSetPredicateCode   10024dac f   glsl_core:icgen.obj
 0001:000242d8       ICTraverseCondition        100252d8 f   glsl_core:icgen.obj
 0001:00024390       ProcessNodeQUESTION        10025390 f   glsl_core:icgen.obj
 0001:00024568       ProcessNodeLogicalOR       10025568 f   glsl_core:icgen.obj
 0001:000246b4       ProcessNodeLogicalXOR      100256b4 f   glsl_core:icgen.obj
 0001:00024774       ProcessNodeLogicalAND      10025774 f   glsl_core:icgen.obj
 0001:000248c0       ProcessNodeNOT             100258c0 f   glsl_core:icgen.obj
 0001:000249c4       ProcessConstructorForBasicType 100259c4 f   glsl_core:icgen.obj
 0001:000250ec       ProcessArrayConstructor    100260ec f   glsl_core:icgen.obj
 0001:000251f0       ICProcessSturctureConstructor 100261f0 f   glsl_core:icgen.obj
 0001:00025358       ICProcessInlinedFunctionCall 10026358 f   glsl_core:icgen.obj
 0001:000257bc       ICProcessUserDefinedFunctionCall 100267bc f   glsl_core:icgen.obj
 0001:00025aec       ProcessNodeFUNCTIONCALL    10026aec f   glsl_core:icgen.obj
 0001:00025d1c       ProcessNodeRETURN          10026d1c f   glsl_core:icgen.obj
 0001:00025dd8       ProcessNode                10026dd8 f   glsl_core:icgen.obj
 0001:000260d4       ProcessNodeFOR             100270d4 f   glsl_core:icgen.obj
 0001:00026370       ProcessNodeWHILE           10027370 f   glsl_core:icgen.obj
 0001:00026504       ProcessNodeDO              10027504 f   glsl_core:icgen.obj
 0001:00026654       ProcessNodeIF              10027654 f   glsl_core:icgen.obj
 0001:00026ac4       FreeConstantData           10027ac4 f   glsl_core:common.obj
 0001:00026ad8       AddGenericData             10027ad8 f   glsl_core:common.obj
 0001:00026b9c       FreeIdentifierData         10027b9c f   glsl_core:common.obj
 0001:00026ed8       FreeFunctionDefinitionData 10027ed8 f   glsl_core:common.obj
 0001:000270d0       FreeStructureDefinitionData 100280d0 f   glsl_core:common.obj
 0001:00027128       AddStructureDefinitionData 10028128 f   glsl_core:common.obj
 0001:0002821c       LogErrorMessageBuffer      1002921c f   glsl_core:error.obj
 0001:0002836c       LogErrorMessage            1002936c f   glsl_core:error.obj
 0001:00028564       UniFlexAlloc               10029564 f   glsl_core:glsl.obj
 0001:00028574       UniFlexFree                10029574 f   glsl_core:glsl.obj
 0001:0002858c       UniFlexPrint               1002958c f   glsl_core:glsl.obj
 0001:000285ec       UniFlexPrintShaders        100295ec f   glsl_core:glsl.obj
 0001:00028644       GLSLAddBuiltInState        10029644 f   glsl_core:glsl.obj
 0001:00028d78       MAP_BIFN_TO_ICINSTR        10029d78 f   glsl_core:icbuiltin.obj
 0001:00028e34       ICProcessBIFNradians       10029e34 f   glsl_core:icbuiltin.obj
 0001:00028f18       ICProcessBIFNdegrees       10029f18 f   glsl_core:icbuiltin.obj
 0001:00028ffc       ICProcessBIFNsin           10029ffc f   glsl_core:icbuiltin.obj
 0001:0002901c       ICProcessBIFNcos           1002a01c f   glsl_core:icbuiltin.obj
 0001:0002903c       ICProcessBIFNtan           1002a03c f   glsl_core:icbuiltin.obj
 0001:00029074       ICProcessBIFNasin          1002a074 f   glsl_core:icbuiltin.obj
 0001:000290b4       ICProcessBIFNacos          1002a0b4 f   glsl_core:icbuiltin.obj
 0001:000290f4       ICProcessBIFNatan          1002a0f4 f   glsl_core:icbuiltin.obj
 0001:00029154       ICProcessBIFNpow           1002a154 f   glsl_core:icbuiltin.obj
 0001:0002918c       ICProcessBIFNexp           1002a18c f   glsl_core:icbuiltin.obj
 0001:000291ac       ICProcessBIFNlog           1002a1ac f   glsl_core:icbuiltin.obj
 0001:000291cc       ICProcessBIFNexp2          1002a1cc f   glsl_core:icbuiltin.obj
 0001:000291ec       ICProcessBIFNlog2          1002a1ec f   glsl_core:icbuiltin.obj
 0001:0002920c       ICProcessBIFNsqrt          1002a20c f   glsl_core:icbuiltin.obj
 0001:00029318       ICProcessBIFNinversesqrt   1002a318 f   glsl_core:icbuiltin.obj
 0001:00029338       ICProcessBIFNabs           1002a338 f   glsl_core:icbuiltin.obj
 0001:00029358       ICProcessBIFNsign          1002a358 f   glsl_core:icbuiltin.obj
 0001:00029378       ICProcessBIFNfloor         1002a378 f   glsl_core:icbuiltin.obj
 0001:00029398       ICProcessBIFNceil          1002a398 f   glsl_core:icbuiltin.obj
 0001:000293b8       ICProcessBIFNfract         1002a3b8 f   glsl_core:icbuiltin.obj
 0001:000293f0       ICProcessBIFNmod           1002a3f0 f   glsl_core:icbuiltin.obj
 0001:00029428       ICProcessBIFNmin           1002a428 f   glsl_core:icbuiltin.obj
 0001:00029448       ICProcessBIFNmax           1002a448 f   glsl_core:icbuiltin.obj
 0001:00029468       ICProcessBIFNclamp         1002a468 f   glsl_core:icbuiltin.obj
 0001:000295c8       ICProcessBIFNmix           1002a5c8 f   glsl_core:icbuiltin.obj
 0001:000295e8       ICProcessBIFNstep          1002a5e8 f   glsl_core:icbuiltin.obj
 0001:00029714       ICProcessBIFNsmoothstep    1002a714 f   glsl_core:icbuiltin.obj
 0001:00029ac0       ICProcessBIFNlength        1002aac0 f   glsl_core:icbuiltin.obj
 0001:00029bdc       ICProcessBIFNdistance      1002abdc f   glsl_core:icbuiltin.obj
 0001:00029d94       ICProcessBIFNdot           1002ad94 f   glsl_core:icbuiltin.obj
 0001:00029db4       ICProcessBIFNcross         1002adb4 f   glsl_core:icbuiltin.obj
 0001:00029dd4       ICProcessBIFNnormalize     1002add4 f   glsl_core:icbuiltin.obj
 0001:00029f78       ICProcessBIFNftransform    1002af78 f   glsl_core:icbuiltin.obj
 0001:0002a000       ICProcessBIFNfaceforward   1002b000 f   glsl_core:icbuiltin.obj
 0001:0002a234       ICProcessBIFNreflect       1002b234 f   glsl_core:icbuiltin.obj
 0001:0002a45c       ICProcessBIFNrefract       1002b45c f   glsl_core:icbuiltin.obj
 0001:0002a8bc       ICProcessBIFNmatrixCompMult 1002b8bc f   glsl_core:icbuiltin.obj
 0001:0002aa00       ICProcessBIFNtranspose     1002ba00 f   glsl_core:icbuiltin.obj
 0001:0002ab64       ICProcessBIFNouterProduct  1002bb64 f   glsl_core:icbuiltin.obj
 0001:0002ad18       ICProcessBIFNlessThan      1002bd18 f   glsl_core:icbuiltin.obj
 0001:0002ad38       ICProcessBIFNlessThanEqual 1002bd38 f   glsl_core:icbuiltin.obj
 0001:0002ad58       ICProcessBIFNgreaterThan   1002bd58 f   glsl_core:icbuiltin.obj
 0001:0002ad78       ICProcessBIFNgreaterThanEqual 1002bd78 f   glsl_core:icbuiltin.obj
 0001:0002ad98       ICProcessBIFNequal         1002bd98 f   glsl_core:icbuiltin.obj
 0001:0002adb8       ICProcessBIFNnotEqual      1002bdb8 f   glsl_core:icbuiltin.obj
 0001:0002add8       ICProcessBIFNany           1002bdd8 f   glsl_core:icbuiltin.obj
 0001:0002adf8       ICProcessBIFNall           1002bdf8 f   glsl_core:icbuiltin.obj
 0001:0002ae18       ICProcessBIFNnot           1002be18 f   glsl_core:icbuiltin.obj
 0001:0002ae38       ICProcessBIFNtextureProj   1002be38 f   glsl_core:icbuiltin.obj
 0001:0002aee8       ICProcessBIFNtextureLod    1002bee8 f   glsl_core:icbuiltin.obj
 0001:0002af78       ICProcessBIFNtextureProjLod 1002bf78 f   glsl_core:icbuiltin.obj
 0001:0002b008       ICProcessBIFNtexture       1002c008 f   glsl_core:icbuiltin.obj
 0001:0002b0b8       ICProcessBIFNdFdx          1002c0b8 f   glsl_core:icbuiltin.obj
 0001:0002b0d8       ICProcessBIFNdFdy          1002c0d8 f   glsl_core:icbuiltin.obj
 0001:0002b0f8       ICProcessBIFNfwidth        1002c0f8 f   glsl_core:icbuiltin.obj
 0001:0002b288       ICProcessBIFNnoise1        1002c288 f   glsl_core:icbuiltin.obj
 0001:0002b298       ICProcessBIFNnoise2        1002c298 f   glsl_core:icbuiltin.obj
 0001:0002b2a8       ICProcessBIFNnoise3        1002c2a8 f   glsl_core:icbuiltin.obj
 0001:0002b2b8       ICProcessBIFNnoise4        1002c2b8 f   glsl_core:icbuiltin.obj
 0001:0002b2c8       ICProcessBIFNtextureGrad   1002c2c8 f   glsl_core:icbuiltin.obj
 0001:0002b358       ICProcessBIFNtextureProjGrad 1002c358 f   glsl_core:icbuiltin.obj
 0001:0002b48c       FindWrittenToLineForSymbolID 1002c48c f   glsl_core:icunroll.obj
 0001:0002b51c       ExamineLoopUpdateCode      1002c51c f   glsl_core:icunroll.obj
 0001:0002b828       ExamineLoopBodyCode        1002c828 f   glsl_core:icunroll.obj
 0001:0002bbcc       ExamineLoopConditionCode   1002cbcc f   glsl_core:icunroll.obj
 0001:0002bcc0       RewriteLoopCode            1002ccc0 f   glsl_core:icunroll.obj
 0001:0002c070       EvaluateCondition          1002d070 f   glsl_core:icunroll.obj
 0001:0002c154       UnrollLoopFORCode          1002d154 f   glsl_core:icunroll.obj
 0001:0002c5ec       ASTBICheckForUseOfState    1002d5ec f   glsl_core:astbuiltin.obj
 0001:0002c664       ASTBIAddConstructor        1002d664 f   glsl_core:astbuiltin.obj
 0001:0002c848       ASTBIAddFunction1          1002d848 f   glsl_core:astbuiltin.obj
 0001:0002cc88       ASTBIAddFunction2          1002dc88 f   glsl_core:astbuiltin.obj
 0001:0002d0dc       ASTBIAddFunction3          1002e0dc f   glsl_core:astbuiltin.obj
 0001:0002d534       ASTBIAddFunction4          1002e534 f   glsl_core:astbuiltin.obj
 0001:0002d9a0       ASTBIAddGLState            1002e9a0 f   glsl_core:astbuiltin.obj
 0001:0002da74       ASTAddGLStructureMember    1002ea74 f   glsl_core:astbuiltin.obj
 0001:0002fea0       PPFreeDefineMacro          10030ea0 f   glsl_core:prepro.obj
 0001:0002ff2c       PPGetNextDirectiveTokenEntry 10030f2c f   glsl_core:prepro.obj
 0001:0002ffd4       PPCreateTokenLinkedList    10030fd4 f   glsl_core:prepro.obj
 0001:000300dc       PPInsertTokensIntoLinkedList 100310dc f   glsl_core:prepro.obj
 0001:00030144       PPCheckForMacroReplacement 10031144 f   glsl_core:prepro.obj
 0001:00030860       PPAddChildNode             10031860 f   glsl_core:prepro.obj
 0001:00030900       PPAddParentNode            10031900 f   glsl_core:prepro.obj
 0001:000309d4       PPCleanUpBranches          100319d4 f   glsl_core:prepro.obj
 0001:00030a1c       PPFreeExpressionTree       10031a1c f   glsl_core:prepro.obj
 0001:00030a80       PPCreateExpressionTree     10031a80 f   glsl_core:prepro.obj
 0001:00030cdc       PPCalculateResultOfExpressionTree 10031cdc f   glsl_core:prepro.obj
 0001:000310ec       PPProcessIf                100320ec f   glsl_core:prepro.obj
 0001:0003124c       PPProcessElif              1003224c f   glsl_core:prepro.obj
 0001:000313a8       PPProcessIfdef             100323a8 f   glsl_core:prepro.obj
 0001:00031550       PPProcessLine              10032550 f   glsl_core:prepro.obj
 0001:00031674       PPProcessPragma            10032674 f   glsl_core:prepro.obj
 0001:00031920       ProcessDefineMacro         10032920 f   glsl_core:prepro.obj
 0001:00031e98       ProcessUndef               10032e98 f   glsl_core:prepro.obj
 0001:00032000       PPProcessVersion           10033000 f   glsl_core:prepro.obj
 0001:000321d4       PPIsExtensionSupported     100331d4 f   glsl_core:prepro.obj
 0001:00032254       PPProcessExtension         10033254 f   glsl_core:prepro.obj
 0001:000324cc       PPProcessDirective         100334cc f   glsl_core:prepro.obj
 0001:000329c8       PPSetDefaultDefine         100339c8 f   glsl_core:prepro.obj
 0001:000332fc       FreePrecisionModifierData  100342fc f   glsl_core:glsltree.obj
 0001:00033318       GetCurrentPrecision        10034318 f   glsl_core:glsltree.obj
 0001:0003463c       ASTCreateSwizzleNode       1003563c f   glsl_core:glsltree.obj
 0001:00034ed8       CheckWhichFunctionsCalled  10035ed8 f   glsl_core:glsltree.obj
 0001:00034ffc       ReOrderTopLevelNodes       10035ffc f   glsl_core:glsltree.obj
 0001:000355a0       ICInitOperandInfoWithSwiz  100365a0 f   glsl_core:icemul.obj
 0001:00035600       ICApplyOperandMoreSwiz     10036600 f   glsl_core:icemul.obj
 0001:0003565c       _MUL                       1003665c f   glsl_core:icemul.obj
 0001:0003572c       _ADD                       1003672c f   glsl_core:icemul.obj
 0001:000357fc       _SUB                       100367fc f   glsl_core:icemul.obj
 0001:000358cc       _MOV                       100368cc f   glsl_core:icemul.obj
 0001:00035968       _RCP                       10036968 f   glsl_core:icemul.obj
 0001:00035a04       _MAD                       10036a04 f   glsl_core:icemul.obj
 0001:00035bd8       _FLR                       10036bd8 f   glsl_core:icemul.obj
 0001:00035c74       _FRC                       10036c74 f   glsl_core:icemul.obj
 0001:00035da4       _DOT                       10036da4 f   glsl_core:icemul.obj
 0001:00035e74       _LABEL                     10036e74 f   glsl_core:icemul.obj
 0001:00035eb8       _TEXLD                     10036eb8 f   glsl_core:icemul.obj
 0001:00035f88       _MIX                       10036f88 f   glsl_core:icemul.obj
 0001:000361fc       ICAddFunctionDefinitionToSymTab 100371fc f   glsl_core:icemul.obj
 0001:00036638       ICAddArcCos2FunctionDefinition 10037638 f   glsl_core:icemul.obj
 0001:0003671c       ICAddArcSin2FunctionDefinition 1003771c f   glsl_core:icemul.obj
 0001:00036800       ICAddArcTanFunctionDefinition 10037800 f   glsl_core:icemul.obj
 0001:000368e4       ICAddArcTan2FunctionDefinition 100378e4 f   glsl_core:icemul.obj
 0001:000369d0       ICAddNoiseFunctionDefinition 100379d0 f   glsl_core:icemul.obj
 0001:000371f0       ICAddDepthCompare          100381f0 f   glsl_core:icemul.obj
 0001:000377e0       GetDepthTextureDescID      100387e0 f   glsl_core:icemul.obj
 0001:0003a2b4       ICInitNoiseFuncRegisters   1003b2b4 f   glsl_core:icemul.obj
 0001:0003ef20       ASTSemRemoveChildNode      1003ff20 f   glsl_core:semantic.obj
 0001:0003f02c       ASTSemGetResultName        1004002c f   glsl_core:semantic.obj
 0001:0003f24c       ASTCheckNodeNumChildren    1004024c f   glsl_core:semantic.obj
 0001:0003f3d8       ASTSemGetIdentifierData    100403d8 f   glsl_core:semantic.obj
 0001:0003f4f4       ASTSemConvertMatrix        100404f4 f   glsl_core:semantic.obj
 0001:0003f5f0       ASTSemConvertTypes         100405f0 f   glsl_core:semantic.obj
 0001:0003fc28       ASTSemReduceConstantConstructor 10040c28 f   glsl_core:semantic.obj
 0001:00040054       ASTSemInsertConstructor    10041054 f   glsl_core:semantic.obj
 0001:00040534       ASTSemReduceConstantArraySpecifier 10041534 f   glsl_core:semantic.obj
 0001:000407b0       ASTSemReduceConstantFieldSelection 100417b0 f   glsl_core:semantic.obj
 0001:00040b9c       ASTSemReduceConstantMatrixMath 10041b9c f   glsl_core:semantic.obj
 0001:00040d18       ASTSemReduceConstantMaths  10041d18 f   glsl_core:semantic.obj
 0001:00042340       ASTSemReduceConstantExpression 10043340 f   glsl_core:semantic.obj
 0001:000424c4       ASTSemReportLValueError    100434c4 f   glsl_core:semantic.obj
 0001:000425ac       ASTSemReduceConstantBuiltInFunction 100435ac f   glsl_core:semantic.obj
 0001:00042908       ASTSemCheckAndUpdateArraySizes 10043908 f   glsl_core:semantic.obj
 0001:00042bc8       ASTWarnUnitialisedData     10043bc8 f   glsl_core:semantic.obj
 0001:00042cbc       ASTUpdateBuiltInsReferenced 10043cbc f   glsl_core:semantic.obj
 0001:00042e90       ASTUpdateParamIdentifierUsage 10043e90 f   glsl_core:semantic.obj
 0001:00042fdc       ASTUpdateReadIdentifierUsage 10043fdc f   glsl_core:semantic.obj
 0001:000430b4       ASTUpdateIdentifierUsage   100440b4 f   glsl_core:semantic.obj
 0001:000431ac       ASTSemCheckAssignment      100441ac f   glsl_core:semantic.obj
 0001:00043350       ASTSemCheckForReplacementWithConstantData 10044350 f   glsl_core:semantic.obj
 0001:00043478       ASTSemGetResultPrecision   10044478 f   glsl_core:semantic.obj
 0001:00043ae4       ASTSemCheckFunctionCallParameters 10044ae4 f   glsl_core:semantic.obj
 0001:000478b8       SGXBS_ComputeHash          100488b8 f   glsl_binshader:esbinshader.obj
 0001:00047994       GetNumOfBytesForWritingBindings 10048994 f   glsl_binshader:esbinshader.obj
 0001:000479e4       WriteU8                    100489e4 f   glsl_binshader:esbinshader.obj
 0001:00047a38       WriteU16                   10048a38 f   glsl_binshader:esbinshader.obj
 0001:00047aa8       WriteU32                   10048aa8 f   glsl_binshader:esbinshader.obj
 0001:00047b28       PackSymbolBindings         10048b28 f   glsl_binshader:esbinshader.obj
 0001:00047cb0       PackUniflexProgram         10048cb0 f   glsl_binshader:esbinshader.obj
 0001:00047ec8       PackUserBindings           10048ec8 f   glsl_binshader:esbinshader.obj
 0001:00047f80       PackProgramBinary          10048f80 f   glsl_binshader:esbinshader.obj
 0001:000483fc       RemoveFromPredecessors     100493fc f   usc:usc.obj
 0001:000484a0       AddAsPredecessor           100494a0 f   usc:usc.obj
 0001:00048aec       FreeInsts                  10049aec f   usc:usc.obj
 0001:00048d5c       FillPredecessorArraysBP    10049d5c f   usc:usc.obj
 0001:000490b4       DebugPrintSortRecursive    1004a0b4 f   usc:usc.obj
 0001:000499bc       IntegerOptimizeBP          1004a9bc f   usc:usc.obj
 0001:0004a08c       GenerateSwitchTest         1004b08c f   usc:usc.obj
 0001:0004a1d8       CmpArraySetupData          1004b1d8 f   usc:usc.obj
 0001:0004a224       EliminateNewMovesBP        1004b224 f   usc:usc.obj
 0001:0004a97c       AddFixForBRN21752BP        1004b97c f   usc:usc.obj
 0001:0004ae24       SetupLoadStoreArray        1004be24 f   usc:usc.obj
 0001:0004b058       EmitLdStRegIndex           1004c058 f   usc:usc.obj
 0001:0004b218       EmitLdStRegMove            1004c218 f   usc:usc.obj
 0001:0004b640       ExpandRegLdStInst          1004c640 f   usc:usc.obj
 0001:0004bab4       GetLocalAddressingMemoryOffset 1004cab4 f   usc:usc.obj
 0001:0004bc30       ExpandLoadStoreInst        1004cc30 f   usc:usc.obj
 0001:0004c470       ExpandMemLoadStoreBP       1004d470 f   usc:usc.obj
 0001:0004c4e8       ExpandLoadStoreBP          1004d4e8 f   usc:usc.obj
 0001:0004cb5c       NewChunk                   1004db5c f   usc:data.obj
 0001:0004cd38       ArrayChunkGet              1004dd38 f   usc:data.obj
 0001:0004ce98       BaseArrayGet               1004de98 f   usc:data.obj
 0001:0004cf7c       BaseArraySet               1004df7c f   usc:data.obj
 0001:0004d298       CalcVecOp                  1004e298 f   usc:data.obj
 0001:0004d358       VectorOpWorker             1004e358 f   usc:data.obj
 0001:0004dc04       VectorGetElement           1004ec04 f   usc:data.obj
 0001:0004eae4       BaseTreeDelete             1004fae4 f   usc:data.obj
 0001:0004efec       RegSubstCmp                1004ffec f   usc:data.obj
 0001:0004f358       CopyRegLiveSet             10050358 f   usc:dce.obj
 0001:0004f3d4       GetSourcesUsedFromPack     100503d4 f   usc:dce.obj
 0001:0004f4cc       GetLiveChansInSOP2Argument 100504cc f   usc:dce.obj
 0001:0004f624       GetLiveChansInLRP1Argument 10050624 f   usc:dce.obj
 0001:0004f730       GetLiveChansInSOP3Argument 10050730 f   usc:dce.obj
 0001:0004f8d8       GetLiveChansInFPMAArgument 100508d8 f   usc:dce.obj
 0001:0004fa00       GetLiveChansInC10Arg       10050a00 f   usc:dce.obj
 0001:0005011c       MergeLivesets              1005111c f   usc:dce.obj
 0001:00050514       ChangeRegisterLiveMask     10051514 f   usc:dce.obj
 0001:00050750       GetIndexedRegisterLiveMask 10051750 f   usc:dce.obj
 0001:0005081c       IncreaseIndexedRegisterLiveMask 1005181c f   usc:dce.obj
 0001:00050950       SwapPackSources            10051950 f   usc:dce.obj
 0001:00050bf0       ReduceInstDestMask         10051bf0 f   usc:dce.obj
 0001:00050da0       HandleEFODest              10051da0 f   usc:dce.obj
 0001:00050ea0       IncreaseLiveMaskForRead    10051ea0 f   usc:dce.obj
 0001:00050f48       ComputeLivenessForInst     10051f48 f   usc:dce.obj
 0001:000515e8       LivenessDF                 100525e8 f   usc:dce.obj
 0001:00051908       DoLiveness                 10052908 f   usc:dce.obj
 0001:00052b28       InstRegUse                 10053b28 f   usc:dce.obj
 0001:00052c2c       InstRegDef                 10053c2c f   usc:dce.obj
 0001:000539e0       DeinitInst                 100549e0 f   usc:inst.obj
 0001:00053bf4       InitInst                   10054bf4 f   usc:inst.obj
 0001:00054a64       EqualEfo                   10055a64 f   usc:inst.obj
 0001:000550d0       FindMSAPart                100560d0 f   usc:iselect.obj
 0001:00055228       FindMulX2                  10056228 f   usc:iselect.obj
 0001:00055324       FindAdd                    10056324 f   usc:iselect.obj
 0001:00055440       TermsCancelOut             10056440 f   usc:iselect.obj
 0001:00055678       DoF32Test                  10056678 f   usc:iselect.obj
 0001:000557d0       DoBitwiseTest              100567d0 f   usc:iselect.obj
 0001:000558c4       CombineMovcTest            100568c4 f   usc:iselect.obj
 0001:00055d5c       MergeIdenticalTest         10056d5c f   usc:iselect.obj
 0001:00055e58       InvertTest                 10056e58 f   usc:iselect.obj
 0001:00055fac       FoldConstantTest           10056fac f   usc:iselect.obj
 0001:00056244       FoldTESTMASK_MOVC          10057244 f   usc:iselect.obj
 0001:00056440       FoldTESTMASK_TEST          10057440 f   usc:iselect.obj
 0001:000565dc       UNPCKF32U8ToUNPCKF32O8     100575dc f   usc:iselect.obj
 0001:00056778       FoldMINOrMAX_UNPCKF32U8    10057778 f   usc:iselect.obj
 0001:00056918       FoldMOVC_MUL               10057918 f   usc:iselect.obj
 0001:00056b00       FoldMUL16_ADD16            10057b00 f   usc:iselect.obj
 0001:00056d20       FoldADD_ADDorMUL_ADM       10057d20 f   usc:iselect.obj
 0001:00056eec       FoldMUL_ADDOrMUL           10057eec f   usc:iselect.obj
 0001:00057140       FoldADD_ADD                10058140 f   usc:iselect.obj
 0001:000572cc       HasSourceModifier          100582cc f   usc:iselect.obj
 0001:00057344       CanCombineRegistersBackwards 10058344 f   usc:iselect.obj
 0001:00057614       CombineRegistersBackwards  10058614 f   usc:iselect.obj
 0001:000578e0       EliminatePredicateMove     100588e0 f   usc:iselect.obj
 0001:00057b88       ElimGlobMovDomTree         10058b88 f   usc:iselect.obj
 0001:0005829c       IsFixedResultTest          1005929c f   usc:iselect.obj
 0001:000584ac       NegateTest                 100594ac f   usc:iselect.obj
 0001:00058508       ReplaceConstantArg         10059508 f   usc:iselect.obj
 0001:00058598       CopySecAttrToTemp          10059598 f   usc:iselect.obj
 0001:000586f8       ExtractConstantCalculationsInst 100596f8 f   usc:iselect.obj
 0001:00058c9c       AddSAOutputsBP             10059c9c f   usc:iselect.obj
 0001:00058df8       ReplaceF32ByF16Source      10059df8 f   usc:iselect.obj
 0001:00059020       CombineF32PacksBlock       1005a020 f   usc:iselect.obj
 0001:0005934c       MovePredicateInsts         1005a34c f   usc:iselect.obj
 0001:00059400       CanFlatten                 1005a400 f   usc:iselect.obj
 0001:00059570       FlattenConditional         1005a570 f   usc:iselect.obj
 0001:000596e0       FlattenConditionalsDomTree 1005a6e0 f   usc:iselect.obj
 0001:000597fc       SetPackSourceFormat        1005a7fc f   usc:iselect.obj
 0001:000599d4       OptimiseUSPSampleDestFmt   1005a9d4 f   usc:iselect.obj
 0001:0005a438       IsSaturatedArgument        1005b438 f   usc:iselect.obj
 0001:0005a4c4       UpdateSaturatedResult      1005b4c4 f   usc:iselect.obj
 0001:0005a5bc       TryRemoveSaturate          1005b5bc f   usc:iselect.obj
 0001:0005a728       TrySimplifyTest            1005b728 f   usc:iselect.obj
 0001:0005a83c       FlagSaturatedPixelShaderInputs 1005b83c f   usc:iselect.obj
 0001:0005a970       FindOtherPredicatedMove    1005b970 f   usc:iselect.obj
 0001:0005ad5c       FixInvalidSourceBanks_GetCReg 1005bd5c f   usc:iselect.obj
 0001:0005ae90       IsImmediateSourceValid     1005be90 f   usc:iselect.obj
 0001:0005afd8       IsValidSource              1005bfd8 f   usc:iselect.obj
 0001:0005b0a8       AddMoveForInvalidSourceBank 1005c0a8 f   usc:iselect.obj
 0001:0005b1c0       CheckForHardwareConstants  1005c1c0 f   usc:iselect.obj
 0001:0005b2fc       ReplaceSourcesByTemporaries 1005c2fc f   usc:iselect.obj
 0001:0005b618       FixInvalidNonTemporaryRegisterGroupInst 1005c618 f   usc:iselect.obj
 0001:0005bb48       FixInvalidSourceBanksInst  1005cb48 f   usc:iselect.obj
 0001:0005c054       FixInvalidSourceBanksBP    1005d054 f   usc:iselect.obj
 0001:0005c1f4       FoldSeperateTest           1005d1f4 f   usc:iselect.obj
 0001:0005c604       OptimizeInstructionSequence 1005d604 f   usc:iselect.obj
 0001:0005c7fc       SimplifyArithmeticInst     1005d7fc f   usc:iselect.obj
 0001:0005cd94       SimplifyInst               1005dd94 f   usc:iselect.obj
 0001:0005ceec       ChangeTestForSourceMod     1005deec f   usc:iselect.obj
 0001:0005d15c       GlobalReplaceArguments     1005e15c f   usc:iselect.obj
 0001:0005e024       ExtractConstantCalculationsBP 1005f024 f   usc:iselect.obj
 0001:0005eb48       IsAlphaMultiply            1005fb48 f   usc:intcvt.obj
 0001:0005ecdc       AllChannelsTheSameInSource 1005fcdc f   usc:intcvt.obj
 0001:0005ed2c       CombineDifferentSrcFmtPacks 1005fd2c f   usc:intcvt.obj
 0001:0005ef8c       SwapArgsInSrcSel           1005ff8c f   usc:intcvt.obj
 0001:0005f024       SelectAlphaInSrcSel        10060024 f   usc:intcvt.obj
 0001:0005f094       CombineSopwmsMatchingArgsIntoSop2 10060094 f   usc:intcvt.obj
 0001:0005f248       CombineSopwmsWithSpareArgIntoSop2 10060248 f   usc:intcvt.obj
 0001:0005f350       CombineSopwms              10060350 f   usc:intcvt.obj
 0001:0005f6f4       RemoveRedundantConversion  100606f4 f   usc:intcvt.obj
 0001:0005f8b4       CombineSOPWMMulSOPWMDouble 100608b4 f   usc:intcvt.obj
 0001:0005fa18       SOPWMToMove                10060a18 f   usc:intcvt.obj
 0001:0005facc       DropRedundantMinMax        10060acc f   usc:intcvt.obj
 0001:0005fca4       GlobalReplaceIntegerMoveArguments 10060ca4 f   usc:intcvt.obj
 0001:0005fdc4       FormatConvert_MergeSets    10060dc4 f   usc:intcvt.obj
 0001:0005ff04       FormatConvert_ApplyUpdates 10060f04 f   usc:intcvt.obj
 0001:000600e4       AddRegisterToConversionSet 100610e4 f   usc:intcvt.obj
 0001:0006033c       FormatConvert_DeleteRegisterSet 1006133c f   usc:intcvt.obj
 0001:000603d4       FormatConvert_CheckRegisterOverwrite 100613d4 f   usc:intcvt.obj
 0001:00060530       ConvertRegisterFormatC10ToU8_Inst 10061530 f   usc:intcvt.obj
 0001:00060b20       CheckIntegerComponentMoveBanks 10061b20 f   usc:intcvt.obj
 0001:00060d00       CheckIntegerComponentMoveFormat_ComplexOp 10061d00 f   usc:intcvt.obj
 0001:00060e2c       CheckIntegerComponentMoveFormat_PCK 10061e2c f   usc:intcvt.obj
 0001:00061070       CheckIntegerComponentMoveFormat_TEST 10062070 f   usc:intcvt.obj
 0001:0006123c       CheckIntegerComponentMoveFormat_INTARITH 1006223c f   usc:intcvt.obj
 0001:000613a8       CheckIntegerComponentMoveFormat 100623a8 f   usc:intcvt.obj
 0001:0006153c       GlobalIntegerComponentMoveUpdateBlock 1006253c f   usc:intcvt.obj
 0001:000615fc       GlobalReplaceIntegerComponentMoveArguments 100625fc f   usc:intcvt.obj
 0001:00061768       CanEliminateIntegerComponentMoveForward 10062768 f   usc:intcvt.obj
 0001:00061998       EliminateIntegerComponentMoveForward 10062998 f   usc:intcvt.obj
 0001:00061d5c       CanEliminateIntegerMoveBackward 10062d5c f   usc:intcvt.obj
 0001:00061e90       EliminateIntegerMoveBackward 10062e90 f   usc:intcvt.obj
 0001:00061ff0       SubstituteAlphaSwizzle     10062ff0 f   usc:intcvt.obj
 0001:000621b4       CanEliminateAlphaSwizzle   100631b4 f   usc:intcvt.obj
 0001:000623bc       EliminateAlphaSwizzle      100633bc f   usc:intcvt.obj
 0001:000625c4       EliminateIntegerMoves      100635c4 f   usc:intcvt.obj
 0001:00062de4       CombineMulMulToSOP3        10063de4 f   usc:intcvt.obj
 0001:0006307c       CombineAddMovToSOP3        1006407c f   usc:intcvt.obj
 0001:0006328c       CombineMulMovToLRP1        1006428c f   usc:intcvt.obj
 0001:000634d8       CombineMOVSOPWM            100644d8 f   usc:intcvt.obj
 0001:00063688       ConvertPackToMove          10064688 f   usc:intcvt.obj
 0001:00063788       CombineSOPWMMOVToSOP2      10064788 f   usc:intcvt.obj
 0001:00063938       CombineMOVMOVToSOP2        10064938 f   usc:intcvt.obj
 0001:00063ad0       CombinePacksToU8C10        10064ad0 f   usc:intcvt.obj
 0001:00063d30       CombineSharedDestInstructions 10064d30 f   usc:intcvt.obj
 0001:00064894       AddAlphaSwizzleC10Constant 10065894 f   usc:intcvt.obj
 0001:0006498c       CombineIntMulAdd           1006598c f   usc:intcvt.obj
 0001:00064f2c       FoldC10Combine             10065f2c f   usc:intcvt.obj
 0001:000651c4       ConvertUnpacksToO8         100661c4 f   usc:intcvt.obj
 0001:0006536c       IsSOP2DoubleMove           1006636c f   usc:intcvt.obj
 0001:00065424       CombineSOPWMSOP2Move       10066424 f   usc:intcvt.obj
 0001:000656e4       CombineSOP2MoveSOPWMMultiply 100666e4 f   usc:intcvt.obj
 0001:000658f8       CheckForScale              100668f8 f   usc:intcvt.obj
 0001:00065d00       CheckIntegerMaxMin         10066d00 f   usc:intcvt.obj
 0001:00065de8       ConvertMinMaxToFormatConvert 10066de8 f   usc:intcvt.obj
 0001:00065f5c       FoldDestFormatConversion   10066f5c f   usc:intcvt.obj
 0001:00066070       OptimizeDependentIntegerInstructions 10067070 f   usc:intcvt.obj
 0001:00066230       CouldBeEqualRegister       10067230 f   usc:intcvt.obj
 0001:000662d8       FindOtherInstruction       100672d8 f   usc:intcvt.obj
 0001:000664dc       NormaliseIntegerInstructions 100674dc f   usc:intcvt.obj
 0001:00066dfc       PCShaderSkip4              10067dfc f   usc:uspbin.obj
 0001:00066e0c       PCShaderSkip2              10067e0c f   usc:uspbin.obj
 0001:00066e1c       PCShaderSkip1              10067e1c f   usc:uspbin.obj
 0001:00066e2c       PCShaderSkipN              10067e2c f   usc:uspbin.obj
 0001:00066e3c       PCShaderWrite4             10067e3c f   usc:uspbin.obj
 0001:00066e7c       PCShaderWrite2             10067e7c f   usc:uspbin.obj
 0001:00066eac       PCShaderWrite1             10067eac f   usc:uspbin.obj
 0001:00066ecc       PCShaderWriteN             10067ecc f   usc:uspbin.obj
 0001:00066ef8       UseAssemblerGetLabelAddress 10067ef8 f   usc:uspbin.obj
 0001:00066f00       UseAssemblerError          10067f00 f   usc:uspbin.obj
 0001:00066fe4       GetShaderAltResultRegs     10067fe4 f   usc:uspbin.obj
 0001:000670ac       BuildPCProgDescHdr         100680ac f   usc:uspbin.obj
 0001:00067884       BuildPCProgDescPSInputList 10068884 f   usc:uspbin.obj
 0001:00067ac0       AddC10ConstantEntry        10068ac0 f   usc:uspbin.obj
 0001:00067b54       AddC10Constant             10068b54 f   usc:uspbin.obj
 0001:00067c08       AddU8Constant              10068c08 f   usc:uspbin.obj
 0001:00067cac       BuildPCProgDescConstListForMemoryMappedConsts 10068cac f   usc:uspbin.obj
 0001:00067f1c       BuildPCProgDescConstList   10068f1c f   usc:uspbin.obj
 0001:00068100       EncodeInstsBP              10069100 f   usc:uspbin.obj
 0001:0006815c       BuildPCProgDesc            1006915c f   usc:uspbin.obj
 0001:00068410       SetupPCInstDesc            10069410 f   usc:uspbin.obj
 0001:000684c8       BuildHWCodeBlock           100694c8 f   usc:uspbin.obj
 0001:0006873c       BuildPCLabelCB             1006973c f   usc:uspbin.obj
 0001:00068784       BuildPCBranchCB            10069784 f   usc:uspbin.obj
 0001:00068874       BuildSampleBlock           10069874 f   usc:uspbin.obj
 0001:00068f54       BuildPCDataForBasicBlockCB 10069f54 f   usc:uspbin.obj
 0001:000691c8       PointActionsUspBinCB       1006a1c8 f   usc:uspbin.obj
 0001:00069280       AlignToEvenUspBinCB        1006a280 f   usc:uspbin.obj
 0001:00069284       BuildPCShader              1006a284 f   usc:uspbin.obj
 0001:00069560       InsertAltOutPutsAndRecordResultRefsBP 1006a560 f   usc:uspbin.obj
 0001:00069e08       GetBestOfAnyAncestor       1006ae08 f   usc:domcalc.obj
 0001:00069e70       DoDfs                      1006ae70 f   usc:domcalc.obj
 0001:00069f30       AddToParent                1006af30 f   usc:domcalc.obj
 0001:0006a370       MarkInLoop                 1006b370 f   usc:domcalc.obj
 0001:0006a558       ReplaceConstantRegNumsBySecAttrsBP 1006b558 f   usc:regpack.obj
 0001:0006a82c       IsStaticConst              1006b82c f   usc:regpack.obj
 0001:0006ad80       IsLastCoordUsed            1006bd80 f   usc:regpack.obj
 0001:0006bb20       GetRangeCheck              1006cb20 f   usc:regpack.obj
 0001:0006bc58       FindRange                  1006cc58 f   usc:regpack.obj
 0001:0006bcfc       ApplyConstantRemapping     1006ccfc f   usc:regpack.obj
 0001:0006bf64       SwapRedAndBlueChans        1006cf64 f   usc:regpack.obj
 0001:0006c064       GenerateMemoryLoad         1006d064 f   usc:regpack.obj
 0001:0006c43c       ReplaceConstUse            1006d43c f   usc:regpack.obj
 0001:0006c57c       ReplaceConstsBP            1006d57c f   usc:regpack.obj
 0001:0006c7f8       SearchConstBufsBP          1006d7f8 f   usc:regpack.obj
 0001:0006d2b4       MakeDummyFetch             1006e2b4 f   usc:reorder.obj
 0001:0006d418       FindFetch                  1006e418 f   usc:reorder.obj
 0001:0006d860       AreInternalRegsAndPredicatesLiveAtFB 1006e860 f   usc:reorder.obj
 0001:0006e06c       PeepholeOptimizer          1006f06c f   usc:reorder.obj
 0001:0006e2d8       SetNoSchedFlagForBasicBlockNoPairs 1006f2d8 f   usc:finalise.obj
 0001:0006e3c4       SetNoSchedFlagForBasicBlock 1006f3c4 f   usc:finalise.obj
 0001:0006e7a0       InitSkipinvState           1006f7a0 f   usc:finalise.obj
 0001:0006e820       CopySkipinvState           1006f820 f   usc:finalise.obj
 0001:0006e8b4       MergeSkipinvState          1006f8b4 f   usc:finalise.obj
 0001:0006e9e4       SetSkipInvalidFlagForInst  1006f9e4 f   usc:finalise.obj
 0001:0006f104       SetSkipInvalidDF           10070104 f   usc:finalise.obj
 0001:0006f3a8       DoSkipInvalid              100703a8 f   usc:finalise.obj
 0001:0006f4c8       DetermineNonAnisoTextureStagesBP 100704c8 f   usc:finalise.obj
 0001:0006f518       SetSkipInvAllInstsBP       10070518 f   usc:finalise.obj
 0001:0006f6d0       CheckForFetch              100706d0 f   usc:finalise.obj
 0001:0006fadc       ExpandLoadForRangeCheck    10070adc f   usc:finalise.obj
 0001:0006fe9c       RegisterUsedInRange        10070e9c f   usc:finalise.obj
 0001:0006ff84       OptimizeAddressCalc        10070f84 f   usc:finalise.obj
 0001:00070290       OptimizeAddressCalc_RangeCheck 10071290 f   usc:finalise.obj
 0001:00070580       OptimizeAddressCalc_545    10071580 f   usc:finalise.obj
 0001:0007085c       PostFetchOptimizationBlock 1007185c f   usc:finalise.obj
 0001:00070acc       GetWaitInstIdx             10071acc f   usc:finalise.obj
 0001:00070d08       CheckInsertWaits           10071d08 f   usc:finalise.obj
 0001:00070da8       InsertWaitsBP              10071da8 f   usc:finalise.obj
 0001:00071160       SetSyncStartBeforeInst     10072160 f   usc:finalise.obj
 0001:000711f0       SetSyncStartBP             100721f0 f   usc:finalise.obj
 0001:00071258       NoSchedAlignToEvenCB       10072258 f   usc:finalise.obj
 0001:00071290       NoSchedBranchCB            10072290 f   usc:finalise.obj
 0001:000712d0       FinaliseIndexableTempsBP   100722d0 f   usc:finalise.obj
 0001:00071420       RemoveNoEmitInstructionsBP 10072420 f   usc:finalise.obj
 0001:00071478       AddFixForBRN25804ForBlock  10072478 f   usc:finalise.obj
 0001:0007152c       IsTESTMASKUsedInBlock      1007252c f   usc:finalise.obj
 0001:00071584       ExpandC10InstsBP           10072584 f   usc:finalise.obj
 0001:00071b38       ColourToRegister           10072b38 f   usc:regalloc.obj
 0001:00071ba4       DoOnAllFuncGroupBasicBlocks 10072ba4 f   usc:regalloc.obj
 0001:00071c34       NodeToRegister             10072c34 f   usc:regalloc.obj
 0001:00071cac       RegisterToNode             10072cac f   usc:regalloc.obj
 0001:00071d10       ArgumentToNode             10072d10 f   usc:regalloc.obj
 0001:00071d88       GetFixedRegister           10072d88 f   usc:regalloc.obj
 0001:00071e4c       GetFixedColour             10072e4c f   usc:regalloc.obj
 0001:00071ed8       GetNodeAlignment           10072ed8 f   usc:regalloc.obj
 0001:00071f44       BaseSetNodeAlignment       10072f44 f   usc:regalloc.obj
 0001:00071fd0       SetLinkedNodeAlignments    10072fd0 f   usc:regalloc.obj
 0001:00072070       SetNodeAlignment           10073070 f   usc:regalloc.obj
 0001:000720c4       AddToGroup                 100730c4 f   usc:regalloc.obj
 0001:000723f4       RemoveFromGroup            100733f4 f   usc:regalloc.obj
 0001:00072618       AdjustBaseAddress          10073618 f   usc:regalloc.obj
 0001:00072780       GroupArrayRegs             10073780 f   usc:regalloc.obj
 0001:000728dc       FormFetchGroup             100738dc f   usc:regalloc.obj
 0001:00072a9c       SetupSpillAreaBP           10073a9c f   usc:regalloc.obj
 0001:00072c1c       SetupSpillArea             10073c1c f   usc:regalloc.obj
 0001:00072cec       RegIsNode                  10073cec f   usc:regalloc.obj
 0001:000732c0       FreeRAGColState            100742c0 f   usc:regalloc.obj
 0001:000734d4       AllocateRAGColState        100744d4 f   usc:regalloc.obj
 0001:0007374c       ResetRAGColState           1007474c f   usc:regalloc.obj
 0001:00073e64       SetSpillAddress            10074e64 f   usc:regalloc.obj
 0001:00073f04       InsertSpill                10074f04 f   usc:regalloc.obj
 0001:000743cc       AddRegToInstGroup          100753cc f   usc:regalloc.obj
 0001:000746d0       RegisterGrouping           100756d0 f   usc:regalloc.obj
 0001:00074a1c       FormOptRegGroupBP          10075a1c f   usc:regalloc.obj
 0001:00074af4       AddEdge                    10075af4 f   usc:regalloc.obj
 0001:00074ba8       InsertNode                 10075ba8 f   usc:regalloc.obj
 0001:00074cf0       RemoveFromGraph            10075cf0 f   usc:regalloc.obj
 0001:00074e3c       SimplifyGraph              10075e3c f   usc:regalloc.obj
 0001:00074ee0       UpdateInterferenceGraph    10075ee0 f   usc:regalloc.obj
 0001:00074ff8       ReplaceRegisterInstsBP     10075ff8 f   usc:regalloc.obj
 0001:000751a0       CoalesceRegister           100761a0 f   usc:regalloc.obj
 0001:000753ac       IsValidGroup               100763ac f   usc:regalloc.obj
 0001:00075674       MakeInterfereWithAllPAs    10076674 f   usc:regalloc.obj
 0001:00075730       SetupConsecutiveRegisterSets 10076730 f   usc:regalloc.obj
 0001:00075adc       AddTempNodesForRegisterSetsBP 10076adc f   usc:regalloc.obj
 0001:00075c14       UpdateInterferenceGraphForArgument 10076c14 f   usc:regalloc.obj
 0001:00075e00       MakeInterfereWithAllOutputRegs 10076e00 f   usc:regalloc.obj
 0001:00075ec0       ConstructInterferenceGraphForImmTemps 10076ec0 f   usc:regalloc.obj
 0001:00075fa4       FlagC10NodesInst           10076fa4 f   usc:regalloc.obj
 0001:00076148       FlagC10NodesBP             10077148 f   usc:regalloc.obj
 0001:00076180       UpdateInterferenceGraphForDestNode 10077180 f   usc:regalloc.obj
 0001:00076338       ConstructInterferenceGraphForInst 10077338 f   usc:regalloc.obj
 0001:00076720       ConstructInterferenceGraphForBlock 10077720 f   usc:regalloc.obj
 0001:00076b64       CanNodeUseColour           10077b64 f   usc:regalloc.obj
 0001:00076cdc       ColourNodeRange            10077cdc f   usc:regalloc.obj
 0001:00076eac       DisconnectOptionalGroupParts 10077eac f   usc:regalloc.obj
 0001:00076ff4       ColourNode                 10077ff4 f   usc:regalloc.obj
 0001:00077438       AddSecAttrWithMemoryOffset 10078438 f   usc:regalloc.obj
 0001:000774bc       AddToSpillList             100784bc f   usc:regalloc.obj
 0001:00077734       SpillRegistersForInst      10078734 f   usc:regalloc.obj
 0001:000779ac       SpillRegistersBP           100789ac f   usc:regalloc.obj
 0001:00077a84       SpillPlainNodes            10078a84 f   usc:regalloc.obj
 0001:00077cc0       PrepRegStateBP             10078cc0 f   usc:regalloc.obj
 0001:00077e68       PrepRegState               10078e68 f   usc:regalloc.obj
 0001:00077fd4       SortRegsByDegree           10078fd4 f   usc:regalloc.obj
 0001:0007817c       PrecolourNode              1007917c f   usc:regalloc.obj
 0001:000783bc       AssignColours              100793bc f   usc:regalloc.obj
 0001:0007893c       RenameReg                  1007993c f   usc:regalloc.obj
 0001:00078a4c       DropInst                   10079a4c f   usc:regalloc.obj
 0001:00078ac4       RenameRegistersBP          10079ac4 f   usc:regalloc.obj
 0001:00078c34       CoalesceGroups             10079c34 f   usc:regalloc.obj
 0001:00078e90       CanCoalesceGroups          10079e90 f   usc:regalloc.obj
 0001:000792fc       ExtendLiveRangeForEquivalent 1007a2fc f   usc:regalloc.obj
 0001:00079448       MergeCRegMovesBP           1007a448 f   usc:regalloc.obj
 0001:000795ec       CoalesceRegistersForMOVsBP 1007a5ec f   usc:regalloc.obj
 0001:00079844       ConvertMOVToPCKBP          1007a844 f   usc:regalloc.obj
 0001:0007993c       RenameCalculatedSecondaryAttributesBP 1007a93c f   usc:regalloc.obj
 0001:00079a30       AssignRegistersOffLineFuncGroup 1007aa30 f   usc:regalloc.obj
 0001:0007a160       C10FitsInStandardRegister  1007b160 f   usc:iregalloc.obj
 0001:0007a170       AllocIRegState             1007b170 f   usc:iregalloc.obj
 0001:0007a2d8       FreeIRegState              1007b2d8 f   usc:iregalloc.obj
 0001:0007a41c       SetHwReg                   1007b41c f   usc:iregalloc.obj
 0001:0007a484       PLRemoveIntvl              1007b484 f   usc:iregalloc.obj
 0001:0007a4dc       PLAddIntvl                 1007b4dc f   usc:iregalloc.obj
 0001:0007a534       RegIntvlPush               1007b534 f   usc:iregalloc.obj
 0001:0007a62c       SpillOrder                 1007b62c f   usc:iregalloc.obj
 0001:0007a6d0       FindColour                 1007b6d0 f   usc:iregalloc.obj
 0001:0007a858       CloseActiveInterval        1007b858 f   usc:iregalloc.obj
 0001:0007a950       ComputeIRegColours         1007b950 f   usc:iregalloc.obj
 0001:0007aa84       GetSaveRegs                1007ba84 f   usc:iregalloc.obj
 0001:0007ab30       MergeC10IntervalList       1007bb30 f   usc:iregalloc.obj
 0001:0007ac14       CalcIntervalBlock          1007bc14 f   usc:iregalloc.obj
 0001:0007adb0       CalcIntervalDst            1007bdb0 f   usc:iregalloc.obj
 0001:0007b204       CalcIntervalSrc            1007c204 f   usc:iregalloc.obj
 0001:0007b378       AllocSpillData             1007c378 f   usc:iregalloc.obj
 0001:0007b45c       OperandData                1007c45c f   usc:iregalloc.obj
 0001:0007b56c       GetChanUse                 1007c56c f   usc:iregalloc.obj
 0001:0007b5b0       IsValidFold                1007c5b0 f   usc:iregalloc.obj
 0001:0007b66c       FoldNodeReg                1007c66c f   usc:iregalloc.obj
 0001:0007b820       ExpandSaveC10FullPred      1007c820 f   usc:iregalloc.obj
 0001:0007bb54       ExpandSaveC10ShortPred     1007cb54 f   usc:iregalloc.obj
 0001:0007bd2c       ExpandSaveC10              1007cd2c f   usc:iregalloc.obj
 0001:0007be58       ExpandRestoreC10           1007ce58 f   usc:iregalloc.obj
 0001:0007c06c       MergeC10SaveComb           1007d06c f   usc:iregalloc.obj
 0001:0007c1cc       SplitSop3                  1007d1cc f   usc:iregalloc.obj
 0001:0007c97c       SplitC10Inst               1007d97c f   usc:iregalloc.obj
 0001:0007d18c       MergeC10SavePair           1007e18c f   usc:iregalloc.obj
 0001:0007d318       MergeC10SaveInst           1007e318 f   usc:iregalloc.obj
 0001:0007d4bc       MergeC10SavePack           1007e4bc f   usc:iregalloc.obj
 0001:0007d9b8       MergeSaveC10               1007e9b8 f   usc:iregalloc.obj
 0001:0007dc74       FormSaveC10                1007ec74 f   usc:iregalloc.obj
 0001:0007ddcc       FormRestoreC10             1007edcc f   usc:iregalloc.obj
 0001:0007def8       SaveC10Interval            1007eef8 f   usc:iregalloc.obj
 0001:0007e050       FindSpillIReg              1007f050 f   usc:iregalloc.obj
 0001:0007e194       MarkC10Write               1007f194 f   usc:iregalloc.obj
 0001:0007e298       SaveIRegisters             1007f298 f   usc:iregalloc.obj
 0001:0007e410       FlagC10Variables           1007f410 f   usc:iregalloc.obj
 0001:0007e534       IRegIsNode                 1007f534 f   usc:iregalloc.obj
 0001:0007e59c       IRegIntervalCB             1007f59c f   usc:iregalloc.obj
 0001:0007e760       CalcIRegIntervals          1007f760 f   usc:iregalloc.obj
 0001:0007e940       FoldNodeInst               1007f940 f   usc:iregalloc.obj
 0001:0007eb44       ExtractNodeSrc             1007fb44 f   usc:iregalloc.obj
 0001:0007ee8c       ExtractInstSrc             1007fe8c f   usc:iregalloc.obj
 0001:0007efdc       FoldNodeRegWithSOPWM       1007ffdc f   usc:iregalloc.obj
 0001:0007f3f0       MergeRestoreC10            100803f0 f   usc:iregalloc.obj
 0001:0007f794       MarkInstSrc                10080794 f   usc:iregalloc.obj
 0001:0007f838       RestoreC10Interval         10080838 f   usc:iregalloc.obj
 0001:0007f9f8       SpillC10Reg                100809f8 f   usc:iregalloc.obj
 0001:000801f4       RenameC10Reg               100811f4 f   usc:iregalloc.obj
 0001:00080908       SetupInstIRegs             10081908 f   usc:iregalloc.obj
 0001:00080a8c       RenameSourceOperands       10081a8c f   usc:iregalloc.obj
 0001:00080cd4       RenameC10BP                10081cd4 f   usc:iregalloc.obj
 0001:00081344       RenameC10Registers         10082344 f   usc:iregalloc.obj
 0001:000814c8       CanPeepholeSplit           100824c8 f   usc:iregalloc.obj
 0001:00081744       PeepholeSplit              10082744 f   usc:iregalloc.obj
 0001:00081924       FoldIRegInst               10082924 f   usc:iregalloc.obj
 0001:00081a84       PeepholeC10BP              10082a84 f   usc:iregalloc.obj
 0001:00081d6c       InitIRegState              10082d6c f   usc:iregalloc.obj
 0001:00081f6c       AssignInternalRegistersLScan 10082f6c f   usc:iregalloc.obj
 0001:000821ec       FreeRegState               100831ec f   usc:pregalloc.obj
 0001:000822d4       UpdatePredicateInterferenceGraph 100832d4 f   usc:pregalloc.obj
 0001:00082388       CheckPredicateRepeat       10083388 f   usc:pregalloc.obj
 0001:000824e0       ConstructPredicateInterferenceGraphBP 100834e0 f   usc:pregalloc.obj
 0001:000826a0       InsertNode                 100836a0 f   usc:pregalloc.obj
 0001:00082750       RemoveFromGraph            10083750 f   usc:pregalloc.obj
 0001:00082800       SimplifyGraph              10083800 f   usc:pregalloc.obj
 0001:000828a8       RestorePredicate           100838a8 f   usc:pregalloc.obj
 0001:00082a18       SaveInstResult             10083a18 f   usc:pregalloc.obj
 0001:00082c3c       CanUseTestMaskSpillModeBP  10083c3c f   usc:pregalloc.obj
 0001:00082cd4       SpillPredRegBP             10083cd4 f   usc:pregalloc.obj
 0001:00082ea4       RenamePredRegBP            10083ea4 f   usc:pregalloc.obj
 0001:00082fb4       AllocRegState              10083fb4 f   usc:pregalloc.obj
 0001:00083624       LocateSyncs                10084624 f   usc:pregalloc.obj
 0001:000839b0       GetFlagSetter              100849b0 f   usc:pregalloc.obj
 0001:00083a4c       DoRestructuring            10084a4c f   usc:pregalloc.obj
 0001:00083e98       Restructure                10084e98 f   usc:pregalloc.obj
 0001:00084180       SetSyncStartEnd            10085180 f   usc:pregalloc.obj
 0001:000846d0       SetDependency              100856d0 f   usc:efo.obj
 0001:00084780       SetupIRegDests             10085780 f   usc:efo.obj
 0001:000847d8       CheckEfoIReg               100857d8 f   usc:efo.obj
 0001:000848f0       GetArg                     100858f0 f   usc:efo.obj
 0001:0008498c       SetupEfoStageData          1008598c f   usc:efo.obj
 0001:00084a38       CreateEfoInst              10085a38 f   usc:efo.obj
 0001:00084adc       CanUseEfoSrc               10085adc f   usc:efo.obj
 0001:00084ba8       UpdateClosedEfoDependencyGraph 10085ba8 f   usc:efo.obj
 0001:00084cfc       AddToEfoReaderList         10085cfc f   usc:efo.obj
 0001:00084d50       ReplaceHardwareConstants   10085d50 f   usc:efo.obj
 0001:00084e08       MakeEfo_MulMad_SharedSrc   10085e08 f   usc:efo.obj
 0001:00085114       MakeEfo_MulMad_Square      10086114 f   usc:efo.obj
 0001:000853c8       MakeEfo_MulMad_IRegSrcs    100863c8 f   usc:efo.obj
 0001:00085698       MakeEfo_MadMad_Lrp         10086698 f   usc:efo.obj
 0001:00085a6c       MakeEfo_EfoMad_Lrp_535     10086a6c f   usc:efo.obj
 0001:00085e00       MakeEfo_EfoMad_Lrp_545     10086e00 f   usc:efo.obj
 0001:000866bc       IsInstDependentOnGroup     100876bc f   usc:efo.obj
 0001:00086750       IsGroupDependentOnInst     10087750 f   usc:efo.obj
 0001:00086838       IsDescheduleBetweenGroupAndInsts 10087838 f   usc:efo.obj
 0001:0008690c       IsGroupDependentOnGroup    1008790c f   usc:efo.obj
 0001:00086a08       CheckEfoGroupOrder         10087a08 f   usc:efo.obj
 0001:00086abc       CheckEfoGroupDependency    10087abc f   usc:efo.obj
 0001:00086c24       WouldBeInterveningIRegWrite 10087c24 f   usc:efo.obj
 0001:00086ce0       IsInterveningIRegWriteForRead 10087ce0 f   usc:efo.obj
 0001:00086de0       IsDescheduleBetweenGroups  10087de0 f   usc:efo.obj
 0001:00086e90       CountArgs                  10087e90 f   usc:efo.obj
 0001:00086f58       CheckEfoGroupDependencyForMad 10087f58 f   usc:efo.obj
 0001:0008703c       FindMadForEfoWriteBack     1008803c f   usc:efo.obj
 0001:00087298       BuildExtraAddInst          10088298 f   usc:efo.obj
 0001:000874d4       IsIRegDestOverwrite        100884d4 f   usc:efo.obj
 0001:00087654       CheckSrcToIReg             10088654 f   usc:efo.obj
 0001:00087984       AddIRegDependency          10088984 f   usc:efo.obj
 0001:00087a80       MergeEfoGroup              10088a80 f   usc:efo.obj
 0001:00087cb4       IsInterveningGroup         10088cb4 f   usc:efo.obj
 0001:00087d80       IsEfoOrDeschedDependent    10088d80 f   usc:efo.obj
 0001:00087fec       CheckWriteAfterReadDependency 10088fec f   usc:efo.obj
 0001:00088068       CanReplaceIRegMove         10089068 f   usc:efo.obj
 0001:000887b8       ReplaceIRegMove            100897b8 f   usc:efo.obj
 0001:00088bcc       CanWriteDestUsingEfo       10089bcc f   usc:efo.obj
 0001:00088e58       AddDepsForWriteDestUsingEfo 10089e58 f   usc:efo.obj
 0001:00088ff0       TryReorderPacks            10089ff0 f   usc:efo.obj
 0001:00089628       IsDestDependency           1008a628 f   usc:efo.obj
 0001:000896e0       IsInterveningInst          1008a6e0 f   usc:efo.obj
 0001:000897ac       CreateNewEfoGroup          1008a7ac f   usc:efo.obj
 0001:00089844       AddToEfoWriterList         1008a844 f   usc:efo.obj
 0001:000898c4       TryCombineDependentInstructions 1008a8c4 f   usc:efo.obj
 0001:00089f54       GenerateEfosFromDependentInstructions 1008af54 f   usc:efo.obj
 0001:0008a344       UnwindEfoToEfo             1008b344 f   usc:efo.obj
 0001:0008a75c       UnwindEfo                  1008b75c f   usc:efo.obj
 0001:0008ade4       ConvertM0ToA0              1008bde4 f   usc:efo.obj
 0001:0008af40       SetupDeschedDependencyState 1008bf40 f   usc:efo.obj
 0001:0008b080       SetupGroupDependencyGraph  1008c080 f   usc:efo.obj
 0001:0008b2a8       OutputInstructionsInGroupOrder 1008c2a8 f   usc:efo.obj
 0001:0008b748       ConvertSingleInstToEfo     1008c748 f   usc:efo.obj
 0001:0008b9c0       CanConvertSingleInstToEfo  1008c9c0 f   usc:efo.obj
 0001:0008bb30       WriteDestUsingNonEfo       1008cb30 f   usc:efo.obj
 0001:0008bffc       CanReplaceSourceByIReg     1008cffc f   usc:efo.obj
 0001:0008c3f0       SetupEfoInstExtraIRegs     1008d3f0 f   usc:efo.obj
 0001:0008c6b4       TryEfoCombineExtraIRegsMULMUL 1008d6b4 f   usc:efo.obj
 0001:0008cb04       TryEfoCombineExtraIRegsMADMUL 1008db04 f   usc:efo.obj
 0001:0008d0e0       TryEfoCombineExtraIRegsMADMAD 1008e0e0 f   usc:efo.obj
 0001:0008d64c       TryEfoCombineExtraIRegs    1008e64c f   usc:efo.obj
 0001:0008d86c       CheckEfoTemplate           1008e86c f   usc:efo.obj
 0001:0008dc68       CheckEfoTemplateTable      1008ec68 f   usc:efo.obj
 0001:0008dcec       CanCombineIntoEfo          1008ecec f   usc:efo.obj
 0001:0008dfe8       WriteDestUsingEfo          1008efe8 f   usc:efo.obj
 0001:0008e2dc       TryEfoCombineWithEfo       1008f2dc f   usc:efo.obj
 0001:0008e59c       TryEfoCombine              1008f59c f   usc:efo.obj
 0001:0008e724       CreateEfoInstructions      1008f724 f   usc:efo.obj
 0001:0008f020       CanSubstituteF16RegisterSwizzle 10090020 f   usc:f16opt.obj
 0001:0008f18c       CanSubstituteF16FormatConvert 1009018c f   usc:f16opt.obj
 0001:0008f33c       CanCombineF16Registers     1009033c f   usc:f16opt.obj
 0001:0008f5cc       SubstituteF16Argument      100905cc f   usc:f16opt.obj
 0001:0008fea8       CombineF16Registers        10090ea8 f   usc:f16opt.obj
 0001:00090164       F16SwizzleToComponent      10091164 f   usc:f16opt.obj
 0001:000901c4       MovePackToMUL16Source      100911c4 f   usc:f16opt.obj
 0001:000903e0       OptimizeDependentF16Instructions 100913e0 f   usc:f16opt.obj
 0001:00090c48       CompressF16Masks           10091c48 f   usc:f16opt.obj
 0001:00090d94       ExpandF16Masks             10091d94 f   usc:f16opt.obj
 0001:00090ed0       Float16Optimize            10091ed0 f   usc:f16opt.obj
 0001:0009108c       GlobalF16HalfPackUpdateBlock 1009208c f   usc:f16opt.obj
 0001:00091158       GlobalF32F16PackReplaceArguments 10092158 f   usc:f16opt.obj
 0001:00091350       GlobalF32F16PackUpdateBlock 10092350 f   usc:f16opt.obj
 0001:000913f4       GlobalF16HalfPackReplaceArguments 100923f4 f   usc:f16opt.obj
 0001:00091718       GlobalF16FullPackUpdateBlock 10092718 f   usc:f16opt.obj
 0001:000917cc       GlobalF16FullPackReplaceArguments 100927cc f   usc:f16opt.obj
 0001:00091a8c       PromoteFARITH16ToF32       10092a8c f   usc:f16opt.obj
 0001:000926a4       FixMultipleIndexRegConflict 100936a4 f   usc:indexreg.obj
 0001:000928c0       FixOffsetConflict          100938c0 f   usc:indexreg.obj
 0001:00092b48       AdjustIndexOffsets         10093b48 f   usc:indexreg.obj
 0001:00092da4       GetIndexRange              10093da4 f   usc:indexreg.obj
 0001:000931dc       InitRegisterMap            100941dc f   usc:ssa.obj
 0001:0009323c       GetSet                     1009423c f   usc:ssa.obj
 0001:00093274       GetIntermediateReg         10094274 f   usc:ssa.obj
 0001:00093334       DisambiguateRegistersInst  10094334 f   usc:ssa.obj
 0001:00093670       MergeRegisterMaps          10094670 f   usc:ssa.obj
 0001:000937b0       RemapBlockLiveOutForType   100947b0 f   usc:ssa.obj
 0001:00093864       AddLiveRegistersToMap      10094864 f   usc:ssa.obj
 0001:00093954       RenameRegisterInst         10094954 f   usc:ssa.obj
 0001:00093ac8       RenameRegisterInLiveSet    10094ac8 f   usc:ssa.obj
 0001:00093b54       RenameRegistersBP          10094b54 f   usc:ssa.obj
 0001:00093c88       DisambiguateTraversal      10094c88 f   usc:ssa.obj
 0001:00094114       ReserveInExitMap           10095114 f   usc:ssa.obj
 0001:00094174       FixFinalReg                10095174 f   usc:ssa.obj
 0001:000941e0       ApplyToFixedRegs           100951e0 f   usc:ssa.obj
 0001:0009481c       CheckForStaticConst        1009581c f   usc:icvt_core.obj
 0001:00094890       ConvertRelativeOffset      10095890 f   usc:icvt_core.obj
 0001:0009547c       EmitGradCalc               1009647c f   usc:icvt_core.obj
 0001:000957f4       GetInputConst              100967f4 f   usc:icvt_core.obj
 0001:00095940       UFRegIsConst               10096940 f   usc:icvt_core.obj
 0001:000959a0       UFConstComp                100969a0 f   usc:icvt_core.obj
 0001:00095c04       AddD3DLoopProlog           10096c04 f   usc:icvt_core.obj
 0001:00095dd4       AddD3DLoopEpilog           10096dd4 f   usc:icvt_core.obj
 0001:000960d8       ConvertSwitch              100970d8 f   usc:icvt_core.obj
 0001:0009642c       ConvertEmitInstruction     1009742c f   usc:icvt_core.obj
 0001:00096784       ConvertCutInstruction      10097784 f   usc:icvt_core.obj
 0001:00096a94       AllocInputInst             10097a94 f   usc:icvt_core.obj
 0001:00096ad4       CopyInputInst              10097ad4 f   usc:icvt_core.obj
 0001:00096b6c       RemapInputSwizzle          10097b6c f   usc:icvt_core.obj
 0001:00096be8       ExpandTRC                  10097be8 f   usc:icvt_core.obj
 0001:00096d5c       ExpandRNE                  10097d5c f   usc:icvt_core.obj
 0001:00096eb8       ExpandCEIL                 10097eb8 f   usc:icvt_core.obj
 0001:00096fe8       ExpandSLT_SGE              10097fe8 f   usc:icvt_core.obj
 0001:00097108       ExpandCND                  10098108 f   usc:icvt_core.obj
 0001:00097210       ExpandLIT                  10098210 f   usc:icvt_core.obj
 0001:00097abc       ExpandPOW                  10098abc f   usc:icvt_core.obj
 0001:00097bf8       LoadImmediateVector        10098bf8 f   usc:icvt_core.obj
 0001:00097ca0       MapAngleToMinusPiToPi      10098ca0 f   usc:icvt_core.obj
 0001:00097e8c       ExpandSINCOS2              10098e8c f   usc:icvt_core.obj
 0001:0009847c       ExpandSINCOS               1009947c f   usc:icvt_core.obj
 0001:000989d0       ExpandFloatDIV             100999d0 f   usc:icvt_core.obj
 0001:00098ab4       ExpandInt16DIV             10099ab4 f   usc:icvt_core.obj
 0001:00098fd4       ExpandIntegerDIV           10099fd4 f   usc:icvt_core.obj
 0001:00099510       GenerateFloor              1009a510 f   usc:icvt_core.obj
 0001:000995f0       ExpandEXPP                 1009a5f0 f   usc:icvt_core.obj
 0001:00099860       ExpandMOVA_TRC             1009a860 f   usc:icvt_core.obj
 0001:00099924       ExpandSGN_Int              1009a924 f   usc:icvt_core.obj
 0001:00099b88       ExpandSGN                  1009ab88 f   usc:icvt_core.obj
 0001:00099d00       ExpandSQRT                 1009ad00 f   usc:icvt_core.obj
 0001:00099f94       ExpandRelativeIndex        1009af94 f   usc:icvt_core.obj
 0001:0009a1c0       GetMaximumInputRegisterNumber 1009b1c0 f   usc:icvt_core.obj
 0001:0009a314       SetValidSahderOutputsData  1009b314 f   usc:icvt_core.obj
 0001:0009a644       SetupPixelShaderFixedRegs  1009b644 f   usc:icvt_core.obj
 0001:0009a980       SetupVertexShaderFixedRegs 1009b980 f   usc:icvt_core.obj
 0001:0009b61c       ConvertInstToIntermediate  1009c61c f   usc:icvt_core.obj
 0001:0009b76c       SearchBackwardsSetp        1009c76c f   usc:icvt_core.obj
 0001:0009b818       DoFlowControlTest          1009c818 f   usc:icvt_core.obj
 0001:0009c054       ConvertLoop                1009d054 f   usc:icvt_core.obj
 0001:0009c304       ConvertCall                1009d304 f   usc:icvt_core.obj
 0001:0009c59c       ConvertConditional         1009d59c f   usc:icvt_core.obj
 0001:0009c76c       GetSourceConvertToU16      1009d76c f   usc:icvt_core.obj
 0001:0009cd00       DoConvert                  1009dd00 f   usc:icvt_core.obj
 0001:0009d128       ExpandMacro                1009e128 f   usc:icvt_core.obj
 0001:0009dc44       ExpandRelativeIndexAndMacro 1009ec44 f   usc:icvt_core.obj
 0001:0009ddf8       SetupVertexShaderInputs    1009edf8 f   usc:icvt_core.obj
 0001:0009dedc       GenerateShaderEndMOV       1009eedc f   usc:icvt_core.obj
 0001:0009dfa0       BuildCFG                   1009efa0 f   usc:icvt_core.obj
 0001:0009e74c       FreeIntList                1009f74c f   usc:dgraph.obj
 0001:0009ec10       AddToDepGraph              1009fc10 f   usc:dgraph.obj
 0001:0009ed8c       FindReaders                1009fd8c f   usc:dgraph.obj
 0001:0009ee6c       FindRegArrayReaders        1009fe6c f   usc:dgraph.obj
 0001:0009eff0       InsertInAvailableList      1009fff0 f   usc:dgraph.obj
 0001:0009fd10       RecordWrite                100a0d10 f   usc:dgraph.obj
 0001:0009fda8       AddDestDependencies        100a0da8 f   usc:dgraph.obj
 0001:0009ff70       RecordRead                 100a0f70 f   usc:dgraph.obj
 0001:000a05e4       CheckArgSwizzleMode        100a15e4 f   usc:groupinst.obj
 0001:000a06b0       CheckArg                   100a16b0 f   usc:groupinst.obj
 0001:000a0910       IsDoubleDotProduct         100a1910 f   usc:groupinst.obj
 0001:000a0a88       GetArgumentFormatControlRequirements 100a1a88 f   usc:groupinst.obj
 0001:000a0b34       InsertSetfcInstruction     100a1b34 f   usc:groupinst.obj
 0001:000a0bc4       MoeToInst                  100a1bc4 f   usc:groupinst.obj
 0001:000a0c94       EqualMoeData               100a1c94 f   usc:groupinst.obj
 0001:000a0d2c       ResetMoeOpState            100a1d2c f   usc:groupinst.obj
 0001:000a0e40       GetArgumentsAffectedByMOESwizzles 100a1e40 f   usc:groupinst.obj
 0001:000a0f38       AdjustRegisterNumbersForMOESwizzle 100a1f38 f   usc:groupinst.obj
 0001:000a10a4       UpdateKillFlags            100a20a4 f   usc:groupinst.obj
 0001:000a1198       RemapIncrements            100a2198 f   usc:groupinst.obj
 0001:000a1318       NeedSMSLIForDPDestination  100a2318 f   usc:groupinst.obj
 0001:000a137c       IsMOEStateCompatibleWithInstructionRange 100a237c f   usc:groupinst.obj
 0001:000a1408       CheckExistingMoeState      100a2408 f   usc:groupinst.obj
 0001:000a1568       SwitchToRepeatMask         100a2568 f   usc:groupinst.obj
 0001:000a1848       CheckIncrements            100a2848 f   usc:groupinst.obj
 0001:000a19ac       SaveRegNumsBP              100a29ac f   usc:groupinst.obj
 0001:000a1a54       GetBaseOffsetRange         100a2a54 f   usc:groupinst.obj
 0001:000a1d74       CheckBaseOffset            100a2d74 f   usc:groupinst.obj
 0001:000a1ff0       CheckPossibleSwizzle       100a2ff0 f   usc:groupinst.obj
 0001:000a2104       GetMOERegisterNumber       100a3104 f   usc:groupinst.obj
 0001:000a2154       EqualArgModes              100a3154 f   usc:groupinst.obj
 0001:000a21dc       GenerateDotProducts        100a31dc f   usc:groupinst.obj
 0001:000a2968       ExpandMacroInstruction     100a3968 f   usc:groupinst.obj
 0001:000a2be4       GenerateExtraDPCIteration  100a3be4 f   usc:groupinst.obj
 0001:000a2ccc       OptimizePFlagCalc          100a3ccc f   usc:groupinst.obj
 0001:000a2f4c       MergeDPWithTest            100a3f4c f   usc:groupinst.obj
 0001:000a3144       GenerateDotProdBP          100a4144 f   usc:groupinst.obj
 0001:000a31fc       UpdateF16RegistersBP       100a41fc f   usc:groupinst.obj
 0001:000a32e0       CheckBaseOffsetBasicBlock  100a42e0 f   usc:groupinst.obj
 0001:000a3360       GroupInstsDF               100a4360 f   usc:groupinst.obj
 0001:000a3560       DoMOEPass                  100a4560 f   usc:groupinst.obj
 0001:000a3778       SMLSI_ProcessFuncEnd       100a4778 f   usc:groupinst.obj
 0001:000a3894       SMLSI_Merge                100a4894 f   usc:groupinst.obj
 0001:000a38ec       SMLSI_SetDefault           100a48ec f   usc:groupinst.obj
 0001:000a38fc       SMBO_SetDefault            100a48fc f   usc:groupinst.obj
 0001:000a391c       SMBO_Merge                 100a491c f   usc:groupinst.obj
 0001:000a3964       SMBO_ProcessFuncEnd        100a4964 f   usc:groupinst.obj
 0001:000a3a58       SETFC_SetDefault           100a4a58 f   usc:groupinst.obj
 0001:000a3a6c       SETFC_Merge                100a4a6c f   usc:groupinst.obj
 0001:000a3aa0       SETFC_ProcessFuncEnd       100a4aa0 f   usc:groupinst.obj
 0001:000a3b0c       CheckInstGroup             100a4b0c f   usc:groupinst.obj
 0001:000a401c       GetFormatControlRequirements 100a501c f   usc:groupinst.obj
 0001:000a4154       CheckFormatControl         100a5154 f   usc:groupinst.obj
 0001:000a42a4       FindPotentialGroup         100a52a4 f   usc:groupinst.obj
 0001:000a443c       GroupInstructions          100a543c f   usc:groupinst.obj
 0001:000a4c34       SearchFormatControlBP      100a5c34 f   usc:groupinst.obj
 0001:000a4cf4       CheckFormatControlBasicBlock 100a5cf4 f   usc:groupinst.obj
 0001:000a4d70       GroupInstructionsBasicBlock 100a5d70 f   usc:groupinst.obj
 0001:000a559c       LayoutCall                 100a659c f   usc:layout.obj
 0001:000a5740       LayoutBlockBP              100a6740 f   usc:layout.obj
 0001:000a5fb4       EncodeEfoArith             100a6fb4 f   usc:asm.obj
 0001:000a6138       EncodeEfo                  100a7138 f   usc:asm.obj
 0001:000a63b4       EncodeSOP2Modes            100a73b4 f   usc:asm.obj
 0001:000a6518       EncodeSOP3Modes            100a7518 f   usc:asm.obj
 0001:000a66c4       EncodePred                 100a76c4 f   usc:asm.obj
 0001:000a67a0       CopySource                 100a77a0 f   usc:asm.obj
 0001:000a6940       GetUseasmOpcodeForSmp      100a7940 f   usc:asm.obj
 0001:000a6b08       ConvertDest                100a7b08 f   usc:asm.obj
 0001:000a6c14       CopySources                100a7c14 f   usc:asm.obj
 0001:000a6c88       ConvertIMAEToUseasm        100a7c88 f   usc:asm.obj
 0001:000a6df8       ConvertTextureSampleToUseasm 100a7df8 f   usc:asm.obj
 0001:000a6f18       ConvertSOPWMToUseasm       100a7f18 f   usc:asm.obj
 0001:000a6ff4       ConvertFPMAToUseasm        100a7ff4 f   usc:asm.obj
 0001:000a7140       ConvertLRP1ToUseasm        100a8140 f   usc:asm.obj
 0001:000a7270       ConvertConditionalMoveToUseasm 100a8270 f   usc:asm.obj
 0001:000a7344       ConvertInstructionToUseasm 100a8344 f   usc:asm.obj
 0001:000a7d24       ConvertDestinationC10      100a8d24 f   usc:icvt_c10.obj
 0001:000a7e54       GetDestinationC10          100a8e54 f   usc:icvt_c10.obj
 0001:000a7f90       GenerateDestModC10         100a8f90 f   usc:icvt_c10.obj
 0001:000a85c8       SwizzleC10                 100a95c8 f   usc:icvt_c10.obj
 0001:000a8774       ApplySourceModC10          100a9774 f   usc:icvt_c10.obj
 0001:000a8ad0       GetIteratedValueC10        100a9ad0 f   usc:icvt_c10.obj
 0001:000a8d08       LoadVSOutputOrInputC10     100a9d08 f   usc:icvt_c10.obj
 0001:000a8e38       LoadHwConstC10             100a9e38 f   usc:icvt_c10.obj
 0001:000a919c       LoadBackfaceC10            100aa19c f   usc:icvt_c10.obj
 0001:000a9380       GetC10OrU8StaticConstant   100aa380 f   usc:icvt_c10.obj
 0001:000a955c       ExpandAlignedConstantAccess 100aa55c f   usc:icvt_c10.obj
 0001:000a9754       ExpandUnalignedConstantAccess 100aa754 f   usc:icvt_c10.obj
 0001:000a9a90       ConvertU8ArgToC10          100aaa90 f   usc:icvt_c10.obj
 0001:000a9b74       ConvertC10ArgToU8          100aab74 f   usc:icvt_c10.obj
 0001:000aa5a4       ConvertScalarInstructionC10 100ab5a4 f   usc:icvt_c10.obj
 0001:000aaa08       ConvertDotProductInstructionC10 100aba08 f   usc:icvt_c10.obj
 0001:000ab150       ConvertFloatOnlyInstructionC10 100ac150 f   usc:icvt_c10.obj
 0001:000ab4c0       ConvertLrpInstructionC10   100ac4c0 f   usc:icvt_c10.obj
 0001:000ab914       ConvertMadInstructionC10   100ac914 f   usc:icvt_c10.obj
 0001:000abde4       ConvertVectorTwoArgInstructionC10 100acde4 f   usc:icvt_c10.obj
 0001:000ac360       ConvertMovaInstructionC10  100ad360 f   usc:icvt_c10.obj
 0001:000ac534       ConvertComparisonInstructionC10 100ad534 f   usc:icvt_c10.obj
 0001:000acc20       ConvertSamplerInstructionC10 100adc20 f   usc:icvt_c10.obj
 0001:000acf64       ConvertMoveInstructionC10  100adf64 f   usc:icvt_c10.obj
 0001:000ae2bc       ConvertSetpInstructionC10  100af2bc f   usc:icvt_c10.obj
 0001:000ae53c       KillOneChannel             100af53c f   usc:icvt_c10.obj
 0001:000ae63c       ConvertTexkillInstructionC10 100af63c f   usc:icvt_c10.obj
 0001:000afab4       CreateComparisonF32        100b0ab4 f   usc:icvt_f32.obj
 0001:000afcf8       Extract10Or2BitUnsignedInt 100b0cf8 f   usc:icvt_f32.obj
 0001:000b01a8       ConvertF16AddressValue     100b11a8 f   usc:icvt_f32.obj
 0001:000b05dc       ConvertC10AddressValue     100b15dc f   usc:icvt_f32.obj
 0001:000b1a04       ConvertDotProductInstructionF32 100b2a04 f   usc:icvt_f32.obj
 0001:000b2468       ConvertVectorInstructionF32 100b3468 f   usc:icvt_f32.obj
 0001:000b3f94       ConvertLogpInstructionF32  100b4f94 f   usc:icvt_f32.obj
 0001:000b4620       ConvertTexkillInstructionBit 100b5620 f   usc:icvt_f32.obj
 0001:000b4da4       ConvertInteger32ToF32      100b5da4 f   usc:icvt_f32.obj
 0001:000b513c       ConvertReformatInstructionF32 100b613c f   usc:icvt_f32.obj
 0001:000b5b0c       GetIteratedValueF16        100b6b0c f   usc:icvt_f16.obj
 0001:000b5d04       ConvertDestinationF16      100b6d04 f   usc:icvt_f16.obj
 0001:000b5ddc       GetDestinationF16          100b6ddc f   usc:icvt_f16.obj
 0001:000b5ea8       GetF16StaticDoubleConst    100b6ea8 f   usc:icvt_f16.obj
 0001:000b5fd0       GetF16StaticConstant       100b6fd0 f   usc:icvt_f16.obj
 0001:000b60dc       DoF16UnalignedAccess       100b70dc f   usc:icvt_f16.obj
 0001:000b61c4       GetF16Source               100b71c4 f   usc:icvt_f16.obj
 0001:000b6930       GenerateDestModF16         100b7930 f   usc:icvt_f16.obj
 0001:000b6c74       ConvertScalarInstructionF16 100b7c74 f   usc:icvt_f16.obj
 0001:000b6f00       ConvertF32OnlyInstructionF16 100b7f00 f   usc:icvt_f16.obj
 0001:000b7554       UnpackTextureF16           100b8554 f   usc:icvt_f16.obj
 0001:000b76a8       ConvertSamplerInstructionF16 100b86a8 f   usc:icvt_f16.obj
 0001:000b77e4       ConvertMoveInstructionF16  100b87e4 f   usc:icvt_f16.obj
 0001:000b7c68       ConvertComparisonInstructionF16 100b8c68 f   usc:icvt_f16.obj
 0001:000b808c       ConvertDotProductInstructionF16 100b908c f   usc:icvt_f16.obj
 0001:000b82fc       GetDoubleSourceF16         100b92fc f   usc:icvt_f16.obj
 0001:000b8914       ConvertMadInstructionF16   100b9914 f   usc:icvt_f16.obj
 0001:000b931c       ConvertDot4InstructionF16  100ba31c f   usc:icvt_f16.obj
 0001:000b98ac       Generate32bitIntegerMulNonNeg_Non545 100ba8ac f   usc:icvt_i32.obj
 0001:000ba030       Generate32bitIntegerMul_Non545 100bb030 f   usc:icvt_i32.obj
 0001:000ba3c0       GenerateInt16Comparison    100bb3c0 f   usc:icvt_i32.obj
 0001:000ba488       RoundFloatTowardZero       100bb488 f   usc:icvt_i32.obj
 0001:000ba734       ConvertF32ConversionInstructionInt16 100bb734 f   usc:icvt_i32.obj
 0001:000bacd0       GenerateOrTest             100bbcd0 f   usc:icvt_i32.obj
 0001:000bad80       GenerateIntMovc            100bbd80 f   usc:icvt_i32.obj
 0001:000baf48       MoveTempToDestination      100bbf48 f   usc:icvt_i32.obj
 0001:000bb3cc       Generate32bitIntegerAdd_Non545 100bc3cc f   usc:icvt_i32.obj
 0001:000bba2c       Generate32bitIntegerMad_Non545 100bca2c f   usc:icvt_i32.obj
 0001:000bbb24       GenerateIntegerDividePostCheck_Non545 100bcb24 f   usc:icvt_i32.obj
 0001:000bc6b8       GenerateIntegerDivide_Non545 100bd6b8 f   usc:icvt_i32.obj
 0001:000bcd0c       GenerateInt16Arithmetic    100bdd0c f   usc:icvt_i32.obj
 0001:000bcf14       GenerateSignResult         100bdf14 f   usc:icvt_i32.obj
 0001:000bcfb4       ConvertMinMaxInstructionInt16 100bdfb4 f   usc:icvt_i32.obj
 0001:000bd120       ConvertMinMaxInstructionInt32 100be120 f   usc:icvt_i32.obj
 0001:000bd520       ConvertComparisonInstructionInt32 100be520 f   usc:icvt_i32.obj
 0001:000bd6a8       ConvertIntegerMOV          100be6a8 f   usc:icvt_i32.obj
 0001:000bd8ac       ConvertIntegerInstruction  100be8ac f   usc:icvt_i32.obj
 0001:000be3f4       AddPackedRegister          100bf3f4 f   usc:precovr.obj
 0001:000be510       IsIntegerTexture           100bf510 f   usc:precovr.obj
 0001:000be590       IsSaturatedTemp            100bf590 f   usc:precovr.obj
 0001:000be784       IsSaturatedSource          100bf784 f   usc:precovr.obj
 0001:000be968       ConvertMoveInstruction     100bf968 f   usc:precovr.obj
 0001:000bea7c       ConvertMulInstruction      100bfa7c f   usc:precovr.obj
 0001:000becc8       IsStaticConstInRange       100bfcc8 f   usc:precovr.obj
 0001:000bedcc       ConvertMinMaxInstruction   100bfdcc f   usc:precovr.obj
 0001:000bef34       ConvertAddInstruction      100bff34 f   usc:precovr.obj
 0001:000bf0d8       AddPackToInteger           100c00d8 f   usc:precovr.obj
 0001:000bf180       FindPackedRegister         100c0180 f   usc:precovr.obj
 0001:000bf270       ConvertInputInstF16ToF32   100c0270 f   usc:precovr.obj
 0001:000bf374       GetHwInstCountForF16Instruction 100c0374 f   usc:precovr.obj
 0001:000bf4d0       CheckInstConversion        100c04d0 f   usc:precovr.obj
 0001:000bf684       ConvertRegisterPrecision   100c0684 f   usc:precovr.obj
 0001:000bfff4       IsResultUsed               100c0ff4 f   usc:precovr.obj
 0001:000c0194       ConvertInstructionToInteger 100c1194 f   usc:precovr.obj
 0001:000c0350       IsIntegerDot3Arg           100c1350 f   usc:precovr.obj
 0001:000c04dc       DoIntegerConversion        100c14dc f   usc:precovr.obj
 0001:000c1140       SetLabelAddress            100c2140 f   useasm:useasm.obj
 0001:000c130c       FixupLabelAddresses        100c230c f   useasm:useasm.obj
 0001:000c1460       GetLabelAddress            100c2460 f   useasm:useasm.obj
 0001:000c1584       CheckArgFlags              100c2584 f   useasm:useasm.obj
 0001:000c1814       CheckFlags                 100c2814 f   useasm:useasm.obj
 0001:000c1ff8       EncodeIndex                100c2ff8 f   useasm:useasm.obj
 0001:000c20e0       EncodeDestBank             100c30e0 f   useasm:useasm.obj
 0001:000c22a8       IsValidSrc0Bank            100c32a8 f   useasm:useasm.obj
 0001:000c2338       EncodeSrc0Bank             100c3338 f   useasm:useasm.obj
 0001:000c2440       EncodeSrc12Bank            100c3440 f   useasm:useasm.obj
 0001:000c260c       CheckAndEncodeGlobalRegisterNumber 100c360c f   useasm:useasm.obj
 0001:000c273c       CheckAndEncodeImmediate    100c373c f   useasm:useasm.obj
 0001:000c2830       CheckAndEncodeRegisterNumber 100c3830 f   useasm:useasm.obj
 0001:000c2b00       EncodeArgument             100c3b00 f   useasm:useasm.obj
 0001:000c2c40       EncodeDest                 100c3c40 f   useasm:useasm.obj
 0001:000c2cb4       EncodeSrc0                 100c3cb4 f   useasm:useasm.obj
 0001:000c2d28       EncodeSrc1                 100c3d28 f   useasm:useasm.obj
 0001:000c2d9c       EncodeSrc2                 100c3d9c f   useasm:useasm.obj
 0001:000c2e14       EncodePredicate            100c3e14 f   useasm:useasm.obj
 0001:000c2f18       AssembleDot34              100c3f18 f   useasm:useasm.obj
 0001:000c3a00       EncodeFloatRepeats         100c4a00 f   useasm:useasm.obj
 0001:000c3ac0       EncodeTestInstruction_AluOp 100c4ac0 f   useasm:useasm.obj
 0001:000c3e3c       EncodeTestInstruction_Repeat 100c4e3c f   useasm:useasm.obj
 0001:000c402c       EncodeTestInstruction      100c502c f   useasm:useasm.obj
 0001:000c47f0       EncodeFloatInstruction     100c57f0 f   useasm:useasm.obj
 0001:000c4e78       EncodeSOP2Instruction      100c5e78 f   useasm:useasm.obj
 0001:000c58a0       EncodePackInstruction      100c68a0 f   useasm:useasm.obj
 0001:000c6008       EncodeBitwiseInstruction   100c7008 f   useasm:useasm.obj
 0001:000c6510       ExpandMacros               100c7510 f   useasm:useasm.obj
 0001:000c6ff8       EncodeFDPCInstruction      100c7ff8 f   useasm:useasm.obj
 0001:000c72c8       EncodeFDDPInstruction      100c82c8 f   useasm:useasm.obj
 0001:000c760c       EncodeFDDPCInstruction     100c860c f   useasm:useasm.obj
 0001:000c79f8       EncodeMovcInstruction      100c89f8 f   useasm:useasm.obj
 0001:000c7d48       EncodeEfoInstruction       100c8d48 f   useasm:useasm.obj
 0001:000c8078       EncodeSOPWMInstruction     100c9078 f   useasm:useasm.obj
 0001:000c86ac       EncodeLRP1Instruction      100c96ac f   useasm:useasm.obj
 0001:000c8eb8       EncodeLRP2Instruction      100c9eb8 f   useasm:useasm.obj
 0001:000c9760       EncodeSOP3Instruction      100ca760 f   useasm:useasm.obj
 0001:000ca2f8       EncodeFPMAInstruction      100cb2f8 f   useasm:useasm.obj
 0001:000ca9a4       EncodeIMA16Instruction     100cb9a4 f   useasm:useasm.obj
 0001:000caf04       EncodeIMAEInstruction      100cbf04 f   useasm:useasm.obj
 0001:000cb554       EncodeADIFInstruction      100cc554 f   useasm:useasm.obj
 0001:000cb840       EncodeSSUM16Instruction    100cc840 f   useasm:useasm.obj
 0001:000cbde4       EncodeFIRVInstruction      100ccde4 f   useasm:useasm.obj
 0001:000cc2f8       EncodeFIRVHInstruction     100cd2f8 f   useasm:useasm.obj
 0001:000cc6bc       EncodeBILINInstruction     100cd6bc f   useasm:useasm.obj
 0001:000ccc2c       EncodeFIRHInstruction      100cdc2c f   useasm:useasm.obj
 0001:000cd1e0       EncodeFIRHHInstruction     100ce1e0 f   useasm:useasm.obj
 0001:000cd7e4       EncodeSMPInstruction       100ce7e4 f   useasm:useasm.obj
 0001:000cdd54       EncodeLDSTCacheFlags       100ced54 f   useasm:useasm.obj
 0001:000cde20       EncodeLDSTInstruction      100cee20 f   useasm:useasm.obj
 0001:000ce4d8       EncodeBAInstruction        100cf4d8 f   useasm:useasm.obj
 0001:000ce664       EncodeLAPCInstruction      100cf664 f   useasm:useasm.obj
 0001:000ce724       EncodeBRInstruction        100cf724 f   useasm:useasm.obj
 0001:000ce8b4       EncodeIDFInstruction       100cf8b4 f   useasm:useasm.obj
 0001:000cea9c       EncodeWDFInstruction       100cfa9c f   useasm:useasm.obj
 0001:000ceba8       EncodeEmitInstruction      100cfba8 f   useasm:useasm.obj
 0001:000cf094       EncodeSMOAInstruction      100d0094 f   useasm:useasm.obj
 0001:000cf3b8       EncodeSMLSIInstruction     100d03b8 f   useasm:useasm.obj
 0001:000cf8b4       EncodeMOEInstruction       100d08b4 f   useasm:useasm.obj
 0001:000cfbd4       EncodeSETFCInstruction     100d0bd4 f   useasm:useasm.obj
 0001:000cfd24       EncodeLIMMInstruction      100d0d24 f   useasm:useasm.obj
 0001:000cfedc       EncodeMOVInstruction       100d0edc f   useasm:useasm.obj
 0001:000d0248       EncodeMutexInstruction     100d1248 f   useasm:useasm.obj
 0001:000d03a4       EncodeLDRSTRInstruction    100d13a4 f   useasm:useasm.obj
 0001:000d0790       EncodePTOFFPCOEFFInstruction 100d1790 f   useasm:useasm.obj
 0001:000d0910       EncodeATST8Instruction     100d1910 f   useasm:useasm.obj
 0001:000d0cb8       EncodeDEPTHFInstruction    100d1cb8 f   useasm:useasm.obj
 0001:000d0f44       EncodeSETMInstruction      100d1f44 f   useasm:useasm.obj
 0001:000d10a4       EncodeWOPInstruction       100d20a4 f   useasm:useasm.obj
 0001:000d1dc8       _DllMainCRTStartupHelper   100d2dc8 f   corelib0:pegdmain.obj
 0001:000d2008       doexit                     100d3008 f   corelib0:cexit.obj
 0001:000d25c8       __CheckTypeSpecifier       100d35c8 f   glsl_parser:glsl_parser.tab.obj
 0001:000d27f8       __ProcessArraySpecifier    100d37f8 f   glsl_parser:glsl_parser.tab.obj
 0001:000d28bc       __ProcessSingleDeclaration 100d38bc f   glsl_parser:glsl_parser.tab.obj
 0001:000d2b00       __ProcessParameterDeclaration 100d3b00 f   glsl_parser:glsl_parser.tab.obj
 0001:000d2d60       __NewOperator              100d3d60 f   glsl_parser:glsl_parser.tab.obj
 0001:000d54b0       LexCallocToken             100d64b0 f   glsl_parser:lex.obj
 0001:000d5540       LexGeneratePreprocessorTokens 100d6540 f   glsl_parser:lex.obj
 0001:000d600c       LexMatchKeywords           100d700c f   glsl_parser:lex.obj
