 libGLES_CM

 Timestamp is 4c9a74e5 (Wed Sep 22 17:28:05 2010)

 Preferred load address is 10000000

 Start         Length     Name                   Class
 0001:00000000 00000004H .CRT$XCA                CODE
 0001:00000004 00000004H .CRT$XCZ                CODE
 0001:00000008 00000004H .CRT$XIA                CODE
 0001:0000000c 00000004H .CRT$XIZ                CODE
 0001:00000010 00000004H .CRT$XPA                CODE
 0001:00000014 00000004H .CRT$XPZ                CODE
 0001:00000018 00000004H .CRT$XTA                CODE
 0001:0000001c 00000004H .CRT$XTZ                CODE
 0001:00000020 0001808bH .rdata                  CODE
 0001:000180ac 00000027H .rdata$debug            CODE
 0001:000180d4 00064170H .text                   CODE
 0001:0007c244 00000020H .xdata                  CODE
 0001:0007c264 0000003cH .idata$2                CODE
 0001:0007c2a0 00000014H .idata$3                CODE
 0001:0007c2b4 000001e8H .idata$4                CODE
 0001:0007c49c 0000015aH .idata$6                CODE
 0001:0007c600 000010a7H .edata                  CODE
 0002:00000000 000001e8H .idata$5                DATA
 0002:000001e8 0000000cH .data                   DATA
 0002:000001f4 00000010H .bss                    DATA
 0003:00000000 00001f88H .pdata                  DATA

  Address         Publics by Value              Rva+Base       Lib:Object

 0000:00000000       ___safe_se_handler_count   00000000     <absolute>
 0000:00000000       ___safe_se_handler_table   00000000     <absolute>
 0001:00000000       __xc_a                     10001000     corelib0:crt0init.obj
 0001:00000004       __xc_z                     10001004     corelib0:crt0init.obj
 0001:00000008       __xi_a                     10001008     corelib0:crt0init.obj
 0001:0000000c       __xi_z                     1000100c     corelib0:crt0init.obj
 0001:00000010       __xp_a                     10001010     corelib0:crt0init.obj
 0001:00000014       __xp_z                     10001014     corelib0:crt0init.obj
 0001:00000018       __xt_a                     10001018     corelib0:crt0init.obj
 0001:0000001c       __xt_z                     1000101c     corelib0:crt0init.obj
 0001:00000928       sGLES1FunctionTable        10001928     eglglue.obj
 0001:00000954       ??_C@_0CH@JLEJGINJ@glEGLImageTargetRenderbufferStor@ 10001954     eglglue.obj
 0001:0000097c       ??_C@_0BN@FPPCHDBA@glEGLImageTargetTexture2DOES?$AA@ 1000197c     eglglue.obj
 0001:0000099c       ??_C@_0BH@CPIJKLBJ@glMultiDrawElementsEXT?$AA@ 1000199c     eglglue.obj
 0001:000009b4       ??_C@_0BE@MPDFJJLL@glMultiDrawElements?$AA@ 100019b4     eglglue.obj
 0001:000009c8       ??_C@_0BF@MOHHALAE@glMultiDrawArraysEXT?$AA@ 100019c8     eglglue.obj
 0001:000009e0       ??_C@_0BC@IBABPJFA@glMultiDrawArrays?$AA@ 100019e0     eglglue.obj
 0001:000009f4       ??_C@_0BB@CEFEJGJJ@glUnmapBufferOES?$AA@ 100019f4     eglglue.obj
 0001:00000a08       ??_C@_0P@MBENIONB@glMapBufferOES?$AA@ 10001a08     eglglue.obj
 0001:00000a18       ??_C@_0BH@HANHAAH@glGetBufferPointervOES?$AA@ 10001a18     eglglue.obj
 0001:00000a30       ??_C@_0BD@PIBFHNP@glTexBindStreamIMG?$AA@ 10001a30     eglglue.obj
 0001:00000a44       ??_C@_0BM@MBNDOCOP@glGetTexStreamDeviceNameIMG?$AA@ 10001a44     eglglue.obj
 0001:00000a60       ??_C@_0CD@OCNNIBKN@glGetTexStreamDeviceAttributeivI@ 10001a60     eglglue.obj
 0001:00000a84       ??_C@_0BB@JDDNIFAN@glGenProgramsARB?$AA@ 10001a84     eglglue.obj
 0001:00000a98       ??_C@_0BE@EJCMOJPP@glDeleteProgramsARB?$AA@ 10001a98     eglglue.obj
 0001:00000aac       ??_C@_0BB@OAGHGJAC@glBindProgramARB?$AA@ 10001aac     eglglue.obj
 0001:00000ac0       ??_C@_0BD@HIBLHAHB@glProgramStringARB?$AA@ 10001ac0     eglglue.obj
 0001:00000ad4       ??_C@_0BO@HGKLJN@glDisableVertexAttribArrayARB?$AA@ 10001ad4     eglglue.obj
 0001:00000af4       ??_C@_0BN@FKABDPBF@glEnableVertexAttribArrayARB?$AA@ 10001af4     eglglue.obj
 0001:00000b14       ??_C@_0BJ@KNOILOPF@glVertexAttribPointerARB?$AA@ 10001b14     eglglue.obj
 0001:00000b30       ??_C@_0BM@DIEJBCK@glProgramEnvParameter4xvIMG?$AA@ 10001b30     eglglue.obj
 0001:00000b4c       ??_C@_0BL@IPGFFKBA@glProgramEnvParameter4xIMG?$AA@ 10001b4c     eglglue.obj
 0001:00000b68       ??_C@_0BO@HBENEBND@glProgramLocalParameter4xvIMG?$AA@ 10001b68     eglglue.obj
 0001:00000b88       ??_C@_0BN@EBNCCGNG@glProgramLocalParameter4xIMG?$AA@ 10001b88     eglglue.obj
 0001:00000ba8       ??_C@_0BE@PEDBDIJA@glVertexAttrib4xIMG?$AA@ 10001ba8     eglglue.obj
 0001:00000bbc       ??_C@_0BO@OHCIBKNP@glProgramLocalParameter4fvARB?$AA@ 10001bbc     eglglue.obj
 0001:00000bdc       ??_C@_0BN@DBLLDHNC@glProgramLocalParameter4fARB?$AA@ 10001bdc     eglglue.obj
 0001:00000bfc       ??_C@_0BM@JFOBMKCG@glProgramEnvParameter4fvARB?$AA@ 10001bfc     eglglue.obj
 0001:00000c18       ??_C@_0BL@PPAMELBE@glProgramEnvParameter4fARB?$AA@ 10001c18     eglglue.obj
 0001:00000c34       ??_C@_0BE@IEFICJJE@glVertexAttrib4fARB?$AA@ 10001c34     eglglue.obj
 0001:00000c48       ??_C@_0BE@BMGJDPBK@glGenerateMipmapOES?$AA@ 10001c48     eglglue.obj
 0001:00000c5c       ??_C@_0CJ@FPBNJAAI@glGetFramebufferAttachmentParame@ 10001c5c     eglglue.obj
 0001:00000c88       ??_C@_0BN@CEGIKEBP@glFramebufferRenderbufferOES?$AA@ 10001c88     eglglue.obj
 0001:00000ca8       ??_C@_0BK@IBODAJKF@glFramebufferTexture2DOES?$AA@ 10001ca8     eglglue.obj
 0001:00000cc4       ??_C@_0BM@FKHNDAOE@glCheckFramebufferStatusOES?$AA@ 10001cc4     eglglue.obj
 0001:00000ce0       ??_C@_0BF@GBILCPIM@glGenFramebuffersOES?$AA@ 10001ce0     eglglue.obj
 0001:00000cf8       ??_C@_0BI@DJPGNLDO@glDeleteFramebuffersOES?$AA@ 10001cf8     eglglue.obj
 0001:00000d10       ??_C@_0BF@HIIGGHIK@glBindFramebufferOES?$AA@ 10001d10     eglglue.obj
 0001:00000d28       ??_C@_0BD@PMGNFKPK@glIsFramebufferOES?$AA@ 10001d28     eglglue.obj
 0001:00000d3c       ??_C@_0CA@ODMPPHIE@glGetRenderbufferParameterivOES?$AA@ 10001d3c     eglglue.obj
 0001:00000d5c       ??_C@_0BJ@OLDCKGHK@glRenderbufferStorageOES?$AA@ 10001d5c     eglglue.obj
 0001:00000d78       ??_C@_0BG@EDIBBEEP@glGenRenderbuffersOES?$AA@ 10001d78     eglglue.obj
 0001:00000d90       ??_C@_0BJ@GGLGLLBL@glDeleteRenderbuffersOES?$AA@ 10001d90     eglglue.obj
 0001:00000dac       ??_C@_0BG@FPKCPFFN@glBindRenderbufferOES?$AA@ 10001dac     eglglue.obj
 0001:00000dc4       ??_C@_0BE@PCDGPFM@glIsRenderbufferOES?$AA@ 10001dc4     eglglue.obj
 0001:00000dd8       ??_C@_0BB@GPIPACKB@glGetTexGenxvOES?$AA@ 10001dd8     eglglue.obj
 0001:00000dec       ??_C@_0BB@FGFDGBEK@glGetTexGenfvOES?$AA@ 10001dec     eglglue.obj
 0001:00000e00       ??_C@_0BB@KHAFNDJP@glGetTexGenivOES?$AA@ 10001e00     eglglue.obj
 0001:00000e14       ??_C@_0O@OEFPDKKM@glTexGenxvOES?$AA@ 10001e14     eglglue.obj
 0001:00000e24       ??_C@_0N@DPLLCAOI@glTexGenxOES?$AA@ 10001e24     eglglue.obj
 0001:00000e34       ??_C@_0O@NNIDFJEH@glTexGenfvOES?$AA@ 10001e34     eglglue.obj
 0001:00000e44       ??_C@_0N@OAGLAJAL@glTexGenfOES?$AA@ 10001e44     eglglue.obj
 0001:00000e54       ??_C@_0O@CMNFOLJC@glTexGenivOES?$AA@ 10001e54     eglglue.obj
 0001:00000e64       ??_C@_0N@GCDLJONK@glTexGeniOES?$AA@ 10001e64     eglglue.obj
 0001:00000e74       ??_C@_0BH@FBPJDECF@glBlendFuncSeparateOES?$AA@ 10001e74     eglglue.obj
 0001:00000e8c       ??_C@_0BL@LJMLCLCI@glBlendEquationSeparateOES?$AA@ 10001e8c     eglglue.obj
 0001:00000ea8       ??_C@_0BD@BBOLNBAI@glBlendEquationOES?$AA@ 10001ea8     eglglue.obj
 0001:00000ebc       ??_C@_0BC@DEKNHIDE@glQueryMatrixxOES?$AA@ 10001ebc     eglglue.obj
 0001:00000ed0       ??_C@_0P@LKNACIFH@glDrawTexxvOES?$AA@ 10001ed0     eglglue.obj
 0001:00000ee0       ??_C@_0P@IDAMELLM@glDrawTexfvOES?$AA@ 10001ee0     eglglue.obj
 0001:00000ef0       ??_C@_0P@HCFKPJGJ@glDrawTexivOES?$AA@ 10001ef0     eglglue.obj
 0001:00000f00       ??_C@_0P@NABHNIJE@glDrawTexsvOES?$AA@ 10001f00     eglglue.obj
 0001:00000f10       ??_C@_0O@GOFANFJA@glDrawTexxOES?$AA@ 10001f10     eglglue.obj
 0001:00000f20       ??_C@_0O@LBIAPMHD@glDrawTexfOES?$AA@ 10001f20     eglglue.obj
 0001:00000f30       ??_C@_0O@DDNAGLKC@glDrawTexiOES?$AA@ 10001f30     eglglue.obj
 0001:00000f40       ??_C@_0O@BJIAOEIB@glDrawTexsOES?$AA@ 10001f40     eglglue.obj
 0001:00000f50       ??_C@_0BD@PCEFFFDF@glWeightPointerOES?$AA@ 10001f50     eglglue.obj
 0001:00000f64       ??_C@_0BI@BEEEECPN@glMatrixIndexPointerOES?$AA@ 10001f64     eglglue.obj
 0001:00000f7c       ??_C@_0CE@HEFPEHID@glLoadPaletteFromModelViewMatrix@ 10001f7c     eglglue.obj
 0001:00000fa0       ??_C@_0BK@NDELAMFO@glCurrentPaletteMatrixOES?$AA@ 10001fa0     eglglue.obj
 0001:00000fbc       ??_C@_0BG@PIPFALFL@glPointSizePointerOES?$AA@ 10001fbc     eglglue.obj
 0001:000013d4       ui32NumCombineOpSources    100023d4     fftex.obj
 0001:00001780       ??_C@_0BA@JNOOKNAN@fftnlshader?4txt?$AA@ 10002780     fftnlgles.obj
 0001:000018f8       ??_C@_0BB@NNIEEEPA@OpenGL?5ES?9CM?51?41?$AA@ 100028f8     get.obj
 0001:0000190c       ??_C@_0BP@MJBNMJBG@PowerVR?5SGX?5with?5VGP?5emulation?$AA@ 1000290c     get.obj
 0001:0000192c       ??_C@_0BA@HDDICJEH@PowerVR?5SGX?5530?$AA@ 1000292c     get.obj
 0001:0000193c       ??_C@_0BJ@FGEHHHOH@Imagination?5Technologies?$AA@ 1000293c     get.obj
 0001:00001ac4       pszRenderer                10002ac4     get.obj
 0001:000023a4       ??_C@_0L@CDGAGNFA@KickTAMode?$AA@ 100033a4     misc.obj
 0001:000023b0       ??_C@_0BA@FMCJLEC@KickTAThreshold?$AA@ 100033b0     misc.obj
 0001:000023c0       ??_C@_0L@OHKGCBME@EmulateVGP?$AA@ 100033c0     misc.obj
 0001:000023cc       ??_C@_0BE@NCEPNDKE@ExternalZBufferMode?$AA@ 100033cc     misc.obj
 0001:000023e0       ??_C@_0BE@CONEIBKK@OptimisedValidation?$AA@ 100033e0     misc.obj
 0001:000023f4       ??_C@_0BE@MLGMBNML@DisableHWNormalBlit?$AA@ 100033f4     misc.obj
 0001:00002408       ??_C@_0BH@EMEDPOLF@DisableHWTextureUpload?$AA@ 10003408     misc.obj
 0001:00002420       ??_C@_0BA@ELLICOAA@DisableHWMipGen?$AA@ 10003420     misc.obj
 0001:00002430       ??_C@_0P@LPEGOECO@FlushBehaviour?$AA@ 10003430     misc.obj
 0001:00002440       ??_C@_0BG@CHMKCCI@EnableStaticPDSVertex?$AA@ 10003440     misc.obj
 0001:00002458       ??_C@_0BE@CJIJABHD@EnableStaticMTECopy?$AA@ 10003458     misc.obj
 0001:0000246c       ??_C@_0BP@JBLIJOPK@DisableStaticPDSPixelSAProgram?$AA@ 1000346c     misc.obj
 0001:0000248c       ??_C@_0BB@FEGFPPJN@DisableUSEASMOPT?$AA@ 1000348c     misc.obj
 0001:000024a0       ??_C@_0O@GNLHGOLK@UseC10Colours?$AA@ 100034a0     misc.obj
 0001:000024b0       ??_C@_0M@HPPFGNFE@DumpShaders?$AA@ 100034b0     misc.obj
 0001:000024bc       ??_C@_0BI@GMOOJAHB@DefaultVertexBufferSize?$AA@ 100034bc     misc.obj
 0001:000024d4       ??_C@_0BH@EMCDMDFL@DefaultIndexBufferSize?$AA@ 100034d4     misc.obj
 0001:000024ec       ??_C@_0BJ@FDELEOJK@DefaultPDSVertBufferSize?$AA@ 100034ec     misc.obj
 0001:00002508       ??_C@_0BP@CGBHEOOJ@DefaultPregenPDSVertBufferSize?$AA@ 10003508     misc.obj
 0001:00002528       ??_C@_0BP@CNJFMOH@DefaultPregenMTECopyBufferSize?$AA@ 10003528     misc.obj
 0001:00002548       ??_C@_0BF@GMGALNEL@DefaultVDMBufferSize?$AA@ 10003548     misc.obj
 0001:000037b8       TexFormatABGR8888          100047b8     texformat.obj
 0001:000037c4       TexFormatARGB8888          100047c4     texformat.obj
 0001:000037d0       TexFormatARGB1555          100047d0     texformat.obj
 0001:000037dc       TexFormatARGB4444          100047dc     texformat.obj
 0001:000037e8       TexFormatXBGR8888          100047e8     texformat.obj
 0001:000037f4       TexFormatRGB565            100047f4     texformat.obj
 0001:00003800       TexFormatAlpha             10004800     texformat.obj
 0001:0000380c       TexFormatLuminance         1000480c     texformat.obj
 0001:00003818       TexFormatLuminanceAlpha    10004818     texformat.obj
 0001:00003824       TexFormatPVRTC2RGB         10004824     texformat.obj
 0001:00003830       TexFormatPVRTC4RGB         10004830     texformat.obj
 0001:0000383c       TexFormatPVRTC2RGBA        1000483c     texformat.obj
 0001:00003848       TexFormatPVRTC4RGBA        10004848     texformat.obj
 0001:00003854       TexFormatPVRTCII2RGB       10004854     texformat.obj
 0001:00003860       TexFormatPVRTCII4RGB       10004860     texformat.obj
 0001:0000386c       TexFormatPVRTCII2RGBA      1000486c     texformat.obj
 0001:00003878       TexFormatPVRTCII4RGBA      10004878     texformat.obj
 0001:00003884       TexFormatETC1RGB8          10004884     texformat.obj
 0001:00003890       TexFormatUYVY              10004890     texformat.obj
 0001:0000389c       TexFormatVYUY              1000489c     texformat.obj
 0001:000038a8       TexFormatYUYV              100048a8     texformat.obj
 0001:000038b4       TexFormatYVYU              100048b4     texformat.obj
 0001:000038c0       TexFormatYUV420            100048c0     texformat.obj
 0001:00003e6c       ??_C@_0BD@MFPFLDAC@Assember?5Error?3?$CFs?6?$AA@ 10004e6c     useasmgles.obj
 0001:00004688       CopyData                   10005688     vertex.obj
 0001:000046f8       MemCopyData                100056f8     vertex.obj
 0001:00004da8       asSGXPixelFormat           10005da8     sgxpixfmts.obj
 0001:0000a5b0       ??_C@_0EE@BOBHGGB@C?3?2WinCE?2OMAP?2DDK1?45?2eurasia?2eur@ 1000b5b0     vpcodegen.obj
 0001:0000a5f4       ??_C@_0BH@JPOGKGMJ@VGP?5Binary?5instruction?$AA@ 1000b5f4     vpcodegen.obj
 0001:0000a60c       ??_C@_08EOPPEGAM@HACK?9MOV?$AA@ 1000b60c     vpcodegen.obj
 0001:0000a618       ??_C@_0L@JPHNAFAM@TEX?9INIT?9z?$AA@ 1000b618     vpcodegen.obj
 0001:0000a624       ??_C@_0L@CKNDHLEB@TEX?9INIT?9w?$AA@ 1000b624     vpcodegen.obj
 0001:0000a630       ??_C@_03MLIHNEFJ@LOG?$AA@  1000b630     vpcodegen.obj
 0001:0000a634       ??_C@_03KKGFKKLA@EXP?$AA@  1000b634     vpcodegen.obj
 0001:0000a638       ??_C@_0BA@IAHNLBID@AMV?9MAD?3?5n?$CK4?5?$CL0?$AA@ 1000b638     vpcodegen.obj
 0001:0000a648       ??_C@_0BD@JGCFGINK@convert?5to?5integer?$AA@ 1000b648     vpcodegen.obj
 0001:0000a65c       ??_C@_03NEKIMBBK@FRC?$AA@  1000b65c     vpcodegen.obj
 0001:0000a660       ??_C@_0P@POCLEHCC@DST?3?5dst?4x?5?$DN?51?$AA@ 1000b660     vpcodegen.obj
 0001:0000a670       ??_C@_0P@BEMMGAML@DST?3?5dst?4y?5?$DN?5x?$AA@ 1000b670     vpcodegen.obj
 0001:0000a680       ??_C@_0BB@GAGBCLDJ@DST?3?5dst?4z?5?$DN?5x?$FO2?$AA@ 1000b680     vpcodegen.obj
 0001:0000a694       ??_C@_0BB@ECNNIMLH@DST?3?5dst?4w?5?$DN?51?1x?$AA@ 1000b694     vpcodegen.obj
 0001:0000a6a8       ??_C@_0BF@BFDNMAON@SMOA?3?5disable?5mirror?$AA@ 1000b6a8     vpcodegen.obj
 0001:0000a6c0       ??_C@_0DK@JELNICIB@LIT?3?5dst?4z?5?$DN?5?$CItemp?4x?5?$DO?50?$CJ?5?$DP?5exp?5@ 1000b6c0     vpcodegen.obj
 0001:0000a6fc       ??_C@_0BG@MMEAPGLC@SMRI?3?5set?5clamp?5range?$AA@ 1000b6fc     vpcodegen.obj
 0001:0000a714       ??_C@_0BH@FCNFMMCM@temp?4w?5?5?$CK?5?$CIlog?5temp?4y?$CJ?$AA@ 1000b714     vpcodegen.obj
 0001:0000a72c       ??_C@_0BE@FBKDKAGD@SMOA?3?5enable?5mirror?$AA@ 1000b72c     vpcodegen.obj
 0001:0000a740       ??_C@_0BD@OBPKCBJJ@copy?5?5src1?5to?5temp?$AA@ 1000b740     vpcodegen.obj
 0001:0000a754       ??_C@_0BN@IPMLOEJE@LIT?3?5temp?4x?5?$DM?50?5?$DP?50?5?3?5temp?4x?$AA@ 1000b754     vpcodegen.obj
 0001:0000a774       ??_C@_0BN@EBDCFFIN@LIT?3?5temp?4y?5?$DM?50?5?$DP?50?5?3?5temp?4y?$AA@ 1000b774     vpcodegen.obj
 0001:0000a794       ??_C@_0P@IFCHGNFC@LIT?3?5dst?4x?5?$DN?51?$AA@ 1000b794     vpcodegen.obj
 0001:0000a7a4       ??_C@_0BE@KAEFBPJN@LIT?3?5dst?4y?5?$DN?5temp?4x?$AA@ 1000b7a4     vpcodegen.obj
 0001:0000a7b8       ??_C@_0P@HEHBNPIH@LIT?3?5dst?4w?5?$DN?51?$AA@ 1000b7b8     vpcodegen.obj
 0001:0000a7c7       ??_C@_00CNPNBAHC@?$AA@     1000b7c7     vpcodegen.obj
 0001:0000a7c8       ??_C@_0L@KJIDELMO@log?5temp?4y?$AA@ 1000b7c8     vpcodegen.obj
 0001:0000a7d4       ??_C@_0CI@DHCLHGJ@Test?5if?5src1?4x?5?$DO?$DN?5src2?4x?5per?5com@ 1000b7d4     vpcodegen.obj
 0001:0000a7fc       ??_C@_0BO@HHMDBPCO@SGE?3?5src1?4x?5?$DO?$DN?5src2?4x?5?$DP?51?5?3?50?$AA@ 1000b7fc     vpcodegen.obj
 0001:0000a81c       ??_C@_0CI@OKFIGHGL@Test?5if?5src1?4y?5?$DO?$DN?5src2?4y?5per?5com@ 1000b81c     vpcodegen.obj
 0001:0000a844       ??_C@_0BO@PNGGEPFG@SGE?3?5src1?4y?5?$DO?$DN?5src2?4y?5?$DP?51?5?3?50?$AA@ 1000b844     vpcodegen.obj
 0001:0000a864       ??_C@_0CI@KFGBBCM@Test?5if?5src1?4z?5?$DO?$DN?5src2?4z?5per?5com@ 1000b864     vpcodegen.obj
 0001:0000a88c       ??_C@_0BO@LJPILJJP@SGE?3?5src1?4z?5?$DO?$DN?5src2?4z?5?$DP?51?5?3?50?$AA@ 1000b88c     vpcodegen.obj
 0001:0000a8ac       ??_C@_0CI@NFKHBELA@Test?5if?5src1?4w?5?$DO?$DN?5src2?4w?5per?5com@ 1000b8ac     vpcodegen.obj
 0001:0000a8d4       ??_C@_0BO@PKFHDEIC@SGE?3?5src1?4w?5?$DO?$DN?5src2?4w?5?$DP?51?5?3?50?$AA@ 1000b8d4     vpcodegen.obj
 0001:0000a8f4       ??_C@_0BB@PHLKCDKB@Set?5?5dst?5to?5zero?$AA@ 1000b8f4     vpcodegen.obj
 0001:0000a908       ??_C@_0CH@GFMEMLCG@Test?5if?5src1?4x?5?$DM?5src2?4x?5per?5comp@ 1000b908     vpcodegen.obj
 0001:0000a930       ??_C@_0BN@DGDGFNLK@SLT?3?5src1?4x?5?$DM?5src2?4x?5?$DP?51?5?3?50?$AA@ 1000b930     vpcodegen.obj
 0001:0000a950       ??_C@_0CH@FHPKGPC@Test?5if?5src1?4y?5?$DM?5src2?4y?5per?5comp@ 1000b950     vpcodegen.obj
 0001:0000a978       ??_C@_0BN@OBGLGNM@SLT?3?5src1?4y?5?$DM?5src2?4y?5?$DP?51?5?3?50?$AA@ 1000b978     vpcodegen.obj
 0001:0000a998       ??_C@_0CH@KELCBAIO@Test?5if?5src1?4z?5?$DM?5src2?4z?5per?5comp@ 1000b998     vpcodegen.obj
 0001:0000a9c0       ??_C@_0BN@EGHHILHG@SLT?3?5src1?4z?5?$DM?5src2?4z?5?$DP?51?5?3?50?$AA@ 1000b9c0     vpcodegen.obj
 0001:0000a9e0       ??_C@_0CH@COKMKOGJ@Test?5if?5src1?4w?5?$DM?5src2?4w?5per?5comp@ 1000b9e0     vpcodegen.obj
 0001:0000aa08       ??_C@_0BN@IEKCJAPJ@SLT?3?5src1?4w?5?$DM?5src2?4w?5?$DP?51?5?3?50?$AA@ 1000ba08     vpcodegen.obj
 0001:0000aa28       ??_C@_03LEPPJAKI@MAX?$AA@  1000ba28     vpcodegen.obj
 0001:0000aa2c       ??_C@_03KGHEHEMH@MIN?$AA@  1000ba2c     vpcodegen.obj
 0001:0000aa30       ??_C@_03BNFLDCMO@DP4?$AA@  1000ba30     vpcodegen.obj
 0001:0000aa34       ??_C@_03FCBKKEAJ@DP3?$AA@  1000ba34     vpcodegen.obj
 0001:0000aa38       ??_C@_0N@LKMHMKM@RSQ?5of?5src?4w?$AA@ 1000ba38     vpcodegen.obj
 0001:0000aa48       ??_C@_0N@MGDKEOJA@RCP?5of?5src?4w?$AA@ 1000ba48     vpcodegen.obj
 0001:0000aa58       ??_C@_03IBHOEMFB@MUL?$AA@  1000ba58     vpcodegen.obj
 0001:0000aa5c       ??_C@_03FCIIMNPF@MAD?$AA@  1000ba5c     vpcodegen.obj
 0001:0000aa60       ??_C@_03BOJFLAKG@ADD?$AA@  1000ba60     vpcodegen.obj
 0001:0000aa64       ??_C@_03CAOCJACM@MOV?$AA@  1000ba64     vpcodegen.obj
 0001:0000aa68       ??_C@_07KNMMKPGG@SWIZZLE?$AA@ 1000ba68     vpcodegen.obj
 0001:0000aa70       ??_C@_0BB@MPFGHBLJ@SWIZZLE?5DISABLED?$AA@ 1000ba70     vpcodegen.obj
 0001:0000aa84       ??_C@_0BI@KIEKJNPB@VP?3?5Emit?5Vertex?5and?5End?$AA@ 1000ba84     vpcodegen.obj
 0001:0000ad70       ??_C@_0EA@IPGGCJLH@C?3?2WinCE?2OMAP?2DDK1?45?2eurasia?2eur@ 1000bd70     vpreg.obj
 0001:0000adb0       ??_C@_0BI@ONMJPNJJ@Load?5the?5?$CFs?5from?5memory?$AA@ 1000bdb0     vpreg.obj
 0001:0000af30       ??_C@_0FA@KPBPOIEA@Instruction?5below?5can?8t?5have?5exi@ 1000bf30     vpinst.obj
 0001:0000af80       ??_C@_0EB@FNNGIAIC@C?3?2WinCE?2OMAP?2DDK1?45?2eurasia?2eur@ 1000bf80     vpinst.obj
 0001:0000afc4       ??_C@_0DP@JOJOOGOB@Possible?5optimisation?$DP?5?9?5Switch?5@ 1000bfc4     vpinst.obj
 0001:0000b2d4       ??_C@_0N@GAOADMDM@vpshader?4txt?$AA@ 1000c2d4     vpgles.obj
 0001:0000c2f8       auLightSourceMemberSizes   1000d2f8     libffgen:ffgen.obj
 0001:0000c32c       auPointParamsMemberSizes   1000d32c     libffgen:ffgen.obj
 0001:0000c348       auMaterialMemberSizes      1000d348     libffgen:ffgen.obj
 0001:0000c35c       auLightProductMemberSizes  1000d35c     libffgen:ffgen.obj
 0001:0000c368       auLightModelMemberSizes    1000d368     libffgen:ffgen.obj
 0001:0000c36c       auLightModelProductMemberSizes 1000d36c     libffgen:ffgen.obj
 0001:0000c370       ??_C@_0BI@KOKDJJDB@?1?$CK?5Runtime?5code?5log?5?$CK?1?6?$AA@ 1000d370     libffgen:ffgen.obj
 0001:0000c388       ??_C@_0CG@HEHGGNFE@DumpDisassembly?3?5Failed?5to?5open?5@ 1000d388     libffgen:ffgen.obj
 0001:0000c3b0       ??_C@_02CHHAKFFB@w?$CL?$AA@ 1000d3b0     libffgen:ffgen.obj
 0001:0000c3b4       ??_C@_08CGPOONCN@source?52?$AA@ 1000d3b4     libffgen:useasm.obj
 0001:0000c3c0       ??_C@_08NNDLOOO@source?51?$AA@ 1000d3c0     libffgen:useasm.obj
 0001:0000c3cc       ??_C@_08BEMIIPKP@source?50?$AA@ 1000d3cc     libffgen:useasm.obj
 0001:0000c3d8       ??_C@_0M@BLMAJMLK@destination?$AA@ 1000d3d8     libffgen:useasm.obj
 0001:0000c420       ??_C@_0EL@CEJMDIFD@Branch?5destination?5is?5out?5of?5ran@ 1000d420     libffgen:useasm.obj
 0001:0000c470       ??_C@_0EM@IGAKCAGC@Branch?5destination?5is?5out?5of?5ran@ 1000d470     libffgen:useasm.obj
 0001:0000c4c0       ??_C@_0JC@CGJAIGHK@The?5destination?5label?5for?5a?5bran@ 1000d4c0     libffgen:useasm.obj
 0001:0000c554       ??_C@_0DK@NIFCHDCD@A?5swizzle?5is?5invalid?5for?5argumen@ 1000d554     libffgen:useasm.obj
 0001:0000c590       ??_C@_0EC@FENPMIAM@The?5modifiers?5?4flt32?0?5?4flt16?0?5?4c@ 1000d590     libffgen:useasm.obj
 0001:0000c5d4       ??_C@_0DE@EJENDBGB@?4u8?5is?5invalid?5for?5argument?5?$CFd?5f@ 1000d5d4     libffgen:useasm.obj
 0001:0000c608       ??_C@_0DF@KNCENLBB@?4c10?5is?5invalid?5for?5argument?5?$CFd?5@ 1000d608     libffgen:useasm.obj
 0001:0000c640       ??_C@_0DH@LCLAOIMP@?4flt16?5is?5invalid?5for?5argument?5?$CF@ 1000d640     libffgen:useasm.obj
 0001:0000c678       ??_C@_0DH@IAOLGEKP@?4flt32?5is?5invalid?5for?5argument?5?$CF@ 1000d678     libffgen:useasm.obj
 0001:0000c6b0       ??_C@_0EC@LIBCAICE@Disable?5writeback?5is?5invalid?5for@ 1000d6b0     libffgen:useasm.obj
 0001:0000c6f4       ??_C@_0DG@MICEFMNE@?4comp?5is?5invalid?5for?5argument?5?$CFd@ 1000d6f4     libffgen:useasm.obj
 0001:0000c72c       ??_C@_0DH@BJDJAOJN@?4alpha?5is?5invalid?5for?5argument?5?$CF@ 1000d72c     libffgen:useasm.obj
 0001:0000c764       ??_C@_0DG@NIHNAGBL@?4high?5is?5invalid?5for?5argument?5?$CFd@ 1000d764     libffgen:useasm.obj
 0001:0000c79c       ??_C@_0DF@HFACOLNL@?4low?5is?5invalid?5for?5argument?5?$CFd?5@ 1000d79c     libffgen:useasm.obj
 0001:0000c7d4       ??_C@_0DI@BMAPILCJ@?4invert?5is?5invalid?5for?5argument?5@ 1000d7d4     libffgen:useasm.obj
 0001:0000c80c       ??_C@_0DK@PJAHFLKI@A?5bytemask?5is?5invalid?5for?5argume@ 1000d80c     libffgen:useasm.obj
 0001:0000c848       ??_C@_0EC@IJJBJBBP@A?5component?5select?5is?5invalid?5fo@ 1000d848     libffgen:useasm.obj
 0001:0000c88c       ??_C@_0DE@NBGIMLFH@?4abs?5is?5invalid?5for?5argument?5?$CFd?5@ 1000d88c     libffgen:useasm.obj
 0001:0000c8c0       ??_C@_0DE@MPDILDBH@?4neg?5is?5invalid?5for?5argument?5?$CFd?5@ 1000d8c0     libffgen:useasm.obj
 0001:0000c8f4       ??_C@_0CH@OGBNJBLO@?4freep?5is?5invalid?5for?5this?5instr@ 1000d8f4     libffgen:useasm.obj
 0001:0000c91c       ??_C@_0CG@HDBABLGF@?4minp?5is?5invalid?5for?5this?5instru@ 1000d91c     libffgen:useasm.obj
 0001:0000c944       ??_C@_0CG@JNEGBJAJ@?4irsd?5is?5invalid?5for?5this?5instru@ 1000d944     libffgen:useasm.obj
 0001:0000c96c       ??_C@_0CH@MOFKMNFF@?4pwait?5is?5invalid?5for?5this?5instr@ 1000d96c     libffgen:useasm.obj
 0001:0000c994       ??_C@_0CI@FJKAAMII@?4noread?5is?5invalid?5for?5this?5inst@ 1000d994     libffgen:useasm.obj
 0001:0000c9bc       ??_C@_0CM@BKAEHGEJ@?4dm_nomatch?5is?5invalid?5for?5this?5@ 1000d9bc     libffgen:useasm.obj
 0001:0000c9e8       ??_C@_0CI@LAPAEMDG@?4global?5is?5invalid?5for?5this?5inst@ 1000d9e8     libffgen:useasm.obj
 0001:0000ca10       ??_C@_0CI@JBBFIBPL@?4gpiext?5is?5invalid?5for?5this?5inst@ 1000da10     libffgen:useasm.obj
 0001:0000ca38       ??_C@_0CK@DEEAJLON@?4bypassl1?5is?5invalid?5for?5this?5in@ 1000da38     libffgen:useasm.obj
 0001:0000ca64       ??_C@_0CF@EHCJCPGO@?4cut?5is?5invalid?5for?5this?5instruc@ 1000da64     libffgen:useasm.obj
 0001:0000ca8c       ??_C@_0CL@OGDOHFNH@?4threepart?5is?5invalid?5for?5this?5i@ 1000da8c     libffgen:useasm.obj
 0001:0000cab8       ??_C@_0CJ@FCBBHHDD@?4twopart?5is?5invalid?5for?5this?5ins@ 1000dab8     libffgen:useasm.obj
 0001:0000cae4       ??_C@_0CJ@GOGNFJGL@?4trigger?5is?5invalid?5for?5this?5ins@ 1000dae4     libffgen:useasm.obj
 0001:0000cb10       ??_C@_0CJ@GIKGIFLP@?4syncend?5is?5invalid?5for?5this?5ins@ 1000db10     libffgen:useasm.obj
 0001:0000cb3c       ??_C@_0CG@IHPDGLHB@?4sinf?5is?5invalid?5for?5this?5instru@ 1000db3c     libffgen:useasm.obj
 0001:0000cb64       ??_C@_0CF@NKHJPKHH@?4rsd?5is?5invalid?5for?5this?5instruc@ 1000db64     libffgen:useasm.obj
 0001:0000cb8c       ??_C@_0CI@NKNMDDOG@?4pcff16?5is?5invalid?5for?5this?5inst@ 1000db8c     libffgen:useasm.obj
 0001:0000cbb4       ??_C@_0CF@CNBHLDDL@?4pcf?5is?5invalid?5for?5this?5instruc@ 1000dbb4     libffgen:useasm.obj
 0001:0000cbdc       ??_C@_0CG@KBDEHIIG@?4incs?5is?5invalid?5for?5this?5instru@ 1000dbdc     libffgen:useasm.obj
 0001:0000cc04       ??_C@_0CF@HDBKEIDN@?4tog?5is?5invalid?5for?5this?5instruc@ 1000dc04     libffgen:useasm.obj
 0001:0000cc2c       ??_C@_0CF@CPPKEJPF@?4c10?5is?5invalid?5for?5this?5instruc@ 1000dc2c     libffgen:useasm.obj
 0001:0000cc54       ??_C@_0CH@JJCJAFEG@?4tpres?5is?5invalid?5for?5this?5instr@ 1000dc54     libffgen:useasm.obj
 0001:0000cc7c       ??_C@_0CF@KOMKFHLA@?4i10?5is?5invalid?5for?5this?5instruc@ 1000dc7c     libffgen:useasm.obj
 0001:0000cca4       ??_C@_0CF@KACIFBOK@?4flt?5is?5invalid?5for?5this?5instruc@ 1000dca4     libffgen:useasm.obj
 0001:0000cccc       ??_C@_0CF@KDIDNMAN@?4i32?5is?5invalid?5for?5this?5instruc@ 1000dccc     libffgen:useasm.obj
 0001:0000ccf4       ??_C@_0CF@HFMHLBAE@?4i16?5is?5invalid?5for?5this?5instruc@ 1000dcf4     libffgen:useasm.obj
 0001:0000cd1c       ??_C@_0CF@GBAIFKNL@?4sat?5is?5invalid?5for?5this?5instruc@ 1000dd1c     libffgen:useasm.obj
 0001:0000cd44       ??_C@_0DE@KONNOGII@pre?9?1post?9increment?5is?5invalid?5f@ 1000dd44     libffgen:useasm.obj
 0001:0000cd78       ??_C@_0CH@MJONMLMP@?4scale?5is?5invalid?5for?5this?5instr@ 1000dd78     libffgen:useasm.obj
 0001:0000cda0       ??_C@_0CH@BGLMLOBA@?4taske?5is?5invalid?5for?5this?5instr@ 1000dda0     libffgen:useasm.obj
 0001:0000cdc8       ??_C@_0CH@OIAHEBAH@?4tasks?5is?5invalid?5for?5this?5instr@ 1000ddc8     libffgen:useasm.obj
 0001:0000cdf0       ??_C@_0CI@JKBHNFPL@?4fcfill?5is?5invalid?5for?5this?5inst@ 1000ddf0     libffgen:useasm.obj
 0001:0000ce18       ??_C@_0CJ@POAKEGNN@?4bpcache?5is?5invalid?5for?5this?5ins@ 1000de18     libffgen:useasm.obj
 0001:0000ce44       ??_C@_0CK@NHGHHGDI@?4onceonly?5is?5invalid?5for?5this?5in@ 1000de44     libffgen:useasm.obj
 0001:0000ce70       ??_C@_0CH@NCCAPODE@?4fetch?5is?5invalid?5for?5this?5instr@ 1000de70     libffgen:useasm.obj
 0001:0000ce98       ??_C@_0CL@BFLFDPDE@testenable?5is?5invalid?5for?5this?5i@ 1000de98     libffgen:useasm.obj
 0001:0000cec4       ??_C@_0CM@GBLJGDF@rangeneable?5is?5invalid?5for?5this?5@ 1000dec4     libffgen:useasm.obj
 0001:0000cef0       ??_C@_0CO@LDDPCEIK@postincrement?5is?5invalid?5for?5thi@ 1000def0     libffgen:useasm.obj
 0001:0000cf20       ??_C@_0CN@ILKEEOL@preincrement?5is?5invalid?5for?5this@ 1000df20     libffgen:useasm.obj
 0001:0000cf50       ??_C@_0CH@PGFJCIMI@?4flt16?5is?5invalid?5for?5this?5instr@ 1000df50     libffgen:useasm.obj
 0001:0000cf78       ??_C@_0DD@MCGMIGNN@This?5instruction?5can?8t?5be?5part?5o@ 1000df78     libffgen:useasm.obj
 0001:0000cfac       ??_C@_0CJ@OKDELEHB@?4renable?5is?5invalid?5for?5this?5ins@ 1000dfac     libffgen:useasm.obj
 0001:0000cfd8       ??_C@_0CF@FIFBOHH@?4abs?5is?5invalid?5for?5this?5instruc@ 1000dfd8     libffgen:useasm.obj
 0001:0000d000       ??_C@_0CF@KMGKJBBN@?4mon?5is?5invalid?5for?5this?5instruc@ 1000e000     libffgen:useasm.obj
 0001:0000d028       ??_C@_0CG@HGFIGOGH@?4mask?5is?5invalid?5for?5this?5instru@ 1000e028     libffgen:useasm.obj
 0001:0000d050       ??_C@_0CJ@BJIFKGIO@?4partial?5is?5invalid?5for?5this?5ins@ 1000e050     libffgen:useasm.obj
 0001:0000d07c       ??_C@_0CK@IEFIOMMP@?4savelink?5is?5invalid?5for?5this?5in@ 1000e07c     libffgen:useasm.obj
 0001:0000d0a8       ??_C@_0CH@EIPKEMIK@?4synce?5is?5invalid?5for?5this?5instr@ 1000e0a8     libffgen:useasm.obj
 0001:0000d0d0       ??_C@_0CF@KFDDBKGG@?4end?5is?5invalid?5for?5this?5instruc@ 1000e0d0     libffgen:useasm.obj
 0001:0000d0f8       ??_C@_0CM@ONJAAFFM@A?5predicate?5is?5invalid?5for?5this?5@ 1000e0f8     libffgen:useasm.obj
 0001:0000d124       ??_C@_0CO@HKFMBEAO@A?5repeat?5mask?5is?5invalid?5for?5thi@ 1000e124     libffgen:useasm.obj
 0001:0000d154       ??_C@_0CI@BKLOOKDP@?4repeat?5is?5invalid?5for?5this?5inst@ 1000e154     libffgen:useasm.obj
 0001:0000d17c       ??_C@_0CJ@JOPLONOF@?4nosched?5is?5invalid?5for?5this?5ins@ 1000e17c     libffgen:useasm.obj
 0001:0000d1a8       ??_C@_0CH@LGEBLDJN@?4syncs?5is?5invalid?5for?5this?5instr@ 1000e1a8     libffgen:useasm.obj
 0001:0000d1d0       ??_C@_0CE@LNKCCLIM@?4i8?5is?5invalid?5for?5this?5instruct@ 1000e1d0     libffgen:useasm.obj
 0001:0000d1f4       ??_C@_0CJ@MMEFPBHM@?4skipinv?5is?5invalid?5for?5this?5ins@ 1000e1f4     libffgen:useasm.obj
 0001:0000d220       ??_C@_07MALOAKCI@invalid?$AA@ 1000e220     libffgen:useasm.obj
 0001:0000d228       ??_C@_0DP@KIFGKPIF@Offset?5into?5indexed?5register?5ban@ 1000e228     libffgen:useasm.obj
 0001:0000d268       ??_C@_0CC@LJGIDMA@Register?5type?5?$CFs?5is?5not?5indexabl@ 1000e268     libffgen:useasm.obj
 0001:0000d28c       ??_C@_0CK@BPJMEOGN@?$CFs?5is?5not?5a?5valid?5destination?5ty@ 1000e28c     libffgen:useasm.obj
 0001:0000d2b8       ??_C@_0CK@FBILJLCJ@Destination?5must?5be?5a?5modifiable@ 1000e2b8     libffgen:useasm.obj
 0001:0000d2e4       ??_C@_0DJ@BHIIGCLJ@Indexed?5registers?5aren?8t?5a?5valid@ 1000e2e4     libffgen:useasm.obj
 0001:0000d320       ??_C@_0DC@JLMEGCKC@Argument?5?$CFd?5type?5can?8t?5be?5?$CFs?5for@ 1000e320     libffgen:useasm.obj
 0001:0000d354       ??_C@_0BN@HHKHJGCN@Argument?5?$CFd?5can?8t?5be?5indexed?$AA@ 1000e354     libffgen:useasm.obj
 0001:0000d374       ??_C@_0BN@JEIEJKM@Argument?5?$CFd?5type?5can?8t?5be?5?$CFs?$AA@ 1000e374     libffgen:useasm.obj
 0001:0000d394       ??_C@_0BK@NIKBIDKC@Argument?5?$CFd?5can?8t?5indexed?$AA@ 1000e394     libffgen:useasm.obj
 0001:0000d3b0       ??_C@_0HF@OJAOJKHK@Sequence?5number?5?$CIg?$CFd?$CJ?0?5edge?5mask@ 1000e3b0     libffgen:useasm.obj
 0001:0000d428       ??_C@_0DK@LCPGEMNK@Task?5queue?5data?5?$CIg?$CFd?5to?5g?$CFd?$CJ?5can@ 1000e428     libffgen:useasm.obj
 0001:0000d464       ??_C@_0CI@BLCMIAIL@Invalid?5global?5register?5specifie@ 1000e464     libffgen:useasm.obj
 0001:0000d48c       ??_C@_0CN@LAECMJLC@?$CFs?5type?5can?8t?5be?5global?5for?5this@ 1000e48c     libffgen:useasm.obj
 0001:0000d4bc       ??_C@_0DG@NFHFDDMG@?$CFs?5immediate?5value?5is?5too?5small?5@ 1000e4bc     libffgen:useasm.obj
 0001:0000d4f4       ??_C@_0DF@HLDFHJJG@?$CFs?5immediate?5value?5is?5too?5large?5@ 1000e4f4     libffgen:useasm.obj
 0001:0000d52c       ??_C@_0DL@PKMEEOIP@Source?51?5immediate?5value?5is?5too?5@ 1000e52c     libffgen:useasm.obj
 0001:0000d568       ??_C@_08IPCCDMEN@Source?51?$AA@ 1000e568     libffgen:useasm.obj
 0001:0000d574       ??_C@_0CK@INEOLDIC@Invalid?5constant?5register?5specif@ 1000e574     libffgen:useasm.obj
 0001:0000d5a0       ??_C@_0CO@LBPJMKJE@Invalid?5fp?5internal?5register?5spe@ 1000e5a0     libffgen:useasm.obj
 0001:0000d5d0       ??_C@_0CK@JGFFOFI@Invalid?5internal?5register?5specif@ 1000e5d0     libffgen:useasm.obj
 0001:0000d5fc       ??_C@_0CH@OHEKEBML@Invalid?5index?5mask?5specified?5?$CIwa@ 1000e5fc     libffgen:useasm.obj
 0001:0000d624       ??_C@_0DG@PBPNOJGF@Invalid?5secondary?5attribute?5regi@ 1000e624     libffgen:useasm.obj
 0001:0000d65c       ??_C@_0DE@LFLBECCD@Invalid?5primary?5attribute?5regist@ 1000e65c     libffgen:useasm.obj
 0001:0000d690       ??_C@_0CI@JCGMLMHK@Invalid?5output?5register?5specifie@ 1000e690     libffgen:useasm.obj
 0001:0000d6b8       ??_C@_0CL@BINLLFEH@Invalid?5temporary?5register?5speci@ 1000e6b8     libffgen:useasm.obj
 0001:0000d6e4       ??_C@_0CM@IBHBOODC@Invalid?5predicate?5type?5for?5this?5@ 1000e6e4     libffgen:useasm.obj
 0001:0000d710       ??_C@_0DN@GHBJDHKE@The?5third?5argument?5to?5dot3?1dot4?5@ 1000e710     libffgen:useasm.obj
 0001:0000d750       ??_C@_0DH@BBGJEJBC@No?5flags?5are?5valid?5for?5the?5third@ 1000e750     libffgen:useasm.obj
 0001:0000d788       ??_C@_0EE@JPJEDBPB@The?5third?5argument?5to?5dot3?1dot4?5@ 1000e788     libffgen:useasm.obj
 0001:0000d7cc       ??_C@_0DP@MPNPCIOH@The?5second?5argument?5to?5dot3?1dot4@ 1000e7cc     libffgen:useasm.obj
 0001:0000d80c       ??_C@_0DI@NLNHCCFG@No?5flags?5are?5valid?5for?5the?5secon@ 1000e80c     libffgen:useasm.obj
 0001:0000d848       ??_C@_0EF@EFCBABKE@The?5second?5argument?5to?5dot3?1dot4@ 1000e848     libffgen:useasm.obj
 0001:0000d890       ??_C@_0DJ@JGDEEONP@Invalid?5integer?5source?5for?5the?5t@ 1000e890     libffgen:useasm.obj
 0001:0000d8d0       ??_C@_0EE@ELFDABMP@Only?5the?5complement?5flag?5is?5vali@ 1000e8d0     libffgen:useasm.obj
 0001:0000d918       ??_C@_0EC@DANPAEGJ@The?5third?5argument?5to?5aintrp1?5mu@ 1000e918     libffgen:useasm.obj
 0001:0000d95c       ??_C@_0DK@OPCNMALF@Invalid?5integer?5source?5for?5the?5s@ 1000e95c     libffgen:useasm.obj
 0001:0000d998       ??_C@_0DG@NPKDEALG@No?5flags?5are?5valid?5for?5the?5secon@ 1000e998     libffgen:useasm.obj
 0001:0000d9d0       ??_C@_0ED@NIBLILEL@The?5second?5argument?5to?5aintrp1?5m@ 1000e9d0     libffgen:useasm.obj
 0001:0000da14       ??_C@_0CM@NAFINKIH@The?5fifth?5argument?5to?5aadd?1asub?5@ 1000ea14     libffgen:useasm.obj
 0001:0000da40       ??_C@_0DH@LBMFOABC@No?5flags?5are?5valid?5for?5the?5fifth@ 1000ea40     libffgen:useasm.obj
 0001:0000da78       ??_C@_0EE@NHDHBHPH@The?5fifth?5argument?5to?5aadd?1asub?5@ 1000ea78     libffgen:useasm.obj
 0001:0000dac0       ??_C@_0EH@BNLGGDIJ@Only?5the?5complement?5flag?5is?5vali@ 1000eac0     libffgen:useasm.obj
 0001:0000db08       ??_C@_0EF@BHNJGLAO@The?5fourth?5argument?5to?5aadd?1asub@ 1000eb08     libffgen:useasm.obj
 0001:0000db50       ??_C@_0CM@LAIDNOIF@The?5third?5argument?5to?5aadd?1asub?5@ 1000eb50     libffgen:useasm.obj
 0001:0000db80       ??_C@_0EG@KPNPAEGJ@Only?5the?5complement?5flag?5is?5vali@ 1000eb80     libffgen:useasm.obj
 0001:0000dbc8       ??_C@_0EE@HCICJMII@The?5third?5argument?5to?5aadd?1asub?5@ 1000ebc8     libffgen:useasm.obj
 0001:0000dc10       ??_C@_0FM@FCNEOKCI@Invalid?5choice?5for?5the?5second?5ar@ 1000ec10     libffgen:useasm.obj
 0001:0000dc70       ??_C@_0EH@COHNMHNB@Only?5the?5complement?5flag?5is?5vali@ 1000ec70     libffgen:useasm.obj
 0001:0000dcb8       ??_C@_0EF@KIDHKMNN@The?5second?5argument?5to?5aadd?1asub@ 1000ecb8     libffgen:useasm.obj
 0001:0000dd00       ??_C@_0DO@NPGGCMGL@The?5first?5argument?5to?5aadd?1asub?5@ 1000ed00     libffgen:useasm.obj
 0001:0000dd40       ??_C@_0CN@JFFLIFPF@An?5integer?5source?5selection?5is?5n@ 1000ed40     libffgen:useasm.obj
 0001:0000dd70       ??_C@_0DH@DLDDAMMA@No?5flags?5are?5valid?5for?5the?5first@ 1000ed70     libffgen:useasm.obj
 0001:0000dda8       ??_C@_0EE@BEBPNCHP@The?5first?5argument?5to?5aadd?1asub?5@ 1000eda8     libffgen:useasm.obj
 0001:0000ddec       ??_C@_0CN@IACABJMC@Coissued?5instruction?5with?5no?5alp@ 1000edec     libffgen:useasm.obj
 0001:0000de1c       ??_C@_0BP@IIAMCHDC@Integer?5dot4?5can?8t?5be?5coissued?$AA@ 1000ee1c     libffgen:useasm.obj
 0001:0000de3c       ??_C@_0DF@OBCJJOLL@Maximum?5repeat?5count?5on?5an?5integ@ 1000ee3c     libffgen:useasm.obj
 0001:0000de78       ??_C@_0EN@JPNNFBOP@Only?5?4bytemask1111?5is?5supported?5@ 1000ee78     libffgen:useasm.obj
 0001:0000dec8       ??_C@_0FG@MFNCNONI@Only?5?4bytemask1111?5is?5supported?5@ 1000eec8     libffgen:useasm.obj
 0001:0000df20       ??_C@_0DD@JKMDHDLF@A?5?$CFs?5instruction?5must?5have?5at?5le@ 1000ef20     libffgen:useasm.obj
 0001:0000df54       ??_C@_0DM@GCKABEIE@Conditional?5code?5update?5isn?8t?5av@ 1000ef54     libffgen:useasm.obj
 0001:0000df90       ??_C@_0EP@POLKDPLI@For?5a?5test?5instruction?5with?5a?5re@ 1000ef90     libffgen:useasm.obj
 0001:0000dfe0       ??_C@_0EC@NOAGCNPB@A?5repeated?5dotproduct?5with?5test?5@ 1000efe0     libffgen:useasm.obj
 0001:0000e024       ??_C@_0DO@IKLPLKIL@A?5repeated?5test?5instruction?5isn?8@ 1000f024     libffgen:useasm.obj
 0001:0000e064       ??_C@_0DE@KBHBIIMG@The?5maximum?5repeat?5count?5for?5thi@ 1000f064     libffgen:useasm.obj
 0001:0000e098       ??_C@_0DB@JAOCBPNH@A?5repeat?5count?5is?5not?5valid?5for?5@ 1000f098     libffgen:useasm.obj
 0001:0000e0cc       ??_C@_0DA@INBPMMOK@A?5repeat?5mask?5is?5not?5valid?5for?5t@ 1000f0cc     libffgen:useasm.obj
 0001:0000e100       ??_C@_0GO@JJLBEPIH@For?5?$CFs?5with?5test?5the?5type?5of?5?$CFs?5@ 1000f100     libffgen:useasm.obj
 0001:0000e170       ??_C@_0FD@DCBOAODI@A?5C10?5format?5destination?5isn?8t?5s@ 1000f170     libffgen:useasm.obj
 0001:0000e1c4       ??_C@_0CM@MLIIJFEL@The?5maximum?5predicate?5register?5n@ 1000f1c4     libffgen:useasm.obj
 0001:0000e1f0       ??_C@_0CG@GNGAJDLD@Predicate?5registers?5are?5not?5inde@ 1000f1f0     libffgen:useasm.obj
 0001:0000e218       ??_C@_0EL@MGFIGPBH@The?5second?5destination?5for?5a?5tes@ 1000f218     libffgen:useasm.obj
 0001:0000e264       ??_C@_0DM@JKJAHMJO@No?5flags?5are?5valid?5for?5the?5predi@ 1000f264     libffgen:useasm.obj
 0001:0000e2a0       ??_C@_0BH@CFEGILC@Unknown?5test?5mask?5type?$AA@ 1000f2a0     libffgen:useasm.obj
 0001:0000e2b8       ??_C@_0BP@LBJMFOHM@Unknown?5channel?5combine?5option?$AA@ 1000f2b8     libffgen:useasm.obj
 0001:0000e2d8       ??_C@_0CO@KFAIKBA@?4cperchan?5isn?8t?5supported?5on?5thi@ 1000f2d8     libffgen:useasm.obj
 0001:0000e308       ??_C@_0DL@CIAFLBE@Partial?5modifier?5is?5only?5availab@ 1000f308     libffgen:useasm.obj
 0001:0000e348       ??_C@_0EP@HBANCFBC@Saturation?5modifier?5is?5only?5avai@ 1000f348     libffgen:useasm.obj
 0001:0000e398       ??_C@_0FG@HDDPHDFM@Only?5?40?5is?5a?5valid?5component?5sel@ 1000f398     libffgen:useasm.obj
 0001:0000e3f0       ??_C@_0FM@BHACNAEE@Only?5?40?5and?5?42?5are?5valid?5compone@ 1000f3f0     libffgen:useasm.obj
 0001:0000e44c       ??_C@_0BG@BCKONFFM@sop2?5must?5be?5coissued?$AA@ 1000f44c     libffgen:useasm.obj
 0001:0000e468       ??_C@_0EP@OFCLCBOD@Invalid?5choice?5for?5the?5fifth?5arg@ 1000f468     libffgen:useasm.obj
 0001:0000e4b8       ??_C@_0DC@FMNAGAJ@No?5flags?5are?5valid?5for?5the?5fifth@ 1000f4b8     libffgen:useasm.obj
 0001:0000e4f0       ??_C@_0FK@HNEAMMLH@Invalid?5choice?5for?5the?5fourth?5ar@ 1000f4f0     libffgen:useasm.obj
 0001:0000e54c       ??_C@_0DE@HFBEDGPO@No?5flags?5are?5valid?5for?5the?5fourt@ 1000f54c     libffgen:useasm.obj
 0001:0000e580       ??_C@_0EC@PPEKPMIP@The?5fourth?5argument?5to?5asop2?5sho@ 1000f580     libffgen:useasm.obj
 0001:0000e5c8       ??_C@_0FO@OLALHECM@Invalid?5choice?5for?5the?5third?5arg@ 1000f5c8     libffgen:useasm.obj
 0001:0000e628       ??_C@_0DE@CMCBMCHC@Only?5?4comp?5is?5valid?5for?5the?5thir@ 1000f628     libffgen:useasm.obj
 0001:0000e660       ??_C@_0EB@OGKIIKPK@The?5third?5argument?5to?5asop2?5shou@ 1000f660     libffgen:useasm.obj
 0001:0000e6a8       ??_C@_0GB@FOOKGLAG@Invalid?5choice?5for?5the?5second?5ar@ 1000f6a8     libffgen:useasm.obj
 0001:0000e70c       ??_C@_0DF@BKFNFPMB@Only?5?4comp?5is?5valid?5for?5the?5seco@ 1000f70c     libffgen:useasm.obj
 0001:0000e748       ??_C@_0EC@JKPDJLLN@The?5second?5argument?5to?5asop2?5sho@ 1000f748     libffgen:useasm.obj
 0001:0000e78c       ??_C@_0DD@KLICCPHA@No?5flags?5are?5valid?5for?5the?5first@ 1000f78c     libffgen:useasm.obj
 0001:0000e7c0       ??_C@_0EB@BIMJBGCB@The?5first?5argument?5to?5asop2?5shou@ 1000f7c0     libffgen:useasm.obj
 0001:0000e804       ??_C@_0CB@PNFMFKCL@sop2?5must?5be?5coissued?5with?5asop2@ 1000f804     libffgen:useasm.obj
 0001:0000e828       ??_C@_0FJ@BADDHEFO@Invalid?5choice?5for?5the?5seventh?5a@ 1000f828     libffgen:useasm.obj
 0001:0000e884       ??_C@_0DE@KEDJMMFI@No?5flags?5are?5valid?5for?5the?5seven@ 1000f884     libffgen:useasm.obj
 0001:0000e8b8       ??_C@_0EC@HGMCGKBA@The?5seventh?5argument?5to?5sop2?5sho@ 1000f8b8     libffgen:useasm.obj
 0001:0000e900       ??_C@_0HE@GKGLGGOL@Invalid?5choice?5for?5the?5sixth?5arg@ 1000f900     libffgen:useasm.obj
 0001:0000e974       ??_C@_0DM@OGJGMIAI@Only?5the?5?4comp?5flag?5is?5valid?5for@ 1000f974     libffgen:useasm.obj
 0001:0000e9b0       ??_C@_0EA@JBHMMHBL@The?5sixth?5argument?5to?5sop2?5shoul@ 1000f9b0     libffgen:useasm.obj
 0001:0000e9f0       ??_C@_0HG@HJBDHCLG@Invalid?5choice?5for?5the?5fifth?5arg@ 1000f9f0     libffgen:useasm.obj
 0001:0000ea68       ??_C@_0DM@OEOABLFP@Only?5the?5?4comp?5flag?5is?5valid?5for@ 1000fa68     libffgen:useasm.obj
 0001:0000eaa8       ??_C@_0EA@PEDOBCNH@The?5fifth?5argument?5to?5sop2?5shoul@ 1000faa8     libffgen:useasm.obj
 0001:0000eae8       ??_C@_0FB@HBOJEBLF@Invalid?5choices?5for?5the?5fourth?5a@ 1000fae8     libffgen:useasm.obj
 0001:0000eb3c       ??_C@_0CK@DBEGJBPP@Integer?5source?5selectors?5aren?8t?5@ 1000fb3c     libffgen:useasm.obj
 0001:0000eb68       ??_C@_0DD@GDJINGEN@No?5flags?5are?5valid?5for?5the?5fourt@ 1000fb68     libffgen:useasm.obj
 0001:0000eba0       ??_C@_0EB@JLEKLKIL@The?5fourth?5argument?5to?5sop2?5shou@ 1000fba0     libffgen:useasm.obj
 0001:0000ebe4       ??_C@_0DF@CEJLKMBG@Only?5nearest?5rounding?5is?5support@ 1000fbe4     libffgen:useasm.obj
 0001:0000ec1c       ??_C@_0CM@OHMDJNLO@An?5integer?5source?5selector?5can?8t@ 1000fc1c     libffgen:useasm.obj
 0001:0000ec48       ??_C@_0DC@PDLMCMGO@No?5flags?5are?5valid?5for?5an?5intege@ 1000fc48     libffgen:useasm.obj
 0001:0000ec80       ??_C@_0EP@KFBPJKBI@The?5fourth?5argument?5to?5a?5pack?5in@ 1000fc80     libffgen:useasm.obj
 0001:0000ecd0       ??_C@_0FK@IMCFLHOE@Invalid?5bytemask?5specified?5?$CIlega@ 1000fcd0     libffgen:useasm.obj
 0001:0000ed2c       ??_C@_0DM@CMGEAEEG@Invalid?5bytemask?5specified?5?$CIlega@ 1000fd2c     libffgen:useasm.obj
 0001:0000ed68       ??_C@_0DD@DLOGHDFD@The?5renable?5flag?5isn?8t?5supported@ 1000fd68     libffgen:useasm.obj
 0001:0000eda0       ??_C@_0EO@CDMEKOCM@The?5renable?5flag?5is?5only?5valid?5w@ 1000fda0     libffgen:useasm.obj
 0001:0000edf0       ??_C@_0FI@FHLKJJEN@The?5scale?5flag?5is?5only?5valid?5whe@ 1000fdf0     libffgen:useasm.obj
 0001:0000ee48       ??_C@_0CD@DJDKIHIP@The?5maximum?5predicate?5number?5is?5@ 1000fe48     libffgen:useasm.obj
 0001:0000ee6c       ??_C@_0CF@LNBFBGED@Predicate?5registers?5can?8t?5be?5ind@ 1000fe6c     libffgen:useasm.obj
 0001:0000ee94       ??_C@_0DF@HMHEIKHA@No?5flags?5are?5valid?5for?5the?5predi@ 1000fe94     libffgen:useasm.obj
 0001:0000eecc       ??_C@_0CP@OJDGHEAF@The?5second?5argument?5to?5rlp?5must?5@ 1000fecc     libffgen:useasm.obj
 0001:0000ef00       ??_C@_0IC@NPHCGHMI@An?5immediate?5source?5argument?5to?5@ 1000ff00     libffgen:useasm.obj
 0001:0000ef84       ??_C@_0DB@JHGOCNIO@imul8?1imulu8?5is?5only?5valid?5with?5@ 1000ff84     libffgen:useasm.obj
 0001:0000efb8       ??_C@_0DC@NCLFMCHI@fpadd8?1fpsub8?5is?5only?5valid?5with@ 1000ffb8     libffgen:useasm.obj
 0001:0000efec       ??_C@_0DA@KAKEJMDJ@A?5mask?5is?5not?5valid?5on?5a?5dotprod@ 1000ffec     libffgen:useasm.obj
 0001:0000f01c       ??_C@_0DC@PDHCBKCD@A?5repeat?5is?5not?5valid?5on?5a?5dotpr@ 1001001c     libffgen:useasm.obj
 0001:0000f050       ??_C@_0EI@JILLLJML@This?5instruction?5isn?8t?5available@ 10010050     libffgen:useasm.obj
 0001:0000f098       ??_C@_0CE@PCBCMLOI@The?5maximum?5clip?5plane?5number?5is@ 10010098     libffgen:useasm.obj
 0001:0000f0bc       ??_C@_0CH@BBGNDHF@A?5clip?5plane?5argument?5is?5not?5ind@ 100100bc     libffgen:useasm.obj
 0001:0000f0e4       ??_C@_0CM@KGNDPEIK@No?5flags?5are?5valid?5for?5a?5clippla@ 100100e4     libffgen:useasm.obj
 0001:0000f110       ??_C@_0EL@OICFHNIF@The?5second?5argument?5to?5a?5fdpc?5in@ 10010110     libffgen:useasm.obj
 0001:0000f15c       ??_C@_0DI@HLMNAEHK@Only?5i0?5and?5i1?5may?5be?5destinatio@ 1001015c     libffgen:useasm.obj
 0001:0000f194       ??_C@_0CF@KCFJPPBJ@Internal?5registers?5are?5not?5index@ 10010194     libffgen:useasm.obj
 0001:0000f1bc       ??_C@_0DF@KGNOHAA@No?5flags?5are?5valid?5for?5an?5intern@ 100101bc     libffgen:useasm.obj
 0001:0000f1f8       ??_C@_0FC@GFPCKLPP@The?5second?5argument?5to?5a?5fddp?5in@ 100101f8     libffgen:useasm.obj
 0001:0000f250       ??_C@_0EL@NPBIKIOJ@The?5fourth?5argument?5to?5a?5fdpc?5in@ 10010250     libffgen:useasm.obj
 0001:0000f2a0       ??_C@_0EL@DBBJIGNF@The?5third?5argument?5to?5a?5fddpc?5in@ 100102a0     libffgen:useasm.obj
 0001:0000f2f0       ??_C@_0FD@HOIBEICL@The?5second?5argument?5to?5a?5fddpc?5i@ 100102f0     libffgen:useasm.obj
 0001:0000f344       ??_C@_0DG@EDCHLIHP@Only?5?4tz?0?5?4t?$CBz?0?5?4tn?5or?5?4tp?$HMz?5are@ 10010344     libffgen:useasm.obj
 0001:0000f380       ??_C@_0EG@LBAJMGGK@A?5movc?5instruction?5must?5specify?5@ 10010380     libffgen:useasm.obj
 0001:0000f3c8       ??_C@_0GA@OJMMLLIA@On?5this?5processor?5MOVC?5on?5C10?5fo@ 100103c8     libffgen:useasm.obj
 0001:0000f428       ??_C@_0DP@CLFDAIAM@A?5movc?5instruction?5must?5include?5@ 10010428     libffgen:useasm.obj
 0001:0000f468       ??_C@_0FL@OJDHBDDM@The?5instruction?5is?5affected?5by?5B@ 10010468     libffgen:useasm.obj
 0001:0000f4c8       ??_C@_0IC@ONGMFPGB@The?5instruction?5is?5affected?5by?5B@ 100104c8     libffgen:useasm.obj
 0001:0000f54c       ??_C@_0DP@GHIBIMHL@The?5maximum?5repeat?5count?5for?5an?5@ 1001054c     libffgen:useasm.obj
 0001:0000f590       ??_C@_0EC@JJHLNPNF@The?5seventh?5argument?5to?5sop2wm?5i@ 10010590     libffgen:useasm.obj
 0001:0000f5d4       ??_C@_0DG@GBFNJGMB@No?5flags?5are?5valid?5for?5the?5seven@ 100105d4     libffgen:useasm.obj
 0001:0000f610       ??_C@_0EE@EGJILBFH@The?5seventh?5argument?5to?5sop2wm?5s@ 10010610     libffgen:useasm.obj
 0001:0000f658       ??_C@_0EA@HOMFHCNO@The?5sixth?5argument?5to?5sop2wm?5is?5@ 10010658     libffgen:useasm.obj
 0001:0000f698       ??_C@_0DE@FDGMDKAF@No?5flags?5are?5valid?5for?5the?5sixth@ 10010698     libffgen:useasm.obj
 0001:0000f6d0       ??_C@_0EC@NALFAHH@The?5sixth?5argument?5to?5sop2wm?5sho@ 100106d0     libffgen:useasm.obj
 0001:0000f714       ??_C@_0DP@BGLACGDG@The?5fifth?5argument?5to?5sop2wm?5is?5@ 10010714     libffgen:useasm.obj
 0001:0000f754       ??_C@_0DM@MLIHGKIL@Only?5?4comp?5is?5a?5valid?5flag?5for?5t@ 10010754     libffgen:useasm.obj
 0001:0000f790       ??_C@_0EC@JMPNILCM@The?5fifth?5argument?5to?5sop2wm?5sho@ 10010790     libffgen:useasm.obj
 0001:0000f7d8       ??_C@_0EA@NCGPJLOA@The?5fourth?5argument?5to?5sop2wm?5is@ 100107d8     libffgen:useasm.obj
 0001:0000f818       ??_C@_0DN@NLJCHBJL@Only?5?4comp?5is?5a?5valid?5flag?5for?5t@ 10010818     libffgen:useasm.obj
 0001:0000f858       ??_C@_0ED@FCPONNNK@The?5fourth?5argument?5to?5sop2wm?5sh@ 10010858     libffgen:useasm.obj
 0001:0000f8a0       ??_C@_0EN@MDJOPIF@Invalid?5choice?5for?5the?5third?5arg@ 100108a0     libffgen:useasm.obj
 0001:0000f8f0       ??_C@_0DC@DCENAPP@No?5flags?5are?5valid?5for?5the?5third@ 100108f0     libffgen:useasm.obj
 0001:0000f924       ??_C@_0DO@EELLDBBD@The?5third?5argument?5to?5asop?5must?5@ 10010924     libffgen:useasm.obj
 0001:0000f968       ??_C@_0HF@CBIPLOPP@Invalid?5choice?5for?5the?5second?5ar@ 10010968     libffgen:useasm.obj
 0001:0000f9e0       ??_C@_0DL@GPHBDAAM@Only?5?4comp?5is?5a?5valid?5flag?5for?5t@ 100109e0     libffgen:useasm.obj
 0001:0000fa1c       ??_C@_0DP@KOIBPLMG@The?5second?5argument?5to?5asop?5must@ 10010a1c     libffgen:useasm.obj
 0001:0000fa60       ??_C@_0HE@JFMMNFAC@Invalid?5choice?5for?5the?5first?5arg@ 10010a60     libffgen:useasm.obj
 0001:0000fad4       ??_C@_0DK@OKDCCLBL@Only?5?4comp?5is?5a?5valid?5flag?5for?5t@ 10010ad4     libffgen:useasm.obj
 0001:0000fb10       ??_C@_0DO@EOKHKJGH@The?5first?5argument?5to?5asop?5must?5@ 10010b10     libffgen:useasm.obj
 0001:0000fb50       ??_C@_0CA@LJJNKDND@lrp1?5must?5be?5coissued?5with?5asop?$AA@ 10010b50     libffgen:useasm.obj
 0001:0000fb70       ??_C@_0BH@DOCDFOCO@lrp1?5must?5be?5coisssued?$AA@ 10010b70     libffgen:useasm.obj
 0001:0000fb88       ??_C@_0BG@CHKAJNEL@lrp1?5must?5be?5coissued?$AA@ 10010b88     libffgen:useasm.obj
 0001:0000fba0       ??_C@_0EO@FKMJCGBG@Invalid?5choice?5for?5the?5seventh?5a@ 10010ba0     libffgen:useasm.obj
 0001:0000fbf0       ??_C@_0DE@MPNHBAIK@No?5flags?5are?5valid?5for?5the?5seven@ 10010bf0     libffgen:useasm.obj
 0001:0000fc28       ??_C@_0EB@NCENCBNO@The?5seventh?5argument?5to?5lrp1?5mus@ 10010c28     libffgen:useasm.obj
 0001:0000fc70       ??_C@_0EN@NGJPOHKM@Invalid?5choice?5for?5the?5sixth?5arg@ 10010c70     libffgen:useasm.obj
 0001:0000fcc0       ??_C@_0DM@INHIBENK@Only?5the?5?4comp?5flag?5is?5valid?5for@ 10010cc0     libffgen:useasm.obj
 0001:0000fcfc       ??_C@_0DP@NEMNCNNA@The?5sixth?5argument?5to?5lrp1?5must?5@ 10010cfc     libffgen:useasm.obj
 0001:0000fd40       ??_C@_0FA@BCOHELNN@Invalid?5choice?5for?5the?5fifth?5arg@ 10010d40     libffgen:useasm.obj
 0001:0000fd90       ??_C@_0CM@KDAMEKKC@An?5integer?5source?5selector?5is?5no@ 10010d90     libffgen:useasm.obj
 0001:0000fdbc       ??_C@_0DM@IPAOMHIN@Only?5the?5?4comp?5flag?5is?5valid?5for@ 10010dbc     libffgen:useasm.obj
 0001:0000fdf8       ??_C@_0DP@CGMBCHII@The?5fifth?5argument?5to?5lrp1?5must?5@ 10010df8     libffgen:useasm.obj
 0001:0000fe38       ??_C@_0BG@IEPGBLOC@lrp2?5must?5be?5coissued?$AA@ 10010e38     libffgen:useasm.obj
 0001:0000fe50       ??_C@_0EJ@KJLKFMN@Only?5zero?0?5one?5and?5s2a?5are?5valid@ 10010e50     libffgen:useasm.obj
 0001:0000fe9c       ??_C@_0DE@FDNIJKHO@Only?5?4comp?5is?5valid?5for?5the?5seco@ 10010e9c     libffgen:useasm.obj
 0001:0000fed0       ??_C@_0DP@GCMJDOBH@The?5second?5argument?5to?5alrp?5must@ 10010ed0     libffgen:useasm.obj
 0001:0000ff10       ??_C@_0EI@POLJNHOP@Only?5zero?0?5one?5and?5s1a?5are?5valid@ 10010f10     libffgen:useasm.obj
 0001:0000ff58       ??_C@_0DD@LEOOHHIE@Only?5?4comp?5is?5valid?5for?5the?5firs@ 10010f58     libffgen:useasm.obj
 0001:0000ff8c       ??_C@_0DO@ICOPGMLG@The?5first?5argument?5to?5alrp?5must?5@ 10010f8c     libffgen:useasm.obj
 0001:0000ffcc       ??_C@_0CA@BBLPFF@lrp2?5must?5be?5coissued?5with?5alrp?$AA@ 10010fcc     libffgen:useasm.obj
 0001:0000fff0       ??_C@_0FD@JFBMKMNH@Invalid?5choice?5for?5the?5seventh?5a@ 10010ff0     libffgen:useasm.obj
 0001:00010048       ??_C@_0EN@GMGJLELO@If?5the?5seventh?5argument?5to?5lrp2?5@ 10011048     libffgen:useasm.obj
 0001:00010098       ??_C@_0FB@FJHLFMAN@If?5the?5seventh?5argument?5to?5lrp2?5@ 10011098     libffgen:useasm.obj
 0001:000100f0       ??_C@_0EP@GBKEKGGN@If?5the?5seventh?5argument?5to?5lrp2?5@ 100110f0     libffgen:useasm.obj
 0001:00010140       ??_C@_0EK@MPPLIHCI@If?5the?5seventh?5argument?5to?5lrp2?5@ 10011140     libffgen:useasm.obj
 0001:0001018c       ??_C@_0DN@BJBDMCPE@Only?5the?5?4comp?5flag?5is?5valid?5for@ 1001118c     libffgen:useasm.obj
 0001:000101d0       ??_C@_0EA@MACNPBPH@The?5eighth?5argument?5to?5lrp2?5must@ 100111d0     libffgen:useasm.obj
 0001:00010210       ??_C@_0DO@GLBNDEGP@Only?5the?5?4comp?5flag?5is?5valid?5for@ 10011210     libffgen:useasm.obj
 0001:00010250       ??_C@_0EB@JPKFCBLJ@The?5seventh?5argument?5to?5lrp2?5mus@ 10011250     libffgen:useasm.obj
 0001:00010298       ??_C@_0HH@IBAGBKNH@Invalid?5choice?5for?5the?5sixth?5arg@ 10011298     libffgen:useasm.obj
 0001:00010310       ??_C@_0DM@KGFFEHBJ@Only?5the?5?4comp?5flag?5is?5valid?5for@ 10011310     libffgen:useasm.obj
 0001:0001034c       ??_C@_0DP@JJCFCNLH@The?5sixth?5argument?5to?5lrp2?5must?5@ 1001134c     libffgen:useasm.obj
 0001:00010390       ??_C@_0HI@KGJMFIGE@Invalid?5choice?5for?5the?5fifth?5arg@ 10011390     libffgen:useasm.obj
 0001:00010408       ??_C@_0DM@PNPLCKBO@Only?5the?5?4comp?5flag?5is?5valid?5for@ 10011408     libffgen:useasm.obj
 0001:00010444       ??_C@_0DP@JFIMNECE@The?5fifth?5argument?5to?5sop3?5must?5@ 10011444     libffgen:useasm.obj
 0001:00010488       ??_C@_0EP@LFLPCFJM@Invalid?5choice?5for?5the?5second?5ar@ 10011488     libffgen:useasm.obj
 0001:000104d8       ??_C@_0DE@GEPIHLDC@No?5flags?5are?5valid?5for?5the?5secon@ 100114d8     libffgen:useasm.obj
 0001:00010510       ??_C@_0EA@CILJPHKB@The?5second?5argument?5to?5arsop?5mus@ 10011510     libffgen:useasm.obj
 0001:00010550       ??_C@_0FO@BGCOGJJP@Invalid?5choice?5for?5the?5first?5arg@ 10011550     libffgen:useasm.obj
 0001:000105b0       ??_C@_0DE@LFEIHKHD@Only?5?4comp?5is?5valid?5for?5the?5firs@ 100115b0     libffgen:useasm.obj
 0001:000105e4       ??_C@_0DP@IJIIECIN@The?5first?5argument?5to?5arsop?5must@ 100115e4     libffgen:useasm.obj
 0001:00010628       ??_C@_0EK@DIJKPKNM@SOP3?5with?5ARSOP?5and?5a?5complement@ 10011628     libffgen:useasm.obj
 0001:00010678       ??_C@_0EO@BNBKMGBP@Invalid?5choice?5for?5the?5second?5ar@ 10011678     libffgen:useasm.obj
 0001:000106c8       ??_C@_0DD@KDAMLAMK@No?5flags?5are?5valid?5for?5the?5secon@ 100116c8     libffgen:useasm.obj
 0001:00010700       ??_C@_0FN@ONPCNNEO@Invalid?5choice?5for?5the?5first?5arg@ 10011700     libffgen:useasm.obj
 0001:00010760       ??_C@_0DD@KIGKAAGO@Only?5?4comp?5is?5valid?5for?5the?5firs@ 10011760     libffgen:useasm.obj
 0001:00010798       ??_C@_0FE@LNCOBNA@Invalid?5choice?5for?5the?5first?5arg@ 10011798     libffgen:useasm.obj
 0001:000107f0       ??_C@_0FE@JJEFPIJ@Invalid?5choice?5for?5the?5first?5arg@ 100117f0     libffgen:useasm.obj
 0001:00010848       ??_C@_0ED@PGOFNOAD@sop3?5with?5a?5negate?5destination?5m@ 10011848     libffgen:useasm.obj
 0001:0001088c       ??_C@_0CE@OHCGBBLC@sop3?5without?5a?5coissued?5instruct@ 1001188c     libffgen:useasm.obj
 0001:000108b0       ??_C@_0BG@MFEMFFAE@sop3?5must?5be?5coissued?$AA@ 100118b0     libffgen:useasm.obj
 0001:000108c8       ??_C@_0EL@GLFHPIPJ@Invalid?5choice?5for?5eighth?5argume@ 100118c8     libffgen:useasm.obj
 0001:00010918       ??_C@_0EA@DOIIACDM@The?5eighth?5argument?5to?5sop3?5must@ 10011918     libffgen:useasm.obj
 0001:00010958       ??_C@_0EP@LLOJFENH@Invalid?5choice?5for?5the?5seventh?5a@ 10011958     libffgen:useasm.obj
 0001:000109a8       ??_C@_0DE@LNCCPNBJ@No?5flags?5are?5valid?5for?5the?5seven@ 100119a8     libffgen:useasm.obj
 0001:000109e0       ??_C@_0EB@GBAANCHC@The?5seventh?5argument?5to?5sop3?5mus@ 100119e0     libffgen:useasm.obj
 0001:00010a28       ??_C@_0HE@NOFOGDCI@Invalid?5choice?5for?5the?5sixth?5arg@ 10011a28     libffgen:useasm.obj
 0001:00010a9c       ??_C@_0DK@GPFHLHKL@Only?5?4comp?5is?5a?5valid?5flag?5for?5t@ 10011a9c     libffgen:useasm.obj
 0001:00010ad8       ??_C@_0DP@GHIANOHM@The?5sixth?5argument?5to?5sop3?5must?5@ 10011ad8     libffgen:useasm.obj
 0001:00010b18       ??_C@_0HE@OENIBECC@Invalid?5choice?5for?5the?5fifth?5arg@ 10011b18     libffgen:useasm.obj
 0001:00010b8c       ??_C@_0DK@GNCBGEPM@Only?5?4comp?5is?5a?5valid?5flag?5for?5t@ 10011b8c     libffgen:useasm.obj
 0001:00010bc8       ??_C@_0BH@NMPINIEC@sop3?5can?8t?5be?5repeated?$AA@ 10011bc8     libffgen:useasm.obj
 0001:00010be0       ??_C@_0DK@OMANMEPM@Only?5s2a?5is?5a?5valid?5choice?5for?5t@ 10011be0     libffgen:useasm.obj
 0001:00010c1c       ??_C@_0DK@DPJMNKAL@Only?5?4comp?5is?5a?5valid?5flag?5for?5t@ 10011c1c     libffgen:useasm.obj
 0001:00010c58       ??_C@_0DP@BFGILNHD@The?5tenth?5argument?5to?5ima8?5must?5@ 10011c58     libffgen:useasm.obj
 0001:00010c98       ??_C@_0DL@FMNMANPN@Only?5s1a?5is?5a?5valid?5choice?5for?5t@ 10011c98     libffgen:useasm.obj
 0001:00010cd4       ??_C@_0DL@PMLPCLJP@Only?5?4comp?5is?5a?5valid?5flag?5for?5t@ 10011cd4     libffgen:useasm.obj
 0001:00010d10       ??_C@_0EA@OKAGHCFL@The?5nineth?5argument?5to?5ima8?5must@ 10011d10     libffgen:useasm.obj
 0001:00010d50       ??_C@_0ED@FKCOCDED@Only?5s0a?5and?5s1a?5are?5valid?5choic@ 10011d50     libffgen:useasm.obj
 0001:00010d94       ??_C@_0DL@HABGHCJK@Only?5?4comp?5is?5a?5valid?5flag?5for?5t@ 10011d94     libffgen:useasm.obj
 0001:00010dd0       ??_C@_0EA@EABBPNKK@The?5eighth?5argument?5to?5ima8?5must@ 10011dd0     libffgen:useasm.obj
 0001:00010e10       ??_C@_0ED@FDKGPKDC@Only?5s2?5and?5s2a?5are?5valid?5choice@ 10011e10     libffgen:useasm.obj
 0001:00010e54       ??_C@_0DM@LBKALADI@Only?5?4comp?5is?5a?5valid?5flag?5for?5t@ 10011e54     libffgen:useasm.obj
 0001:00010e90       ??_C@_0EB@BPJJCNOE@The?5seventh?5argument?5to?5ima8?5mus@ 10011e90     libffgen:useasm.obj
 0001:00010ed8       ??_C@_0EB@CLJBDDPJ@Only?5s1?5and?5s1a?5are?5valid?5choice@ 10011ed8     libffgen:useasm.obj
 0001:00010f1c       ??_C@_0DK@BBBOOAIP@Only?5?4comp?5is?5a?5valid?5flag?5for?5t@ 10011f1c     libffgen:useasm.obj
 0001:00010f58       ??_C@_0DP@BJBJCBOK@The?5sixth?5argument?5to?5ima8?5must?5@ 10011f58     libffgen:useasm.obj
 0001:00010f98       ??_C@_0EK@KADHKBHD@Only?5s0?0?5s1?0?5s0a?5and?5s1a?5are?5val@ 10011f98     libffgen:useasm.obj
 0001:00010fe4       ??_C@_0DK@BDGIDDNI@Only?5?4comp?5is?5a?5valid?5flag?5for?5t@ 10011fe4     libffgen:useasm.obj
 0001:00011020       ??_C@_0DP@OLBFCLLC@The?5fifth?5argument?5to?5ima8?5must?5@ 10012020     libffgen:useasm.obj
 0001:00011060       ??_C@_0EK@HCFFGHCH@Third?5argument?5to?5ima16?5is?58?9bit@ 10012060     libffgen:useasm.obj
 0001:000110b0       ??_C@_0EL@EFNHNPFP@Second?5argument?5to?5ima16?5is?58?9bi@ 100120b0     libffgen:useasm.obj
 0001:000110fc       ??_C@_0DD@DHKGKKGN@No?5flags?5are?5valid?5for?5the?5sixth@ 100120fc     libffgen:useasm.obj
 0001:00011130       ??_C@_0CM@KFKJJGEN@The?5sixth?5argument?5to?5ima16?5isn?8@ 10012130     libffgen:useasm.obj
 0001:0001115c       ??_C@_0DC@FLFMKFFD@The?5sixth?5argument?5to?5ima16?5must@ 1001215c     libffgen:useasm.obj
 0001:00011190       ??_C@_0EN@LDKLHMAN@Invalid?5source?5data?5format?5for?5i@ 10012190     libffgen:useasm.obj
 0001:000111e0       ??_C@_0DD@MCKLBIOJ@No?5flags?5are?5valid?5for?5the?5fifth@ 100121e0     libffgen:useasm.obj
 0001:00011214       ??_C@_0CM@LHIIENBO@The?5fifth?5argument?5to?5ima16?5isn?8@ 10012214     libffgen:useasm.obj
 0001:00011240       ??_C@_0DC@CIEPCOAH@The?5fifth?5argument?5to?5ima16?5must@ 10012240     libffgen:useasm.obj
 0001:00011274       ??_C@_0DJ@KMFCNFLN@Only?5one?5of?5?4s?5and?5?4u?5can?5be?5spe@ 10012274     libffgen:useasm.obj
 0001:000112b0       ??_C@_0DN@LMMEBOND@The?5maximum?5destination?5shift?5fo@ 100122b0     libffgen:useasm.obj
 0001:000112f0       ??_C@_0EA@BEAJFKLN@The?5maximum?5register?5number?5for?5@ 100122f0     libffgen:useasm.obj
 0001:00011330       ??_C@_0CL@DOOAPBOB@The?5eighth?5source?5to?5imae?5can?8t?5@ 10012330     libffgen:useasm.obj
 0001:0001135c       ??_C@_0DB@PKHIFEJJ@No?5flags?5are?5valid?5for?5the?5eight@ 1001235c     libffgen:useasm.obj
 0001:00011390       ??_C@_0EI@OMIBHEJN@The?5eighth?5source?5to?5imae?5should@ 10012390     libffgen:useasm.obj
 0001:000113d8       ??_C@_0EH@DLKGLNI@Only?5cie?5or?5nothing?5are?5valid?5ch@ 100123d8     libffgen:useasm.obj
 0001:00011420       ??_C@_0DE@MMHOIJCE@No?5flags?5are?5valid?5for?5the?5seven@ 10012420     libffgen:useasm.obj
 0001:00011454       ??_C@_0CN@IKCGDAFI@The?5seventh?5argument?5to?5imae?5isn@ 10012454     libffgen:useasm.obj
 0001:00011484       ??_C@_0DE@IAOPODPF@The?5seventh?5argument?5to?5imae?5mus@ 10012484     libffgen:useasm.obj
 0001:000114b8       ??_C@_0EF@JBDPGDKG@Only?5coe?5or?5nothing?5are?5valid?5ch@ 100124b8     libffgen:useasm.obj
 0001:00011500       ??_C@_0DC@GPPMJACC@No?5flags?5are?5valid?5for?5the?5sixth@ 10012500     libffgen:useasm.obj
 0001:00011534       ??_C@_0CL@CDIKAGGM@The?5sixth?5argument?5to?5imae?5isn?8t@ 10012534     libffgen:useasm.obj
 0001:00011560       ??_C@_0DC@HDJGOJKK@The?5sixth?5argument?5to?5imae?5must?5@ 10012560     libffgen:useasm.obj
 0001:00011594       ??_C@_0DD@DNBAOKIA@?4low?5and?5?4high?5are?5meaningless?5f@ 10012594     libffgen:useasm.obj
 0001:000115c8       ??_C@_0EG@PNOIEBGC@One?5of?5?4low?5or?5?4high?5should?5be?5s@ 100125c8     libffgen:useasm.obj
 0001:00011610       ??_C@_0EH@DLDLJEEK@One?5of?5?4low?5or?5?4high?5should?5be?5s@ 10012610     libffgen:useasm.obj
 0001:00011658       ??_C@_0EG@HGBJOGAP@One?5of?5?4low?5or?5?4high?5should?5be?5s@ 10012658     libffgen:useasm.obj
 0001:000116a0       ??_C@_0BN@MCMCHHHO@Invalid?5data?5format?5for?5imae?$AA@ 100126a0     libffgen:useasm.obj
 0001:000116c0       ??_C@_0DC@GNIKEDHF@No?5flags?5are?5valid?5for?5the?5fifth@ 100126c0     libffgen:useasm.obj
 0001:000116f4       ??_C@_0CL@LFLIAFDF@The?5fifth?5argument?5to?5imae?5isn?8t@ 100126f4     libffgen:useasm.obj
 0001:00011720       ??_C@_0DB@NOAIOELF@The?5fifth?5argument?5to?5imae?5must?5@ 10012720     libffgen:useasm.obj
 0001:00011754       ??_C@_0DM@EHOELKCO@The?5maximum?5destination?5shift?5fo@ 10012754     libffgen:useasm.obj
 0001:00011790       ??_C@_0DE@JCLFGKBG@Maximum?5repeat?5count?5on?5an?5integ@ 10012790     libffgen:useasm.obj
 0001:000117c8       ??_C@_0EG@JFIEFIAN@Only?5u8?5or?5s8?5are?5valid?5as?5a?5cho@ 100127c8     libffgen:useasm.obj
 0001:00011810       ??_C@_0DF@BFAJNMNE@No?5flags?5are?5valid?5for?5the?5ninet@ 10012810     libffgen:useasm.obj
 0001:00011848       ??_C@_0EB@EPNJCIMP@The?5nineth?5argument?5to?5ssum16?5mu@ 10012848     libffgen:useasm.obj
 0001:00011890       ??_C@_0EM@CDDPPEDE@Only?5iadd?5or?5nothing?5is?5valid?5as@ 10012890     libffgen:useasm.obj
 0001:000118dc       ??_C@_0DF@HKMJENGI@No?5flags?5are?5valid?5for?5the?5eight@ 100128dc     libffgen:useasm.obj
 0001:00011918       ??_C@_0EB@IFMJPNMK@The?5eighth?5argument?5to?5ssum16?5mu@ 10012918     libffgen:useasm.obj
 0001:00011960       ??_C@_0ED@OAGGGGIH@Only?5i0?5or?5r1?5valid?5as?5a?5choice?5@ 10012960     libffgen:useasm.obj
 0001:000119a4       ??_C@_0CF@BGFEHLBP@An?5internal?5register?5isn?8t?5index@ 100129a4     libffgen:useasm.obj
 0001:000119cc       ??_C@_0DG@GDJPLBEI@No?5flags?5are?5valid?5for?5the?5seven@ 100129cc     libffgen:useasm.obj
 0001:00011a08       ??_C@_0EC@BEPCBJIN@The?5seventh?5argument?5to?5ssum16?5m@ 10012a08     libffgen:useasm.obj
 0001:00011a50       ??_C@_0EL@BECKFGPA@Only?5iadd?5or?5nothing?5is?5valid?5as@ 10012a50     libffgen:useasm.obj
 0001:00011a9c       ??_C@_0DE@FBKOBNIM@No?5flags?5are?5valid?5for?5the?5sixth@ 10012a9c     libffgen:useasm.obj
 0001:00011ad0       ??_C@_0EA@PDEMLEIG@The?5sixth?5argument?5to?5ssum16?5mus@ 10012ad0     libffgen:useasm.obj
 0001:00011b10       ??_C@_0EL@HFHGKGHC@Only?5idst?5or?5nothing?5is?5valid?5as@ 10012b10     libffgen:useasm.obj
 0001:00011b5c       ??_C@_0CL@KCGNBGBH@An?5integer?5source?5selector?5isn?8t@ 10012b5c     libffgen:useasm.obj
 0001:00011b88       ??_C@_0DE@LLIOFHAH@No?5flags?5are?5valid?5for?5the?5fifth@ 10012b88     libffgen:useasm.obj
 0001:00011bc0       ??_C@_0EA@JGAOGBEK@The?5fifth?5argument?5to?5ssum16?5mus@ 10012bc0     libffgen:useasm.obj
 0001:00011c00       ??_C@_0DE@IJOOAFAA@Maximum?5repeat?5count?5on?5an?5SSUM1@ 10012c00     libffgen:useasm.obj
 0001:00011c34       ??_C@_0CJ@EGABLJED@ssum16?5isn?8t?5available?5on?5this?5p@ 10012c34     libffgen:useasm.obj
 0001:00011c60       ??_C@_0EL@LEHINHKP@Only?5scale?5or?5nothing?5is?5valid?5a@ 10012c60     libffgen:useasm.obj
 0001:00011cac       ??_C@_0DD@MBMDINHI@No?5flags?5are?5valid?5for?5the?5eight@ 10012cac     libffgen:useasm.obj
 0001:00011ce0       ??_C@_0DP@DNLIJOFH@The?5eighth?5argument?5to?5firv?5must@ 10012ce0     libffgen:useasm.obj
 0001:00011d20       ??_C@_0EL@PLEHJOGF@Only?5iadd?5or?5nothing?5is?5valid?5as@ 10012d20     libffgen:useasm.obj
 0001:00011d6c       ??_C@_0DE@LOMDNFBJ@No?5flags?5are?5valid?5for?5the?5seven@ 10012d6c     libffgen:useasm.obj
 0001:00011da0       ??_C@_0EA@LAOANIGO@The?5seventh?5argument?5to?5firv?5mus@ 10012da0     libffgen:useasm.obj
 0001:00011de0       ??_C@_0EM@PPMBHMLB@Only?5?$CLsrc2?42?5or?5nothing?5is?5valid@ 10012de0     libffgen:useasm.obj
 0001:00011e2c       ??_C@_0DC@BNEBMMBP@No?5flags?5are?5valid?5for?5the?5sixth@ 10012e2c     libffgen:useasm.obj
 0001:00011e60       ??_C@_0DO@IGFJMJCL@The?5sixth?5argument?5to?5firv?5must?5@ 10012e60     libffgen:useasm.obj
 0001:00011ea0       ??_C@_0CL@MDHBFNJL@The?5fifth?5argument?5to?5firv?5isn?8t@ 10012ea0     libffgen:useasm.obj
 0001:00011ecc       ??_C@_0DC@BPDHBPEI@No?5flags?5are?5valid?5for?5the?5fifth@ 10012ecc     libffgen:useasm.obj
 0001:00011f00       ??_C@_0DP@LCJNOCNN@The?5fifth?5argument?5to?5firv?5must?5@ 10012f00     libffgen:useasm.obj
 0001:00011f40       ??_C@_0HP@FKECLPEM@The?5register?5bank?5for?5firv?5sourc@ 10012f40     libffgen:useasm.obj
 0001:00011fc0       ??_C@_0EG@NEGMNEOD@The?5register?5banks?5for?5source?50?5@ 10012fc0     libffgen:useasm.obj
 0001:00012008       ??_C@_0CD@BDBMNPHP@Maximum?5repeat?5count?5on?5firv?5is?5@ 10013008     libffgen:useasm.obj
 0001:00012030       ??_C@_0EK@MMLIIHNN@Only?5scale?5or?5nothing?5is?5valid?5a@ 10013030     libffgen:useasm.obj
 0001:00012080       ??_C@_0EJ@NGJACPPH@Only?5iadd?5or?5nothing?5is?5valid?5as@ 10013080     libffgen:useasm.obj
 0001:000120cc       ??_C@_0DO@OIFDNPHI@The?5fifth?5argument?5to?5firv?5must?5@ 100130cc     libffgen:useasm.obj
 0001:00012110       ??_C@_0EN@EIOOMBFD@Only?5?$CLsrc2?42?5or?5nothing?5is?5valid@ 10013110     libffgen:useasm.obj
 0001:00012160       ??_C@_0DP@FGKELBIB@The?5fourth?5argument?5to?5firv?5must@ 10013160     libffgen:useasm.obj
 0001:000121a0       ??_C@_0EE@EGNLBLOB@The?5register?5bank?5for?5firvh?5sour@ 100131a0     libffgen:useasm.obj
 0001:000121e4       ??_C@_0CE@HBKLLEAA@Maximum?5repeat?5count?5on?5firvh?5is@ 100131e4     libffgen:useasm.obj
 0001:00012208       ??_C@_0CI@CFGKFHCM@firvh?5isn?8t?5available?5on?5this?5pr@ 10013208     libffgen:useasm.obj
 0001:00012230       ??_C@_0EA@CNFLJPLE@The?5nineth?5argument?5to?5bilin?5mus@ 10013230     libffgen:useasm.obj
 0001:00012270       ??_C@_0DE@OJKKKHIL@No?5flags?5are?5valid?5for?5the?5ninet@ 10013270     libffgen:useasm.obj
 0001:000122a4       ??_C@_0CN@DJDNLEIC@The?5nineth?5argument?5to?5bilin?5isn@ 100132a4     libffgen:useasm.obj
 0001:000122d4       ??_C@_0DH@HFBBMNAM@The?5nineth?5argument?5to?5bilin?5mus@ 100132d4     libffgen:useasm.obj
 0001:00012310       ??_C@_0EA@OPFHNAEG@The?5eighth?5argument?5to?5bilin?5mus@ 10013310     libffgen:useasm.obj
 0001:00012350       ??_C@_0DE@JJEMPKFN@No?5flags?5are?5valid?5for?5the?5eight@ 10013350     libffgen:useasm.obj
 0001:00012384       ??_C@_0CN@MBAHDJDB@The?5eighth?5argument?5to?5bilin?5isn@ 10013384     libffgen:useasm.obj
 0001:000123b8       ??_C@_0EJ@BIMEJMPB@The?5eighth?5argument?5to?5bilin?5mus@ 100133b8     libffgen:useasm.obj
 0001:00012408       ??_C@_0EB@LANPAAAI@The?5seventh?5argument?5to?5bilin?5mu@ 10013408     libffgen:useasm.obj
 0001:0001244c       ??_C@_0DF@KDIGKLML@No?5flags?5are?5valid?5for?5the?5seven@ 1001344c     libffgen:useasm.obj
 0001:00012484       ??_C@_0CO@HELDAPEL@The?5seventh?5argument?5to?5bilin?5is@ 10013484     libffgen:useasm.obj
 0001:000124b8       ??_C@_0EF@CJMNJFOI@The?5seventh?5argument?5to?5bilin?5mu@ 100134b8     libffgen:useasm.obj
 0001:00012500       ??_C@_0EG@CPMAHDPO@The?5sixth?5argument?5to?5bilin?5must@ 10013500     libffgen:useasm.obj
 0001:00012548       ??_C@_0DD@EKEGIMOH@No?5flags?5are?5valid?5for?5the?5sixth@ 10013548     libffgen:useasm.obj
 0001:0001257c       ??_C@_0CM@FFKOFHMI@The?5sixth?5argument?5to?5bilin?5isn?8@ 1001357c     libffgen:useasm.obj
 0001:000125a8       ??_C@_0EA@HDMMDEFM@The?5sixth?5argument?5to?5bilin?5must@ 100135a8     libffgen:useasm.obj
 0001:000125e8       ??_C@_0EA@BGIOOBJA@The?5fifth?5argument?5to?5bilin?5must@ 100135e8     libffgen:useasm.obj
 0001:00012628       ??_C@_0DD@LPELDOGD@No?5flags?5are?5valid?5for?5the?5fifth@ 10013628     libffgen:useasm.obj
 0001:0001265c       ??_C@_0CM@EHIPIMJL@The?5fifth?5argument?5to?5bilin?5isn?8@ 1001365c     libffgen:useasm.obj
 0001:00012688       ??_C@_0EB@ILBDCOKI@The?5fifth?5argument?5to?5bilin?5must@ 10013688     libffgen:useasm.obj
 0001:000126cc       ??_C@_0CE@PONMLKAD@Maximum?5repeat?5count?5on?5bilin?5is@ 100136cc     libffgen:useasm.obj
 0001:000126f0       ??_C@_0DE@JHKIEKPM@The?5range?5of?5the?5nineth?5argument@ 100136f0     libffgen:useasm.obj
 0001:00012724       ??_C@_0DH@KHNFKIAG@The?5nineth?5argument?5to?5firh?5must@ 10013724     libffgen:useasm.obj
 0001:0001275c       ??_C@_0DF@JCFPNCKH@The?5range?5of?5the?5eighth?5argument@ 1001375c     libffgen:useasm.obj
 0001:00012794       ??_C@_0DH@BGJCEECP@The?5eighth?5argument?5to?5firh?5must@ 10013794     libffgen:useasm.obj
 0001:000127cc       ??_C@_0CI@HEOOLMFP@The?5maximum?5filter?5coefficent?5se@ 100137cc     libffgen:useasm.obj
 0001:000127f4       ??_C@_0DC@CJJPPKOA@No?5flags?5are?5valid?5for?5a?5filter?5@ 100137f4     libffgen:useasm.obj
 0001:00012828       ??_C@_0CI@BPHBGDKA@Filter?5coefficent?5sets?5aren?8t?5in@ 10013828     libffgen:useasm.obj
 0001:00012850       ??_C@_0DN@NIIJMAFI@The?5seventh?5argument?5to?5firh?5mus@ 10013850     libffgen:useasm.obj
 0001:00012890       ??_C@_0CK@MCCCMAME@No?5flags?5are?5valid?5for?5an?5immedi@ 10013890     libffgen:useasm.obj
 0001:000128bc       ??_C@_0CE@BOJPMEGF@An?5immediate?5value?5is?5not?5indexa@ 100138bc     libffgen:useasm.obj
 0001:000128e0       ??_C@_0DK@HBKJDJHH@The?5sixth?5argument?5to?5firh?5must?5@ 100138e0     libffgen:useasm.obj
 0001:0001291c       ??_C@_0DC@MLHGCAJH@No?5flags?5are?5valid?5for?5the?5fifth@ 1001391c     libffgen:useasm.obj
 0001:00012950       ??_C@_0CL@PEPPBDAK@The?5fifth?5argument?5to?5firh?5isn?8t@ 10013950     libffgen:useasm.obj
 0001:0001297c       ??_C@_0DN@JOJEKONN@The?5fifth?5argument?5to?5firh?5must?5@ 1001397c     libffgen:useasm.obj
 0001:000129c0       ??_C@_0HP@FIJDICNA@The?5register?5bank?5for?5firh?5sourc@ 100139c0     libffgen:useasm.obj
 0001:00012a40       ??_C@_0EG@FDFDPJHP@The?5register?5banks?5for?5source?50?5@ 10013a40     libffgen:useasm.obj
 0001:00012a88       ??_C@_0CD@HKCNPMGG@Maximum?5repeat?5count?5on?5firh?5is?5@ 10013a88     libffgen:useasm.obj
 0001:00012aac       ??_C@_0DP@DKFIGMEP@The?5destination?5argument?5to?5firh@ 10013aac     libffgen:useasm.obj
 0001:00012aec       ??_C@_0DF@BDOGECIG@The?5range?5of?5the?5nineth?5argument@ 10013aec     libffgen:useasm.obj
 0001:00012b24       ??_C@_0DI@PJONGPDL@The?5nineth?5argument?5to?5firhh?5mus@ 10013b24     libffgen:useasm.obj
 0001:00012b5c       ??_C@_0DG@KGIDPMLA@The?5range?5of?5the?5eighth?5argument@ 10013b5c     libffgen:useasm.obj
 0001:00012b94       ??_C@_0DI@LLOOLALL@The?5eighth?5argument?5to?5firhh?5mus@ 10013b94     libffgen:useasm.obj
 0001:00012bcc       ??_C@_0DO@EEFEJEHK@The?5seventh?5argument?5to?5firhh?5mu@ 10013bcc     libffgen:useasm.obj
 0001:00012c0c       ??_C@_0DL@OHNCDOMJ@The?5sixth?5argument?5to?5firhh?5must@ 10013c0c     libffgen:useasm.obj
 0001:00012c48       ??_C@_0DD@MDIEJBGI@No?5flags?5are?5valid?5for?5the?5fifth@ 10013c48     libffgen:useasm.obj
 0001:00012c7c       ??_C@_0CM@DLIOMDAE@The?5fifth?5argument?5to?5firhh?5isn?8@ 10013c7c     libffgen:useasm.obj
 0001:00012ca8       ??_C@_0DO@NGNIOBOG@The?5fifth?5argument?5to?5firhh?5must@ 10013ca8     libffgen:useasm.obj
 0001:00012ce8       ??_C@_0IA@FCFJDLLG@The?5register?5bank?5for?5firhh?5sour@ 10013ce8     libffgen:useasm.obj
 0001:00012d68       ??_C@_0EH@HPAOOKCK@The?5register?5banks?5for?5source?50?5@ 10013d68     libffgen:useasm.obj
 0001:00012db0       ??_C@_0CE@BFKJCNOD@Maximum?5repeat?5count?5on?5firhh?5is@ 10013db0     libffgen:useasm.obj
 0001:00012dd4       ??_C@_0CI@CPDCNICP@firhh?5isn?8t?5available?5on?5this?5pr@ 10013dd4     libffgen:useasm.obj
 0001:00012dfc       ??_C@_0DC@OJMFLOPA@A?5repeat?5count?5isn?8t?5supported?5o@ 10013dfc     libffgen:useasm.obj
 0001:00012e30       ??_C@_0DJ@PFEOBFIJ@Valid?5values?5for?5argument?5?$CFd?5to?5@ 10013e30     libffgen:useasm.obj
 0001:00012e6c       ??_C@_0DK@PJMBECMK@On?5this?5core?5SMP?5result?5format?5c@ 10013e6c     libffgen:useasm.obj
 0001:00012ea8       ??_C@_0CL@ONLJAILI@The?5maximum?5number?5of?5a?5drc?5regi@ 10013ea8     libffgen:useasm.obj
 0001:00012ed4       ??_C@_0DJ@KMKOLKOO@No?5flags?5are?5valid?5for?5a?5depende@ 10013ed4     libffgen:useasm.obj
 0001:00012f10       ??_C@_0EE@BEFGELHF@A?5dependent?5read?5counter?5registe@ 10013f10     libffgen:useasm.obj
 0001:00012f58       ??_C@_0FI@CPMJEANO@The?5fourth?5argument?5to?5a?5sampler@ 10013f58     libffgen:useasm.obj
 0001:00012fb0       ??_C@_0FD@LADDBKEH@The?5destination?5for?5a?5SMP?5must?5b@ 10013fb0     libffgen:useasm.obj
 0001:00013004       ??_C@_0CM@KHPAMMAK@The?5destination?5for?5an?5SMP?5can?8t@ 10014004     libffgen:useasm.obj
 0001:00013030       ??_C@_0DC@EEBJMIBO@A?5?$CFs?5instruction?5can?8t?5be?5predic@ 10014030     libffgen:useasm.obj
 0001:00013064       ??_C@_0DC@DNHACGFH@?4fcfill?5and?5?4bypassl1?5can?8t?5be?5s@ 10014064     libffgen:useasm.obj
 0001:00013098       ??_C@_0DD@BEGMGHDH@?4bpcache?5and?5?4bypassl1?5can?8t?5be?5@ 10014098     libffgen:useasm.obj
 0001:000130cc       ??_C@_0DB@JCFACDNN@?4bpcache?5and?5?4fcfill?5can?8t?5be?5sp@ 100140cc     libffgen:useasm.obj
 0001:00013100       ??_C@_0FD@KGBKPKPH@The?5last?5argument?5to?5a?5load?5inst@ 10014100     libffgen:useasm.obj
 0001:00013154       ??_C@_0CL@NHIEGIGG@The?5destination?5for?5an?5LD?5can?8t?5@ 10014154     libffgen:useasm.obj
 0001:00013180       ??_C@_0FD@DHDGKGAN@The?5destination?5for?5an?5LD?5must?5b@ 10014180     libffgen:useasm.obj
 0001:000131d4       ??_C@_0DD@ECJPHDDF@A?5load?1store?5can?8t?5be?5both?5pre?9?5@ 100141d4     libffgen:useasm.obj
 0001:00013208       ??_C@_0FC@LJJNHLCE@?$CFs?5can?8t?5be?5used?5with?5non?9pre?1po@ 10014208     libffgen:useasm.obj
 0001:00013260       ??_C@_0EN@GCEEDLLB@Pre?1post?9increment?5can?8t?5be?5spec@ 10014260     libffgen:useasm.obj
 0001:000132b0       ??_C@_0ED@IMFMHAAP@Source?51?5can?8t?5be?5immediate?5for?5@ 100142b0     libffgen:useasm.obj
 0001:000132f4       ??_C@_0CA@BFMOGGHL@?$CFs?5isn?8t?5supported?5on?5this?5core?$AA@ 100142f4     libffgen:useasm.obj
 0001:00013314       ??_C@_0CJ@NLADGPEP@The?5argument?5to?5a?5branch?5must?5be@ 10014314     libffgen:useasm.obj
 0001:00013340       ??_C@_0DD@COOIGJEM@Pn?5isn?8t?5a?5valid?5predicate?5for?5b@ 10014340     libffgen:useasm.obj
 0001:00013374       ??_C@_0DI@LKENEFMD@Only?5drc0?5can?5be?5used?5with?5PBE?5d@ 10014374     libffgen:useasm.obj
 0001:000133ac       ??_C@_0BL@DDAKDDCD@Invalid?5data?5path?5selector?$AA@ 100143ac     libffgen:useasm.obj
 0001:000133c8       ??_C@_0CM@EIBHGDCN@No?5flags?5are?5valid?5for?5a?5data?5pa@ 100143c8     libffgen:useasm.obj
 0001:000133f4       ??_C@_0CG@LCIGPPNF@A?5data?5path?5selector?5is?5not?5inde@ 100143f4     libffgen:useasm.obj
 0001:0001341c       ??_C@_0DI@IKADLPJL@The?5second?5argument?5to?5idf?5must?5@ 1001441c     libffgen:useasm.obj
 0001:00013454       ??_C@_0CG@BCCKICBA@The?5maximum?5drc?5register?5number?5@ 10014454     libffgen:useasm.obj
 0001:0001347c       ??_C@_0CG@NKPGJMIA@No?5flags?5are?5valid?5for?5a?5drc?5reg@ 1001447c     libffgen:useasm.obj
 0001:000134a4       ??_C@_0CA@BNCKADBN@A?5drc?5register?5is?5not?5indexable?$AA@ 100144a4     libffgen:useasm.obj
 0001:000134c4       ??_C@_0DB@EIJIPLBA@The?5first?5argument?5to?5idf?5must?5b@ 100144c4     libffgen:useasm.obj
 0001:000134f8       ??_C@_0CL@HOIKEHND@The?5argument?5to?5wdf?5must?5be?5a?5dr@ 100144f8     libffgen:useasm.obj
 0001:00013524       ??_C@_0DI@ECFOFJCH@The?5last?5argument?5to?5an?5emit?5mus@ 10014524     libffgen:useasm.obj
 0001:00013560       ??_C@_0EE@FPKMHEIB@The?5maximum?5immediate?5value?5for?5@ 10014560     libffgen:useasm.obj
 0001:000135a4       ??_C@_0DJ@EENABCEN@The?5first?5argument?5to?5an?5emit?5mu@ 100145a4     libffgen:useasm.obj
 0001:000135e0       ??_C@_0CF@OIPADGLP@?$CFs?5isn?8t?5supported?5on?5this?5proce@ 100145e0     libffgen:useasm.obj
 0001:00013608       ??_C@_0CL@BLKOKIML@No?5flags?5are?5valid?5for?5argument?5@ 10014608     libffgen:useasm.obj
 0001:00013638       ??_C@_0FK@GPIOMEID@Argument?5?$CFd?5to?5smoa?5is?5not?5a?5leg@ 10014638     libffgen:useasm.obj
 0001:00013694       ??_C@_0CM@OICCJGCF@Argument?5?$CFd?5to?5smoa?5must?5be?5an?5a@ 10014694     libffgen:useasm.obj
 0001:000136c0       ??_C@_0CL@BPCDNEHJ@No?5flags?5are?5valid?5for?5argument?5@ 100146c0     libffgen:useasm.obj
 0001:000136ec       ??_C@_0CF@KHLJFLDD@Argument?5?$CFd?5to?5smoa?5can?8t?5be?5ind@ 100146ec     libffgen:useasm.obj
 0001:00013718       ??_C@_0EB@LMPOCDMD@Argument?5?$CFd?5to?5smoa?5is?5out?5of?5ra@ 10014718     libffgen:useasm.obj
 0001:0001375c       ??_C@_0CP@JENPMIGB@Argument?5?$CFd?5to?5smoa?5must?5be?5an?5i@ 1001475c     libffgen:useasm.obj
 0001:00013790       ??_C@_0EI@CHCGIOOA@Loading?5the?5MOE?5state?5from?5regis@ 10014790     libffgen:useasm.obj
 0001:000137d8       ??_C@_0DA@OPFKEKGA@Argument?5?$CFd?5to?5smlsi?5should?5be?5a@ 100147d8     libffgen:useasm.obj
 0001:00013808       ??_C@_0EG@BJPEDDED@Argument?5?$CFd?5to?5smlsi?5is?5out?5of?5r@ 10014808     libffgen:useasm.obj
 0001:00013850       ??_C@_0DA@FCAKILOF@Argument?5?$CFd?5to?5smlsi?5must?5be?5an?5@ 10014850     libffgen:useasm.obj
 0001:00013880       ??_C@_0CM@LFIFLNIO@No?5flags?5are?5valid?5for?5argument?5@ 10014880     libffgen:useasm.obj
 0001:000138ac       ??_C@_0CG@PJFPKLPN@Argument?5?$CFd?5to?5smlsi?5can?8t?5be?5in@ 100148ac     libffgen:useasm.obj
 0001:000138d4       ??_C@_0DP@NNLBIBNI@Argument?5?$CFd?5to?5smlsi?5is?5out?5of?5r@ 100148d4     libffgen:useasm.obj
 0001:00013914       ??_C@_0CL@MJEEEJFH@Argument?5?$CFd?5to?5smlsi?5isn?8t?5a?5val@ 10014914     libffgen:useasm.obj
 0001:00013940       ??_C@_0DM@BDMFEIMC@Argument?5?$CFd?5uses?5component?5selec@ 10014940     libffgen:useasm.obj
 0001:0001397c       ??_C@_0DN@CBDPLAND@Argument?5?$CFd?5to?5smlsi?5must?5be?5an?5@ 1001497c     libffgen:useasm.obj
 0001:000139c0       ??_C@_0EH@PIBJEHLO@Loading?5the?5MOE?5state?5from?5regis@ 100149c0     libffgen:useasm.obj
 0001:00013a08       ??_C@_0CJ@GGNGAINM@No?5flags?5are?5valid?5for?5argument?5@ 10014a08     libffgen:useasm.obj
 0001:00013a34       ??_C@_0CD@DAICKOIL@Argument?5?$CFd?5to?5?$CFs?5can?8t?5be?5index@ 10014a34     libffgen:useasm.obj
 0001:00013a58       ??_C@_0DL@DAGJDBAJ@Argument?5?$CFd?5to?5?$CFs?5is?5out?5of?5rang@ 10014a58     libffgen:useasm.obj
 0001:00013a94       ??_C@_0DN@OPLIFLFN@Argument?5?$CFd?5to?5imo?5is?5out?5of?5ran@ 10014a94     libffgen:useasm.obj
 0001:00013ad4       ??_C@_0DH@LBKJPHME@Argument?5?$CFd?5to?5smr?1smbo?1imo?5must@ 10014ad4     libffgen:useasm.obj
 0001:00013b10       ??_C@_0EC@LGDHIHKO@Loading?5the?5MOE?5state?5from?5regis@ 10014b10     libffgen:useasm.obj
 0001:00013b54       ??_C@_03PKDHGMJG@smr?$AA@  10014b54     libffgen:useasm.obj
 0001:00013b58       ??_C@_04OHNFNFAF@smbo?$AA@ 10014b58     libffgen:useasm.obj
 0001:00013b60       ??_C@_03DKPPLHHB@imo?$AA@  10014b60     libffgen:useasm.obj
 0001:00013b64       ??_C@_0CM@PAFKAACO@No?5flags?5are?5valid?5for?5argument?5@ 10014b64     libffgen:useasm.obj
 0001:00013b90       ??_C@_0CG@JIFDPGCJ@Argument?5?$CFd?5to?5setfc?5can?8t?5be?5in@ 10014b90     libffgen:useasm.obj
 0001:00013bb8       ??_C@_0DA@FIKLGADO@Argument?5?$CFd?5to?5setfc?5is?5must?5be?5@ 10014bb8     libffgen:useasm.obj
 0001:00013be8       ??_C@_0DA@PNIDFAOJ@Argument?5?$CFd?5to?5setfc?5must?5be?5an?5@ 10014be8     libffgen:useasm.obj
 0001:00013c18       ??_C@_0DC@IGFMAGID@Only?5?$CFd?5mutex?$CIes?$CJ?5are?5supported?5@ 10014c18     libffgen:useasm.obj
 0001:00013c4c       ??_C@_0CE@FKFABDHJ@An?5immediate?5value?5can?8t?5be?5inde@ 10014c4c     libffgen:useasm.obj
 0001:00013c70       ??_C@_0CK@FKJKMHCB@No?5flags?5are?5valid?5for?5the?5argum@ 10014c70     libffgen:useasm.obj
 0001:00013c9c       ??_C@_0CI@GKLFIIMC@The?5argument?5to?5?$CFs?5must?5be?5an?5im@ 10014c9c     libffgen:useasm.obj
 0001:00013cc8       ??_C@_0EI@IMBJAMEN@The?5maximum?5immediate?5value?5for?5@ 10014cc8     libffgen:useasm.obj
 0001:00013d10       ??_C@_0DB@KGKPELKC@The?5third?5argument?5to?5ldr?5must?5b@ 10014d10     libffgen:useasm.obj
 0001:00013d48       ??_C@_0EP@HFAIINHO@The?5destination?5for?5ldr?5must?5be?5@ 10014d48     libffgen:useasm.obj
 0001:00013d98       ??_C@_0CJ@PBDIHBBP@The?5destination?5for?5ldr?5can?8t?5be@ 10014d98     libffgen:useasm.obj
 0001:00013dc4       ??_C@_0DP@EOJFCBDD@The?5seventh?5argument?5to?5atst8?5mu@ 10014dc4     libffgen:useasm.obj
 0001:00013e04       ??_C@_0DC@GPFGCALA@An?5integer?5source?5selector?5value@ 10014e04     libffgen:useasm.obj
 0001:00013e38       ??_C@_0DM@KLBODCDM@The?5sixth?5argument?5to?5atst8?5must@ 10014e38     libffgen:useasm.obj
 0001:00013e78       ??_C@_0EF@HHNKPNHB@No?5flags?5except?5disable?5writebac@ 10014e78     libffgen:useasm.obj
 0001:00013ec0       ??_C@_0CG@EAILMAJF@A?5predicate?5register?5is?5not?5inde@ 10014ec0     libffgen:useasm.obj
 0001:00013ee8       ??_C@_0DP@IJEBNLPN@The?5destination?5argument?5to?5atst@ 10014ee8     libffgen:useasm.obj
 0001:00013f28       ??_C@_0DJ@CANNFGLC@The?5fifth?5argument?5to?5depthf?5mus@ 10014f28     libffgen:useasm.obj
 0001:00013f64       ??_C@_0DO@JJIFGFHO@The?5fourth?5argument?5to?5depthf?5mu@ 10014f64     libffgen:useasm.obj
 0001:00013fa4       ??_C@_0DG@DJLDOPBE@The?5maximum?5monitor?5supported?5on@ 10014fa4     libffgen:useasm.obj
 0001:00013fdc       ??_C@_0CM@EANNIMNI@Monitors?5aren?8t?5supported?5on?5thi@ 10014fdc     libffgen:useasm.obj
 0001:00014008       ??_C@_0DA@NGKNOLIJ@The?5argument?5to?5setm?5must?5be?5an?5@ 10015008     libffgen:useasm.obj
 0001:00014038       ??_C@_0CK@FLEIDBJB@The?5maximum?5immediate?5value?5for?5@ 10015038     libffgen:useasm.obj
 0001:00014064       ??_C@_0CP@KDAJINNH@The?5argument?5to?5wop?5must?5be?5an?5i@ 10015064     libffgen:useasm.obj
 0001:00014094       ??_C@_0BE@CMNIOOMH@Unknown?5instruction?$AA@ 10015094     libffgen:useasm.obj
 0001:000140a8       ??_C@_0BN@FNBEMNH@?$CFs?5should?5have?5been?5coissued?$AA@ 100150a8     libffgen:useasm.obj
 0001:000140c8       ??_C@_0BI@KBNBGPKO@Label?5?$CFs?5is?5not?5defined?$AA@ 100150c8     libffgen:useasm.obj
 0001:000140e0       ??_C@_07KHFILGPJ@isubu32?$AA@ 100150e0     libffgen:usetab.obj
 0001:000140e8       ??_C@_06JKELAJFH@isub32?$AA@ 100150e8     libffgen:usetab.obj
 0001:000140f0       ??_C@_05NCHGGDHJ@sprvv?$AA@ 100150f0     libffgen:usetab.obj
 0001:000140f8       ??_C@_06HFBPFKMP@idxscw?$AA@ 100150f8     libffgen:usetab.obj
 0001:00014100       ??_C@_06IGIKOIK@idxscr?$AA@ 10015100     libffgen:usetab.obj
 0001:00014108       ??_C@_0L@JLOMIJPI@vpckc10c10?$AA@ 10015108     libffgen:usetab.obj
 0001:00014114       ??_C@_0L@JNIAMPCG@vpckc10f32?$AA@ 10015114     libffgen:usetab.obj
 0001:00014120       ??_C@_0L@PKGINOEM@vpckc10f16?$AA@ 10015120     libffgen:usetab.obj
 0001:0001412c       ??_C@_0L@PONMFEDE@vpckf32c10?$AA@ 1001512c     libffgen:usetab.obj
 0001:00014138       ??_C@_0L@PILABCOK@vpckf32f32?$AA@ 10015138     libffgen:usetab.obj
 0001:00014144       ??_C@_0L@JPFIADIA@vpckf32f16?$AA@ 10015144     libffgen:usetab.obj
 0001:00014150       ??_C@_0L@PIJPKECN@vpckf32s16?$AA@ 10015150     libffgen:usetab.obj
 0001:0001415c       ??_C@_0L@NNPEPLPB@vpckf32u16?$AA@ 1001515c     libffgen:usetab.obj
 0001:00014168       ??_C@_09PGEODABJ@vpckf32o8?$AA@ 10015168     libffgen:usetab.obj
 0001:00014174       ??_C@_09ODHCGKAN@vpckf32s8?$AA@ 10015174     libffgen:usetab.obj
 0001:00014180       ??_C@_09OHPPBGLP@vpckf32u8?$AA@ 10015180     libffgen:usetab.obj
 0001:0001418c       ??_C@_0L@EGJEFDPP@vpckf16c10?$AA@ 1001518c     libffgen:usetab.obj
 0001:00014198       ??_C@_0L@EAPIBFCB@vpckf16f32?$AA@ 10015198     libffgen:usetab.obj
 0001:000141a4       ??_C@_0L@CHBAAEEL@vpckf16f16?$AA@ 100151a4     libffgen:usetab.obj
 0001:000141b0       ??_C@_0L@EANHKDOG@vpckf16s16?$AA@ 100151b0     libffgen:usetab.obj
 0001:000141bc       ??_C@_0L@GFLMPMDK@vpckf16u16?$AA@ 100151bc     libffgen:usetab.obj
 0001:000141c8       ??_C@_09DOMPECO@vpckf16o8?$AA@ 100151c8     libffgen:usetab.obj
 0001:000141d4       ??_C@_09BGNAKODK@vpckf16s8?$AA@ 100151d4     libffgen:usetab.obj
 0001:000141e0       ??_C@_09BCFNNCII@vpckf16u8?$AA@ 100151e0     libffgen:usetab.obj
 0001:000141ec       ??_C@_0L@HFBOKGEI@vpcks16f32?$AA@ 100151ec     libffgen:usetab.obj
 0001:000141f8       ??_C@_0L@BCPGLHCC@vpcks16f16?$AA@ 100151f8     libffgen:usetab.obj
 0001:00014204       ??_C@_0L@HFDBBAIP@vpcks16s16?$AA@ 10015204     libffgen:usetab.obj
 0001:00014210       ??_C@_0L@FAFKEPFD@vpcks16u16?$AA@ 10015210     libffgen:usetab.obj
 0001:0001421c       ??_C@_09FAPHGHAG@vpcks16o8?$AA@ 1001521c     libffgen:usetab.obj
 0001:00014228       ??_C@_09EFMLDNBC@vpcks16s8?$AA@ 10015228     libffgen:usetab.obj
 0001:00014234       ??_C@_09EBEGEBKA@vpcks16u8?$AA@ 10015234     libffgen:usetab.obj
 0001:00014240       ??_C@_0L@BGMOJDHC@vpcku16f32?$AA@ 10015240     libffgen:usetab.obj
 0001:0001424c       ??_C@_0L@HBCGICBI@vpcku16f16?$AA@ 1001524c     libffgen:usetab.obj
 0001:00014258       ??_C@_0L@BGOBCFLF@vpcku16s16?$AA@ 10015258     libffgen:usetab.obj
 0001:00014264       ??_C@_0L@DDIKHKGJ@vpcku16u16?$AA@ 10015264     libffgen:usetab.obj
 0001:00014270       ??_C@_09IGKOIEBL@vpcku16o8?$AA@ 10015270     libffgen:usetab.obj
 0001:0001427c       ??_C@_09JDJCNOAP@vpcku16s8?$AA@ 1001527c     libffgen:usetab.obj
 0001:00014288       ??_C@_09JHBPKCLN@vpcku16u8?$AA@ 10015288     libffgen:usetab.obj
 0001:00014294       ??_C@_09HNLHPHGL@vpcko8f32?$AA@ 10015294     libffgen:usetab.obj
 0001:000142a0       ??_C@_09BKFPOGAB@vpcko8f16?$AA@ 100152a0     libffgen:usetab.obj
 0001:000142ac       ??_C@_09HNJIEBKM@vpcko8s16?$AA@ 100152ac     libffgen:usetab.obj
 0001:000142b8       ??_C@_09FIPDBOHA@vpcko8u16?$AA@ 100152b8     libffgen:usetab.obj
 0001:000142c4       ??_C@_08JEJLGJEL@vpcko8o8?$AA@ 100152c4     libffgen:usetab.obj
 0001:000142d0       ??_C@_08IBKHDDFP@vpcko8s8?$AA@ 100152d0     libffgen:usetab.obj
 0001:000142dc       ??_C@_08IFCKEPON@vpcko8u8?$AA@ 100152dc     libffgen:usetab.obj
 0001:000142e8       ??_C@_09JKDDFIL@vpcks8f32?$AA@ 100152e8     libffgen:usetab.obj
 0001:000142f4       ??_C@_09GOELCEOB@vpcks8f16?$AA@ 100152f4     libffgen:usetab.obj
 0001:00014300       ??_C@_09JIMIDEM@vpcks8s16?$AA@ 10015300     libffgen:usetab.obj
 0001:0001430c       ??_C@_09CMOHNMJA@vpcks8u16?$AA@ 1001530c     libffgen:usetab.obj
 0001:00014318       ??_C@_08DBILBDMI@vpcks8o8?$AA@ 10015318     libffgen:usetab.obj
 0001:00014324       ??_C@_08CELHEJNM@vpcks8s8?$AA@ 10015324     libffgen:usetab.obj
 0001:00014330       ??_C@_08CADKDFGO@vpcks8u8?$AA@ 10015330     libffgen:usetab.obj
 0001:0001433c       ??_C@_09NPPKNGJG@vpcku8f32?$AA@ 1001533c     libffgen:usetab.obj
 0001:00014348       ??_C@_09LIBCMHPM@vpcku8f16?$AA@ 10015348     libffgen:usetab.obj
 0001:00014354       ??_C@_09NPNFGAFB@vpcku8s16?$AA@ 10015354     libffgen:usetab.obj
 0001:00014360       ??_C@_09PKLODPIN@vpcku8u16?$AA@ 10015360     libffgen:usetab.obj
 0001:0001436c       ??_C@_08LOMLOGGI@vpcku8o8?$AA@ 1001536c     libffgen:usetab.obj
 0001:00014378       ??_C@_08KLPHLMHM@vpcku8s8?$AA@ 10015378     libffgen:usetab.obj
 0001:00014384       ??_C@_08KPHKMAMO@vpcku8u8?$AA@ 10015384     libffgen:usetab.obj
 0001:00014390       ??_C@_04DGGKFKKC@vexp?$AA@ 10015390     libffgen:usetab.obj
 0001:00014398       ??_C@_04FHIICEEL@vlog?$AA@ 10015398     libffgen:usetab.obj
 0001:000143a0       ??_C@_04OOOKOLCE@vrsq?$AA@ 100153a0     libffgen:usetab.obj
 0001:000143a8       ??_C@_04OLNHHJBF@vrcp?$AA@ 100153a8     libffgen:usetab.obj
 0001:000143b0       ??_C@_07IFLIPEJM@vf16sub?$AA@ 100153b0     libffgen:usetab.obj
 0001:000143b8       ??_C@_06BKGGAFJG@vf16dp?$AA@ 100153b8     libffgen:usetab.obj
 0001:000143c0       ??_C@_07JOHMCFEH@vf16max?$AA@ 100153c0     libffgen:usetab.obj
 0001:000143c8       ??_C@_07IMPHMBCI@vf16min?$AA@ 100153c8     libffgen:usetab.obj
 0001:000143d0       ??_C@_07OFMNCMJC@vf16dsy?$AA@ 100153d0     libffgen:usetab.obj
 0001:000143d8       ??_C@_07PMNGBNND@vf16dsx?$AA@ 100153d8     libffgen:usetab.obj
 0001:000143e0       ??_C@_07POCLHEPF@vf16frc?$AA@ 100153e0     libffgen:usetab.obj
 0001:000143e8       ??_C@_07DEBGAFEJ@vf16add?$AA@ 100153e8     libffgen:usetab.obj
 0001:000143f0       ??_C@_07KLPNPJLO@vf16mul?$AA@ 100153f0     libffgen:usetab.obj
 0001:000143f8       ??_C@_07HIALHIBK@vf16mad?$AA@ 100153f8     libffgen:usetab.obj
 0001:00014400       ??_C@_04DDDELBGB@vsub?$AA@ 10015400     libffgen:usetab.obj
 0001:00014408       ??_C@_03PAAOMFKJ@vdp?$AA@  10015408     libffgen:usetab.obj
 0001:0001440c       ??_C@_04FDEBGJGP@vdsy?$AA@ 1001540c     libffgen:usetab.obj
 0001:00014414       ??_C@_04EKFKFICO@vdsx?$AA@ 10015414     libffgen:usetab.obj
 0001:0001441c       ??_C@_04CIPAGALK@vmax?$AA@ 1001541c     libffgen:usetab.obj
 0001:00014424       ??_C@_04DKHLIENF@vmin?$AA@ 10015424     libffgen:usetab.obj
 0001:0001442c       ??_C@_04EIKHDBAI@vfrc?$AA@ 1001542c     libffgen:usetab.obj
 0001:00014434       ??_C@_04ICJKEALE@vadd?$AA@ 10015434     libffgen:usetab.obj
 0001:0001443c       ??_C@_04BNHBLMED@vmul?$AA@ 1001543c     libffgen:usetab.obj
 0001:00014444       ??_C@_04MOIHDNOH@vmad?$AA@ 10015444     libffgen:usetab.obj
 0001:0001444c       ??_C@_07PJIFHDOJ@vmovcu8?$AA@ 1001544c     libffgen:usetab.obj
 0001:00014454       ??_C@_05IPANMIKP@vmovc?$AA@ 10015454     libffgen:usetab.obj
 0001:0001445c       ??_C@_04LMONGADO@vmov?$AA@ 1001545c     libffgen:usetab.obj
 0001:00014464       ??_C@_05HKPHADDM@vmov4?$AA@ 10015464     libffgen:usetab.obj
 0001:0001446c       ??_C@_05DFLGJFPL@vmov3?$AA@ 1001546c     libffgen:usetab.obj
 0001:00014474       ??_C@_05LKKHNEHN@vssq4?$AA@ 10015474     libffgen:usetab.obj
 0001:0001447c       ??_C@_05PFOGECLK@vssq3?$AA@ 1001547c     libffgen:usetab.obj
 0001:00014484       ??_C@_05IBKMJGII@vsub4?$AA@ 10015484     libffgen:usetab.obj
 0001:0001448c       ??_C@_05MOONAAEP@vsub3?$AA@ 1001548c     libffgen:usetab.obj
 0001:00014494       ??_C@_05HHKEBOCC@vadd4?$AA@ 10015494     libffgen:usetab.obj
 0001:0001449c       ??_C@_05DIOFIIOF@vadd3?$AA@ 1001549c     libffgen:usetab.obj
 0001:000144a4       ??_C@_05FEOCJCGB@vmul4?$AA@ 100154a4     libffgen:usetab.obj
 0001:000144ac       ??_C@_05BLKDAEKG@vmul3?$AA@ 100154ac     libffgen:usetab.obj
 0001:000144b4       ??_C@_05IFIKADBB@vmad4?$AA@ 100154b4     libffgen:usetab.obj
 0001:000144bc       ??_C@_05MKMLJFNG@vmad3?$AA@ 100154bc     libffgen:usetab.obj
 0001:000144c4       ??_C@_04BENAOGHO@vdp4?$AA@ 100154c4     libffgen:usetab.obj
 0001:000144cc       ??_C@_04FLJBHALJ@vdp3?$AA@ 100154cc     libffgen:usetab.obj
 0001:000144d4       ??_C@_09NODGMHNE@emitvcbst?$AA@ 100154d4     libffgen:usetab.obj
 0001:000144e0       ??_C@_0L@FBFICDMG@emitvcbvtx?$AA@ 100154e0     libffgen:usetab.obj
 0001:000144ec       ??_C@_09PIDAEGKH@emitmtest?$AA@ 100154ec     libffgen:usetab.obj
 0001:000144f8       ??_C@_0L@JIHCAFMB@emitmtevtx?$AA@ 100154f8     libffgen:usetab.obj
 0001:00014504       ??_C@_03PENBPHC@cfi?$AA@   10015504     libffgen:usetab.obj
 0001:00014508       ??_C@_02POBAIDHK@ci?$AA@   10015508     libffgen:usetab.obj
 0001:0001450c       ??_C@_02HJIIJPLF@cf?$AA@   1001550c     libffgen:usetab.obj
 0001:00014510       ??_C@_05PACJMPIO@moest?$AA@ 10015510     libffgen:usetab.obj
 0001:00014518       ??_C@_06FOOALFNH@fnrm16?$AA@ 10015518     libffgen:usetab.obj
 0001:00014520       ??_C@_06DJAIKELN@fnrm32?$AA@ 10015520     libffgen:usetab.obj
 0001:00014528       ??_C@_06KNGBBCNH@sablnd?$AA@ 10015528     libffgen:usetab.obj
 0001:00014530       ??_C@_06DPIIDNJL@fpsub8?$AA@ 10015530     libffgen:usetab.obj
 0001:00014538       ??_C@_06MJIALFDB@fpadd8?$AA@ 10015538     libffgen:usetab.obj
 0001:00014540       ??_C@_06OKMGDJHC@fpmul8?$AA@ 10015540     libffgen:usetab.obj
 0001:00014548       ??_C@_06BELDBAKP@isubu8?$AA@ 10015548     libffgen:usetab.obj
 0001:00014550       ??_C@_06CCEGFCNB@iaddu8?$AA@ 10015550     libffgen:usetab.obj
 0001:00014558       ??_C@_04HIHJCIAG@fpma?$AA@ 10015558     libffgen:usetab.obj
 0001:00014560       ??_C@_06BODAOOPP@movmsk?$AA@ 10015560     libffgen:usetab.obj
 0001:00014568       ??_C@_04CFJGHAMN@movc?$AA@ 10015568     libffgen:usetab.obj
 0001:00014570       ??_C@_07BANDBPIA@iaddu32?$AA@ 10015570     libffgen:usetab.obj
 0001:00014578       ??_C@_06DBFEDEDN@imov16?$AA@ 10015578     libffgen:usetab.obj
 0001:00014580       ??_C@_06MNLAAEHH@imulu8?$AA@ 10015580     libffgen:usetab.obj
 0001:00014588       ??_C@_05KNHGNCD@imul8?$AA@ 10015588     libffgen:usetab.obj
 0001:00014590       ??_C@_05NPJJGJMK@isub8?$AA@ 10015590     libffgen:usetab.obj
 0001:00014598       ??_C@_05CJJBOBGA@iadd8?$AA@ 10015598     libffgen:usetab.obj
 0001:000145a0       ??_C@_06KMLOELCJ@iadd32?$AA@ 100155a0     libffgen:usetab.obj
 0001:000145a8       ??_C@_07EIGBPOGB@imulu16?$AA@ 100155a8     libffgen:usetab.obj
 0001:000145b0       ??_C@_07MALAKHJD@isubu16?$AA@ 100155b0     libffgen:usetab.obj
 0001:000145b8       ??_C@_07HHDLAOOK@iaddu16?$AA@ 100155b8     libffgen:usetab.obj
 0001:000145c0       ??_C@_06CEKAAMOF@imul16?$AA@ 100155c0     libffgen:usetab.obj
 0001:000145c8       ??_C@_06PNKDBIDN@isub16?$AA@ 100155c8     libffgen:usetab.obj
 0001:000145d0       ??_C@_06MLFGFKED@iadd16?$AA@ 100155d0     libffgen:usetab.obj
 0001:000145d8       ??_C@_05OJCDMDMI@asop2?$AA@ 100155d8     libffgen:usetab.obj
 0001:000145e0       ??_C@_04BNKIMGJI@lrp2?$AA@ 100155e0     libffgen:usetab.obj
 0001:000145e8       ??_C@_04DGIFJFFL@lrp1?$AA@ 100155e8     libffgen:usetab.obj
 0001:000145f0       ??_C@_04JEDFNLGM@alrp?$AA@ 100155f0     libffgen:usetab.obj
 0001:000145f8       ??_C@_05BLLJMLJF@arsop?$AA@ 100155f8     libffgen:usetab.obj
 0001:00014600       ??_C@_04IILBKMIG@asop?$AA@ 10015600     libffgen:usetab.obj
 0001:00014608       ??_C@_04OBPEPKPD@asub?$AA@ 10015608     libffgen:usetab.obj
 0001:00014610       ??_C@_04FAFKALCG@aadd?$AA@ 10015610     libffgen:usetab.obj
 0001:00014618       ??_C@_07NOKJPFJG@aintrp2?$AA@ 10015618     libffgen:usetab.obj
 0001:00014620       ??_C@_07PFIEKGFF@aintrp1?$AA@ 10015620     libffgen:usetab.obj
 0001:00014628       ??_C@_04HDJKLMOD@phas?$AA@ 10015628     libffgen:usetab.obj
 0001:00014630       ??_C@_04IPMEAKK@setm?$AA@  10015630     libffgen:usetab.obj
 0001:00014638       ??_C@_03EEOHENCN@wop?$AA@  10015638     libffgen:usetab.obj
 0001:0001463c       ??_C@_06CNLPFHCD@depthf?$AA@ 1001563c     libffgen:usetab.obj
 0001:00014644       ??_C@_05LMCKLHKJ@atst8?$AA@ 10015644     libffgen:usetab.obj
 0001:0001464c       ??_C@_05FFPFIJHE@ptoff?$AA@ 1001564c     libffgen:usetab.obj
 0001:00014654       ??_C@_06GIPMBBEA@pcoeff?$AA@ 10015654     libffgen:usetab.obj
 0001:0001465c       ??_C@_03OJMAPEGJ@str?$AA@  1001565c     libffgen:usetab.obj
 0001:00014660       ??_C@_03PNJMBANA@ldr?$AA@  10015660     libffgen:usetab.obj
 0001:00014664       ??_C@_07KLENHKKM@fsubflr?$AA@ 10015664     libffgen:usetab.obj
 0001:0001466c       ??_C@_07EOGFDLKI@release?$AA@ 1001566c     libffgen:usetab.obj
 0001:00014674       ??_C@_04MKMCLCOO@lock?$AA@ 10015674     libffgen:usetab.obj
 0001:0001467c       ??_C@_06OPKGODIN@fddpc4?$AA@ 1001567c     libffgen:usetab.obj
 0001:00014684       ??_C@_06KAOHHFEK@fddpc3?$AA@ 10015684     libffgen:usetab.obj
 0001:0001468c       ??_C@_05FCEHFDPG@fddpc?$AA@ 1001568c     libffgen:usetab.obj
 0001:00014694       ??_C@_05KHLNJIGF@fddp4?$AA@ 10015694     libffgen:usetab.obj
 0001:0001469c       ??_C@_05OIPMAOKC@fddp3?$AA@ 1001569c     libffgen:usetab.obj
 0001:000146a4       ??_C@_04PLAKPAFB@fddp?$AA@ 100156a4     libffgen:usetab.obj
 0001:000146ac       ??_C@_05GGKGEFIE@fdpc4?$AA@ 100156ac     libffgen:usetab.obj
 0001:000146b4       ??_C@_05CJOHNDED@fdpc3?$AA@ 100156b4     libffgen:usetab.obj
 0001:000146bc       ??_C@_04IBMKLKGP@fdpc?$AA@ 100156bc     libffgen:usetab.obj
 0001:000146c4       ??_C@_04HEDAHBPM@fdp4?$AA@ 100156c4     libffgen:usetab.obj
 0001:000146cc       ??_C@_04DLHBOHDL@fdp3?$AA@ 100156cc     libffgen:usetab.obj
 0001:000146d4       ??_C@_05HEIOGBDD@setfc?$AA@ 100156d4     libffgen:usetab.obj
 0001:000146dc       ??_C@_05DBFBNMJD@smlsi?$AA@ 100156dc     libffgen:usetab.obj
 0001:000146e4       ??_C@_04HBIOGLNI@smoa?$AA@ 100156e4     libffgen:usetab.obj
 0001:000146ec       ??_C@_06EOEAAGLO@u16tnz?$AA@ 100156ec     libffgen:usetab.obj
 0001:000146f4       ??_C@_05NKPLKFJF@u16tz?$AA@ 100156f4     libffgen:usetab.obj
 0001:000146fc       ??_C@_04FMGLMKJC@ftnz?$AA@ 100156fc     libffgen:usetab.obj
 0001:00014704       ??_C@_03EGNONJMM@ftz?$AA@  10015704     libffgen:usetab.obj
 0001:00014708       ??_C@_03GJPGFFDI@nop?$AA@  10015708     libffgen:usetab.obj
 0001:0001470c       ??_C@_03FGBGECCC@dma?$AA@  1001570c     libffgen:usetab.obj
 0001:00014710       ??_C@_03ODCMFNNH@sms?$AA@  10015710     libffgen:usetab.obj
 0001:00014714       ??_C@_03BJDMMCMD@ams?$AA@  10015714     libffgen:usetab.obj
 0001:00014718       ??_C@_03DHGNGCAI@smm?$AA@  10015718     libffgen:usetab.obj
 0001:0001471c       ??_C@_03MNHNPNBM@amm?$AA@  1001571c     libffgen:usetab.obj
 0001:00014720       ??_C@_03JEAJBGIL@sda?$AA@  10015720     libffgen:usetab.obj
 0001:00014724       ??_C@_03DILMFJIH@sdm?$AA@  10015724     libffgen:usetab.obj
 0001:00014728       ??_C@_07KLCMLLPD@setpneq?$AA@ 10015728     libffgen:usetab.obj
 0001:00014730       ??_C@_07DCGPGNGK@setplte?$AA@ 10015730     libffgen:usetab.obj
 0001:00014738       ??_C@_06IKNJBMPL@setplt?$AA@ 10015738     libffgen:usetab.obj
 0001:00014740       ??_C@_06PIHPNDDB@setpeq?$AA@ 10015740     libffgen:usetab.obj
 0001:00014748       ??_C@_07OFGOOKGL@setpgte?$AA@ 10015748     libffgen:usetab.obj
 0001:00014750       ??_C@_06IGIMPDBK@setpgt?$AA@ 10015750     libffgen:usetab.obj
 0001:00014758       ??_C@_04FDNECGOD@fsub?$AA@ 10015758     libffgen:usetab.obj
 0001:00014760       ??_C@_04DGLGBLMD@fssq?$AA@ 10015760     libffgen:usetab.obj
 0001:00014768       ??_C@_04OCHKNHDG@fadd?$AA@ 10015768     libffgen:usetab.obj
 0001:00014770       ??_C@_04HNJBCLMB@fmul?$AA@ 10015770     libffgen:usetab.obj
 0001:00014778       ??_C@_04NMANPHLM@fmov?$AA@ 10015778     libffgen:usetab.obj
 0001:00014780       ??_C@_03CNBJFNFA@mov?$AA@  10015780     libffgen:usetab.obj
 0001:00014784       ??_C@_07OLONFCKE@emitpds?$AA@ 10015784     libffgen:usetab.obj
 0001:0001478c       ??_C@_0O@LEENHJNO@emitprimitive?$AA@ 1001578c     libffgen:usetab.obj
 0001:0001479c       ??_C@_07DBFEHHMD@emitvtx?$AA@ 1001579c     libffgen:usetab.obj
 0001:000147a4       ??_C@_06GCOMBHEL@emitst?$AA@ 100157a4     libffgen:usetab.obj
 0001:000147ac       ??_C@_07MBBIDM@emitpix?$AA@ 100157ac     libffgen:usetab.obj
 0001:000147b4       ??_C@_08MCBPOJOO@emitpix2?$AA@ 100157b4     libffgen:usetab.obj
 0001:000147c0       ??_C@_08OJDCLKCN@emitpix1?$AA@ 100157c0     libffgen:usetab.obj
 0001:000147cc       ??_C@_04LDGNGHLO@limm?$AA@ 100157cc     libffgen:usetab.obj
 0001:000147d4       ??_C@_03FECKBHBL@wdf?$AA@  100157d4     libffgen:usetab.obj
 0001:000147d8       ??_C@_03OEOMDHLH@idf?$AA@  100157d8     libffgen:usetab.obj
 0001:000147dc       ??_C@_0L@JODEDCHK@bexception?$AA@ 100157dc     libffgen:usetab.obj
 0001:000147e8       ??_C@_04PMKEFCPM@lapc?$AA@ 100157e8     libffgen:usetab.obj
 0001:000147f0       ??_C@_02FGOECCNH@br?$AA@   100157f0     libffgen:usetab.obj
 0001:000147f4       ??_C@_02DHALGDEF@ba?$AA@   100157f4     libffgen:usetab.obj
 0001:000147f8       ??_C@_04GAAFJDCP@eldq?$AA@ 100157f8     libffgen:usetab.obj
 0001:00014800       ??_C@_04FHLAHFDL@eldd?$AA@ 10015800     libffgen:usetab.obj
 0001:00014808       ??_C@_04GCOCNAN@sttq?$AA@  10015808     libffgen:usetab.obj
 0001:00014810       ??_C@_04DBJLMLBJ@sttd?$AA@ 10015810     libffgen:usetab.obj
 0001:00014818       ??_C@_04FAHEIKIL@sttw?$AA@ 10015818     libffgen:usetab.obj
 0001:00014820       ??_C@_04GHMBGMJP@sttb?$AA@ 10015820     libffgen:usetab.obj
 0001:00014828       ??_C@_04LEIHHKMB@ldtq?$AA@ 10015828     libffgen:usetab.obj
 0001:00014830       ??_C@_04IDDCJMNF@ldtd?$AA@ 10015830     libffgen:usetab.obj
 0001:00014838       ??_C@_04OCNNNNEH@ldtw?$AA@ 10015838     libffgen:usetab.obj
 0001:00014840       ??_C@_04NFGIDLFD@ldtb?$AA@ 10015840     libffgen:usetab.obj
 0001:00014848       ??_C@_04BEBLNPMF@stlq?$AA@ 10015848     libffgen:usetab.obj
 0001:00014850       ??_C@_04CDKODJNB@stld?$AA@ 10015850     libffgen:usetab.obj
 0001:00014858       ??_C@_04ECEBHIED@stlw?$AA@ 10015858     libffgen:usetab.obj
 0001:00014860       ??_C@_04HFPEJOFH@stlb?$AA@ 10015860     libffgen:usetab.obj
 0001:00014868       ??_C@_04KGLCIIAJ@ldlq?$AA@ 10015868     libffgen:usetab.obj
 0001:00014870       ??_C@_04JBAHGOBN@ldld?$AA@ 10015870     libffgen:usetab.obj
 0001:00014878       ??_C@_04PAOICPIP@ldlw?$AA@ 10015878     libffgen:usetab.obj
 0001:00014880       ??_C@_04MHFNMJJL@ldlb?$AA@ 10015880     libffgen:usetab.obj
 0001:00014888       ??_C@_04BMMDEMJG@staq?$AA@ 10015888     libffgen:usetab.obj
 0001:00014890       ??_C@_04CLHGKKIC@stad?$AA@ 10015890     libffgen:usetab.obj
 0001:00014898       ??_C@_04EKJJOLBA@staw?$AA@ 10015898     libffgen:usetab.obj
 0001:000148a0       ??_C@_04HNCMANAE@stab?$AA@ 100158a0     libffgen:usetab.obj
 0001:000148a8       ??_C@_04KOGKBLFK@ldaq?$AA@ 100158a8     libffgen:usetab.obj
 0001:000148b0       ??_C@_04JJNPPNEO@ldad?$AA@ 100158b0     libffgen:usetab.obj
 0001:000148b8       ??_C@_04PIDALMNM@ldaw?$AA@ 100158b8     libffgen:usetab.obj
 0001:000148c0       ??_C@_04MPIFFKMI@ldab?$AA@ 100158c0     libffgen:usetab.obj
 0001:000148c8       ??_C@_09KIDJGAAM@smp3dgrad?$AA@ 100158c8     libffgen:usetab.obj
 0001:000148d4       ??_C@_09OEOGLLI@smp2dgrad?$AA@ 100158d4     libffgen:usetab.obj
 0001:000148e0       ??_C@_09DPKGHBCF@smp1dgrad?$AA@ 100158e0     libffgen:usetab.obj
 0001:000148ec       ??_C@_0N@IMLLGHGO@smp3dreplace?$AA@ 100158ec     libffgen:usetab.obj
 0001:000148fc       ??_C@_0N@GDHJAMFA@smp2dreplace?$AA@ 100158fc     libffgen:usetab.obj
 0001:0001490c       ??_C@_0N@IIEOLHFD@smp1dreplace?$AA@ 1001590c     libffgen:usetab.obj
 0001:0001491c       ??_C@_09OCECLLHE@smp3dbias?$AA@ 1001591c     libffgen:usetab.obj
 0001:00014928       ??_C@_09EEDFLAMA@smp2dbias?$AA@ 10015928     libffgen:usetab.obj
 0001:00014934       ??_C@_09HFNNKKFN@smp1dbias?$AA@ 10015934     libffgen:usetab.obj
 0001:00014940       ??_C@_05OOKKMHDJ@smp3d?$AA@ 10015940     libffgen:usetab.obj
 0001:00014948       ??_C@_05OPGIKNAO@smp2d?$AA@ 10015948     libffgen:usetab.obj
 0001:00014950       ??_C@_05ONCOBDFH@smp1d?$AA@ 10015950     libffgen:usetab.obj
 0001:00014958       ??_C@_06GGGOMLOL@ssum16?$AA@ 10015958     libffgen:usetab.obj
 0001:00014960       ??_C@_05COGELEAH@firhh?$AA@ 10015960     libffgen:usetab.obj
 0001:00014968       ??_C@_04JDNAGPBH@firh?$AA@ 10015968     libffgen:usetab.obj
 0001:00014970       ??_C@_05FCKLBLAM@bilin?$AA@ 10015970     libffgen:usetab.obj
 0001:00014978       ??_C@_05DINMDKHN@firvh?$AA@ 10015978     libffgen:usetab.obj
 0001:00014980       ??_C@_04EHJBFAMI@firv?$AA@ 10015980     libffgen:usetab.obj
 0001:00014988       ??_C@_07DLAPIEBJ@adifsum?$AA@ 10015988     libffgen:usetab.obj
 0001:00014990       ??_C@_04FNGKAKMF@adif?$AA@ 10015990     libffgen:usetab.obj
 0001:00014998       ??_C@_04CHNIFDFF@idiv?$AA@ 10015998     libffgen:usetab.obj
 0001:000149a0       ??_C@_05EIKDCMOM@ima32?$AA@ 100159a0     libffgen:usetab.obj
 0001:000149a8       ??_C@_04DFCMAMPF@imae?$AA@ 100159a8     libffgen:usetab.obj
 0001:000149b0       ??_C@_05CPELDNIG@ima16?$AA@ 100159b0     libffgen:usetab.obj
 0001:000149b8       ??_C@_04DKDJCPOM@ima8?$AA@ 100159b8     libffgen:usetab.obj
 0001:000149c0       ??_C@_0L@DAOCLPMG@u16dot4off?$AA@ 100159c0     libffgen:usetab.obj
 0001:000149cc       ??_C@_0L@ICMCGDNG@u16dot3off?$AA@ 100159cc     libffgen:usetab.obj
 0001:000149d8       ??_C@_09GIAJOEKF@u8dot4off?$AA@ 100159d8     libffgen:usetab.obj
 0001:000149e4       ??_C@_09NKCJDILF@u8dot3off?$AA@ 100159e4     libffgen:usetab.obj
 0001:000149f0       ??_C@_07EFHPPAJH@u16dot4?$AA@ 100159f0     libffgen:usetab.obj
 0001:000149f8       ??_C@_07KDOGGFA@u16dot3?$AA@ 100159f8     libffgen:usetab.obj
 0001:00014a00       ??_C@_06NDMPFPGO@u8dot4?$AA@ 10015a00     libffgen:usetab.obj
 0001:00014a08       ??_C@_06JMIOMJKJ@u8dot3?$AA@ 10015a08     libffgen:usetab.obj
 0001:00014a10       ??_C@_04EEHAHIMI@sop3?$AA@ 10015a10     libffgen:usetab.obj
 0001:00014a18       ??_C@_06GEKMOMGC@sop2wm?$AA@ 10015a18     libffgen:usetab.obj
 0001:00014a20       ??_C@_04FNGLEJIJ@sop2?$AA@ 10015a20     libffgen:usetab.obj
 0001:00014a28       ??_C@_03HBHPADEG@rlp?$AA@  10015a28     libffgen:usetab.obj
 0001:00014a2c       ??_C@_03JFEOOAEC@rol?$AA@  10015a2c     libffgen:usetab.obj
 0001:00014a30       ??_C@_03BGJPHNPI@asr?$AA@  10015a30     libffgen:usetab.obj
 0001:00014a34       ??_C@_03PMPMKOHN@shr?$AA@  10015a34     libffgen:usetab.obj
 0001:00014a38       ??_C@_03CILNJBKC@shl?$AA@  10015a38     libffgen:usetab.obj
 0001:00014a3c       ??_C@_03COLCDPPJ@xor?$AA@  10015a3c     libffgen:usetab.obj
 0001:00014a40       ??_C@_02FODMLBIE@or?$AA@   10015a40     libffgen:usetab.obj
 0001:00014a44       ??_C@_03BOPJPIAM@and?$AA@  10015a44     libffgen:usetab.obj
 0001:00014a48       ??_C@_0M@CDGCCNBB@unpckc10c10?$AA@ 10015a48     libffgen:usetab.obj
 0001:00014a54       ??_C@_09KNIBBCKD@unpcku8u8?$AA@ 10015a54     libffgen:usetab.obj
 0001:00014a60       ??_C@_0M@MLPMEEHP@unpcks16c10?$AA@ 10015a60     libffgen:usetab.obj
 0001:00014a6c       ??_C@_0L@GDPGIBDB@unpcks16o8?$AA@ 10015a6c     libffgen:usetab.obj
 0001:00014a78       ??_C@_0L@HGMKNLCF@unpcks16s8?$AA@ 10015a78     libffgen:usetab.obj
 0001:00014a84       ??_C@_0L@HCEHKHJH@unpcks16u8?$AA@ 10015a84     libffgen:usetab.obj
 0001:00014a90       ??_C@_0M@MNLPLEGG@unpcks16s16?$AA@ 10015a90     libffgen:usetab.obj
 0001:00014a9c       ??_C@_0M@OINEOLLK@unpcks16u16?$AA@ 10015a9c     libffgen:usetab.obj
 0001:00014aa8       ??_C@_0M@KKHIBDML@unpcks16f16?$AA@ 10015aa8     libffgen:usetab.obj
 0001:00014ab4       ??_C@_0M@KICMHBEF@unpcku16c10?$AA@ 10015ab4     libffgen:usetab.obj
 0001:00014ac0       ??_C@_0L@LFKPGCCM@unpcku16o8?$AA@ 10015ac0     libffgen:usetab.obj
 0001:00014acc       ??_C@_0L@KAJDDIDI@unpcku16s8?$AA@ 10015acc     libffgen:usetab.obj
 0001:00014ad8       ??_C@_0L@KEBOEEIK@unpcku16u8?$AA@ 10015ad8     libffgen:usetab.obj
 0001:00014ae4       ??_C@_0M@KOGPIBFM@unpcku16s16?$AA@ 10015ae4     libffgen:usetab.obj
 0001:00014af0       ??_C@_0M@ILAENOIA@unpcku16u16?$AA@ 10015af0     libffgen:usetab.obj
 0001:00014afc       ??_C@_0M@MJKICGPB@unpcku16f16?$AA@ 10015afc     libffgen:usetab.obj
 0001:00014b08       ??_C@_0M@POBKPHBG@unpckf16c10?$AA@ 10015b08     libffgen:usetab.obj
 0001:00014b14       ??_C@_0L@DAONBCBJ@unpckf16o8?$AA@ 10015b14     libffgen:usetab.obj
 0001:00014b20       ??_C@_0L@CFNBEIAN@unpckf16s8?$AA@ 10015b20     libffgen:usetab.obj
 0001:00014b2c       ??_C@_0L@CBFMDELP@unpckf16u8?$AA@ 10015b2c     libffgen:usetab.obj
 0001:00014b38       ??_C@_0M@PIFJAHAP@unpckf16s16?$AA@ 10015b38     libffgen:usetab.obj
 0001:00014b44       ??_C@_0M@NNDCFIND@unpckf16u16?$AA@ 10015b44     libffgen:usetab.obj
 0001:00014b50       ??_C@_0M@JPJOKAKC@unpckf16f16?$AA@ 10015b50     libffgen:usetab.obj
 0001:00014b5c       ??_C@_0M@EGFCPANN@unpckf32c10?$AA@ 10015b5c     libffgen:usetab.obj
 0001:00014b68       ??_C@_0L@MFEPNGCO@unpckf32o8?$AA@ 10015b68     libffgen:usetab.obj
 0001:00014b74       ??_C@_0L@NAHDIMDK@unpckf32s8?$AA@ 10015b74     libffgen:usetab.obj
 0001:00014b80       ??_C@_0L@NEPOPAII@unpckf32u8?$AA@ 10015b80     libffgen:usetab.obj
 0001:00014b8c       ??_C@_0M@EABBAAME@unpckf32s16?$AA@ 10015b8c     libffgen:usetab.obj
 0001:00014b98       ??_C@_0M@GFHKFPBI@unpckf32u16?$AA@ 10015b98     libffgen:usetab.obj
 0001:00014ba4       ??_C@_0M@CHNGKHGJ@unpckf32f16?$AA@ 10015ba4     libffgen:usetab.obj
 0001:00014bb0       ??_C@_0M@EADOLGAD@unpckf32f32?$AA@ 10015bb0     libffgen:usetab.obj
 0001:00014bbc       ??_C@_09DDFDIML@pckc10s16?$AA@ 10015bbc     libffgen:usetab.obj
 0001:00014bc8       ??_C@_09CGFOGHBH@pckc10u16?$AA@ 10015bc8     libffgen:usetab.obj
 0001:00014bd4       ??_C@_09GEPCJPGG@pckc10f16?$AA@ 10015bd4     libffgen:usetab.obj
 0001:00014be0       ??_C@_09DBKIOAM@pckc10f32?$AA@ 10015be0     libffgen:usetab.obj
 0001:00014bec       ??_C@_08IDEMMIKL@pcko8s16?$AA@ 10015bec     libffgen:usetab.obj
 0001:00014bf8       ??_C@_08KGCHJHHH@pcko8u16?$AA@ 10015bf8     libffgen:usetab.obj
 0001:00014c04       ??_C@_08OEILGPAG@pcko8f16?$AA@ 10015c04     libffgen:usetab.obj
 0001:00014c10       ??_C@_08IDGDHOGM@pcko8f32?$AA@ 10015c10     libffgen:usetab.obj
 0001:00014c1c       ??_C@_08PHFIAKEL@pcks8s16?$AA@ 10015c1c     libffgen:usetab.obj
 0001:00014c28       ??_C@_08NCDDFFJH@pcks8u16?$AA@ 10015c28     libffgen:usetab.obj
 0001:00014c34       ??_C@_08JAJPKNOG@pcks8f16?$AA@ 10015c34     libffgen:usetab.obj
 0001:00014c40       ??_C@_08PHHHLMIM@pcks8f32?$AA@ 10015c40     libffgen:usetab.obj
 0001:00014c4c       ??_C@_08CBABOJFG@pcku8s16?$AA@ 10015c4c     libffgen:usetab.obj
 0001:00014c58       ??_C@_08EGKLGIK@pcku8u16?$AA@ 10015c58     libffgen:usetab.obj
 0001:00014c64       ??_C@_08EGMGEOPL@pcku8f16?$AA@ 10015c64     libffgen:usetab.obj
 0001:00014c70       ??_C@_08CBCOFPJB@pcku8f32?$AA@ 10015c70     libffgen:usetab.obj
 0001:00014c7c       ??_C@_09OLKLFBKF@pcks16s16?$AA@ 10015c7c     libffgen:usetab.obj
 0001:00014c88       ??_C@_09MOMAAOHJ@pcks16u16?$AA@ 10015c88     libffgen:usetab.obj
 0001:00014c94       ??_C@_09IMGMPGAI@pcks16f16?$AA@ 10015c94     libffgen:usetab.obj
 0001:00014ca0       ??_C@_09OLIEOHGC@pcks16f32?$AA@ 10015ca0     libffgen:usetab.obj
 0001:00014cac       ??_C@_09IIHLGEJP@pcku16s16?$AA@ 10015cac     libffgen:usetab.obj
 0001:00014cb8       ??_C@_09KNBADLED@pcku16u16?$AA@ 10015cb8     libffgen:usetab.obj
 0001:00014cc4       ??_C@_09OPLMMDDC@pcku16f16?$AA@ 10015cc4     libffgen:usetab.obj
 0001:00014cd0       ??_C@_09IIFENCFI@pcku16f32?$AA@ 10015cd0     libffgen:usetab.obj
 0001:00014cdc       ??_C@_09NOENOCMM@pckf16s16?$AA@ 10015cdc     libffgen:usetab.obj
 0001:00014ce8       ??_C@_09PLCGLNBA@pckf16u16?$AA@ 10015ce8     libffgen:usetab.obj
 0001:00014cf4       ??_C@_09LJIKEFGB@pckf16f16?$AA@ 10015cf4     libffgen:usetab.obj
 0001:00014d00       ??_C@_09NOGCFEAL@pckf16f32?$AA@ 10015d00     libffgen:usetab.obj
 0001:00014d0c       ??_C@_03HMHMOHCI@efo?$AA@  10015d0c     libffgen:usetab.obj
 0001:00014d10       ??_C@_07BJAGEKCG@fmaxmin?$AA@ 10015d10     libffgen:usetab.obj
 0001:00014d18       ??_C@_07IHOEOAG@fminmax?$AA@ 10015d18     libffgen:usetab.obj
 0001:00014d20       ??_C@_06ICDMGFKB@fmad16?$AA@ 10015d20     libffgen:usetab.obj
 0001:00014d28       ??_C@_04DDKBPOON@fdsy?$AA@ 10015d28     libffgen:usetab.obj
 0001:00014d30       ??_C@_04CKLKMPKM@fdsx?$AA@ 10015d30     libffgen:usetab.obj
 0001:00014d38       ??_C@_04EIBAPHDI@fmax?$AA@ 10015d38     libffgen:usetab.obj
 0001:00014d40       ??_C@_04FKJLBDFH@fmin?$AA@ 10015d40     libffgen:usetab.obj
 0001:00014d48       ??_C@_03KABHJCDG@fdp?$AA@  10015d48     libffgen:usetab.obj
 0001:00014d4c       ??_C@_04EBKFHEMK@fcos?$AA@ 10015d4c     libffgen:usetab.obj
 0001:00014d54       ??_C@_04OKFNDDPL@fsin?$AA@ 10015d54     libffgen:usetab.obj
 0001:00014d5c       ??_C@_05OBEHOPDB@fsqrt?$AA@ 10015d5c     libffgen:usetab.obj
 0001:00014d64       ??_C@_04FGIKMNCA@fexp?$AA@ 10015d64     libffgen:usetab.obj
 0001:00014d6c       ??_C@_04DHGILDMJ@flog?$AA@ 10015d6c     libffgen:usetab.obj
 0001:00014d74       ??_C@_04IOAKHMKG@frsq?$AA@ 10015d74     libffgen:usetab.obj
 0001:00014d7c       ??_C@_04ILDHOOJH@frcp?$AA@ 10015d7c     libffgen:usetab.obj
 0001:00014d84       ??_C@_04CIEHKGIK@ffrc?$AA@ 10015d84     libffgen:usetab.obj
 0001:00014d8c       ??_C@_04MMLCCJDO@fmsa?$AA@ 10015d8c     libffgen:usetab.obj
 0001:00014d94       ??_C@_04DDLIGMHP@fadm?$AA@ 10015d94     libffgen:usetab.obj
 0001:00014d9c       ??_C@_04KOGHKKGF@fmad?$AA@ 10015d9c     libffgen:usetab.obj
 0001:00014da4       ??_C@_0BA@LLCLJIP@float?5immediate?$AA@ 10015da4     libffgen:usetab.obj
 0001:00014db4       ??_C@_0BA@GKADHLJN@named?5temporary?$AA@ 10015db4     libffgen:usetab.obj
 0001:00014dc4       ??_C@_0BC@EOODDAGN@filter?5coefficent?$AA@ 10015dc4     libffgen:usetab.obj
 0001:00014dd8       ??_C@_0BE@FBIDIDIB@8?9bit?5source?5select?$AA@ 10015dd8     libffgen:usetab.obj
 0001:00014dec       ??_C@_07FAJBBDOC@swizzle?$AA@ 10015dec     libffgen:usetab.obj
 0001:00014df4       ??_C@_0N@KBLPGIGB@address?5mode?$AA@ 10015df4     libffgen:usetab.obj
 0001:00014e04       ??_C@_09DBIHEPNC@clipplane?$AA@ 10015e04     libffgen:usetab.obj
 0001:00014e10       ??_C@_09OKBKKDGM@predicate?$AA@ 10015e10     libffgen:usetab.obj
 0001:00014e1c       ??_C@_05IDCCNNGI@label?$AA@ 10015e1c     libffgen:usetab.obj
 0001:00014e24       ??_C@_03HDFKMEON@drc?$AA@  10015e24     libffgen:usetab.obj
 0001:00014e28       ??_C@_04OHHBHOGB@link?$AA@ 10015e28     libffgen:usetab.obj
 0001:00014e30       ??_C@_09MBGEJPJA@immediate?$AA@ 10015e30     libffgen:usetab.obj
 0001:00014e3c       ??_C@_08LEPPLCNF@internal?$AA@ 10015e3c     libffgen:usetab.obj
 0001:00014e48       ??_C@_08KFDOCAEB@constant?$AA@ 10015e48     libffgen:usetab.obj
 0001:00014e54       ??_C@_06FJKEMHGD@global?$AA@ 10015e54     libffgen:usetab.obj
 0001:00014e5c       ??_C@_05FKHKFDID@index?$AA@ 10015e5c     libffgen:usetab.obj
 0001:00014e64       ??_C@_0BE@EDPEAKOB@secondary?5attribute?$AA@ 10015e64     libffgen:usetab.obj
 0001:00014e78       ??_C@_0BC@FEBGALFK@primary?5attribute?$AA@ 10015e78     libffgen:usetab.obj
 0001:00014e8c       ??_C@_06DKIGHACF@output?$AA@ 10015e8c     libffgen:usetab.obj
 0001:00014e94       ??_C@_09CAHPDAG@temporary?$AA@ 10015e94     libffgen:usetab.obj
 0001:00014ea0       pszTypeToString            10015ea0     libffgen:usetab.obj
 0001:00014ef8       g_pfHardwareConstants      10015ef8     libffgen:usetab.obj
 0001:00014fd8       g_asUseInstDesc            10015fd8     libffgen:usetab.obj
 0001:00016104       ??_C@_0DH@DCAADGDI@C?3?2WinCE?2OMAP?2DDK1?45?2eurasia?2cod@ 10017104     libffgen:codegen.obj
 0001:00016140       ??_C@_0ED@DEEDBAIC@FFTNLGenTexturing?3?5Dimension?5of?5@ 10017140     libffgen:codegen.obj
 0001:00016184       ??_C@_0BN@BIDIPFNJ@Unrecogised?5output?5register?6?$AA@ 10017184     libffgen:codegen.obj
 0001:000161a4       ??_C@_0CB@IEAJPHFE@Redirect?5output?5reg?5to?5input?5reg@ 100171a4     libffgen:codegen.obj
 0001:000161c8       ??_C@_0DL@ECBKIPGG@FFTNLRedirectOutputRegisterWrite@ 100171c8     libffgen:codegen.obj
 0001:00016204       ??_C@_0BH@PLMPKNH@Calculate?5Eye?5position?$AA@ 10017204     libffgen:codegen.obj
 0001:0001621c       ??_C@_09EPPKEDM@MV?5Matrix?$AA@ 1001721c     libffgen:codegen.obj
 0001:00016228       ??_C@_0BH@LMMCLBCC@Calculate?5eye?5position?$AA@ 10017228     libffgen:codegen.obj
 0001:00016240       ??_C@_0BC@NDNIKMLH@Normalise?5normals?$AA@ 10017240     libffgen:codegen.obj
 0001:00016254       ??_C@_0CB@EGGMGBKD@Normalise?5supplied?5normal?5vector@ 10017254     libffgen:codegen.obj
 0001:00016278       ??_C@_0BI@HPNAAMDF@Pass?5through?5the?5normal?$AA@ 10017278     libffgen:codegen.obj
 0001:00016290       ??_C@_0CB@OJGIHKGB@No?5transformation?5?9?5pass?5through@ 10017290     libffgen:codegen.obj
 0001:000162b4       ??_C@_0BK@NFEIADPI@Pass?5through?5the?5position?$AA@ 100172b4     libffgen:codegen.obj
 0001:000162d0       ??_C@_0BC@JADMGONK@Projection?5matrix?$AA@ 100172d0     libffgen:codegen.obj
 0001:000162e4       ??_C@_0DA@EBFKIOIO@Transform?5the?5eye?5position?5by?5pr@ 100172e4     libffgen:codegen.obj
 0001:00016314       ??_C@_0CB@CHDFKHHG@Multiply?5normal?5?5by?5blend?5weight@ 10017314     libffgen:codegen.obj
 0001:00016338       ??_C@_0DA@LDEDLAN@Multiply?5normal?5?5by?5blend?5weight@ 10017338     libffgen:codegen.obj
 0001:00016368       ??_C@_0CF@ICKPHBEG@Transform?5the?5the?5normal?5by?5the?5@ 10017368     libffgen:codegen.obj
 0001:00016390       ??_C@_0BE@GIAEEKOE@ITMV?5matrix?5palette?$AA@ 10017390     libffgen:codegen.obj
 0001:000163a4       ??_C@_0CC@PNPKLBPI@Multiply?5position?5by?5blend?5weigh@ 100173a4     libffgen:codegen.obj
 0001:000163c8       ??_C@_0DB@LKKMBIBN@Multiply?5position?5by?5blend?5weigh@ 100173c8     libffgen:codegen.obj
 0001:000163fc       ??_C@_0CF@GKPDHNCO@Transform?5the?5the?5position?5by?5th@ 100173fc     libffgen:codegen.obj
 0001:00016424       ??_C@_0BC@HKKMIJAG@MV?5matrix?5palette?$AA@ 10017424     libffgen:codegen.obj
 0001:00016438       ??_C@_09MLECJNKA@MV?5matrix?$AA@ 10017438     libffgen:codegen.obj
 0001:00016444       ??_C@_0CD@EKEHCEAI@?6?5?5?5?5?5?5?9?9?9?9?9?9?5Matrix?5?$CFd?5?9?9?9?9?9?9?6?5@ 10017444     libffgen:codegen.obj
 0001:00016468       ??_C@_0BA@ONANMFJF@Vertex?5Blending?$AA@ 10017468     libffgen:codegen.obj
 0001:00016478       ??_C@_0P@MJEAACLN@Unpack?5indices?$AA@ 10017478     libffgen:codegen.obj
 0001:00016488       ??_C@_0BJ@IEODCOHA@Matrix?5index?5clamp?5value?$AA@ 10017488     libffgen:codegen.obj
 0001:000164a4       ??_C@_0BP@CLJLEPCI@Matrix?5palette?5Vertex?5Blending?$AA@ 100174a4     libffgen:codegen.obj
 0001:000164c8       ??_C@_0HA@EIEEADBD@?6?5?5?5?5?5?5Reuse?5of?5MV?5matrix?5for?5no@ 100174c8     libffgen:codegen.obj
 0001:00016538       ??_C@_0CB@FBDKBHC@?6?5?5?5?5?5?5Clamp?5matrix?5indices?5?6?5?5?5@ 10017538     libffgen:codegen.obj
 0001:0001655c       ??_C@_0DF@MAIOIMHG@Transform?5the?5the?5normal?5by?5the?5@ 1001755c     libffgen:codegen.obj
 0001:00016594       ??_C@_0M@DGLABAHO@ITMV?5matrix?$AA@ 10017594     libffgen:codegen.obj
 0001:000165a0       ??_C@_0BC@ENBCCJDP@Transform?5Normals?$AA@ 100175a0     libffgen:codegen.obj
 0001:000165b4       ??_C@_0BI@KIFEHIED@Standard?5Transformation?$AA@ 100175b4     libffgen:codegen.obj
 0001:000165cc       ??_C@_0L@DNHKCKNL@MVP?5Matrix?$AA@ 100175cc     libffgen:codegen.obj
 0001:000165d8       ??_C@_0CG@GGAHKDOG@Transform?5the?5the?5position?5by?5th@ 100175d8     libffgen:codegen.obj
 0001:00016600       ??_C@_0BA@KEMAKNHM@Clip?5plane?5calc?$AA@ 10017600     libffgen:codegen.obj
 0001:00016610       ??_C@_0O@HBGOANLF@User?5Clipping?$AA@ 10017610     libffgen:codegen.obj
 0001:00016620       ??_C@_0M@BLMFDEGP@Clip?5planes?$AA@ 10017620     libffgen:codegen.obj
 0001:0001662c       ??_C@_0CB@IDPANOHL@Illegal?5setup?5of?5clipping?5state?6@ 1001762c     libffgen:codegen.obj
 0001:00016650       ??_C@_0CC@ENNMODJA@Pass?5through?5the?5secondary?5colou@ 10017650     libffgen:codegen.obj
 0001:00016674       ??_C@_07CLODDAIM@Colours?$AA@ 10017674     libffgen:codegen.obj
 0001:0001667c       ??_C@_0BI@KELALIOO@Pass?5through?5the?5colour?$AA@ 1001767c     libffgen:codegen.obj
 0001:00016694       ??_C@_0BO@IDFPPCKM@Clamp?5colour?5channel?50?5to?50?40?$AA@ 10017694     libffgen:codegen.obj
 0001:000166b4       ??_C@_0BO@JECEOGOP@Clamp?5colour?5channel?51?5to?50?40?$AA@ 100176b4     libffgen:codegen.obj
 0001:000166d4       ??_C@_0BO@KNKJNKCK@Clamp?5colour?5channel?52?5to?50?40?$AA@ 100176d4     libffgen:codegen.obj
 0001:000166f4       ??_C@_0BO@LKNCMOGJ@Clamp?5colour?5channel?53?5to?50?40?$AA@ 100176f4     libffgen:codegen.obj
 0001:00016714       ??_C@_0BO@DLODJFMJ@Clamp?5colour?5channel?50?5to?51?40?$AA@ 10017714     libffgen:codegen.obj
 0001:00016734       ??_C@_0BO@CMJIIBIK@Clamp?5colour?5channel?51?5to?51?40?$AA@ 10017734     libffgen:codegen.obj
 0001:00016754       ??_C@_0BO@BFBFLNEP@Clamp?5colour?5channel?52?5to?51?40?$AA@ 10017754     libffgen:codegen.obj
 0001:00016774       ??_C@_0BO@CGOKJAM@Clamp?5colour?5channel?53?5to?51?40?$AA@ 10017774     libffgen:codegen.obj
 0001:00016798       ??_C@_0EH@KAKLLBOP@FFTNLGenFog?3?5FOGCOORD?5or?5FOGCOOR@ 10017798     libffgen:codegen.obj
 0001:000167e0       ??_C@_0BL@DFFPPPMN@Pass?5through?5the?5fog?5coord?$AA@ 100177e0     libffgen:codegen.obj
 0001:000167fc       ??_C@_0DH@MPANBPOG@FOG?5EXP2?5?9?5Multiply?5eye?5distance@ 100177fc     libffgen:codegen.obj
 0001:00016834       ??_C@_09NLKABCGF@Square?5it?$AA@ 10017834     libffgen:codegen.obj
 0001:00016840       ??_C@_0DG@NFOPLGGO@FOG?5EXP?5?9?5Multiply?5eye?5distance?5@ 10017840     libffgen:codegen.obj
 0001:00016878       ??_C@_0BG@EONNLBKJ@Get?5exponential?5value?$AA@ 10017878     libffgen:codegen.obj
 0001:00016890       ??_C@_0FM@PEHMBOCC@Linear?5Fog?5?9?5Multiple?5fog?5coord?5@ 10017890     libffgen:codegen.obj
 0001:000168ec       ??_C@_0CA@FBKENJDA@Calculate?5range?5fog?5distance?4?4?4?$AA@ 100178ec     libffgen:codegen.obj
 0001:0001690c       ??_C@_0L@OPPFCILO@Fog?5Params?$AA@ 1001790c     libffgen:codegen.obj
 0001:00016918       ??_C@_03JPDFGHP@Fog?$AA@   10017918     libffgen:codegen.obj
 0001:0001691c       ??_C@_0BF@GCMNLHLK@Vertex?5to?5Eye?5Vector?$AA@ 1001791c     libffgen:codegen.obj
 0001:00016938       ??_C@_0EG@FJENDPOA@Calculate?5eye?5to?5vertex?5vector?5u@ 10017938     libffgen:codegen.obj
 0001:00016980       ??_C@_0DO@KCKEGFAC@lights?5and?5the?5texture?5generatio@ 10017980     libffgen:codegen.obj
 0001:000169c0       ??_C@_0CA@OOFFNHGE@Calculate?5normalised?5eye?5vector?$AA@ 100179c0     libffgen:codegen.obj
 0001:000169e0       ??_C@_0BM@CHDLEFEL@Pass?5through?5the?5point?5size?$AA@ 100179e0     libffgen:codegen.obj
 0001:000169fc       ??_C@_0CD@LLEGIENP@Test?5if?5size?5is?5within?5min?5and?5m@ 100179fc     libffgen:codegen.obj
 0001:00016a20       ??_C@_0BN@KFLIBCPG@Clamp?5the?5result?5if?5required?$AA@ 10017a20     libffgen:codegen.obj
 0001:00016a40       ??_C@_0CN@HNMACHJM@Multiply?5attenuation?5by?5requeste@ 10017a40     libffgen:codegen.obj
 0001:00016a70       ??_C@_0CH@LABFJDID@Multiply?5attenuation?5by?5the?5poin@ 10017a70     libffgen:codegen.obj
 0001:00016a98       ??_C@_0CI@OCCNBPHJ@?5tDistAtten?5?$DN?51?40?0?5?$HMPe?$HM?0?5?$HMPe?$HM?$FO2?0@ 10017a98     libffgen:codegen.obj
 0001:00016ac0       ??_C@_0BG@FJNHHMID@Calculate?5attenuation?$AA@ 10017ac0     libffgen:codegen.obj
 0001:00016ad8       ??_C@_0L@FPLAOIEA@Point?5size?$AA@ 10017ad8     libffgen:codegen.obj
 0001:00016ae4       ??_C@_0N@HIBMEMNP@Point?5params?$AA@ 10017ae4     libffgen:codegen.obj
 0001:00016af4       ??_C@_06KANFALAM@Points?$AA@ 10017af4     libffgen:codegen.obj
 0001:00016afc       ??_C@_0CA@PINIOJIJ@Generate?5?$CFs?5texture?5coordinates?$AA@ 10017afc     libffgen:codegen.obj
 0001:00016b1c       ??_C@_0BL@MAEMHHOJ@Gen?5?$CFs?5texture?5coordinates?$AA@ 10017b1c     libffgen:codegen.obj
 0001:00016b38       ??_C@_0DK@OONLNJOH@FFTNLGenTexturing?3?5?$CFs?5texture?5en@ 10017b38     libffgen:codegen.obj
 0001:00016b74       ??_C@_0P@PKLHGBMJ@Texture?5Matrix?$AA@ 10017b74     libffgen:codegen.obj
 0001:00016b84       ??_C@_0BP@BNLBENAL@Transform?5by?5texture?5matrix?5?$CFd?$AA@ 10017b84     libffgen:codegen.obj
 0001:00016ba4       ??_C@_0BO@JAFHPKIC@Texture?5matrix?5transformation?$AA@ 10017ba4     libffgen:codegen.obj
 0001:00016bc4       ??_C@_0P@HNCOOFJG@Reflection?5Map?$AA@ 10017bc4     libffgen:codegen.obj
 0001:00016bd4       ??_C@_0BH@MCNFCKIF@Reflection?5Map?5tex?5gen?$AA@ 10017bd4     libffgen:codegen.obj
 0001:00016bec       ??_C@_0N@KILGKFH@Position?5Map?$AA@ 10017bec     libffgen:codegen.obj
 0001:00016bfc       ??_C@_0BF@IKEELLF@Position?5Map?5tex?5gen?$AA@ 10017bfc     libffgen:codegen.obj
 0001:00016c14       ??_C@_0L@DJHDICEL@Normal?5Map?$AA@ 10017c14     libffgen:codegen.obj
 0001:00016c20       ??_C@_0BD@MLPNOID@Normal?5Map?5tex?5gen?$AA@ 10017c20     libffgen:codegen.obj
 0001:00016c34       ??_C@_0CI@FDNNJHBP@generate?5sphere?5map?5texture?5coor@ 10017c34     libffgen:codegen.obj
 0001:00016c60       ??_C@_0EP@CLFPLMJH@compute?5m?3?5r?$FLtT2?$FN?5?$DN?$CI?$CI0?45f?5?$CK?51?1sq@ 10017c60     libffgen:codegen.obj
 0001:00016cb0       ??_C@_0BD@FNCNFONL@Sphere?5Map?5tex?5gen?$AA@ 10017cb0     libffgen:codegen.obj
 0001:00016cc4       ??_C@_0CE@NCCPACHK@Sphere?5?$CL?5Reflection?5map?5common?5c@ 10017cc4     libffgen:codegen.obj
 0001:00016ce8       ??_C@_0CI@BBLKPMCO@Get?5angle?5between?5eye?5vector?5and@ 10017ce8     libffgen:codegen.obj
 0001:00016d10       ??_C@_0CD@LENOOMFO@?5compute?5r?3?5r?$FLtT3?$FN?5?$DN?5r?4x?0?5r?4y?0?5r@ 10017d10     libffgen:codegen.obj
 0001:00016d34       ??_C@_0O@IHPGOCE@Object?5Linear?$AA@ 10017d34     libffgen:codegen.obj
 0001:00016d44       ??_C@_0BG@CKPHPBLK@Object?5Linear?5tex?5gen?$AA@ 10017d44     libffgen:codegen.obj
 0001:00016d5c       ??_C@_0L@EAPMGLA@Eye?5Linear?$AA@ 10017d5c     libffgen:codegen.obj
 0001:00016d68       ??_C@_0BD@DLKLDGHI@Eye?5Linear?5tex?5gen?$AA@ 10017d68     libffgen:codegen.obj
 0001:00016d7c       ??_C@_0N@MDCPJLLL@Pass?5through?$AA@ 10017d7c     libffgen:codegen.obj
 0001:00016d8c       ??_C@_0CB@LFNMKELF@Pass?5through?5texture?5coordinates@ 10017d8c     libffgen:codegen.obj
 0001:00016db0       ??_C@_09CLMKIHFD@Texturing?$AA@ 10017db0     libffgen:codegen.obj
 0001:00016dbc       ??_C@_0CE@DFPCDDOK@Emit?5Vertex?5Data?5and?5free?5partit@ 10017dbc     libffgen:codegen.obj
 0001:00016de0       ??_C@_0BE@MINPJGCC@Emit?5Vertex?5and?5End?$AA@ 10017de0     libffgen:codegen.obj
 0001:00016df4       ??_C@_0P@IACOIGLH@End?5of?5program?$AA@ 10017df4     libffgen:codegen.obj
 0001:00016e04       ??_C@_0DD@CEDKLCKP@C?3?2WinCE?2OMAP?2DDK1?45?2eurasia?2cod@ 10017e04     libffgen:reg.obj
 0001:00016e38       ??_C@_0CI@PEIAICB@This?5load?5size?5currently?5not?5sup@ 10017e38     libffgen:reg.obj
 0001:00016e60       ??_C@_0BN@OKIFANLI@Failed?5to?5alloc?5offset?5reg?5?6?$AA@ 10017e60     libffgen:reg.obj
 0001:00016e80       ??_C@_0BN@BPFEAGPL@Failed?5to?5alloc?5address?5reg?6?$AA@ 10017e80     libffgen:reg.obj
 0001:00016ea0       ??_C@_0BH@GMOGLMGO@Store?5the?5?$CFs?5to?5memory?$AA@ 10017ea0     libffgen:reg.obj
 0001:00016eb8       ??_C@_0CO@IDEIBDON@LoadConstant?$CI?$CJ?3?5Can?8t?5handle?5neg@ 10017eb8     libffgen:reg.obj
 0001:00016ee8       ??_C@_0CB@EHLOELJD@LoadConstant?$CI?$CJ?3?5No?5data?5to?5load?6@ 10017ee8     libffgen:reg.obj
 0001:00016f0c       ??_C@_0BL@DDDFGMDF@Failed?5to?5alloc?5const?5reg?6?$AA@ 10017f0c     libffgen:reg.obj
 0001:00016f28       ??_C@_0BO@OADPCFIM@input?5index?5?$CK?5stride?5?$CL?5offset?$AA@ 10017f28     libffgen:reg.obj
 0001:00016f48       ??_C@_0BL@DMGPOLHL@mov?5input?5offset?5into?5temp?$AA@ 10017f48     libffgen:reg.obj
 0001:00016f64       ??_C@_0BL@PAKBHIML@Failed?5to?5malloc?5register?6?$AA@ 10017f64     libffgen:reg.obj
 0001:00016f80       ??_C@_0GJ@LCFPJFAA@GetReg?3?5Reg?5space?5must?5be?5reserv@ 10017f80     libffgen:reg.obj
 0001:00016fec       ??_C@_0DL@HGGCFMD@GetReg?3?5Load?5offsets?5not?5valid?5f@ 10017fec     libffgen:reg.obj
 0001:00017028       ??_C@_0FJ@JMBFGGAD@GetReg?3?5Can?5only?5reget?5constants@ 10018028     libffgen:reg.obj
 0001:00017088       ??_C@_0FJ@IPHPFJFP@GetReg?3?5Load?5offset?5?$CL?5size?5?$CI?$CFd?5?$CL@ 10018088     libffgen:reg.obj
 0001:000170e8       ??_C@_0FN@GHKIOENE@GetReg?3?5If?5sizes?5match?5for?5exist@ 100180e8     libffgen:reg.obj
 0001:00017148       ??_C@_0DH@GOPDPMPC@GetReg?3?5Can?8t?5alloc?5space?5for?5th@ 10018148     libffgen:reg.obj
 0001:00017180       ??_C@_0FD@KDOOHEOL@GetReg?3?5Can?8t?5reget?5register?5wit@ 10018180     libffgen:reg.obj
 0001:000171d8       ??_C@_0FK@FAEDPFKH@GetReg?3?5Only?5valid?5input?5registe@ 100181d8     libffgen:reg.obj
 0001:00017234       ??_C@_0CD@OGFFNGFJ@GetReg?3?5Invalid?5reg?5type?5?$CI?$CFs?0?5?$CFd@ 10018234     libffgen:reg.obj
 0001:00017258       ??_C@_0BN@DAICFPHG@GetReg?3?5Size?5was?50?5?$CI?$CFs?0?5?$CFd?$CJ?6?$AA@ 10018258     libffgen:reg.obj
 0001:00017278       ??_C@_0DI@MODDCAAB@GetReg?3?5Load?5offsets?5only?5valid?5@ 10018278     libffgen:reg.obj
 0001:000172b0       ??_C@_06CMDGOKBM@SGX545?$AA@ 100182b0     libffgen:utils.obj
 0001:000172b8       ??_C@_06HKGMENJK@SGX543?$AA@ 100182b8     libffgen:utils.obj
 0001:000172c0       ??_C@_06EIFKCPBI@SGX541?$AA@ 100182c0     libffgen:utils.obj
 0001:000172c8       ??_C@_06FBEBBOFJ@SGX540?$AA@ 100182c8     libffgen:utils.obj
 0001:000172d0       ??_C@_06CJHJPMJJ@SGX535?$AA@ 100182d0     libffgen:utils.obj
 0001:000172d8       ??_C@_06ENBFDJJN@SGX531?$AA@ 100182d8     libffgen:utils.obj
 0001:000172e0       ??_C@_06FEAOAINM@SGX530?$AA@ 100182e0     libffgen:utils.obj
 0001:000172e8       ??_C@_06FFMMGCOL@SGX520?$AA@ 100182e8     libffgen:utils.obj
 0001:000175c0       ??_C@_0DP@GFPDICLF@StoreInstructionfn?3?5Failed?5to?5al@ 100185c0     libffgen:inst.obj
 0001:00017600       ??_C@_0CI@JFGMKCCF@StoreInstruction?3?5Reg?5?$CFd?5was?5nul@ 10018600     libffgen:inst.obj
 0001:00017628       ??_C@_0DN@CJDNBDCF@StoreInstruction?3?5Failed?5to?5allo@ 10018628     libffgen:inst.obj
 0001:00017668       ??_C@_0CM@CACCDEMK@GetLabel?3?5Error?0?5couldn?8t?5alloc?5@ 10018668     libffgen:inst.obj
 0001:00017694       ??_C@_0M@GDJNOEBD@?$CFs_LABEL?$CFlu?$AA@ 10018694     libffgen:inst.obj
 0001:000176a0       ??_C@_0CM@PALIDHOL@GetLabel?3?5Error?0?5couldn?8t?5alloc?5@ 100186a0     libffgen:inst.obj
 0001:000176cc       ??_C@_0BI@CELJOCLM@Enable?5dest?5base?5offset?$AA@ 100186cc     libffgen:inst.obj
 0001:000176e4       ??_C@_0BJ@PBBOCFKH@Disable?5dest?5base?5offset?$AA@ 100186e4     libffgen:inst.obj
 0001:00017700       ??_C@_0DE@EOBBEEEP@C?3?2WinCE?2OMAP?2DDK1?45?2eurasia?2cod@ 10018700     libffgen:inst.obj
 0001:00017734       ??_C@_0CJ@EIHLMMOJ@EncodeInstruction?3?5Reg?5?$CFd?5was?5nu@ 10018734     libffgen:inst.obj
 0001:00017760       ??_C@_0DH@FBCAJPKC@Following?5code?5need?5to?5be?5aligne@ 10018760     libffgen:inst.obj
 0001:00017798       ??_C@_0BH@JCIFADOE@Enable?5dest?5increments?$AA@ 10018798     libffgen:inst.obj
 0001:000177b0       ??_C@_0BI@FFADPMMG@Disable?5dest?5increments?$AA@ 100187b0     libffgen:inst.obj
 0001:000177c8       ??_C@_0CC@IONBMNAK@Move?5source?5vector?5into?5temporar@ 100187c8     libffgen:inst.obj
 0001:000177ec       ??_C@_0CM@NKIDJECP@IF_PRED?3?5Error?0?5maximum?5nested?5d@ 100187ec     libffgen:inst.obj
 0001:00017818       ??_C@_0CK@GJDOIHFF@END_PRED?3?5Error?0?5condition?5stack@ 10018818     libffgen:inst.obj
 0001:00017844       ??_C@_0DI@OFCEGCFF@C?3?2WinCE?2OMAP?2DDK1?45?2eurasia?2cod@ 10018844     libffgen:lighting.obj
 0001:0001787c       ??_C@_0BI@JAJKGEDI@Calculate?5local?5ambient?$AA@ 1001887c     libffgen:lighting.obj
 0001:00017894       ??_C@_0CH@FGCBILAO@Calculate?5ambient?5components?5of?5@ 10018894     libffgen:lighting.obj
 0001:000178bc       ??_C@_0BI@CCMKNPCE@Calculate?5local?5diffuse?$AA@ 100188bc     libffgen:lighting.obj
 0001:000178d4       ??_C@_0CH@PGHAKFN@Calculate?5diffuse?5components?5of?5@ 100188d4     libffgen:lighting.obj
 0001:000178fc       ??_C@_0BJ@OECLFEPJ@Calculate?5local?5specular?$AA@ 100188fc     libffgen:lighting.obj
 0001:00017918       ??_C@_0CI@DCMHGBOG@Calculate?5specular?5components?5of@ 10018918     libffgen:lighting.obj
 0001:00017940       ??_C@_0N@CEILCPKB@End?5of?5light?$AA@ 10018940     libffgen:lighting.obj
 0001:00017950       ??_C@_0DG@FCGOHAJD@Load?5reg?5with?51?40?5to?5get?5round?5r@ 10018950     libffgen:lighting.obj
 0001:00017988       ??_C@_0BK@OHEOCDDF@Calc?5specular?5half?5angle?5?$AA@ 10018988     libffgen:lighting.obj
 0001:000179a8       ??_C@_0EN@OCFLHMLI@Set?5predicate?5for?5specular?5test?5@ 100189a8     libffgen:lighting.obj
 0001:000179f8       ??_C@_0CD@HLLCFIJC@Do?5we?5need?5to?5calc?5specular?5coef@ 100189f8     libffgen:lighting.obj
 0001:00017a1c       ??_C@_0P@CCJHPFLG@SpecLightCoeff?$AA@ 10018a1c     libffgen:lighting.obj
 0001:00017a2c       ??_C@_0BJ@HDJNOKLO@Calculate?5specular?5coeff?$AA@ 10018a2c     libffgen:lighting.obj
 0001:00017a48       ??_C@_0BB@JHGCHADD@NoSpecLightCoeff?$AA@ 10018a48     libffgen:lighting.obj
 0001:00017a5c       ??_C@_0BI@CFPAIJCH@Set?5specular?5coeff?5to?50?$AA@ 10018a5c     libffgen:lighting.obj
 0001:00017a74       ??_C@_0BO@MIKNJBAA@Normalise?5specular?5half?5angle?$AA@ 10018a74     libffgen:lighting.obj
 0001:00017a94       ??_C@_0BG@GJMHPMIM@Load?5light?5half?5angle?$AA@ 10018a94     libffgen:lighting.obj
 0001:00017aac       ??_C@_0CN@FAAJJLEL@Local?5viewer?5enabled?5?3?5h_i?5?$DN?5?$CIVP@ 10018aac     libffgen:lighting.obj
 0001:00017adc       ??_C@_0BI@BJHLPANM@Clamp?5diff?5angle?5to?50?40?$AA@ 10018adc     libffgen:lighting.obj
 0001:00017af8       ??_C@_0GF@FHLDJOLL@Test?5result?5?9?5?$CB?$CB?5shift?5this?5test@ 10018af8     libffgen:lighting.obj
 0001:00017b60       ??_C@_0EE@KEIMPFOB@Check?5if?5it?8s?5worth?5calculating?5@ 10018b60     libffgen:lighting.obj
 0001:00017ba4       ??_C@_0M@PMCFJDGB@AmbientOnly?$AA@ 10018ba4     libffgen:lighting.obj
 0001:00017bb0       ??_C@_0BF@HKIFJBJI@Move?5onto?5next?5light?$AA@ 10018bb0     libffgen:lighting.obj
 0001:00017bc8       ??_C@_0L@KCMDIALA@EndOfLight?$AA@ 10018bc8     libffgen:lighting.obj
 0001:00017bd8       ??_C@_0EF@EMBOGPNI@Calculate?5angle?5between?5normal?5a@ 10018bd8     libffgen:lighting.obj
 0001:00017c20       ??_C@_0BN@KMMADCKC@Attenuate?5light?5coefficients?$AA@ 10018c20     libffgen:lighting.obj
 0001:00017c40       ??_C@_0DA@JGABDEMF@Local?5viewer?5disabled?5?3h_i?5?$DN?5?$CIVP@ 10018c40     libffgen:lighting.obj
 0001:00017c70       ??_C@_0EO@ICIMPIAM@Get?5vertex?5to?5light?5vector?5?$CIfsub@ 10018c70     libffgen:lighting.obj
 0001:00017cc0       ??_C@_0CB@FDFDOGMJ@Normalise?5vertex?5to?5light?5vector@ 10018cc0     libffgen:lighting.obj
 0001:00017ce4       ??_C@_0DE@KMFGIAFA@Setup?5distance?5vector?5?5?$DN?5?$HL1?0?5?$HMVP@ 10018ce4     libffgen:lighting.obj
 0001:00017d18       ??_C@_0BP@KEMKENJA@Calculate?5distance?5attenuation?$AA@ 10018d18     libffgen:lighting.obj
 0001:00017d38       ??_C@_07JBEAGHEM@?$CIatt_i?$CJ?$AA@ 10018d38     libffgen:lighting.obj
 0001:00017d40       ??_C@_0DK@CGKPLDHE@Calculate?5angle?5between?5normal?5a@ 10018d40     libffgen:lighting.obj
 0001:00017d80       ??_C@_0FA@JFACKHEB@Calculate?5angle?5between?5light?5to@ 10018d80     libffgen:lighting.obj
 0001:00017dd0       ??_C@_0EL@HKGFEGHF@If?5vertex?5falls?5outside?5of?5?$CIcosi@ 10018dd0     libffgen:lighting.obj
 0001:00017e1c       ??_C@_0CP@MHGPMFFM@Calculate?5attenuation?5due?5to?5spo@ 10018e1c     libffgen:lighting.obj
 0001:00017e4c       ??_C@_0CL@PCMLNOCJ@Add?5spotlight?5calc?5to?5distance?5a@ 10018e4c     libffgen:lighting.obj
 0001:00017e78       ??_C@_0BD@KNHKDHAM@Restore?5the?5normal?$AA@ 10018e78     libffgen:lighting.obj
 0001:00017e8c       ??_C@_0BB@GLNHJEJ@?$CFs?5Light?5?$CFd?5?$CI?$CFs?$CJ?$AA@ 10018e8c     libffgen:lighting.obj
 0001:00017ea0       ??_C@_0P@HCGDDOH@Temp?5size?5?$DN?5?$CFd?$AA@ 10018ea0     libffgen:lighting.obj
 0001:00017eb0       ??_C@_05JODGIKH@Light?$AA@ 10018eb0     libffgen:lighting.obj
 0001:00017eb8       ??_C@_0O@OBACKCAK@Light?5Product?$AA@ 10018eb8     libffgen:lighting.obj
 0001:00017ec8       ??_C@_0BB@JFNLKFCP@without?5Specular?$AA@ 10018ec8     libffgen:lighting.obj
 0001:00017edc       ??_C@_0O@ODJOONP@with?5Specular?$AA@ 10018edc     libffgen:lighting.obj
 0001:00017eec       ??_C@_0L@EGIHIBEN@Local?5Spot?$AA@ 10018eec     libffgen:lighting.obj
 0001:00017ef8       ??_C@_0O@MMKOGHI@Infinite?5Spot?$AA@ 10018ef8     libffgen:lighting.obj
 0001:00017f08       ??_C@_0M@BDIGANNJ@Local?5Point?$AA@ 10018f08     libffgen:lighting.obj
 0001:00017f14       ??_C@_0P@EFHPIEJN@Infinite?5Point?$AA@ 10018f14     libffgen:lighting.obj
 0001:00017f24       ??_C@_0DJ@FCDMIGGI@Invert?5the?5normal?5for?5calculatin@ 10018f24     libffgen:lighting.obj
 0001:00017f60       ??_C@_0BL@KNCGAANN@Use?5diffuse?5material?5alpha?$AA@ 10018f60     libffgen:lighting.obj
 0001:00017f7c       ??_C@_0BI@EHJKGKMF@Use?5vertex?5colour?5alpha?$AA@ 10018f7c     libffgen:lighting.obj
 0001:00017f94       ??_C@_0CH@EONMBKHI@Scene?5colour?5?9?5Use?5light?5model?5p@ 10018f94     libffgen:lighting.obj
 0001:00017fbc       ??_C@_0BE@MJHGKBLI@Light?5Model?5Product?$AA@ 10018fbc     libffgen:lighting.obj
 0001:00017fd0       ??_C@_0DG@FCGODNCJ@Scene?5colour?5?9?5Use?5vertex?5colour@ 10018fd0     libffgen:lighting.obj
 0001:00018008       ??_C@_0DH@NGDPMDEN@Scene?5colour?5?9?5Use?5vertex?5colour@ 10019008     libffgen:lighting.obj
 0001:00018040       ??_C@_0M@DCEJEFAF@Light?5Model?$AA@ 10019040     libffgen:lighting.obj
 0001:0001804c       ??_C@_08CPBFELGP@Material?$AA@ 1001904c     libffgen:lighting.obj
 0001:00018058       ??_C@_0CJ@FCJPOOPD@Zero?5seperate?5specular?5reg?5?$CInon?5@ 10019058     libffgen:lighting.obj
 0001:00018084       ??_C@_0BE@PHMJKILD@Lighting?5front?5face?$AA@ 10019084     libffgen:lighting.obj
 0001:00018098       ??_C@_0BD@IHLDDDDM@Lighting?5back?5face?$AA@ 10019098     libffgen:lighting.obj
 0001:000180d4       InitAccumUSECodeBlocks     100190d4 f   accum.obj
 0001:000181e0       FreeAccumUSECodeBlocks     100191e0 f   accum.obj
 0001:000187f0       SetupBGObject              100197f0 f   accum.obj
 0001:00018a78       SendAccumulateObject       10019a78 f   accum.obj
 0001:00018c00       CreateBufObjState          10019c00 f   bufobj.obj
 0001:00018c20       FreeBufObjState            10019c20 f   bufobj.obj
 0001:00018d8c       SetupBufObjNameArray       10019d8c f   bufobj.obj
 0001:00018d9c       glBindBuffer               10019d9c f   bufobj.obj
 0001:00018f1c       glDeleteBuffers            10019f1c f   bufobj.obj
 0001:00018ff4       glGenBuffers               10019ff4 f   bufobj.obj
 0001:0001904c       glBufferData               1001a04c f   bufobj.obj
 0001:000191f4       glBufferSubData            1001a1f4 f   bufobj.obj
 0001:000192f4       glMapBufferOES             1001a2f4 f   bufobj.obj
 0001:000193c8       glUnmapBufferOES           1001a3c8 f   bufobj.obj
 0001:00019458       InitClearUSECodeBlocks     1001a458 f   clear.obj
 0001:00019538       FreeClearUSECodeBlocks     1001a538 f   clear.obj
 0001:00019c90       SendClearPrims             1001ac90 f   clear.obj
 0001:00019e9c       glClear                    1001ae9c f   clear.obj
 0001:00019fcc       glClearColor               1001afcc f   clear.obj
 0001:0001a064       glClearColorx              1001b064 f   clear.obj
 0001:0001a194       glClearDepthf              1001b194 f   clear.obj
 0001:0001a1c4       glClearDepthx              1001b1c4 f   clear.obj
 0001:0001a220       glClearStencil             1001b220 f   clear.obj
 0001:0001ab78       glDrawTexsOES              1001bb78 f   drawtex.obj
 0001:0001ac3c       glDrawTexiOES              1001bc3c f   drawtex.obj
 0001:0001ad00       glDrawTexfOES              1001bd00 f   drawtex.obj
 0001:0001ad48       glDrawTexxOES              1001bd48 f   drawtex.obj
 0001:0001ae74       glDrawTexsvOES             1001be74 f   drawtex.obj
 0001:0001af2c       glDrawTexivOES             1001bf2c f   drawtex.obj
 0001:0001afe4       glDrawTexfvOES             1001bfe4 f   drawtex.obj
 0001:0001b024       glDrawTexxvOES             1001c024 f   drawtex.obj
 0001:0001c758       AttachAllUsedResourcesToCurrentSurface 1001d758 f   drawvarray.obj
 0001:0001c88c       AttachAllUsedVBOToCurrentKick 1001d88c f   drawvarray.obj
 0001:0001cb34       glDrawArrays               1001db34 f   drawvarray.obj
 0001:0001cd2c       glDrawElements             1001dd2c f   drawvarray.obj
 0001:0001ddb8       glMultiDrawArraysEXT       1001edb8 f   drawvarray.obj
 0001:0001e170       glMultiDrawElementsEXT     1001f170 f   drawvarray.obj
 0001:0001fe88       IsColorAttachmentTwiddled  10020e88 f   fbo.obj
 0001:0001ff0c       FlushAttachableIfNeeded    10020f0c f   fbo.obj
 0001:0001fff4       DestroyFBOAttachableRenderSurface 10020ff4 f   fbo.obj
 0001:000200f4       SetupRenderBufferNameArray 100210f4 f   fbo.obj
 0001:00020104       SetupFrameBufferObjectNameArray 10021104 f   fbo.obj
 0001:00020114       CreateFrameBufferState     10021114 f   fbo.obj
 0001:00020170       RemoveFrameBufferAttachment 10021170 f   fbo.obj
 0001:00020290       ChangeDrawableParams       10021290 f   fbo.obj
 0001:00020bfc       GetFrameBufferCompleteness 10021bfc f   fbo.obj
 0001:00020cd8       FBOAttachableHasBeenModified 10021cd8 f   fbo.obj
 0001:00020d10       glIsRenderbufferOES        10021d10 f   fbo.obj
 0001:00020d74       glBindRenderbufferOES      10021d74 f   fbo.obj
 0001:00020ec4       glDeleteRenderbuffersOES   10021ec4 f   fbo.obj
 0001:00020f94       glGenRenderbuffersOES      10021f94 f   fbo.obj
 0001:00020ff0       glRenderbufferStorageOES   10021ff0 f   fbo.obj
 0001:000212c4       SetupRenderbufferFromEGLImage 100222c4 f   fbo.obj
 0001:000213fc       glGetRenderbufferParameterivOES 100223fc f   fbo.obj
 0001:00021538       glIsFramebufferOES         10022538 f   fbo.obj
 0001:0002159c       glBindFramebufferOES       1002259c f   fbo.obj
 0001:0002176c       glDeleteFramebuffersOES    1002276c f   fbo.obj
 0001:00021840       glGenFramebuffersOES       10022840 f   fbo.obj
 0001:00021898       glCheckFramebufferStatusOES 10022898 f   fbo.obj
 0001:000218f8       glFramebufferTexture2DOES  100228f8 f   fbo.obj
 0001:00021ac8       glFramebufferRenderbufferOES 10022ac8 f   fbo.obj
 0001:00021c20       glGetFramebufferAttachmentParameterivOES 10022c20 f   fbo.obj
 0001:00021dac       glGenerateMipmapOES        10022dac f   fbo.obj
 0001:00021ef8       FreeFrameBufferState       10022ef8 f   fbo.obj
 0001:00022350       DestroyHashedBlendState    10023350 f   fftex.obj
 0001:0002259c       AddFFTextureBinding        1002359c f   fftex.obj
 0001:00022634       ValidateFFTextureConstants 10023634 f   fftex.obj
 0001:00022708       ValidateFFTextureBlending  10023708 f   fftex.obj
 0001:00026920       CreateIntegerFragmentProgramFromFF 10027920 f   fftexhw.obj
 0001:00026df4       FFGENMalloc                10027df4 f   fftnlgles.obj
 0001:00026e08       FFGENCalloc                10027e08 f   fftnlgles.obj
 0001:00026e1c       FFGENRealloc               10027e1c f   fftnlgles.obj
 0001:00026e34       FFGENFree                  10027e34 f   fftnlgles.obj
 0001:00026e48       FFGENPrintf                10027e48 f   fftnlgles.obj
 0001:00026e5c       DestroyFFTNLCode           10027e5c f   fftnlgles.obj
 0001:00026eb4       InitFFTNLState             10027eb4 f   fftnlgles.obj
 0001:00026f94       FreeFFTNLState             10027f94 f   fftnlgles.obj
 0001:0002770c       SetupFFTNLShaderOutputs    1002870c f   fftnlgles.obj
 0001:00027a50       SetupBuildFFTNLShaderConstants 10028a50 f   fftnlgles.obj
 0001:000286c8       SetupFFTNLShader           100296c8 f   fftnlgles.obj
 0001:00028ab8       glFogfv                    10029ab8 f   fog.obj
 0001:00028ae0       glFogf                     10029ae0 f   fog.obj
 0001:00028b40       glFogxv                    10029b40 f   fog.obj
 0001:00028c94       glFogx                     10029c94 f   fog.obj
 0001:0002a164       glIsTexture                1002b164 f   get.obj
 0001:0002a1c8       glIsBuffer                 1002b1c8 f   get.obj
 0001:0002a22c       glGetBufferParameteriv     1002b22c f   get.obj
 0001:0002a32c       glGetBufferPointervOES     1002b32c f   get.obj
 0001:0002a3d4       glGetMaterialfv            1002b3d4 f   get.obj
 0001:0002a404       glGetMaterialxv            1002b404 f   get.obj
 0001:0002a4c8       glGetLightfv               1002b4c8 f   get.obj
 0001:0002a4f8       glGetLightxv               1002b4f8 f   get.obj
 0001:0002a670       glGetTexEnvfv              1002b670 f   get.obj
 0001:0002a6a0       glGetTexEnvxv              1002b6a0 f   get.obj
 0001:0002a78c       glGetTexEnviv              1002b78c f   get.obj
 0001:0002a824       glGetClipPlanef            1002b824 f   get.obj
 0001:0002a884       glGetClipPlanex            1002b884 f   get.obj
 0001:0002a980       glGetTexParameteriv        1002b980 f   get.obj
 0001:0002a9b0       glGetTexParameterfv        1002b9b0 f   get.obj
 0001:0002aaa0       glGetTexParameterxv        1002baa0 f   get.obj
 0001:0002ab3c       glGetTexGenivOES           1002bb3c f   get.obj
 0001:0002ab94       glGetTexGenfvOES           1002bb94 f   get.obj
 0001:0002ac00       glGetTexGenxvOES           1002bc00 f   get.obj
 0001:0002ac50       glGetPointerv              1002bc50 f   get.obj
 0001:0002ad34       glIsEnabled                1002bd34 f   get.obj
 0001:0002ad60       glGetError                 1002bd60 f   get.obj
 0001:0002ad88       glGetString                1002bd88 f   get.obj
 0001:0002c4a4       glGetFixedv                1002d4a4 f   get.obj
 0001:0002c4d0       glGetFloatv                1002d4d0 f   get.obj
 0001:0002c4fc       glGetBooleanv              1002d4fc f   get.obj
 0001:0002c528       glGetIntegerv              1002d528 f   get.obj
 0001:0002cf74       HardwareMakeTextureMipmapLevels 1002df74 f   makemips.obj
 0001:0002d4d4       MakeTextureMipmapLevels    1002e4d4 f   makemips.obj
 0001:0002e264       PickMatrixProcs            1002f264 f   matrix.obj
 0001:0002e28c       PickInvTransposeProcs      1002f28c f   matrix.obj
 0001:0002e2a4       TransposeMatrix            1002f2a4 f   matrix.obj
 0001:0002e328       ComputeInverseTranspose    1002f328 f   matrix.obj
 0001:0002e470       InvertTransposeMatrix      1002f470 f   matrix.obj
 0001:0002faec       CopyMatrix                 10030aec f   matrix.obj
 0001:0002fb78       MakeIdentity               10030b78 f   matrix.obj
 0001:0002fbc8       MultMatrix                 10030bc8 f   matrix.obj
 0001:0002ff5c       DoMultMatrix               10030f5c f   matrix.obj
 0001:000300fc       DoLoadMatrix               100310fc f   matrix.obj
 0001:00030218       MultiplyMatrix             10031218 f   matrix.obj
 0001:00030310       ScaleMatrix                10031310 f   matrix.obj
 0001:000304b4       TranslateMatrix            100314b4 f   matrix.obj
 0001:00030750       PushModelViewMatrix        10031750 f   matrix.obj
 0001:000307b4       PopModelViewMatrix         100317b4 f   matrix.obj
 0001:000307f8       LoadIdentityModelViewMatrix 100317f8 f   matrix.obj
 0001:00030868       PushMatrixPaletteMatrix    10031868 f   matrix.obj
 0001:0003086c       PopMatrixPaletteMatrix     1003186c f   matrix.obj
 0001:00030870       LoadIdentityMatrixPaletteMatrix 10031870 f   matrix.obj
 0001:000308ec       PushProjectionMatrix       100318ec f   matrix.obj
 0001:0003094c       PopProjectionMatrix        1003194c f   matrix.obj
 0001:00030990       LoadIdentityProjectionMatrix 10031990 f   matrix.obj
 0001:000309f0       PushTextureMatrix          100319f0 f   matrix.obj
 0001:00030a74       PopTextureMatrix           10031a74 f   matrix.obj
 0001:00030ae0       LoadIdentityTextureMatrix  10031ae0 f   matrix.obj
 0001:00030b44       PushProgramMatrix          10031b44 f   matrix.obj
 0001:00030bac       PopProgramMatrix           10031bac f   matrix.obj
 0001:00030bfc       LoadIdentityProgramMatrix  10031bfc f   matrix.obj
 0001:00030c40       FreeTransformState         10031c40 f   matrix.obj
 0001:00030cf0       glCurrentPaletteMatrixOES  10031cf0 f   matrix.obj
 0001:00030d58       glLoadPaletteFromModelViewMatrixOES 10031d58 f   matrix.obj
 0001:00030d98       InitTransformState         10031d98 f   matrix.obj
 0001:0003103c       Clampf                     1003203c f   misc.obj
 0001:0003109c       Clampi                     1003209c f   misc.obj
 0001:000310c0       FloatToHWByte              100320c0 f   misc.obj
 0001:000312d0       ColorConvertToHWFormat     100322d0 f   misc.obj
 0001:00031318       ColorConvertFromHWFormat   10032318 f   misc.obj
 0001:000313f8       Normalize                  100323f8 f   misc.obj
 0001:000315bc       FloorLog2                  100325bc f   misc.obj
 0001:000315dc       glFinish                   100325dc f   misc.obj
 0001:000316d0       glFlush                    100326d0 f   misc.obj
 0001:00031714       glQueryMatrixxOES          10032714 f   misc.obj
 0001:00031868       SetError                   10032868 f   misc.obj
 0001:00031878       GetApplicationHints        10032878 f   misc.obj
 0001:00031c04       BuildExtensionString       10032c04 f   misc.obj
 0001:00031c1c       DestroyExtensionString     10032c1c f   misc.obj
 0001:00031c44       glHint                     10032c44 f   misc.obj
 0001:00031d64       CreateNamesArray           10032d64 f   names.obj
 0001:00031e04       NamesArrayGenNames         10032e04 f   names.obj
 0001:00031edc       NamesArrayMapFunction      10032edc f   names.obj
 0001:00031f54       DestroyNamesArray          10032f54 f   names.obj
 0001:00031fb4       InsertNamedItem            10032fb4 f   names.obj
 0001:00032088       NamedItemAddRef            10033088 f   names.obj
 0001:00032118       NamedItemDelRef            10033118 f   names.obj
 0001:0003218c       NamedItemDelRefByName      1003318c f   names.obj
 0001:0003228c       GetStridedSurfaceData      1003328c f   pixop.obj
 0001:000324e4       glPixelStorei              100334e4 f   pixop.obj
 0001:00032800       SetupReadPixelsSpanInfo    10033800 f   pixop.obj
 0001:00032bec       glReadPixels               10033bec f   pixop.obj
 0001:00032dd0       InitScissorUSECodeBlocks   10033dd0 f   scissor.obj
 0001:00032e34       FreeScissorUSECodeBlocks   10033e34 f   scissor.obj
 0001:00033740       SendDrawMaskForPrimitive   10034740 f   scissor.obj
 0001:0003391c       SendDrawMaskForClear       1003491c f   scissor.obj
 0001:000339e8       glScissor                  100349e8 f   scissor.obj
 0001:00033acc       WaitForTA                  10034acc f   sgxif.obj
 0001:00034080       PrepareToDraw              10035080 f   sgxif.obj
 0001:000349a8       ScheduleTA                 100359a8 f   sgxif.obj
 0001:00034a50       KickLimit_ScheduleTA       10035a50 f   sgxif.obj
 0001:00034a80       DestroyHashedPDSVariant    10035a80 f   shader.obj
 0001:00034bc8       ReclaimUSEShaderVariantMemFRM 10035bc8 f   shader.obj
 0001:00034bd8       DestroyUSECodeVariantGhostFRM 10035bd8 f   shader.obj
 0001:00034bdc       DestroyVertexVariants      10035bdc f   shader.obj
 0001:00034c44       FreeShader                 10035c44 f   shader.obj
 0001:00034c8c       FreeProgramState           10035c8c f   shader.obj
 0001:00034cf8       SpanPack16                 10035cf8 f   spanpack.obj
 0001:00034d54       SpanPack32                 10035d54 f   spanpack.obj
 0001:00034db0       SpanPackARGB4444toRGBA4444 10035db0 f   spanpack.obj
 0001:00034df0       SpanPackARGB1555toRGBA5551 10035df0 f   spanpack.obj
 0001:00034e30       SpanPackARGB8888toABGR8888 10035e30 f   spanpack.obj
 0001:00034e7c       SpanPackARGB8888toXBGR8888 10035e7c f   spanpack.obj
 0001:00034ec8       SpanPackARGB8888toRGB565   10035ec8 f   spanpack.obj
 0001:00034f1c       SpanPackARGB8888toARGB4444 10035f1c f   spanpack.obj
 0001:00034f78       SpanPackARGB8888toARGB1555 10035f78 f   spanpack.obj
 0001:00034fd0       SpanPackARGB8888toLuminanceAlpha 10035fd0 f   spanpack.obj
 0001:0003500c       SpanPackARGB8888toLuminance 1003600c f   spanpack.obj
 0001:00035048       SpanPackAXXX8888toAlpha    10036048 f   spanpack.obj
 0001:00035084       SpanPackABGR8888toARGB8888 10036084 f   spanpack.obj
 0001:000350d0       SpanPackABGR8888toXBGR8888 100360d0 f   spanpack.obj
 0001:0003511c       SpanPackABGR8888toRGB565   1003611c f   spanpack.obj
 0001:00035170       SpanPackABGR8888toARGB4444 10036170 f   spanpack.obj
 0001:000351cc       SpanPackABGR8888toARGB1555 100361cc f   spanpack.obj
 0001:00035228       SpanPackABGR8888toLuminanceAlpha 10036228 f   spanpack.obj
 0001:0003526c       SpanPackABGR8888toLuminance 1003626c f   spanpack.obj
 0001:000352a4       SpanPackARGB4444toABGR8888 100362a4 f   spanpack.obj
 0001:00035318       SpanPackARGB4444toXBGR8888 10036318 f   spanpack.obj
 0001:00035384       SpanPackARGB4444toARGB8888 10036384 f   spanpack.obj
 0001:000353f8       SpanPackARGB4444toRGB565   100363f8 f   spanpack.obj
 0001:00035480       SpanPackARGB4444toARGB1555 10036480 f   spanpack.obj
 0001:0003550c       SpanPackARGB4444toLuminanceAlpha 1003650c f   spanpack.obj
 0001:00035564       SpanPackARGB4444toLuminance 10036564 f   spanpack.obj
 0001:000355a4       SpanPackARGB4444toAlpha    100365a4 f   spanpack.obj
 0001:000355e4       SpanPackARGB1555toABGR8888 100365e4 f   spanpack.obj
 0001:00035664       SpanPackARGB1555toXBGR8888 10036664 f   spanpack.obj
 0001:000356dc       SpanPackARGB1555toARGB8888 100366dc f   spanpack.obj
 0001:00035754       SpanPackARGB1555toRGB565   10036754 f   spanpack.obj
 0001:000357bc       SpanPackARGB1555toARGB4444 100367bc f   spanpack.obj
 0001:00035818       SpanPackARGB1555toLuminanceAlpha 10036818 f   spanpack.obj
 0001:00035878       SpanPackARGB1555toLuminance 10036878 f   spanpack.obj
 0001:000358c0       SpanPackARGB1555toAlpha    100368c0 f   spanpack.obj
 0001:0003590c       SpanPackRGB565toXBGR8888   1003690c f   spanpack.obj
 0001:00035980       SpanPackRGB565toLuminance  10036980 f   spanpack.obj
 0001:000359c0       glEnable                   100369c0 f   state.obj
 0001:00035e50       glDisable                  10036e50 f   state.obj
 0001:00036384       glAlphaFunc                10037384 f   state.obj
 0001:000363ac       glAlphaFuncx               100373ac f   state.obj
 0001:0003640c       glBlendEquationOES         1003740c f   state.obj
 0001:0003649c       glBlendEquationSeparateOES 1003749c f   state.obj
 0001:000366d8       glBlendFuncSeparateOES     100376d8 f   state.obj
 0001:00036718       glBlendFunc                10037718 f   state.obj
 0001:00036750       glCullFace                 10037750 f   state.obj
 0001:000367c8       glDepthFunc                100377c8 f   state.obj
 0001:00036828       glDepthMask                10037828 f   state.obj
 0001:00036878       glLineWidth                10037878 f   state.obj
 0001:00036954       glLineWidthx               10037954 f   state.obj
 0001:00036b84       glPointSize                10037b84 f   state.obj
 0001:00036ba4       glPointSizex               10037ba4 f   state.obj
 0001:00036d9c       glPointParameterfv         10037d9c f   state.obj
 0001:00036dc4       glPointParameterf          10037dc4 f   state.obj
 0001:00036e24       glPointParameterxv         10037e24 f   state.obj
 0001:00036efc       glPointParameterx          10037efc f   state.obj
 0001:00036f9c       glFrontFace                10037f9c f   state.obj
 0001:00036ffc       glLogicOp                  10037ffc f   state.obj
 0001:0003705c       glPolygonOffset            1003805c f   state.obj
 0001:000370d4       glPolygonOffsetx           100380d4 f   state.obj
 0001:000371ac       glShadeModel               100381ac f   state.obj
 0001:0003721c       glStencilFunc              1003821c f   state.obj
 0001:000372d0       glStencilOp                100382d0 f   state.obj
 0001:00037490       glStencilMask              10038490 f   state.obj
 0001:000374e8       glColorMask                100384e8 f   state.obj
 0001:0003756c       glSampleCoverage           1003856c f   state.obj
 0001:000375a4       glSampleCoveragex          100385a4 f   state.obj
 0001:00037608       HashTableCreate            10038608 f   statehash.obj
 0001:00037668       HashTableDestroy           10038668 f   statehash.obj
 0001:000376f0       HashFunc                   100386f0 f   statehash.obj
 0001:00037720       HashTableSearch            10038720 f   statehash.obj
 0001:000377dc       HashTableDelete            100387dc f   statehash.obj
 0001:00037908       HashTableInsert            10038908 f   statehash.obj
 0001:00037b2c       CopyTexturePVRTC           10038b2c f   tex.obj
 0001:00037bb0       CopyTextureETC1            10038bb0 f   tex.obj
 0001:00037c34       CopyTexture8888BGRAto8888RGBA 10038c34 f   tex.obj
 0001:00037cb4       CopyTexture32Bits          10038cb4 f   tex.obj
 0001:00037d10       CopyTexture16Bits          10038d10 f   tex.obj
 0001:00037d6c       CopyTexture8Bits           10038d6c f   tex.obj
 0001:00037dc4       CopyTexture5551            10038dc4 f   tex.obj
 0001:00037e28       CopyTexture4444            10038e28 f   tex.obj
 0001:00037e8c       CopyTexture888X            10038e8c f   tex.obj
 0001:00037f04       CopyTexture888to565        10038f04 f   tex.obj
 0001:00037f8c       CopyTexture565toRGBX8888   10038f8c f   tex.obj
 0001:00038010       CopyTexture5551to4444      10039010 f   tex.obj
 0001:000380b8       CopyTexture5551toBGRA8888  100390b8 f   tex.obj
 0001:0003814c       CopyTexture5551toRGBA8888  1003914c f   tex.obj
 0001:000381e0       CopyTexture4444to5551      100391e0 f   tex.obj
 0001:00038284       CopyTexture4444toBGRA8888  10039284 f   tex.obj
 0001:00038308       CopyTexture4444toRGBA8888  10039308 f   tex.obj
 0001:0003838c       CopyTextureRGBA8888to5551  1003938c f   tex.obj
 0001:00038420       CopyTextureBGRA8888to5551  10039420 f   tex.obj
 0001:000384b0       CopyTextureRGBA8888to4444  100394b0 f   tex.obj
 0001:00038544       CopyTextureBGRA8888to4444  10039544 f   tex.obj
 0001:00038a84       SetTextureFormat           10039a84 f   tex.obj
 0001:00038b38       glActiveTexture            10039b38 f   tex.obj
 0001:00038b88       BindTexture                10039b88 f   tex.obj
 0001:00038cf8       glBindTexture              10039cf8 f   tex.obj
 0001:00038d8c       glDeleteTextures           10039d8c f   tex.obj
 0001:00038e9c       glGenTextures              10039e9c f   tex.obj
 0001:00039184       CheckWhetherToUseHWToUpload 1003a184 f   tex.obj
 0001:00039320       glTexImage2D               1003a320 f   tex.obj
 0001:000397e8       glTexSubImage2D            1003a7e8 f   tex.obj
 0001:0003a294       glCompressedTexImage2D     1003b294 f   tex.obj
 0001:0003a940       glCompressedTexSubImage2D  1003b940 f   tex.obj
 0001:0003ab0c       glCopyTexImage2D           1003bb0c f   tex.obj
 0001:0003b1dc       glCopyTexSubImage2D        1003c1dc f   tex.obj
 0001:0003c1bc       glTexEnvfv                 1003d1bc f   tex.obj
 0001:0003c1ec       glTexEnvf                  1003d1ec f   tex.obj
 0001:0003c60c       glTexEnvxv                 1003d60c f   tex.obj
 0001:0003c63c       glTexEnvx                  1003d63c f   tex.obj
 0001:0003caec       glTexEnviv                 1003daec f   tex.obj
 0001:0003cb1c       glTexEnvi                  1003db1c f   tex.obj
 0001:0003cf54       glTexParameterf            1003df54 f   tex.obj
 0001:0003cfcc       glTexParameterx            1003dfcc f   tex.obj
 0001:0003d028       glTexParameteri            1003e028 f   tex.obj
 0001:0003d084       glTexParameterfv           1003e084 f   tex.obj
 0001:0003d170       glTexParameteriv           1003e170 f   tex.obj
 0001:0003d1ec       glTexParameterxv           1003e1ec f   tex.obj
 0001:0003d2c4       glTexGeniOES               1003e2c4 f   tex.obj
 0001:0003d2f4       glTexGenivOES              1003e2f4 f   tex.obj
 0001:0003d324       glTexGenfOES               1003e324 f   tex.obj
 0001:0003d374       glTexGenfvOES              1003e374 f   tex.obj
 0001:0003d3c4       glTexGenxOES               1003e3c4 f   tex.obj
 0001:0003d3f4       glTexGenxvOES              1003e3f4 f   tex.obj
 0001:0003d424       InitTexCombineState        1003e424 f   texcombine.obj
 0001:0003d4ac       TexEnvCombine              1003e4ac f   texcombine.obj
 0001:0003dc74       HardwareSubTextureTwiddle  1003ec74 f   texdata.obj
 0001:0003e09c       HardwareCopySubTextureTwiddle 1003f09c f   texdata.obj
 0001:0003e274       HardwareTextureTwiddle     1003f274 f   texdata.obj
 0001:0003e44c       GetMipMapOffset            1003f44c f   texdata.obj
 0001:0003e478       GetCompressedMipMapOffset  1003f478 f   texdata.obj
 0001:0003e4ec       TranslateLevel             1003f4ec f   texdata.obj
 0001:0003e7b8       ReadBackTextureData        1003f7b8 f   texdata.obj
 0001:0003eaf0       SetupTwiddleFns            1003faf0 f   texdata.obj
 0001:0003eb54       CopyTextureData            1003fb54 f   texdata.obj
 0001:0003ec18       ReclaimTextureMemFRM       1003fc18 f   texmgmt.obj
 0001:0003ecfc       DestroyTextureGhostFRM     1003fcfc f   texmgmt.obj
 0001:0003ed74       CreateTextureMemory        1003fd74 f   texmgmt.obj
 0001:0003ef0c       TexMgrGhostTexture         1003ff0c f   texmgmt.obj
 0001:0003f028       TextureRemoveResident      10040028 f   texmgmt.obj
 0001:0003f040       TextureMakeResident        10040040 f   texmgmt.obj
 0001:0003f3cc       IsTextureConsistent        100403cc f   texmgmt.obj
 0001:0003f6d4       TextureCreatePBufferLevel  100406d4 f   texmgmt.obj
 0001:0003f88c       TextureCreateImageLevel    1004088c f   texmgmt.obj
 0001:0003fb44       TextureCreateLevel         10040b44 f   texmgmt.obj
 0001:0003fd18       CreateTexture              10040d18 f   texmgmt.obj
 0001:0003ff9c       CreateTextureState         10040f9c f   texmgmt.obj
 0001:0004003c       SetupTexNameArray          1004103c f   texmgmt.obj
 0001:0004004c       ReleaseTextureManager      1004104c f   texmgmt.obj
 0001:0004009c       FreeTextureState           1004109c f   texmgmt.obj
 0001:00040128       SetupTextureState          10041128 f   texmgmt.obj
 0001:000404f4       SetupTextureRenderTargetControlWords 100414f4 f   texmgmt.obj
 0001:0004060c       CreateTextureManager       1004160c f   texmgmt.obj
 0001:000406d8       ReleasePbufferFromTexture  100416d8 f   texrender.obj
 0001:0004073c       GLESBindTexImage           1004173c f   texrender.obj
 0001:0004081c       GLESReleaseTexImage        1004181c f   texrender.obj
 0001:0004084c       InitLightingState          1004184c f   tnlapi.obj
 0001:000409c8       FreeLightingState          100419c8 f   tnlapi.obj
 0001:00040a0c       SetupTransformLightingProcs 10041a0c f   tnlapi.obj
 0001:00040c4c       glLightModelfv             10041c4c f   tnlapi.obj
 0001:00040d18       glLightModelf              10041d18 f   tnlapi.obj
 0001:00040d68       glLightModelxv             10041d68 f   tnlapi.obj
 0001:00040eb4       glLightModelx              10041eb4 f   tnlapi.obj
 0001:000411cc       glLightf                   100421cc f   tnlapi.obj
 0001:00041234       glLightfv                  10042234 f   tnlapi.obj
 0001:00041264       glLightx                   10042264 f   tnlapi.obj
 0001:000412fc       glLightxv                  100422fc f   tnlapi.obj
 0001:00041414       Materialfv                 10042414 f   tnlapi.obj
 0001:00041644       glMaterialf                10042644 f   tnlapi.obj
 0001:00041698       glMaterialfv               10042698 f   tnlapi.obj
 0001:000416c8       glMaterialx                100426c8 f   tnlapi.obj
 0001:0004174c       glMaterialxv               1004274c f   tnlapi.obj
 0001:0004187c       ApplyViewport              1004287c f   tnlapi.obj
 0001:00041a20       glViewport                 10042a20 f   tnlapi.obj
 0001:00041b34       ApplyDepthRange            10042b34 f   tnlapi.obj
 0001:00041c38       glDepthRangef              10042c38 f   tnlapi.obj
 0001:00041c60       glDepthRangex              10042c60 f   tnlapi.obj
 0001:00041cec       glMatrixMode               10042cec f   tnlapi.obj
 0001:000420e0       glFrustumf                 100430e0 f   tnlapi.obj
 0001:00042134       glFrustumx                 10043134 f   tnlapi.obj
 0001:000425e8       glOrthof                   100435e8 f   tnlapi.obj
 0001:0004263c       glOrthox                   1004363c f   tnlapi.obj
 0001:00042798       glLoadIdentity             10043798 f   tnlapi.obj
 0001:000427b8       glLoadMatrixf              100437b8 f   tnlapi.obj
 0001:000428e8       glLoadMatrixx              100438e8 f   tnlapi.obj
 0001:00042c68       glMultMatrixf              10043c68 f   tnlapi.obj
 0001:00042d38       glMultMatrixx              10043d38 f   tnlapi.obj
 0001:000434d0       glRotatef                  100444d0 f   tnlapi.obj
 0001:00043510       glRotatex                  10044510 f   tnlapi.obj
 0001:0004360c       glScalef                   1004460c f   tnlapi.obj
 0001:00043650       glScalex                   10044650 f   tnlapi.obj
 0001:00043728       glTranslatef               10044728 f   tnlapi.obj
 0001:0004376c       glTranslatex               1004476c f   tnlapi.obj
 0001:00043844       glPushMatrix               10044844 f   tnlapi.obj
 0001:00043864       glPopMatrix                10044864 f   tnlapi.obj
 0001:00043884       glClipPlanef               10044884 f   tnlapi.obj
 0001:00043914       glClipPlanex               10044914 f   tnlapi.obj
 0001:00043a6c       AddInstruction             10044a6c f   useasmgles.obj
 0001:00043b78       FreeUSEASMInstructionList  10044b78 f   useasmgles.obj
 0001:00043bd0       DuplicateUSEASMInstructionList 10044bd0 f   useasmgles.obj
 0001:00043d3c       AssembleUSEASMInstructions 10044d3c f   useasmgles.obj
 0001:00043f38       GetFBBlendType             10044f38 f   usegles.obj
 0001:0004569c       WriteEOTUSSECode           1004669c f   usegles.obj
 0001:00045748       GetStateCopyUSEAddress     10046748 f   usegles.obj
 0001:00045778       InitSpecialUSECodeBlocks   10046778 f   usegles.obj
 0001:000458a0       FreeSpecialUSECodeBlocks   100468a0 f   usegles.obj
 0001:00045eb0       SetupUSEVertexShader       10046eb0 f   usegles.obj
 0001:00046380       SetupUSEFragmentShader     10047380 f   usegles.obj
 0001:00047060       WriteUSEVertexShaderMemConsts 10048060 f   usegles.obj
 0001:000470fc       EncodeDmaBurst             100480fc f   validate.obj
 0001:000471a4       OutputTerminateState       100481a4 f   validate.obj
 0001:00047354       SetupPixelEventProgram     10048354 f   validate.obj
 0001:000492ec       DestroyHashedPDSFragSA     1004a2ec f   validate.obj
 0001:000499e0       PatchPregenMTEStateCopyPrograms 1004a9e0 f   validate.obj
 0001:00049b2c       WriteMTEStateCopyPrograms  1004ab2c f   validate.obj
 0001:00049c80       SetupStateUpdate           1004ac80 f   validate.obj
 0001:00049ea0       SetupMTEPregenBuffer       1004aea0 f   validate.obj
 0001:00049ef0       SetupPDSVertexPregenBuffer 1004aef0 f   validate.obj
 0001:0004a86c       ValidateState              1004b86c f   validate.obj
 0001:0004ab94       GLES1EmitState             1004bb94 f   validate.obj
 0001:0004b198       glClientActiveTexture      1004c198 f   vertex.obj
 0001:0004b1dc       glEnableClientState        1004c1dc f   vertex.obj
 0001:0004b2cc       glDisableClientState       1004c2cc f   vertex.obj
 0001:0004b3bc       glColor4f                  1004c3bc f   vertex.obj
 0001:0004b414       glColor4x                  1004c414 f   vertex.obj
 0001:0004b524       glColor4ub                 1004c524 f   vertex.obj
 0001:0004b638       glMultiTexCoord4f          1004c638 f   vertex.obj
 0001:0004b698       glMultiTexCoord4x          1004c698 f   vertex.obj
 0001:0004b7ac       glNormal3f                 1004c7ac f   vertex.obj
 0001:0004b7d8       glNormal3x                 1004c7d8 f   vertex.obj
 0001:0004b890       glColorPointer             1004c890 f   vertex.obj
 0001:0004b9b0       glNormalPointer            1004c9b0 f   vertex.obj
 0001:0004bad0       glTexCoordPointer          1004cad0 f   vertex.obj
 0001:0004bc28       glVertexPointer            1004cc28 f   vertex.obj
 0001:0004bd5c       glPointSizePointerOES      1004cd5c f   vertex.obj
 0001:0004be50       glMatrixIndexPointerOES    1004ce50 f   vertex.obj
 0001:0004bf44       glWeightPointerOES         1004cf44 f   vertex.obj
 0001:0004c050       glVertexAttribPointerARB   1004d050 f   vertex.obj
 0001:0004c1e0       InitVertexArrayState       1004d1e0 f   vertex.obj
 0001:0004c3f4       SetupYUVCoefficients       1004d3f4 f   texstream.obj
 0001:0004c6f8       GetNumStreamDevices        1004d6f8 f   texstream.obj
 0001:0004c72c       FreeTexStreamState         1004d72c f   texstream.obj
 0001:0004c944       FindBufferDevice           1004d944 f   texstream.obj
 0001:0004c97c       AddBufferDevice            1004d97c f   texstream.obj
 0001:0004cc20       glGetTexStreamDeviceAttributeivIMG 1004dc20 f   texstream.obj
 0001:0004cd1c       glTexBindStreamIMG         1004dd1c f   texstream.obj
 0001:0004cde8       glGetTexStreamDeviceNameIMG 1004dde8 f   texstream.obj
 0001:0004ce60       glVertexAttrib4fARB        1004de60 f   vprogram.obj
 0001:0004cebc       glProgramEnvParameter4fARB 1004debc f   vprogram.obj
 0001:0004cf40       glProgramEnvParameter4fvARB 1004df40 f   vprogram.obj
 0001:0004cfc8       glProgramLocalParameter4fARB 1004dfc8 f   vprogram.obj
 0001:0004d074       glProgramLocalParameter4fvARB 1004e074 f   vprogram.obj
 0001:0004d120       glVertexAttrib4xIMG        1004e120 f   vprogram.obj
 0001:0004d230       glProgramLocalParameter4xIMG 1004e230 f   vprogram.obj
 0001:0004d388       glProgramLocalParameter4xvIMG 1004e388 f   vprogram.obj
 0001:0004d4d0       glProgramEnvParameter4xIMG 1004e4d0 f   vprogram.obj
 0001:0004d604       glProgramEnvParameter4xvIMG 1004e604 f   vprogram.obj
 0001:0004d728       glEnableVertexAttribArrayARB 1004e728 f   vprogram.obj
 0001:0004d778       glDisableVertexAttribArrayARB 1004e778 f   vprogram.obj
 0001:0004d7c8       glProgramStringARB         1004e7c8 f   vprogram.obj
 0001:0004eadc       glBindProgramARB           1004fadc f   vprogram.obj
 0001:0004eb34       glDeleteProgramsARB        1004fb34 f   vprogram.obj
 0001:0004ec04       glGenProgramsARB           1004fc04 f   vprogram.obj
 0001:0004ec5c       CreateIMGVertexProgramState 1004fc5c f   vprogram.obj
 0001:0004ecb0       FreeIMGVertexProgramState  1004fcb0 f   vprogram.obj
 0001:0004ed78       SetupIMGVertexProgramNameArray 1004fd78 f   vprogram.obj
 0001:0004ed88       GetConstantFromBinding     1004fd88 f   vprogram.obj
 0001:0004f4ec       ReleaseImageFromTexture    100504ec f   eglimage.obj
 0001:0004f688       glEGLImageTargetTexture2DOES 10050688 f   eglimage.obj
 0001:0004f84c       glEGLImageTargetRenderbufferStorageOES 1005084c f   eglimage.obj
 0001:0004f92c       ReleaseImageFromRenderbuffer 1005092c f   eglimage.obj
 0001:0004f950       GLESGetImageSource         10050950 f   eglimage.obj
 0001:0004fd10       OGL_GetTLSValue            10050d10 f   wince6_tls.obj
 0001:0004fd44       OGL_SetTLSValue            10050d44 f   wince6_tls.obj
 0001:0004fd90       eglGetError                10050d90 f   eglentrypoints.obj
 0001:0004fda0       eglGetDisplay              10050da0 f   eglentrypoints.obj
 0001:0004fdb0       eglInitialize              10050db0 f   eglentrypoints.obj
 0001:0004fdc0       eglTerminate               10050dc0 f   eglentrypoints.obj
 0001:0004fdd0       eglQueryString             10050dd0 f   eglentrypoints.obj
 0001:0004fde0       eglGetProcAddress          10050de0 f   eglentrypoints.obj
 0001:0004fdf0       eglGetConfigs              10050df0 f   eglentrypoints.obj
 0001:0004fe00       eglChooseConfig            10050e00 f   eglentrypoints.obj
 0001:0004fe20       eglGetConfigAttrib         10050e20 f   eglentrypoints.obj
 0001:0004fe30       eglCreateWindowSurface     10050e30 f   eglentrypoints.obj
 0001:0004fe40       eglCreatePixmapSurface     10050e40 f   eglentrypoints.obj
 0001:0004fe50       eglCreatePbufferSurface    10050e50 f   eglentrypoints.obj
 0001:0004fe60       eglDestroySurface          10050e60 f   eglentrypoints.obj
 0001:0004fe70       eglQuerySurface            10050e70 f   eglentrypoints.obj
 0001:0004fe80       eglCreateContext           10050e80 f   eglentrypoints.obj
 0001:0004fe90       eglDestroyContext          10050e90 f   eglentrypoints.obj
 0001:0004fea0       eglMakeCurrent             10050ea0 f   eglentrypoints.obj
 0001:0004feb0       eglGetCurrentContext       10050eb0 f   eglentrypoints.obj
 0001:0004fec0       eglGetCurrentSurface       10050ec0 f   eglentrypoints.obj
 0001:0004fed0       eglGetCurrentDisplay       10050ed0 f   eglentrypoints.obj
 0001:0004fee0       eglQueryContext            10050ee0 f   eglentrypoints.obj
 0001:0004fef0       eglWaitGL                  10050ef0 f   eglentrypoints.obj
 0001:0004ff00       eglWaitNative              10050f00 f   eglentrypoints.obj
 0001:0004ff10       eglSwapBuffers             10050f10 f   eglentrypoints.obj
 0001:0004ff20       eglCopyBuffers             10050f20 f   eglentrypoints.obj
 0001:0004ff30       eglSwapInterval            10050f30 f   eglentrypoints.obj
 0001:0004ff40       eglSurfaceAttrib           10050f40 f   eglentrypoints.obj
 0001:0004ff50       eglBindTexImage            10050f50 f   eglentrypoints.obj
 0001:0004ff60       eglReleaseTexImage         10050f60 f   eglentrypoints.obj
 0001:0004ff70       PDSGeneratePixelEventProgram 10050f70 f   pds.obj
 0001:00050074       PDSPatchVertexShaderProgram 10051074 f   pds.obj
 0001:000501b4       PDSGeneratePixelShaderSAProgram 100511b4 f   pds.obj
 0001:000503ec       PDSGenerateStaticPixelShaderSAProgram 100513ec f   pds.obj
 0001:00050594       PDSGeneratePixelShaderProgram 10051594 f   pds.obj
 0001:00050808       PDSGenerateStateCopyProgram 10051808 f   pds.obj
 0001:0005097c       PDSGenerateStaticVertexShaderProgram 1005197c f   pds.obj
 0001:00050dc4       PDSGenerateVertexShaderProgram 10051dc4 f   pds.obj
 0001:000514a0       PDSGenerateTerminateStateProgram 100524a0 f   pds.obj
 0001:0005154c       PDSPatchTerminateStateProgram 1005254c f   pds.obj
 0001:00051558       WritePTOffUSSECode         10052558 f   pixevent.obj
 0001:00051570       WriteEndOfRenderUSSECode   10052570 f   pixevent.obj
 0001:000515a0       WriteEndOfTileUSSECode     100525a0 f   pixevent.obj
 0001:00051664       WritePBEEmitState          10052664 f   pixeventpbesetup.obj
 0001:00051948       USEGenWriteStateEmitFragment 10052948 f   usegen.obj
 0001:000519b0       USEGenWriteStateEmitProgram 100529b0 f   usegen.obj
 0001:000519e4       USEGenWriteSpecialObjVtxProgram 100529e4 f   usegen.obj
 0001:00051b34       USEGenWriteClearPixelProgram 10052b34 f   usegen.obj
 0001:00051b4c       VPGenFreeProgram           10052b4c f   vpcodegen.obj
 0001:00051bd4       VPGenDestroyContext        10052bd4 f   vpcodegen.obj
 0001:00051bfc       VPGenCreateContext         10052bfc f   vpcodegen.obj
 0001:00052054       VPAssignConstantRegisters  10053054 f   vpcodegen.obj
 0001:00052348       VPSelectRegister           10053348 f   vpcodegen.obj
 0001:0005251c       VPConvert                  1005351c f   vpcodegen.obj
 0001:0005255c       VP_PRINT_VGPBINARY         1005355c f   vpcodegen.obj
 0001:000525c0       VPDisassembleVGPBinary     100535c0 f   vpcodegen.obj
 0001:00054394       VPGenEmitVertexEnd         10055394 f   vpcodegen.obj
 0001:000543f4       VPDestroyCode              100553f4 f   vpcodegen.obj
 0001:00054448       VPGenerateCode             10055448 f   vpcodegen.obj
 0001:000547a4       VPAssemblerError           100557a4 f   vpuscfns.obj
 0001:000547b8       VPUseAssemblerSetLabelAddress 100557b8 f   vpuscfns.obj
 0001:000547c4       VPUseAssemblerGetLabelName 100557c4 f   vpuscfns.obj
 0001:000547cc       VPUseAssemblerGetLabelAddress 100557cc f   vpuscfns.obj
 0001:000547d8       VPUseasmRealloc            100557d8 f   vpuscfns.obj
 0001:000547f0       VPAddRegToList             100557f0 f   vpreg.obj
 0001:00054854       VPGetTemp                  10055854 f   vpreg.obj
 0001:0005495c       VPReleaseReg               1005595c f   vpreg.obj
 0001:000549e4       VPLoadConstant             100559e4 f   vpreg.obj
 0001:00054fdc       VPGetRegfn                 10055fdc f   vpreg.obj
 0001:00055164       VPDestroyRegList           10056164 f   vpreg.obj
 0001:000551a0       VP_COMMENT                 100561a0 f   vpinst.obj
 0001:00055214       VPCheckRegUsage            10056214 f   vpinst.obj
 0001:00055374       VPGetUseInst               10056374 f   vpinst.obj
 0001:000553d0       VPEncodeReg                100563d0 f   vpinst.obj
 0001:00055474       VPEncodeInstructionfn      10056474 f   vpinst.obj
 0001:00055600       InitVPState                10056600 f   vpgles.obj
 0001:00055644       FreeVPState                10056644 f   vpgles.obj
 0001:00055660       SetupVPShaderInputs        10056660 f   vpgles.obj
 0001:000556e8       SetupVPShaderOutputs       100566e8 f   vpgles.obj
 0001:00055814       UpdateVPShaderConstantsSize 10056814 f   vpgles.obj
 0001:0005586c       SetupBuildVPShaderConstants 1005686c f   vpgles.obj
 0001:00055ba8       SetupVPShader              10056ba8 f   vpgles.obj
 0001:00055e60       CBUF_GetBufferSpace        10056e60 f   buffers.obj
 0001:000560a0       CBUF_UpdateBufferPos       100570a0 f   buffers.obj
 0001:000560e0       CBUF_GetBufferDeviceAddress 100570e0 f   buffers.obj
 0001:00056108       CBUF_UpdateBufferCommittedPrimOffsets 10057108 f   buffers.obj
 0001:000561a4       CBUF_UpdateVIBufferCommittedPrimOffsets 100571a4 f   buffers.obj
 0001:00056224       CBUF_UpdateBufferCommittedHWOffsets 10057224 f   buffers.obj
 0001:0005626c       CBUF_UpdateTACtrlKickBase  1005726c f   buffers.obj
 0001:000562c0       CBUF_CreateBuffer          100572c0 f   buffers.obj
 0001:00056404       CBUF_DestroyBuffer         10057404 f   buffers.obj
 0001:00056424       UCH_CodeHeapCreate         10057424 f   codeheap.obj
 0001:00056500       UCH_CodeHeapDestroy        10057500 f   codeheap.obj
 0001:00056640       UCH_CodeHeapFreeFunc       10057640 f   codeheap.obj
 0001:00056698       UCH_CodeHeapAllocateFunc   10057698 f   codeheap.obj
 0001:000569bc       FRM_Initialize             100579bc f   frameresource.obj
 0001:00056ab4       FRM_Attach                 10057ab4 f   frameresource.obj
 0001:00056c30       FRM_IsResourceNeeded       10057c30 f   frameresource.obj
 0001:00056d28       FRM_WaitForAllResources    10057d28 f   frameresource.obj
 0001:00056db4       FRM_GhostResource          10057db4 f   frameresource.obj
 0001:00056ecc       FRM_RemoveResourceFromAllLists 10057ecc f   frameresource.obj
 0001:00056fac       FRM_RemoveSurfaceReferences 10057fac f   frameresource.obj
 0001:00056ff0       FRM_Destroy                10057ff0 f   frameresource.obj
 0001:00057168       FRM_ReclaimUnneededResources 10058168 f   frameresource.obj
 0001:0005719c       FRM_DestroyUnneededGhosts  1005819c f   frameresource.obj
 0001:00057d38       DeTwiddleAddress16bpp      10058d38 f   twiddle.obj
 0001:00057eb0       ReadBackTwiddle16bpp       10058eb0 f   twiddle.obj
 0001:00058a90       DeTwiddleAddress32bpp      10059a90 f   twiddle.obj
 0001:00058c04       ReadBackTwiddle32bpp       10059c04 f   twiddle.obj
 0001:00058d3c       ReadBackTwiddle8bpp        10059d3c f   twiddle.obj
 0001:00058e24       ReadBackTwiddleETC1        10059e24 f   twiddle.obj
 0001:00058fc0       DeTwiddleAddress8bpp       10059fc0 f   twiddle.obj
 0001:00059120       DeTwiddleAddressETC1       1005a120 f   twiddle.obj
 0001:0005929c       FFGenGenerateTNLProgram    1005a29c f   libffgen:ffgen.obj
 0001:000593e8       FFGenFreeProgram           1005a3e8 f   libffgen:ffgen.obj
 0001:00059474       FFTNLDestroyEntry          1005a474 f   libffgen:ffgen.obj
 0001:000594b4       FFGenCreateContext         1005a4b4 f   libffgen:ffgen.obj
 0001:00059594       FFGenDestroyContext        1005a594 f   libffgen:ffgen.obj
 0001:000695d0       UseAssembleInstruction     1006a5d0 f   libffgen:useasm.obj
 0001:0006a170       CheckUndefinedLabels       1006b170 f   libffgen:useasm.obj
 0001:0006a1e8       UseAssembler               1006b1e8 f   libffgen:useasm.obj
 0001:0006a268       UseoptSetBit               1006b268 f   libffgen:useopt.obj
 0001:0006a7dc       InitSopSpec                1006b7dc f   libffgen:useopt.obj
 0001:0006b0e4       EncodeSopSpec              1006c0e4 f   libffgen:useopt.obj
 0001:0006db58       UseoptProgram              1006eb58 f   libffgen:useopt.obj
 0001:0006dc84       OpcodeArgumentCount        1006ec84 f   libffgen:usetab.obj
 0001:0006dc9c       OpcodeName                 1006ec9c f   libffgen:usetab.obj
 0001:0006dcb0       OpcodeAcceptsSkipInv       1006ecb0 f   libffgen:usetab.obj
 0001:0006dcd4       OpcodeAcceptsNoSched       1006ecd4 f   libffgen:usetab.obj
 0001:0006dcf8       FFTNLCalculateTexCoordDimensions 1006ecf8 f   libffgen:codegen.obj
 0001:0006de88       FFTNLCalculateClipPlaneRequirements 1006ee88 f   libffgen:codegen.obj
 0001:0006df20       FFTNLAssignOutputRegisters 1006ef20 f   libffgen:codegen.obj
 0001:0006e590       FFTNLRedirectOutputRegisterWrites 1006f590 f   libffgen:codegen.obj
 0001:0006e890       FFTNLGenTransformation     1006f890 f   libffgen:codegen.obj
 0001:0006f8f0       FFTNLGenClipping           100708f0 f   libffgen:codegen.obj
 0001:0006fa80       FFTNLGenColours            10070a80 f   libffgen:codegen.obj
 0001:00070200       FFTNLGenFog                10071200 f   libffgen:codegen.obj
 0001:00070820       FFTNLGenVertexToEyeVector  10071820 f   libffgen:codegen.obj
 0001:00070af8       FFTNLGenPoints             10071af8 f   libffgen:codegen.obj
 0001:00071344       FFTNLGenLinearTexGenCode   10072344 f   libffgen:codegen.obj
 0001:00071470       FFTNLGenTexPassthroughCode 10072470 f   libffgen:codegen.obj
 0001:000715d0       FFTNLGenTexturing          100725d0 f   libffgen:codegen.obj
 0001:00072588       FFTNLGenEmitVertexEnd      10073588 f   libffgen:codegen.obj
 0001:00072600       FFTNLGenerateCode          10073600 f   libffgen:codegen.obj
 0001:000729a0       FFGENDestroyCode           100739a0 f   libffgen:codegen.obj
 0001:00072ad8       CompressFreeList           10073ad8 f   libffgen:reg.obj
 0001:00072c50       ReleaseReg                 10073c50 f   libffgen:reg.obj
 0001:00072e28       LoadStoreConstant          10073e28 f   libffgen:reg.obj
 0001:000739b4       GetRegfn                   100749b4 f   libffgen:reg.obj
 0001:00074030       DestroyRegList             10075030 f   libffgen:reg.obj
 0001:00074088       GetFeatureEntry            10075088 f   libffgen:utils.obj
 0001:000740f4       GetBugEntry                100750f4 f   libffgen:utils.obj
 0001:00074160       FixBRN21697                10075160 f   libffgen:utils.obj
 0001:00074184       FixBRN21713                10075184 f   libffgen:utils.obj
 0001:000741a8       FixBRN23062                100751a8 f   libffgen:utils.obj
 0001:000741cc       FixBRN23164                100751cc f   libffgen:utils.obj
 0001:000741f0       FixBRN23461                100751f0 f   libffgen:utils.obj
 0001:00074214       FixBRN23960                10075214 f   libffgen:utils.obj
 0001:00074238       FixBRN24895                10075238 f   libffgen:utils.obj
 0001:0007425c       FixBRN25355                1007525c f   libffgen:utils.obj
 0001:00074280       FixBRN25060                10075280 f   libffgen:utils.obj
 0001:000742a4       FixBRN26570                100752a4 f   libffgen:utils.obj
 0001:000742c8       FixBRN26681                100752c8 f   libffgen:utils.obj
 0001:000742ec       FixBRN27984                100752ec f   libffgen:utils.obj
 0001:00074310       IsEnhancedNoSched          10075310 f   libffgen:utils.obj
 0001:00074334       IsHighPrecisionFIR         10075334 f   libffgen:utils.obj
 0001:00074358       IsLoadMOEStateFromRegisters 10075358 f   libffgen:utils.obj
 0001:0007437c       IsPerInstMoeIncrements     1007537c f   libffgen:utils.obj
 0001:000743a0       IsFClampInstruction        100753a0 f   libffgen:utils.obj
 0001:000743c4       HasNewEfoOptions           100753c4 f   libffgen:utils.obj
 0001:000743e8       HasPackMultipleRoundModes  100753e8 f   libffgen:utils.obj
 0001:0007440c       HasNoInstructionPairing    1007540c f   libffgen:utils.obj
 0001:00074430       NumberOfMutexesSupported   10075430 f   libffgen:utils.obj
 0001:00074444       NumberOfMonitorsSupported  10075444 f   libffgen:utils.obj
 0001:00074458       NumberOfProgramCounterBits 10075458 f   libffgen:utils.obj
 0001:0007446c       SupportsFmad16Swizzles     1007546c f   libffgen:utils.obj
 0001:00074490       NoRepeatMaskOnBitwiseInstructions 10075490 f   libffgen:utils.obj
 0001:000744b4       UseAsmInitInst             100754b4 f   libffgen:utils.obj
 0001:000744e4       UseAsmInitReg              100754e4 f   libffgen:utils.obj
 0001:00074514       DestroyInstructionList     10075514 f   libffgen:inst.obj
 0001:00074700       GetLabel                   10075700 f   libffgen:inst.obj
 0001:000747f4       DestroyLabelList           100757f4 f   libffgen:inst.obj
 0001:0007485c       COMMENT                    1007585c f   libffgen:inst.obj
 0001:00074870       NEW_BLOCK                  10075870 f   libffgen:inst.obj
 0001:00074b64       EncodeInstructionfn        10075b64 f   libffgen:inst.obj
 0001:00074f28       EncodeInstructionList      10075f28 f   libffgen:inst.obj
 0001:00074fa8       GetDRC                     10075fa8 f   libffgen:inst.obj
 0001:00075dac       M4x4                       10076dac f   libffgen:inst.obj
 0001:00075efc       M4x3                       10076efc f   libffgen:inst.obj
 0001:00076118       IF_PRED                    10077118 f   libffgen:inst.obj
 0001:000761d8       ELSE_PRED                  100771d8 f   libffgen:inst.obj
 0001:00076290       END_PRED                   10077290 f   libffgen:inst.obj
 0001:00076318       AssemblerError             10077318 f   libffgen:uscfns.obj
 0001:0007632c       UseAssemblerSetLabelAddress 1007732c f   libffgen:uscfns.obj
 0001:00076338       UseAssemblerGetLabelName   10077338 f   libffgen:uscfns.obj
 0001:00076340       UseAssemblerGetLabelAddress 10077340 f   libffgen:uscfns.obj
 0001:0007634c       UseasmRealloc              1007734c f   libffgen:uscfns.obj
 0001:0007636c       FFTNLAddAmbientLight       1007736c f   libffgen:lighting.obj
 0001:00076634       FFTNLAddDiffuseLight       10077634 f   libffgen:lighting.obj
 0001:00076904       FFTNLAddSpecularLight      10077904 f   libffgen:lighting.obj
 0001:00076bd8       FFTNLGenPointInfiniteLighting 10077bd8 f   libffgen:lighting.obj
 0001:00077474       FFTNLGenPointLocalLighting 10078474 f   libffgen:lighting.obj
 0001:0007830c       FFTNLGenSpotInfiniteLighting 1007930c f   libffgen:lighting.obj
 0001:000790b4       FFTNLGenSpotLocalLighting  1007a0b4 f   libffgen:lighting.obj
 0001:0007a220       FFTNLGenOptimisedLighting  1007b220 f   libffgen:lighting.obj
 0001:0007b8e8       PVRSRVPollForValue         1007c8e8 f   srvclum:SRVCLUM.dll
 0001:0007b8f8       PVRSRVFreeDeviceMem        1007c8f8 f   srvclum:SRVCLUM.dll
 0001:0007b908       PVRSRVAllocDeviceMem       1007c908 f   srvclum:SRVCLUM.dll
 0001:0007b918       PVRSRVUnlockMutex          1007c918 f   srvclum:SRVCLUM.dll
 0001:0007b928       PVRSRVLockMutex            1007c928 f   srvclum:SRVCLUM.dll
 0001:0007b938       PVRSRVDestroyMutex         1007c938 f   srvclum:SRVCLUM.dll
 0001:0007b948       PVRSRVCreateMutex          1007c948 f   srvclum:SRVCLUM.dll
 0001:0007b958       PVRSRVMemSet               1007c958 f   srvclum:SRVCLUM.dll
 0001:0007b968       SGXQueueTransfer           1007c968 f   srvclum:SRVCLUM.dll
 0001:0007b978       PVRSRVFreeAppHintState     1007c978 f   srvclum:SRVCLUM.dll
 0001:0007b988       PVRSRVGetAppHint           1007c988 f   srvclum:SRVCLUM.dll
 0001:0007b998       PVRSRVCreateAppHintState   1007c998 f   srvclum:SRVCLUM.dll
 0001:0007b9a8       PVRSRVEventObjectWait      1007c9a8 f   srvclum:SRVCLUM.dll
 0001:0007b9b8       SGXKickTA                  1007c9b8 f   srvclum:SRVCLUM.dll
 0001:0007b9c8       PVRSRVEnumerateDeviceClass 1007c9c8 f   srvclum:SRVCLUM.dll
 0001:0007b9d8       PVRSRVCloseBCDevice        1007c9d8 f   srvclum:SRVCLUM.dll
 0001:0007b9e8       PVRSRVUnmapDeviceClassMemory 1007c9e8 f   srvclum:SRVCLUM.dll
 0001:0007b9f8       PVRSRVMapDeviceClassMemory 1007c9f8 f   srvclum:SRVCLUM.dll
 0001:0007ba08       PVRSRVGetBCBuffer          1007ca08 f   srvclum:SRVCLUM.dll
 0001:0007ba18       PVRSRVGetBCBufferInfo      1007ca18 f   srvclum:SRVCLUM.dll
 0001:0007ba28       PVRSRVOpenBCDevice         1007ca28 f   srvclum:SRVCLUM.dll
 0001:0007ba38       PVRSRVMemCopy              1007ca38 f   srvclum:SRVCLUM.dll
 0001:0007ba48       PVRSRVFreeUserModeMem      1007ca48 f   srvclum:SRVCLUM.dll
 0001:0007ba58       PVRSRVAllocUserModeMem     1007ca58 f   srvclum:SRVCLUM.dll
 0001:0007ba68       PVRSRVCallocUserModeMem    1007ca68 f   srvclum:SRVCLUM.dll
 0001:0007ba78       PVRSRVReallocUserModeMem   1007ca78 f   srvclum:SRVCLUM.dll
 0001:0007ba88       KEGLGetDrawableParameters  1007ca88 f   libimgegl:libIMGEGL.dll
 0001:0007ba98       KEGLDestroyRenderSurface   1007ca98 f   libimgegl:libIMGEGL.dll
 0001:0007baa8       KEGLUnbindImage            1007caa8 f   libimgegl:libIMGEGL.dll
 0001:0007bab8       KEGLCreateRenderSurface    1007cab8 f   libimgegl:libIMGEGL.dll
 0001:0007bac8       KEGLResizeRenderSurface    1007cac8 f   libimgegl:libIMGEGL.dll
 0001:0007bad8       KEGLSurfaceUnbind          1007cad8 f   libimgegl:libIMGEGL.dll
 0001:0007bae8       KEGLSurfaceBind            1007cae8 f   libimgegl:libIMGEGL.dll
 0001:0007baf8       KEGLBindImage              1007caf8 f   libimgegl:libIMGEGL.dll
 0001:0007bb08       KEGLGetImageSource         1007cb08 f   libimgegl:libIMGEGL.dll
 0001:0007bb18       IMGeglGetError             1007cb18 f   libimgegl:libIMGEGL.dll
 0001:0007bb28       IMGeglGetDisplay           1007cb28 f   libimgegl:libIMGEGL.dll
 0001:0007bb38       IMGeglInitialize           1007cb38 f   libimgegl:libIMGEGL.dll
 0001:0007bb48       IMGeglTerminate            1007cb48 f   libimgegl:libIMGEGL.dll
 0001:0007bb58       IMGeglQueryString          1007cb58 f   libimgegl:libIMGEGL.dll
 0001:0007bb68       IMGeglGetProcAddress       1007cb68 f   libimgegl:libIMGEGL.dll
 0001:0007bb78       IMGeglGetConfigs           1007cb78 f   libimgegl:libIMGEGL.dll
 0001:0007bb88       IMGeglChooseConfig         1007cb88 f   libimgegl:libIMGEGL.dll
 0001:0007bb98       IMGeglGetConfigAttrib      1007cb98 f   libimgegl:libIMGEGL.dll
 0001:0007bba8       IMGeglCreateWindowSurface  1007cba8 f   libimgegl:libIMGEGL.dll
 0001:0007bbb8       IMGeglCreatePixmapSurface  1007cbb8 f   libimgegl:libIMGEGL.dll
 0001:0007bbc8       IMGeglCreatePbufferSurface 1007cbc8 f   libimgegl:libIMGEGL.dll
 0001:0007bbd8       IMGeglDestroySurface       1007cbd8 f   libimgegl:libIMGEGL.dll
 0001:0007bbe8       IMGeglQuerySurface         1007cbe8 f   libimgegl:libIMGEGL.dll
 0001:0007bbf8       IMGeglCreateContext        1007cbf8 f   libimgegl:libIMGEGL.dll
 0001:0007bc08       IMGeglDestroyContext       1007cc08 f   libimgegl:libIMGEGL.dll
 0001:0007bc18       IMGeglMakeCurrent          1007cc18 f   libimgegl:libIMGEGL.dll
 0001:0007bc28       IMGeglGetCurrentContext    1007cc28 f   libimgegl:libIMGEGL.dll
 0001:0007bc38       IMGeglGetCurrentSurface    1007cc38 f   libimgegl:libIMGEGL.dll
 0001:0007bc48       IMGeglGetCurrentDisplay    1007cc48 f   libimgegl:libIMGEGL.dll
 0001:0007bc58       IMGeglQueryContext         1007cc58 f   libimgegl:libIMGEGL.dll
 0001:0007bc68       IMGeglWaitGL               1007cc68 f   libimgegl:libIMGEGL.dll
 0001:0007bc78       IMGeglWaitNative           1007cc78 f   libimgegl:libIMGEGL.dll
 0001:0007bc88       IMGeglSwapBuffers          1007cc88 f   libimgegl:libIMGEGL.dll
 0001:0007bc98       IMGeglCopyBuffers          1007cc98 f   libimgegl:libIMGEGL.dll
 0001:0007bca8       IMGeglSwapInterval         1007cca8 f   libimgegl:libIMGEGL.dll
 0001:0007bcb8       IMGeglSurfaceAttrib        1007ccb8 f   libimgegl:libIMGEGL.dll
 0001:0007bcc8       IMGeglBindTexImage         1007ccc8 f   libimgegl:libIMGEGL.dll
 0001:0007bcd8       IMGeglReleaseTexImage      1007ccd8 f   libimgegl:libIMGEGL.dll
 0001:0007bce8       TlsCall                    1007cce8 f   coredll:COREDLL.dll
 0001:0007bcf8       TlsGetValue                1007ccf8 f   coredll:COREDLL.dll
 0001:0007bd08       TlsSetValue                1007cd08 f   coredll:COREDLL.dll
 0001:0007bd18       DllMain                    1007cd18 f   corelib0:dllmain.obj
 0001:0007be34       _DllMainCRTStartup         1007ce34 f   corelib0:pegdmain.obj
 0001:0007be64       __GSHandlerCheckCommon     1007ce64 f   corelib0:gshandler.obj
 0001:0007bea0       __GSHandlerCheck           1007cea0 f   corelib0:gshandler.obj
 0001:0007bec4       __security_init_cookie     1007cec4 f   corelib0:seccinit.obj
 0001:0007bf20       __security_check_cookie    1007cf20 f   corelib0:armsecgs.obj
 0001:0007bf34       __gsfailure                1007cf34 f   corelib0:armsecgs.obj
 0001:0007c040       _cexit                     1007d040 f   corelib0:cexit.obj
 0001:0007c05c       _initterm                  1007d05c f   corelib0:crt0dat.obj
 0001:0007c090       _cinit                     1007d090 f   corelib0:crt0dat.obj
 0001:0007c0c4       memset                     1007d0c4 f   corelib1:COREDLL.dll
 0001:0007c0d4       calloc                     1007d0d4 f   corelib1:COREDLL.dll
 0001:0007c0e4       free                       1007d0e4 f   corelib1:COREDLL.dll
 0001:0007c0f4       memcpy                     1007d0f4 f   corelib1:COREDLL.dll
 0001:0007c104       malloc                     1007d104 f   corelib1:COREDLL.dll
 0001:0007c114       strcmp                     1007d114 f   corelib1:COREDLL.dll
 0001:0007c124       realloc                    1007d124 f   corelib1:COREDLL.dll
 0001:0007c134       frexp                      1007d134 f   corelib1:COREDLL.dll
 0001:0007c144       printf                     1007d144 f   corelib1:COREDLL.dll
 0001:0007c154       vsprintf                   1007d154 f   corelib1:COREDLL.dll
 0001:0007c164       fclose                     1007d164 f   corelib1:COREDLL.dll
 0001:0007c174       fprintf                    1007d174 f   corelib1:COREDLL.dll
 0001:0007c184       fopen                      1007d184 f   corelib1:COREDLL.dll
 0001:0007c194       strcpy                     1007d194 f   corelib1:COREDLL.dll
 0001:0007c1a4       strlen                     1007d1a4 f   corelib1:COREDLL.dll
 0001:0007c1b4       longjmp                    1007d1b4 f   corelib1:COREDLL.dll
 0001:0007c1c4       setjmp                     1007d1c4 f   corelib1:COREDLL.dll
 0001:0007c1d4       sprintf                    1007d1d4 f   corelib1:COREDLL.dll
 0001:0007c1e4       _XcptFilter                1007d1e4 f   corelib1:COREDLL.dll
 0001:0007c1f4       __C_specific_handler       1007d1f4 f   corelib1:COREDLL.dll
 0001:0007c204       __security_gen_cookie2     1007d204 f   corelib1:COREDLL.dll
 0001:0007c214       __report_gsfailure         1007d214 f   corelib1:COREDLL.dll
 0001:0007c224       DisableThreadLibraryCalls  1007d224 f   coredll:COREDLL.dll
 0001:0007c234       TerminateProcess           1007d234 f   coredll:COREDLL.dll
 0001:0007c264       __IMPORT_DESCRIPTOR_SRVCLUM 1007d264     srvclum:SRVCLUM.dll
 0001:0007c278       __IMPORT_DESCRIPTOR_libIMGEGL 1007d278     libimgegl:libIMGEGL.dll
 0001:0007c28c       __IMPORT_DESCRIPTOR_COREDLL 1007d28c     coredll:COREDLL.dll
 0001:0007c2a0       __NULL_IMPORT_DESCRIPTOR   1007d2a0     srvclum:SRVCLUM.dll
 0002:00000000       __imp_TerminateProcess     1007f000     coredll:COREDLL.dll
 0002:00000004       __imp___adds               1007f004     corelib1:COREDLL.dll
 0002:00000008       __imp___subs               1007f008     corelib1:COREDLL.dll
 0002:0000000c       __imp___gts                1007f00c     corelib1:COREDLL.dll
 0002:00000010       __imp___les                1007f010     corelib1:COREDLL.dll
 0002:00000014       __imp___ges                1007f014     corelib1:COREDLL.dll
 0002:00000018       __imp___lts                1007f018     corelib1:COREDLL.dll
 0002:0000001c       __imp___itos               1007f01c     corelib1:COREDLL.dll
 0002:00000020       __imp_memcpy               1007f020     corelib1:COREDLL.dll
 0002:00000024       __imp_free                 1007f024     corelib1:COREDLL.dll
 0002:00000028       __imp_calloc               1007f028     corelib1:COREDLL.dll
 0002:0000002c       __imp___utos               1007f02c     corelib1:COREDLL.dll
 0002:00000030       __imp___muls               1007f030     corelib1:COREDLL.dll
 0002:00000034       __imp_memset               1007f034     corelib1:COREDLL.dll
 0002:00000038       __imp_TlsSetValue          1007f038     coredll:COREDLL.dll
 0002:0000003c       __imp_TlsGetValue          1007f03c     coredll:COREDLL.dll
 0002:00000040       __imp_TlsCall              1007f040     coredll:COREDLL.dll
 0002:00000044       __imp_malloc               1007f044     corelib1:COREDLL.dll
 0002:00000048       __imp___rt_udiv            1007f048     corelib1:COREDLL.dll
 0002:0000004c       __imp_strcmp               1007f04c     corelib1:COREDLL.dll
 0002:00000050       __imp_realloc              1007f050     corelib1:COREDLL.dll
 0002:00000054       __imp___nes                1007f054     corelib1:COREDLL.dll
 0002:00000058       __imp___eqs                1007f058     corelib1:COREDLL.dll
 0002:0000005c       __imp_sqrt                 1007f05c     corelib1:COREDLL.dll
 0002:00000060       __imp___stod               1007f060     corelib1:COREDLL.dll
 0002:00000064       __imp_DisableThreadLibraryCalls 1007f064     coredll:COREDLL.dll
 0002:00000068       __imp___report_gsfailure   1007f068     corelib1:COREDLL.dll
 0002:0000006c       __imp___security_gen_cookie2 1007f06c     corelib1:COREDLL.dll
 0002:00000070       __imp___C_specific_handler 1007f070     corelib1:COREDLL.dll
 0002:00000074       __imp__XcptFilter          1007f074     corelib1:COREDLL.dll
 0002:00000078       __imp_sprintf              1007f078     corelib1:COREDLL.dll
 0002:0000007c       __imp___dtou               1007f07c     corelib1:COREDLL.dll
 0002:00000080       __imp___addd               1007f080     corelib1:COREDLL.dll
 0002:00000084       __imp___divd               1007f084     corelib1:COREDLL.dll
 0002:00000088       __imp_setjmp               1007f088     corelib1:COREDLL.dll
 0002:0000008c       __imp_longjmp              1007f08c     corelib1:COREDLL.dll
 0002:00000090       __imp_strlen               1007f090     corelib1:COREDLL.dll
 0002:00000094       __imp_strcpy               1007f094     corelib1:COREDLL.dll
 0002:00000098       __imp_fopen                1007f098     corelib1:COREDLL.dll
 0002:0000009c       __imp_fprintf              1007f09c     corelib1:COREDLL.dll
 0002:000000a0       __imp_fclose               1007f0a0     corelib1:COREDLL.dll
 0002:000000a4       __imp_log                  1007f0a4     corelib1:COREDLL.dll
 0002:000000a8       __imp___utod               1007f0a8     corelib1:COREDLL.dll
 0002:000000ac       __imp_vsprintf             1007f0ac     corelib1:COREDLL.dll
 0002:000000b0       __imp_printf               1007f0b0     corelib1:COREDLL.dll
 0002:000000b4       __imp_sin                  1007f0b4     corelib1:COREDLL.dll
 0002:000000b8       __imp_frexp                1007f0b8     corelib1:COREDLL.dll
 0002:000000bc       __imp___stoi               1007f0bc     corelib1:COREDLL.dll
 0002:000000c0       __imp_floor                1007f0c0     corelib1:COREDLL.dll
 0002:000000c4       __imp___muld               1007f0c4     corelib1:COREDLL.dll
 0002:000000c8       __imp___stou               1007f0c8     corelib1:COREDLL.dll
 0002:000000cc       __imp___negs               1007f0cc     corelib1:COREDLL.dll
 0002:000000d0       __imp___dtos               1007f0d0     corelib1:COREDLL.dll
 0002:000000d4       __imp_cos                  1007f0d4     corelib1:COREDLL.dll
 0002:000000d8       __imp___divs               1007f0d8     corelib1:COREDLL.dll
 0002:000000dc       \177COREDLL_NULL_THUNK_DATA 1007f0dc     coredll:COREDLL.dll
 0002:000000e0       __imp_PVRSRVReallocUserModeMem 1007f0e0     srvclum:SRVCLUM.dll
 0002:000000e4       __imp_PVRSRVCallocUserModeMem 1007f0e4     srvclum:SRVCLUM.dll
 0002:000000e8       __imp_PVRSRVAllocUserModeMem 1007f0e8     srvclum:SRVCLUM.dll
 0002:000000ec       __imp_PVRSRVFreeUserModeMem 1007f0ec     srvclum:SRVCLUM.dll
 0002:000000f0       __imp_PVRSRVPollForValue   1007f0f0     srvclum:SRVCLUM.dll
 0002:000000f4       __imp_PVRSRVMemCopy        1007f0f4     srvclum:SRVCLUM.dll
 0002:000000f8       __imp_PVRSRVOpenBCDevice   1007f0f8     srvclum:SRVCLUM.dll
 0002:000000fc       __imp_PVRSRVGetBCBufferInfo 1007f0fc     srvclum:SRVCLUM.dll
 0002:00000100       __imp_PVRSRVGetBCBuffer    1007f100     srvclum:SRVCLUM.dll
 0002:00000104       __imp_PVRSRVMapDeviceClassMemory 1007f104     srvclum:SRVCLUM.dll
 0002:00000108       __imp_PVRSRVUnmapDeviceClassMemory 1007f108     srvclum:SRVCLUM.dll
 0002:0000010c       __imp_PVRSRVCloseBCDevice  1007f10c     srvclum:SRVCLUM.dll
 0002:00000110       __imp_PVRSRVEnumerateDeviceClass 1007f110     srvclum:SRVCLUM.dll
 0002:00000114       __imp_SGXKickTA            1007f114     srvclum:SRVCLUM.dll
 0002:00000118       __imp_PVRSRVEventObjectWait 1007f118     srvclum:SRVCLUM.dll
 0002:0000011c       __imp_PVRSRVCreateAppHintState 1007f11c     srvclum:SRVCLUM.dll
 0002:00000120       __imp_PVRSRVGetAppHint     1007f120     srvclum:SRVCLUM.dll
 0002:00000124       __imp_PVRSRVFreeAppHintState 1007f124     srvclum:SRVCLUM.dll
 0002:00000128       __imp_SGXQueueTransfer     1007f128     srvclum:SRVCLUM.dll
 0002:0000012c       __imp_PVRSRVMemSet         1007f12c     srvclum:SRVCLUM.dll
 0002:00000130       __imp_PVRSRVCreateMutex    1007f130     srvclum:SRVCLUM.dll
 0002:00000134       __imp_PVRSRVDestroyMutex   1007f134     srvclum:SRVCLUM.dll
 0002:00000138       __imp_PVRSRVLockMutex      1007f138     srvclum:SRVCLUM.dll
 0002:0000013c       __imp_PVRSRVUnlockMutex    1007f13c     srvclum:SRVCLUM.dll
 0002:00000140       __imp_PVRSRVAllocDeviceMem 1007f140     srvclum:SRVCLUM.dll
 0002:00000144       __imp_PVRSRVFreeDeviceMem  1007f144     srvclum:SRVCLUM.dll
 0002:00000148       \177SRVCLUM_NULL_THUNK_DATA 1007f148     srvclum:SRVCLUM.dll
 0002:0000014c       __imp_IMGeglReleaseTexImage 1007f14c     libimgegl:libIMGEGL.dll
 0002:00000150       __imp_IMGeglBindTexImage   1007f150     libimgegl:libIMGEGL.dll
 0002:00000154       __imp_IMGeglSwapInterval   1007f154     libimgegl:libIMGEGL.dll
 0002:00000158       __imp_IMGeglCopyBuffers    1007f158     libimgegl:libIMGEGL.dll
 0002:0000015c       __imp_IMGeglSwapBuffers    1007f15c     libimgegl:libIMGEGL.dll
 0002:00000160       __imp_IMGeglWaitNative     1007f160     libimgegl:libIMGEGL.dll
 0002:00000164       __imp_IMGeglWaitGL         1007f164     libimgegl:libIMGEGL.dll
 0002:00000168       __imp_IMGeglQueryContext   1007f168     libimgegl:libIMGEGL.dll
 0002:0000016c       __imp_IMGeglGetCurrentDisplay 1007f16c     libimgegl:libIMGEGL.dll
 0002:00000170       __imp_IMGeglGetCurrentSurface 1007f170     libimgegl:libIMGEGL.dll
 0002:00000174       __imp_IMGeglGetCurrentContext 1007f174     libimgegl:libIMGEGL.dll
 0002:00000178       __imp_IMGeglMakeCurrent    1007f178     libimgegl:libIMGEGL.dll
 0002:0000017c       __imp_IMGeglDestroyContext 1007f17c     libimgegl:libIMGEGL.dll
 0002:00000180       __imp_IMGeglCreateContext  1007f180     libimgegl:libIMGEGL.dll
 0002:00000184       __imp_IMGeglQuerySurface   1007f184     libimgegl:libIMGEGL.dll
 0002:00000188       __imp_IMGeglDestroySurface 1007f188     libimgegl:libIMGEGL.dll
 0002:0000018c       __imp_IMGeglCreatePbufferSurface 1007f18c     libimgegl:libIMGEGL.dll
 0002:00000190       __imp_IMGeglCreatePixmapSurface 1007f190     libimgegl:libIMGEGL.dll
 0002:00000194       __imp_IMGeglCreateWindowSurface 1007f194     libimgegl:libIMGEGL.dll
 0002:00000198       __imp_IMGeglGetConfigAttrib 1007f198     libimgegl:libIMGEGL.dll
 0002:0000019c       __imp_IMGeglChooseConfig   1007f19c     libimgegl:libIMGEGL.dll
 0002:000001a0       __imp_IMGeglGetConfigs     1007f1a0     libimgegl:libIMGEGL.dll
 0002:000001a4       __imp_IMGeglGetProcAddress 1007f1a4     libimgegl:libIMGEGL.dll
 0002:000001a8       __imp_IMGeglQueryString    1007f1a8     libimgegl:libIMGEGL.dll
 0002:000001ac       __imp_IMGeglTerminate      1007f1ac     libimgegl:libIMGEGL.dll
 0002:000001b0       __imp_IMGeglInitialize     1007f1b0     libimgegl:libIMGEGL.dll
 0002:000001b4       __imp_IMGeglGetDisplay     1007f1b4     libimgegl:libIMGEGL.dll
 0002:000001b8       __imp_IMGeglGetError       1007f1b8     libimgegl:libIMGEGL.dll
 0002:000001bc       __imp_KEGLGetImageSource   1007f1bc     libimgegl:libIMGEGL.dll
 0002:000001c0       __imp_KEGLBindImage        1007f1c0     libimgegl:libIMGEGL.dll
 0002:000001c4       __imp_KEGLSurfaceBind      1007f1c4     libimgegl:libIMGEGL.dll
 0002:000001c8       __imp_KEGLSurfaceUnbind    1007f1c8     libimgegl:libIMGEGL.dll
 0002:000001cc       __imp_KEGLResizeRenderSurface 1007f1cc     libimgegl:libIMGEGL.dll
 0002:000001d0       __imp_KEGLCreateRenderSurface 1007f1d0     libimgegl:libIMGEGL.dll
 0002:000001d4       __imp_KEGLUnbindImage      1007f1d4     libimgegl:libIMGEGL.dll
 0002:000001d8       __imp_KEGLDestroyRenderSurface 1007f1d8     libimgegl:libIMGEGL.dll
 0002:000001dc       __imp_KEGLGetDrawableParameters 1007f1dc     libimgegl:libIMGEGL.dll
 0002:000001e0       __imp_IMGeglSurfaceAttrib  1007f1e0     libimgegl:libIMGEGL.dll
 0002:000001e4       \177libIMGEGL_NULL_THUNK_DATA 1007f1e4     libimgegl:libIMGEGL.dll
 0002:000001ec       __security_cookie          1007f1ec     corelib0:seccinit.obj
 0002:000001f0       __security_cookie_complement 1007f1f0     corelib0:seccinit.obj
 0002:000001f4       _exitflag                  1007f1f4     corelib0:cexit.obj
 0002:000001f8       __onexitend                1007f1f8     <common>
 0002:000001fc       __onexitbegin              1007f1fc     <common>
 0002:00000200       _pRawDllMain               1007f200     <common>

 entry point at        0001:0007be34

 Static symbols

 0001:00018208       SetupVerticesForAccum      10019208 f   accum.obj
 0001:00018584       SetupVerticesAndShaderForAccum 10019584 f   accum.obj
 0001:00018c6c       WaitUntilBufObjNotUsed     10019c6c f   bufobj.obj
 0001:00018d28       DisposeBufObject           10019d28 f   bufobj.obj
 0001:00019558       SetupVerticesForClear      1001a558 f   clear.obj
 0001:000198a8       SetupVerticesAndShaderForClear 1001a8a8 f   clear.obj
 0001:00019b1c       SetupFragmentShaderForClear 1001ab1c f   clear.obj
 0001:0001a258       DrawTexture                1001b258 f   drawtex.obj
 0001:0001b144       WriteDirect16Indices       1001c144 f   drawvarray.obj
 0001:0001b258       WriteLineStripOrLoop16Indices 1001c258 f   drawvarray.obj
 0001:0001b3a4       GetNumIndices              1001c3a4 f   drawvarray.obj
 0001:0001b440       SetupStreamPointers        1001c440 f   drawvarray.obj
 0001:0001b520       CopyVArrayData             1001c520 f   drawvarray.obj
 0001:0001b5e8       CopyVArrayDataDeindex      1001c5e8 f   drawvarray.obj
 0001:0001b738       GetVertexIndexBufferSpace  1001c738 f   drawvarray.obj
 0001:0001b82c       CreateSequentialStaticIndices 1001c82c f   drawvarray.obj
 0001:0001b8d0       CreateLineStripStaticIndices 1001c8d0 f   drawvarray.obj
 0001:0001b978       GetVArrayBatchRewindCount  1001c978 f   drawvarray.obj
 0001:0001b9f4       DrawVertexArray            1001c9f4 f   drawvarray.obj
 0001:0001bb00       DrawArraysBatchedStaticIndices 1001cb00 f   drawvarray.obj
 0001:0001bbb8       DrawArraysAutoIndices      1001cbb8 f   drawvarray.obj
 0001:0001bcc0       DrawElementsDeindex        1001ccc0 f   drawvarray.obj
 0001:0001bd30       DrawElementsIndexBO        1001cd30 f   drawvarray.obj
 0001:0001be14       DrawBatchOnVBuffer         1001ce14 f   drawvarray.obj
 0001:0001c388       PickDrawArraysProc         1001d388 f   drawvarray.obj
 0001:0001c4bc       PickDrawElementsProc       1001d4bc f   drawvarray.obj
 0001:0001c604       DetermineMinAndMaxIndices  1001d604 f   drawvarray.obj
 0001:0001c6c0       TransformIndicesTo16Bits   1001d6c0 f   drawvarray.obj
 0001:0001ca2c       HandlePrimitiveTypeChange  1001da2c f   drawvarray.obj
 0001:0001d068       MultiDrawArraysAutoIndices 1001e068 f   drawvarray.obj
 0001:0001d210       MultiDrawBatchOnVBuffer    1001e210 f   drawvarray.obj
 0001:0001d7a8       MultiDrawVertexArray       1001e7a8 f   drawvarray.obj
 0001:0001d998       MultiDrawElementsDeindex   1001e998 f   drawvarray.obj
 0001:0001db08       MultiDrawElementsIndexBO   1001eb08 f   drawvarray.obj
 0001:0001dc78       PickMultiDrawElementsProc  1001ec78 f   drawvarray.obj
 0001:0001e6c4       FreeContextSharedState     1001f6c4 f   eglglue.obj
 0001:0001e834       CreateSharedState          1001f834 f   eglglue.obj
 0001:0001ea34       InitContext                1001fa34 f   eglglue.obj
 0001:0001f068       DeInitContext              10020068 f   eglglue.obj
 0001:0001f164       GLESCreateGC               10020164 f   eglglue.obj
 0001:0001f1e8       GLESDestroyGC              100201e8 f   eglglue.obj
 0001:0001f21c       GLESMakeCurrentGC          1002021c f   eglglue.obj
 0001:0001f380       GLESMakeUnCurrentGC        10020380 f   eglglue.obj
 0001:0001f3e0       GLESFlushBuffersGC         100203e0 f   eglglue.obj
 0001:0001f458       GLESMarkRenderSurfaceAsInvalid 10020458 f   eglglue.obj
 0001:0001f4b4       GLESGetProcAddress         100204b4 f   eglglue.obj
 0001:0001ff70       FreeFrameBuffer            10020f70 f   fbo.obj
 0001:00020080       DisposeFrameBufferObject   10021080 f   fbo.obj
 0001:00020090       DisposeRenderBuffer        10021090 f   fbo.obj
 0001:000204ac       ComputeFrameBufferCompleteness 100214ac f   fbo.obj
 0001:00020c24       NotifyFrameBuffer          10021c24 f   fbo.obj
 0001:00021f70       SetupBlendingOPs           10022f70 f   fftex.obj
 0001:000223d8       ReuseHashedBlendState      100233d8 f   fftex.obj
 0001:000228b0       AllocateTempReg            100238b0 f   fftexhw.obj
 0001:00022914       SetupColourSourceRegTypeNum 10023914 f   fftexhw.obj
 0001:00022a08       SetupAlphaSourceRegTypeNum 10023a08 f   fftexhw.obj
 0001:00022afc       EncodeFPMA                 10023afc f   fftexhw.obj
 0001:00022e40       SetupSourcesForSOP2        10023e40 f   fftexhw.obj
 0001:000231b4       EncodeRestrictedBlend      100241b4 f   fftexhw.obj
 0001:000237d0       IntegerCopy                100247d0 f   fftexhw.obj
 0001:0002386c       SetupBaseColour            1002486c f   fftexhw.obj
 0001:00023ad8       SetupTwoSidedColour        10024ad8 f   fftexhw.obj
 0001:00023f7c       IntegerCombineColorAndAlpha 10024f7c f   fftexhw.obj
 0001:000241e8       IntegerADDSIGNEDSOP2       100251e8 f   fftexhw.obj
 0001:0002445c       IntegerConvertTextureFormat 1002545c f   fftexhw.obj
 0001:00024718       CalculateSourceInformation 10025718 f   fftexhw.obj
 0001:00024b80       EncodeYUVColourSpaceConversion 10025b80 f   fftexhw.obj
 0001:000250c8       EncodeYUV420ColourSpaceConversion 100260c8 f   fftexhw.obj
 0001:00025614       LoadFPMASpecialConstant    10026614 f   fftexhw.obj
 0001:00025680       EncodeFPMAReplace          10026680 f   fftexhw.obj
 0001:0002574c       EncodeGeneralAlphaBlend    1002674c f   fftexhw.obj
 0001:00025af4       IntegerScaleColorAndAlpha  10026af4 f   fftexhw.obj
 0001:00025d6c       EncodeDOT3                 10026d6c f   fftexhw.obj
 0001:00025f8c       EncodeGeneralColorBlend    10026f8c f   fftexhw.obj
 0001:000263c8       EncodeGeneralADDSIGNEDBlend 100273c8 f   fftexhw.obj
 0001:000266c4       IntegerSetupTextureBlend   100276c4 f   fftexhw.obj
 0001:00026fbc       GetFFTNLGenDesc            10027fbc f   fftnlgles.obj
 0001:00027658       SetupFFTNLShaderInputs     10028658 f   fftnlgles.obj
 0001:0002884c       Fogfv                      1002984c f   fog.obj
 0001:00028d60       ConvertResult              10029d60 f   get.obj
 0001:000292a8       GetBlendFactor             1002a2a8 f   get.obj
 0001:00029348       GetStencilOp               1002a348 f   get.obj
 0001:000293d8       GetTexParameter            1002a3d8 f   get.obj
 0001:000295e8       GetTexEnvCombine           1002a5e8 f   get.obj
 0001:00029914       GetTexEnvfv                1002a914 f   get.obj
 0001:00029b64       GetLightfv                 1002ab64 f   get.obj
 0001:00029c90       GetMaterialfv              1002ac90 f   get.obj
 0001:00029da0       IsEnabled                  1002ada0 f   get.obj
 0001:0002ae50       DoGet                      1002be50 f   get.obj
 0001:0002c554       HardwareMipTextureTransfer 1002d554 f   makemips.obj
 0001:0002c6f0       HardwareMipGen             1002d6f0 f   makemips.obj
 0001:0002c858       MakeMapLevel8bpp           1002d858 f   makemips.obj
 0001:0002c950       MakeMapLevel16bpp          1002d950 f   makemips.obj
 0001:0002cc74       MakeMapLevel32bpp          1002dc74 f   makemips.obj
 0001:0002ce4c       SetupMipmapTextureControlWords 1002de4c f   makemips.obj
 0001:0002d89c       XForm2                     1002e89c f   matrix.obj
 0001:0002da54       XForm3                     1002ea54 f   matrix.obj
 0001:0002dce0       XForm4                     1002ece0 f   matrix.obj
 0001:00031ce4       RemoveItemFromList         10032ce4 f   names.obj
 0001:0003258c       CheckReadPixelArgs         1003358c f   pixop.obj
 0001:00032e4c       CalcRegionClip             10033e4c f   scissor.obj
 0001:00032f10       SetupVerticesForDrawmask   10033f10 f   scissor.obj
 0001:000331bc       SetupVerticesAndShaderForDrawmask 100341bc f   scissor.obj
 0001:00033424       SendDrawMaskRect           10034424 f   scissor.obj
 0001:00033b18       WaitForRender              10034b18 f   sgxif.obj
 0001:00033b70       SetupZLSRegs               10034b70 f   sgxif.obj
 0001:00033d98       GLESInitRegs               10034d98 f   sgxif.obj
 0001:00033e64       StartFrame                 10034e64 f   sgxif.obj
 0001:0003433c       DoKickTA                   1003533c f   sgxif.obj
 0001:00034ad8       DestroyUSEShaderVariant    10035ad8 f   shader.obj
 0001:000362e8       SetUpAlphaTestParams       100372e8 f   state.obj
 0001:00036558       BlendFuncSeparate          10037558 f   state.obj
 0001:00036a34       PointSize                  10037a34 f   state.obj
 0001:00036bfc       PointParameterfv           10037bfc f   state.obj
 0001:00037a20       ConvertFactorColor         10038a20 f   tex.obj
 0001:000385d4       Copy888Palette4Span        100395d4 f   tex.obj
 0001:00038644       Copy888Palette4Level1xN    10039644 f   tex.obj
 0001:000386fc       Copy888Palette8Span        100396fc f   tex.obj
 0001:00038738       Copy8888Palette4Span       10039738 f   tex.obj
 0001:00038768       Copy8888Palette4Level1xN   10039768 f   tex.obj
 0001:000387bc       Copy8888Palette8Span       100397bc f   tex.obj
 0001:000387dc       Copy565Palette4Span        100397dc f   tex.obj
 0001:00038814       Copy565Palette4Level1xN    10039814 f   tex.obj
 0001:00038878       Copy565Palette8Span        10039878 f   tex.obj
 0001:0003889c       Copy4444Palette4Span       1003989c f   tex.obj
 0001:000388e4       Copy4444Palette4Level1xN   100398e4 f   tex.obj
 0001:00038964       Copy4444Palette8Span       10039964 f   tex.obj
 0001:00038990       Copy5551Palette4Span       10039990 f   tex.obj
 0001:000389d8       Copy5551Palette4Level1xN   100399d8 f   tex.obj
 0001:00038a58       Copy5551Palette8Span       10039a58 f   tex.obj
 0001:00038ef4       CheckTexImageArgs          10039ef4 f   tex.obj
 0001:00038ff4       CheckTexSubImageArgs       10039ff4 f   tex.obj
 0001:00039200       UpdateEGLImage             1003a200 f   tex.obj
 0001:0003bf40       TexEnvfv                   1003cf40 f   tex.obj
 0001:0003c2f8       TexEnvxv                   1003d2f8 f   tex.obj
 0001:0003c748       TexEnviv                   1003d748 f   tex.obj
 0001:0003cc28       TexParameterfv             1003dc28 f   tex.obj
 0001:0003d268       TexGenfv                   1003e268 f   tex.obj
 0001:0003d9fc       HardwareTextureTransfer    1003e9fc f   texdata.obj
 0001:0003f29c       UnloadInconsistentTexture  1004029c f   texmgmt.obj
 0001:0003fa74       SetupEGLImageArbitraryStride 10040a74 f   texmgmt.obj
 0001:0003fe24       FreeTexture                10040e24 f   texmgmt.obj
 0001:0003ff8c       DisposeTexObj              10040f8c f   texmgmt.obj
 0001:00040a88       TransformLightDirection    10041a88 f   tnlapi.obj
 0001:00040f04       Lightfv                    10041f04 f   tnlapi.obj
 0001:00041e10       Frustumf                   10042e10 f   tnlapi.obj
 0001:00042290       Orthof                     10043290 f   tnlapi.obj
 0001:00043080       Rotatef                    10044080 f   tnlapi.obj
 0001:00043c90       UseAssemblerError          10044c90 f   useasmgles.obj
 0001:00043ce8       UseAssemblerSetLabelAddress 10044ce8 f   useasmgles.obj
 0001:00043cec       UseAssemblerGetLabelName   10044cec f   useasmgles.obj
 0001:00043cf4       UseAssemblerGetLabelAddress 10044cf4 f   useasmgles.obj
 0001:00043cfc       UseasmRealloc              10044cfc f   useasmgles.obj
 0001:00043d14       UseasmAlloc                10044d14 f   useasmgles.obj
 0001:00043d28       UseasmFree                 10044d28 f   useasmgles.obj
 0001:00044048       CreateFBBlendUSEASMCode    10045048 f   usegles.obj
 0001:00044570       CreateLogicalOpsUSEASMCode 10045570 f   usegles.obj
 0001:000451cc       CreateColorMaskUSEASMCode  100461cc f   usegles.obj
 0001:00045378       CreateFogUSEASMCode        10046378 f   usegles.obj
 0001:000458e0       CreateVertexUnpackUSECode  100468e0 f   usegles.obj
 0001:000460a0       SetupIteratorsAndTextureLookups 100470a0 f   usegles.obj
 0001:0004766c       WritePDSPixelShaderProgram 1004866c f   validate.obj
 0001:00047d34       PatchAuxiliaryPDSVertexShaderProgram 10048d34 f   validate.obj
 0001:00047f28       WritePDSStaticVertexShaderProgram 10048f28 f   validate.obj
 0001:00048610       WritePDSVertexShaderProgram 10049610 f   validate.obj
 0001:00048e4c       LoadSecondaryAttributes    10049e4c f   validate.obj
 0001:0004901c       WritePDSUSEShaderSAProgram 1004a01c f   validate.obj
 0001:00049314       WriteStaticPDSPixelSAProgram 1004a314 f   validate.obj
 0001:00049788       WriteMTEState              1004a788 f   validate.obj
 0001:00049d84       GenerateVertexCompileMask  1004ad84 f   validate.obj
 0001:00049fb4       SetupAttribStreams         1004afb4 f   validate.obj
 0001:0004a15c       SetupRenderState           1004b15c f   validate.obj
 0001:0004a6bc       WriteVDMControlStream      1004b6bc f   validate.obj
 0001:0004aef8       Copy1Byte                  1004bef8 f   vertex.obj
 0001:0004af1c       Copy3Bytes                 1004bf1c f   vertex.obj
 0001:0004af58       Copy1Short                 1004bf58 f   vertex.obj
 0001:0004af7c       Copy3Shorts                1004bf7c f   vertex.obj
 0001:0004afb8       Copy1Long                  1004bfb8 f   vertex.obj
 0001:0004afdc       Copy2Longs                 1004bfdc f   vertex.obj
 0001:0004b010       Copy3Longs                 1004c010 f   vertex.obj
 0001:0004b04c       Copy4Longs                 1004c04c f   vertex.obj
 0001:0004b090       MemCopy1Byte               1004c090 f   vertex.obj
 0001:0004b0b0       MemCopy3Bytes              1004c0b0 f   vertex.obj
 0001:0004b0d0       MemCopy1Short              1004c0d0 f   vertex.obj
 0001:0004b0f0       MemCopy3Shorts             1004c0f0 f   vertex.obj
 0001:0004b114       MemCopy1Long               1004c114 f   vertex.obj
 0001:0004b134       MemCopy2Longs              1004c134 f   vertex.obj
 0001:0004b154       MemCopy3Longs              1004c154 f   vertex.obj
 0001:0004b178       MemCopy4Longs              1004c178 f   vertex.obj
 0001:0004c290       InitialiseYUVCoefficients  1004d290 f   texstream.obj
 0001:0004c7c8       CreateTextureStreamState   1004d7c8 f   texstream.obj
 0001:0004e9e4       BindProgram                1004f9e4 f   vprogram.obj
 0001:0004ed30       DisposeProgram             1004fd30 f   vprogram.obj
 0001:0004fff8       PDSEncodeSimpleMOVS        10050ff8 f   pds.obj
 0001:0005011c       PDSGetNextConstant         1005111c f   pds.obj
 0001:00050170       PDSGetNumConstants         10051170 f   pds.obj
 0001:00051c24       VPAssignInputRegisters     10052c24 f   vpcodegen.obj
 0001:00051db8       VPAssignOutputRegisters    10052db8 f   vpcodegen.obj
 0001:00055c90       GetBufferSpaceLeftInBytes  10056c90 f   buffers.obj
 0001:00055cf4       CheckUSSEBufferSpace       10056cf4 f   buffers.obj
 0001:00055dc8       CheckTACtrlBufferSpace     10056dc8 f   buffers.obj
 0001:00056570       CodeHeapInsertBlockInFreeList 10057570 f   codeheap.obj
 0001:00056c94       WaitUntilResourceIsNotNeeded 10057c94 f   frameresource.obj
 0001:00056e0c       RemoveResourceFromAllLists 10057e0c f   frameresource.obj
 0001:00056efc       RemoveSurfaceReferencesInList 10057efc f   frameresource.obj
 0001:0005706c       ReclaimUnneededResourcesInList 1005806c f   frameresource.obj
 0001:000571d0       InitLookupTable32          100581d0 f   twiddle.obj
 0001:0005731c       Write8x8Pixels16bpp        1005831c f   twiddle.obj
 0001:000575f4       TwiddleSmallTexture16bpp   100585f4 f   twiddle.obj
 0001:00057788       Twiddle32x3216bpp          10058788 f   twiddle.obj
 0001:00057974       RecursiveTwid16bpp         10058974 f   twiddle.obj
 0001:00057a44       TwiddleRectangularTexture16bpp 10058a44 f   twiddle.obj
 0001:00057dd4       Untwiddle16Bpp             10058dd4 f   twiddle.obj
 0001:00057fe8       Write8x8Pixels32bpp        10058fe8 f   twiddle.obj
 0001:00058334       TwiddleSmallTexture32bpp   10059334 f   twiddle.obj
 0001:000584c8       Twiddle32x3232bpp          100594c8 f   twiddle.obj
 0001:000586a4       RecursiveTwid32bpp         100596a4 f   twiddle.obj
 0001:00058774       TwiddleRectangularTexture32bpp 10059774 f   twiddle.obj
 0001:00058b2c       Untwiddle32bpp             10059b2c f   twiddle.obj
 0001:00058f34       getUV                      10059f34 f   twiddle.obj
 0001:000595f4       SetLabelAddress            1005a5f4 f   libffgen:useasm.obj
 0001:000597c0       FixupLabelAddresses        1005a7c0 f   libffgen:useasm.obj
 0001:00059914       GetLabelAddress            1005a914 f   libffgen:useasm.obj
 0001:00059a38       CheckArgFlags              1005aa38 f   libffgen:useasm.obj
 0001:00059cc8       CheckFlags                 1005acc8 f   libffgen:useasm.obj
 0001:0005a410       EncodeIndex                1005b410 f   libffgen:useasm.obj
 0001:0005a4f8       EncodeDestBank             1005b4f8 f   libffgen:useasm.obj
 0001:0005a6c0       IsValidSrc0Bank            1005b6c0 f   libffgen:useasm.obj
 0001:0005a750       EncodeSrc0Bank             1005b750 f   libffgen:useasm.obj
 0001:0005a858       EncodeSrc12Bank            1005b858 f   libffgen:useasm.obj
 0001:0005aa24       CheckAndEncodeGlobalRegisterNumber 1005ba24 f   libffgen:useasm.obj
 0001:0005ab54       CheckAndEncodeImmediate    1005bb54 f   libffgen:useasm.obj
 0001:0005ac48       CheckAndEncodeRegisterNumber 1005bc48 f   libffgen:useasm.obj
 0001:0005af18       EncodeArgument             1005bf18 f   libffgen:useasm.obj
 0001:0005b058       EncodeDest                 1005c058 f   libffgen:useasm.obj
 0001:0005b0cc       EncodeSrc0                 1005c0cc f   libffgen:useasm.obj
 0001:0005b140       EncodeSrc1                 1005c140 f   libffgen:useasm.obj
 0001:0005b1b4       EncodeSrc2                 1005c1b4 f   libffgen:useasm.obj
 0001:0005b22c       EncodePredicate            1005c22c f   libffgen:useasm.obj
 0001:0005b330       AssembleDot34              1005c330 f   libffgen:useasm.obj
 0001:0005be18       EncodeFloatRepeats         1005ce18 f   libffgen:useasm.obj
 0001:0005bed8       EncodeTestInstruction_AluOp 1005ced8 f   libffgen:useasm.obj
 0001:0005c254       EncodeTestInstruction_Repeat 1005d254 f   libffgen:useasm.obj
 0001:0005c444       EncodeTestInstruction      1005d444 f   libffgen:useasm.obj
 0001:0005cc08       EncodeFloatInstruction     1005dc08 f   libffgen:useasm.obj
 0001:0005d290       EncodeSOP2Instruction      1005e290 f   libffgen:useasm.obj
 0001:0005dcb8       EncodePackInstruction      1005ecb8 f   libffgen:useasm.obj
 0001:0005e420       EncodeBitwiseInstruction   1005f420 f   libffgen:useasm.obj
 0001:0005e928       ExpandMacros               1005f928 f   libffgen:useasm.obj
 0001:0005f410       EncodeFDPCInstruction      10060410 f   libffgen:useasm.obj
 0001:0005f6e0       EncodeFDDPInstruction      100606e0 f   libffgen:useasm.obj
 0001:0005fa24       EncodeFDDPCInstruction     10060a24 f   libffgen:useasm.obj
 0001:0005fe10       EncodeMovcInstruction      10060e10 f   libffgen:useasm.obj
 0001:00060160       EncodeEfoInstruction       10061160 f   libffgen:useasm.obj
 0001:00060490       EncodeSOPWMInstruction     10061490 f   libffgen:useasm.obj
 0001:00060ac4       EncodeLRP1Instruction      10061ac4 f   libffgen:useasm.obj
 0001:000612d0       EncodeLRP2Instruction      100622d0 f   libffgen:useasm.obj
 0001:00061b78       EncodeSOP3Instruction      10062b78 f   libffgen:useasm.obj
 0001:00062710       EncodeFPMAInstruction      10063710 f   libffgen:useasm.obj
 0001:00062dbc       EncodeIMA16Instruction     10063dbc f   libffgen:useasm.obj
 0001:0006331c       EncodeIMAEInstruction      1006431c f   libffgen:useasm.obj
 0001:0006396c       EncodeADIFInstruction      1006496c f   libffgen:useasm.obj
 0001:00063c58       EncodeSSUM16Instruction    10064c58 f   libffgen:useasm.obj
 0001:000641fc       EncodeFIRVInstruction      100651fc f   libffgen:useasm.obj
 0001:00064710       EncodeFIRVHInstruction     10065710 f   libffgen:useasm.obj
 0001:00064ad4       EncodeBILINInstruction     10065ad4 f   libffgen:useasm.obj
 0001:00065044       EncodeFIRHInstruction      10066044 f   libffgen:useasm.obj
 0001:000655f8       EncodeFIRHHInstruction     100665f8 f   libffgen:useasm.obj
 0001:00065bfc       EncodeSMPInstruction       10066bfc f   libffgen:useasm.obj
 0001:0006616c       EncodeLDSTCacheFlags       1006716c f   libffgen:useasm.obj
 0001:00066238       EncodeLDSTInstruction      10067238 f   libffgen:useasm.obj
 0001:000668f0       EncodeBAInstruction        100678f0 f   libffgen:useasm.obj
 0001:00066a7c       EncodeLAPCInstruction      10067a7c f   libffgen:useasm.obj
 0001:00066b3c       EncodeBRInstruction        10067b3c f   libffgen:useasm.obj
 0001:00066ccc       EncodeIDFInstruction       10067ccc f   libffgen:useasm.obj
 0001:00066eb4       EncodeWDFInstruction       10067eb4 f   libffgen:useasm.obj
 0001:00066fc0       EncodeEmitInstruction      10067fc0 f   libffgen:useasm.obj
 0001:000674ac       EncodeSMOAInstruction      100684ac f   libffgen:useasm.obj
 0001:000677d0       EncodeSMLSIInstruction     100687d0 f   libffgen:useasm.obj
 0001:00067ccc       EncodeMOEInstruction       10068ccc f   libffgen:useasm.obj
 0001:00067fec       EncodeSETFCInstruction     10068fec f   libffgen:useasm.obj
 0001:0006813c       EncodeLIMMInstruction      1006913c f   libffgen:useasm.obj
 0001:000682f4       EncodeMOVInstruction       100692f4 f   libffgen:useasm.obj
 0001:00068660       EncodeMutexInstruction     10069660 f   libffgen:useasm.obj
 0001:000687bc       EncodeLDRSTRInstruction    100697bc f   libffgen:useasm.obj
 0001:00068ba8       EncodePTOFFPCOEFFInstruction 10069ba8 f   libffgen:useasm.obj
 0001:00068d28       EncodeATST8Instruction     10069d28 f   libffgen:useasm.obj
 0001:000690d0       EncodeDEPTHFInstruction    1006a0d0 f   libffgen:useasm.obj
 0001:0006935c       EncodeSETMInstruction      1006a35c f   libffgen:useasm.obj
 0001:000694bc       EncodeWOPInstruction       1006a4bc f   libffgen:useasm.obj
 0001:0006a290       UseoptAlloc                1006b290 f   libffgen:useopt.obj
 0001:0006a2d0       IsNode                     1006b2d0 f   libffgen:useopt.obj
 0001:0006a36c       RegToNode                  1006b36c f   libffgen:useopt.obj
 0001:0006a3c8       FixUseoptData              1006b3c8 f   libffgen:useopt.obj
 0001:0006a488       InitOptState               1006b488 f   libffgen:useopt.obj
 0001:0006a698       SetInstFlags               1006b698 f   libffgen:useopt.obj
 0001:0006a714       UsesSrc0                   1006b714 f   libffgen:useopt.obj
 0001:0006a878       ExtractSop2Spec            1006b878 f   libffgen:useopt.obj
 0001:0006abfc       EncodeSop2Spec             1006bbfc f   libffgen:useopt.obj
 0001:0006aea4       EncodeSop3Spec             1006bea4 f   libffgen:useopt.obj
 0001:0006b11c       IsMove                     1006c11c f   libffgen:useopt.obj
 0001:0006b2dc       RemoveInst                 1006c2dc f   libffgen:useopt.obj
 0001:0006b370       GetNextInst                1006c370 f   libffgen:useopt.obj
 0001:0006b3b0       DeleteInst                 1006c3b0 f   libffgen:useopt.obj
 0001:0006b464       InsertBefore               1006c464 f   libffgen:useopt.obj
 0001:0006b4dc       EmitMove                   1006c4dc f   libffgen:useopt.obj
 0001:0006b588       CanUseSrc                  1006c588 f   libffgen:useopt.obj
 0001:0006b770       SubstInstSrc               1006c770 f   libffgen:useopt.obj
 0001:0006b920       UpdateNodeRepl             1006c920 f   libffgen:useopt.obj
 0001:0006ba04       GetNodeRepl                1006ca04 f   libffgen:useopt.obj
 0001:0006bb54       MunchMovs                  1006cb54 f   libffgen:useopt.obj
 0001:0006be08       SetRegValues               1006ce08 f   libffgen:useopt.obj
 0001:0006bf20       Sop2AddMult                1006cf20 f   libffgen:useopt.obj
 0001:0006c344       Sop2MultAdd                1006d344 f   libffgen:useopt.obj
 0001:0006c784       ElimUnusedAlpha            1006d784 f   libffgen:useopt.obj
 0001:0006cbdc       IsScalingSop               1006dbdc f   libffgen:useopt.obj
 0001:0006cd00       Sop2Scaling                1006dd00 f   libffgen:useopt.obj
 0001:0006ce1c       PeepHoleSop2               1006de1c f   libffgen:useopt.obj
 0001:0006d0bc       EliminateMoves             1006e0bc f   libffgen:useopt.obj
 0001:0006d404       SplitBlock                 1006e404 f   libffgen:useopt.obj
 0001:0006d49c       FormRepeatsBlock           1006e49c f   libffgen:useopt.obj
 0001:0006d688       OptimiseBlock              1006e688 f   libffgen:useopt.obj
 0001:00072a2c       AddRegToList               10073a2c f   libffgen:reg.obj
 0001:00072cf4       GetTemp                    10073cf4 f   libffgen:reg.obj
 0001:00073704       LoadConstant               10074704 f   libffgen:reg.obj
 0001:000737b0       RelativeAddressingSA       100747b0 f   libffgen:reg.obj
 0001:0007454c       StoreInstruction           1007554c f   libffgen:inst.obj
 0001:00074884       CheckRegUsage              10075884 f   libffgen:inst.obj
 0001:0007502c       SetupNoSchedForInternalRegs 1007602c f   libffgen:inst.obj
 0001:00075144       M4x4_efos                  10076144 f   libffgen:inst.obj
 0001:000759a0       M4x4_dp4                   100769a0 f   libffgen:inst.obj
 0001:0007bd38       _DllMainCRTStartupHelper   1007cd38 f   corelib0:pegdmain.obj
 0001:0007bf78       doexit                     1007cf78 f   corelib0:cexit.obj
