; Listing generated by Microsoft (R) Optimizing Compiler Version 14.01.60511.01 

	TTL	C:\WINCE600\PUBLIC\PowerVR-SDK\OGLES2\Extras\PVREngine\BoundingBox.cpp
	CODE32

  00000			 AREA	 |.drectve|, DRECTVE
	DCB	"-defaultlib:LIBCMT "
	DCB	"-defaultlib:OLDNAMES "

	EXPORT	|??0PVRTVec3@@QAA@XZ|			; PVRTVec3::PVRTVec3
; File c:\wince600\public\powervr-sdk\ogles2\tools\pvrtvector.h

  00000			 AREA	 |.pdata|, PDATA
|$T36172| DCD	|$LN5@PVRTVec3|
	DCD	0x40000100
; Function compile flags: /Ogspy

  00000			 AREA	 |.text|, CODE, ARM

  00000		 |??0PVRTVec3@@QAA@XZ| PROC		; PVRTVec3::PVRTVec3

; 330  : 	PVRTVec3(){}

  00000		 |$LN5@PVRTVec3|
  00000		 |$M36169|
  00000	e12fff1e	 bx          lr
  00004		 |$M36170|

			 ENDP  ; |??0PVRTVec3@@QAA@XZ|, PVRTVec3::PVRTVec3

	EXPORT	|??_H@YAXPAXIHP6APAX0@Z@Z|		; `vector constructor iterator'

  00000			 AREA	 |.pdata|, PDATA
|$T36186| DCD	|$LN9@vector|
	DCD	0x40000e01
; Function compile flags: /Ogspy

  00000			 AREA	 |.text|, CODE, ARM

  00000		 |??_H@YAXPAXIHP6APAX0@Z@Z| PROC	; `vector constructor iterator'
  00000		 |$LN9@vector|
  00000	e92d40f0	 stmdb       sp!, {r4 - r7, lr}
  00004		 |$M36183|
  00004	e1a06003	 mov         r6, r3
  00008	e1a07001	 mov         r7, r1
  0000c	e1a04000	 mov         r4, r0
  00010	e2525001	 subs        r5, r2, #1
  00014	4a000005	 bmi         |$LN1@vector|
  00018		 |$LL2@vector|
  00018	e1a00004	 mov         r0, r4
  0001c	e1a0e00f	 mov         lr, pc
  00020	e12fff16	 bx          r6
  00024	e0844007	 add         r4, r4, r7
  00028	e2555001	 subs        r5, r5, #1
  0002c	5afffff9	 bpl         |$LL2@vector|
  00030		 |$LN1@vector|
  00030	e8bd40f0	 ldmia       sp!, {r4 - r7, lr}
  00034	e12fff1e	 bx          lr
  00038		 |$M36184|

			 ENDP  ; |??_H@YAXPAXIHP6APAX0@Z@Z|, `vector constructor iterator'

	EXPORT	|??0BoundingBox@pvrengine@@QAA@QBUPVRTVec3@@H@Z| ; pvrengine::BoundingBox::BoundingBox
	IMPORT	|__imp___lts|
	IMPORT	|__imp___gts|

  00000			 AREA	 |.pdata|, PDATA
|$T36228| DCD	|$LN24@BoundingBo|
	DCD	0x40005a02
; Function compile flags: /Ogspy
; File c:\wince600\public\powervr-sdk\ogles2\extras\pvrengine\boundingbox.cpp

  00000			 AREA	 |.text|, CODE, ARM

  00000		 |??0BoundingBox@pvrengine@@QAA@QBUPVRTVec3@@H@Z| PROC ; pvrengine::BoundingBox::BoundingBox

; 37   : 	{

  00000		 |$LN24@BoundingBo|
  00000	e92d4ff0	 stmdb       sp!, {r4 - r11, lr}
  00004	e24dd004	 sub         sp, sp, #4
  00008		 |$M36225|
  00008	e1a04000	 mov         r4, r0
  0000c	e58d4000	 str         r4, [sp]

; 38   : 		int			i;
; 39   : 		VERTTYPE	MinX, MaxX, MinY, MaxY, MinZ, MaxZ;
; 40   : 
; 41   : 		/* Inialise values to first vertex */
; 42   : 		MinX=pV->x;	MaxX=pV->x;

  00010	e5915000	 ldr         r5, [r1]

; 43   : 		MinY=pV->y;	MaxY=pV->y;

  00014	e5916004	 ldr         r6, [r1, #4]

; 44   : 		MinZ=pV->z;	MaxZ=pV->z;

  00018	e5917008	 ldr         r7, [r1, #8]
  0001c	e1a08005	 mov         r8, r5
  00020	e1a09006	 mov         r9, r6
  00024	e1a0a007	 mov         r10, r7

; 45   : 
; 46   : 		/* Loop through all vertices to find extremas */
; 47   : 		for (i=1; i<nNumberOfVertices; i++)

  00028	e3520001	 cmp         r2, #1
  0002c	da000036	 ble         |$LN7@BoundingBo|
  00030	e59f3128	 ldr         r3, [pc, #0x128]
  00034	e281b00c	 add         r11, r1, #0xC
  00038	e2424001	 sub         r4, r2, #1
  0003c		 |$LL9@BoundingBo|

; 48   : 		{
; 49   : 			/* Minimum and Maximum X */
; 50   : 			if (pV[i].x < MinX) MinX = pV[i].x;

  0003c	e5933000	 ldr         r3, [r3]
  00040	e59b0000	 ldr         r0, [r11]
  00044	e1a01005	 mov         r1, r5
  00048	e1a0e00f	 mov         lr, pc
  0004c	e12fff13	 bx          r3

; 51   : 			if (pV[i].x > MaxX) MaxX = pV[i].x;

  00050	e59f310c	 ldr         r3, [pc, #0x10C]
  00054	e3500000	 cmp         r0, #0
  00058	159b5000	 ldrne       r5, [r11]
  0005c	e5933000	 ldr         r3, [r3]
  00060	e59b0000	 ldr         r0, [r11]
  00064	e1a01008	 mov         r1, r8
  00068	e1a0e00f	 mov         lr, pc
  0006c	e12fff13	 bx          r3

; 52   : 
; 53   : 			/* Minimum and Maximum Y */
; 54   : 			if (pV[i].y < MinY) MinY = pV[i].y;

  00070	e59f30e8	 ldr         r3, [pc, #0xE8]
  00074	e3500000	 cmp         r0, #0
  00078	159b8000	 ldrne       r8, [r11]
  0007c	e5933000	 ldr         r3, [r3]
  00080	e59b0004	 ldr         r0, [r11, #4]
  00084	e1a01006	 mov         r1, r6
  00088	e1a0e00f	 mov         lr, pc
  0008c	e12fff13	 bx          r3

; 55   : 			if (pV[i].y > MaxY) MaxY = pV[i].y;

  00090	e59f30cc	 ldr         r3, [pc, #0xCC]
  00094	e3500000	 cmp         r0, #0
  00098	159b6004	 ldrne       r6, [r11, #4]
  0009c	e5933000	 ldr         r3, [r3]
  000a0	e59b0004	 ldr         r0, [r11, #4]
  000a4	e1a01009	 mov         r1, r9
  000a8	e1a0e00f	 mov         lr, pc
  000ac	e12fff13	 bx          r3

; 56   : 
; 57   : 			/* Minimum and Maximum Z */
; 58   : 			if (pV[i].z < MinZ) MinZ = pV[i].z;

  000b0	e59f30a8	 ldr         r3, [pc, #0xA8]
  000b4	e3500000	 cmp         r0, #0
  000b8	159b9004	 ldrne       r9, [r11, #4]
  000bc	e5933000	 ldr         r3, [r3]
  000c0	e59b0008	 ldr         r0, [r11, #8]
  000c4	e1a01007	 mov         r1, r7
  000c8	e1a0e00f	 mov         lr, pc
  000cc	e12fff13	 bx          r3

; 59   : 			if (pV[i].z > MaxZ) MaxZ = pV[i].z;

  000d0	e59f308c	 ldr         r3, [pc, #0x8C]
  000d4	e3500000	 cmp         r0, #0
  000d8	159b7008	 ldrne       r7, [r11, #8]
  000dc	e5933000	 ldr         r3, [r3]
  000e0	e59b0008	 ldr         r0, [r11, #8]
  000e4	e1a0100a	 mov         r1, r10
  000e8	e1a0e00f	 mov         lr, pc
  000ec	e12fff13	 bx          r3
  000f0	e3500000	 cmp         r0, #0
  000f4	159ba008	 ldrne       r10, [r11, #8]
  000f8	e59f3060	 ldr         r3, [pc, #0x60]
  000fc	e28bb00c	 add         r11, r11, #0xC
  00100	e2544001	 subs        r4, r4, #1
  00104	1affffcc	 bne         |$LL9@BoundingBo|

; 37   : 	{

  00108	e59d4000	 ldr         r4, [sp]
  0010c		 |$LN7@BoundingBo|

; 60   : 		}
; 61   : 
; 62   : 		/* Assign the resulting extremas to the bounding box structure */
; 63   : 		/* Point 0 */
; 64   : 		vPoint[0].x=MinX;

  0010c	e88400e0	 stmia       r4, {r5 - r7}

; 65   : 		vPoint[0].y=MinY;
; 66   : 		vPoint[0].z=MinZ;
; 67   : 
; 68   : 		/* Point 1 */
; 69   : 		vPoint[1].x=MinX;

  00110	e284c00c	 add         r12, r4, #0xC
  00114	e88c0460	 stmia       r12, {r5, r6, r10}

; 70   : 		vPoint[1].y=MinY;
; 71   : 		vPoint[1].z=MaxZ;
; 72   : 
; 73   : 		/* Point 2 */
; 74   : 		vPoint[2].x=MinX;

  00118	e284c018	 add         r12, r4, #0x18
  0011c	e88c0220	 stmia       r12, {r5, r9}

; 75   : 		vPoint[2].y=MaxY;
; 76   : 		vPoint[2].z=MinZ;

  00120	e5847020	 str         r7, [r4, #0x20]

; 77   : 
; 78   : 		/* Point 3 */
; 79   : 		vPoint[3].x=MinX;

  00124	e284c024	 add         r12, r4, #0x24
  00128	e88c0620	 stmia       r12, {r5, r9, r10}

; 80   : 		vPoint[3].y=MaxY;
; 81   : 		vPoint[3].z=MaxZ;
; 82   : 
; 83   : 		/* Point 4 */
; 84   : 		vPoint[4].x=MaxX;
; 85   : 		vPoint[4].y=MinY;
; 86   : 		vPoint[4].z=MinZ;
; 87   : 
; 88   : 		/* Point 5 */
; 89   : 		vPoint[5].x=MaxX;
; 90   : 		vPoint[5].y=MinY;
; 91   : 		vPoint[5].z=MaxZ;
; 92   : 
; 93   : 		/* Point 6 */
; 94   : 		vPoint[6].x=MaxX;
; 95   : 		vPoint[6].y=MaxY;
; 96   : 		vPoint[6].z=MinZ;
; 97   : 
; 98   : 		/* Point 7 */
; 99   : 		vPoint[7].x=MaxX;
; 100  : 		vPoint[7].y=MaxY;
; 101  : 		vPoint[7].z=MaxZ;
; 102  : 	}

  0012c	e1a00004	 mov         r0, r4
  00130	e5848030	 str         r8, [r4, #0x30]
  00134	e284c034	 add         r12, r4, #0x34
  00138	e88c01c0	 stmia       r12, {r6 - r8}
  0013c	e284c040	 add         r12, r4, #0x40
  00140	e88c0440	 stmia       r12, {r6, r10}
  00144	e284c048	 add         r12, r4, #0x48
  00148	e88c0300	 stmia       r12, {r8, r9}
  0014c	e284c050	 add         r12, r4, #0x50
  00150	e88c0780	 stmia       r12, {r7 - r10}
  00154	e28dd004	 add         sp, sp, #4
  00158	e8bd4ff0	 ldmia       sp!, {r4 - r11, lr}
  0015c	e12fff1e	 bx          lr
  00160		 |$LN25@BoundingBo|
  00160		 |$LN26@BoundingBo|
  00160	00000000	 DCD         |__imp___lts|
  00164		 |$LN27@BoundingBo|
  00164	00000000	 DCD         |__imp___gts|
  00168		 |$M36226|

			 ENDP  ; |??0BoundingBox@pvrengine@@QAA@QBUPVRTVec3@@H@Z|, pvrengine::BoundingBox::BoundingBox

	EXPORT	|??0BoundingBox@pvrengine@@QAA@QBEHHH@Z| ; pvrengine::BoundingBox::BoundingBox
; File c:\wince600\public\powervr-sdk\ogles2\tools\pvrtvector.h

  00000			 AREA	 |.pdata|, PDATA
|$T36274| DCD	|$LN24@BoundingBo@2|
	DCD	0x40006002
; Function compile flags: /Ogspy
; File c:\wince600\public\powervr-sdk\ogles2\extras\pvrengine\boundingbox.cpp

  00000			 AREA	 |.text|, CODE, ARM

  00000		 |??0BoundingBox@pvrengine@@QAA@QBEHHH@Z| PROC ; pvrengine::BoundingBox::BoundingBox

; 111  : 	{

  00000		 |$LN24@BoundingBo@2|
  00000	e92d4ff0	 stmdb       sp!, {r4 - r11, lr}
  00004	e24dd00c	 sub         sp, sp, #0xC
  00008		 |$M36271|
  00008	e1a04000	 mov         r4, r0
  0000c	e58d4008	 str         r4, [sp, #8]

; 112  : 		int			i;
; 113  : 		VERTTYPE	MinX, MaxX, MinY, MaxY, MinZ, MaxZ;
; 114  : 
; 115  : 		// point to first vertex
; 116  : 		PVRTVec3 *pVertex =(PVRTVec3*)(pV+i32Offset);
; 117  : 
; 118  : 		/* Inialise values to first vertex */
; 119  : 		MinX=pVertex->x;	MaxX=pVertex->x;

  00010	e7b15003	 ldr         r5, [r1, +r3]!

; 120  : 		MinY=pVertex->y;	MaxY=pVertex->y;
; 121  : 		MinZ=pVertex->z;	MaxZ=pVertex->z;
; 122  : 
; 123  : 		/* Loop through all vertices to find extremas */
; 124  : 		for (i=1; i<nNumberOfVertices; i++)

  00014	e3520001	 cmp         r2, #1
  00018	e5916004	 ldr         r6, [r1, #4]
  0001c	e5917008	 ldr         r7, [r1, #8]
  00020	e58d1004	 str         r1, [sp, #4]
  00024	e1a08006	 mov         r8, r6
  00028	e1a09007	 mov         r9, r7
  0002c	e1a0a005	 mov         r10, r5
  00030	da00003b	 ble         |$LN7@BoundingBo@2|
  00034	e59d1030	 ldr         r1, [sp, #0x30]
  00038	e2423001	 sub         r3, r2, #1
  0003c	e59d4004	 ldr         r4, [sp, #4]
  00040	e58d3000	 str         r3, [sp]
  00044	e59f312c	 ldr         r3, [pc, #0x12C]
  00048		 |$LL9@BoundingBo@2|

; 125  : 		{
; 126  : 			pVertex = (PVRTVec3*)( (unsigned char*)(pVertex)+i32Stride);
; 127  : 
; 128  : 			/* Minimum and Maximum X */
; 129  : 			if (pVertex->x < MinX) MinX = pVertex->x;

  00048	e7b4b001	 ldr         r11, [r4, +r1]!
  0004c	e5933000	 ldr         r3, [r3]
  00050	e1a01005	 mov         r1, r5
  00054	e1a0000b	 mov         r0, r11
  00058	e1a0e00f	 mov         lr, pc
  0005c	e12fff13	 bx          r3

; 130  : 			if (pVertex->x > MaxX) MaxX = pVertex->x;

  00060	e59f3114	 ldr         r3, [pc, #0x114]
  00064	e3500000	 cmp         r0, #0
  00068	11a0500b	 movne       r5, r11
  0006c	e5933000	 ldr         r3, [r3]
  00070	e1a0000b	 mov         r0, r11
  00074	e1a0100a	 mov         r1, r10
  00078	e1a0e00f	 mov         lr, pc
  0007c	e12fff13	 bx          r3

; 131  : 
; 132  : 			/* Minimum and Maximum Y */
; 133  : 			if (pVertex->y < MinY) MinY = pVertex->y;

  00080	e59f30f0	 ldr         r3, [pc, #0xF0]
  00084	e3500000	 cmp         r0, #0
  00088	e5940004	 ldr         r0, [r4, #4]
  0008c	e5933000	 ldr         r3, [r3]
  00090	11a0a00b	 movne       r10, r11
  00094	e1a01006	 mov         r1, r6
  00098	e1a0e00f	 mov         lr, pc
  0009c	e12fff13	 bx          r3

; 134  : 			if (pVertex->y > MaxY) MaxY = pVertex->y;

  000a0	e59f30d4	 ldr         r3, [pc, #0xD4]
  000a4	e3500000	 cmp         r0, #0
  000a8	15946004	 ldrne       r6, [r4, #4]
  000ac	e5933000	 ldr         r3, [r3]
  000b0	e5940004	 ldr         r0, [r4, #4]
  000b4	e1a01008	 mov         r1, r8
  000b8	e1a0e00f	 mov         lr, pc
  000bc	e12fff13	 bx          r3

; 135  : 
; 136  : 			/* Minimum and Maximum Z */
; 137  : 			if (pVertex->z < MinZ) MinZ = pVertex->z;

  000c0	e59f30b0	 ldr         r3, [pc, #0xB0]
  000c4	e3500000	 cmp         r0, #0
  000c8	15948004	 ldrne       r8, [r4, #4]
  000cc	e5933000	 ldr         r3, [r3]
  000d0	e5940008	 ldr         r0, [r4, #8]
  000d4	e1a01007	 mov         r1, r7
  000d8	e1a0e00f	 mov         lr, pc
  000dc	e12fff13	 bx          r3

; 138  : 			if (pVertex->z > MaxZ) MaxZ = pVertex->z;

  000e0	e59f3094	 ldr         r3, [pc, #0x94]
  000e4	e3500000	 cmp         r0, #0
  000e8	15947008	 ldrne       r7, [r4, #8]
  000ec	e5933000	 ldr         r3, [r3]
  000f0	e5940008	 ldr         r0, [r4, #8]
  000f4	e1a01009	 mov         r1, r9
  000f8	e1a0e00f	 mov         lr, pc
  000fc	e12fff13	 bx          r3
  00100	e59d3000	 ldr         r3, [sp]
  00104	e3500000	 cmp         r0, #0
  00108	15949008	 ldrne       r9, [r4, #8]
  0010c	e2533001	 subs        r3, r3, #1
  00110	e58d3000	 str         r3, [sp]
  00114	e59f305c	 ldr         r3, [pc, #0x5C]
  00118	e59d1030	 ldr         r1, [sp, #0x30]
  0011c	1affffc9	 bne         |$LL9@BoundingBo@2|

; 111  : 	{

  00120	e59d4008	 ldr         r4, [sp, #8]
  00124		 |$LN7@BoundingBo@2|

; 139  : 		}
; 140  : 
; 141  : 		/* Assign the resulting extremas to the bounding box structure */
; 142  : 		/* Point 0 */
; 143  : 		vPoint[0].x=MinX;

  00124	e88400e0	 stmia       r4, {r5 - r7}

; 144  : 		vPoint[0].y=MinY;
; 145  : 		vPoint[0].z=MinZ;
; 146  : 
; 147  : 		/* Point 1 */
; 148  : 		vPoint[1].x=MinX;

  00128	e284c00c	 add         r12, r4, #0xC
  0012c	e88c0260	 stmia       r12, {r5, r6, r9}

; 149  : 		vPoint[1].y=MinY;
; 150  : 		vPoint[1].z=MaxZ;
; 151  : 
; 152  : 		/* Point 2 */
; 153  : 		vPoint[2].x=MinX;

  00130	e284c018	 add         r12, r4, #0x18
  00134	e88c0120	 stmia       r12, {r5, r8}

; 154  : 		vPoint[2].y=MaxY;
; 155  : 		vPoint[2].z=MinZ;

  00138	e5847020	 str         r7, [r4, #0x20]

; 156  : 
; 157  : 		/* Point 3 */
; 158  : 		vPoint[3].x=MinX;

  0013c	e284c024	 add         r12, r4, #0x24
  00140	e88c0720	 stmia       r12, {r5, r8 - r10}

; 159  : 		vPoint[3].y=MaxY;
; 160  : 		vPoint[3].z=MaxZ;
; 161  : 
; 162  : 		/* Point 4 */
; 163  : 		vPoint[4].x=MaxX;
; 164  : 		vPoint[4].y=MinY;
; 165  : 		vPoint[4].z=MinZ;
; 166  : 
; 167  : 		/* Point 5 */
; 168  : 		vPoint[5].x=MaxX;
; 169  : 		vPoint[5].y=MinY;
; 170  : 		vPoint[5].z=MaxZ;
; 171  : 
; 172  : 		/* Point 6 */
; 173  : 		vPoint[6].x=MaxX;
; 174  : 		vPoint[6].y=MaxY;
; 175  : 		vPoint[6].z=MinZ;
; 176  : 
; 177  : 		/* Point 7 */
; 178  : 		vPoint[7].x=MaxX;
; 179  : 		vPoint[7].y=MaxY;
; 180  : 		vPoint[7].z=MaxZ;
; 181  : 	}

  00144	e1a00004	 mov         r0, r4
  00148	e284c034	 add         r12, r4, #0x34
  0014c	e88c04c0	 stmia       r12, {r6, r7, r10}
  00150	e284c040	 add         r12, r4, #0x40
  00154	e88c0640	 stmia       r12, {r6, r9, r10}
  00158	e584804c	 str         r8, [r4, #0x4C]
  0015c	e284c050	 add         r12, r4, #0x50
  00160	e88c0480	 stmia       r12, {r7, r10}
  00164	e284c058	 add         r12, r4, #0x58
  00168	e88c0300	 stmia       r12, {r8, r9}
  0016c	e28dd00c	 add         sp, sp, #0xC
  00170	e8bd4ff0	 ldmia       sp!, {r4 - r11, lr}
  00174	e12fff1e	 bx          lr
  00178		 |$LN25@BoundingBo@2|
  00178		 |$LN26@BoundingBo@2|
  00178	00000000	 DCD         |__imp___lts|
  0017c		 |$LN27@BoundingBo@2|
  0017c	00000000	 DCD         |__imp___gts|
  00180		 |$M36272|

			 ENDP  ; |??0BoundingBox@pvrengine@@QAA@QBEHHH@Z|, pvrengine::BoundingBox::BoundingBox

	END
