; Listing generated by Microsoft (R) Optimizing Compiler Version 14.01.60511.01 

	TTL	C:\WINCE600\PUBLIC\PowerVR-SDK\OGLES2\Extras\PVREngine\BoundingHex.cpp
	CODE32

  00000			 AREA	 |.drectve|, DRECTVE
	DCB	"-defaultlib:LIBCMT "
	DCB	"-defaultlib:OLDNAMES "

	EXPORT	|??0Plane@pvrengine@@QAA@XZ|		; pvrengine::Plane::Plane
; File c:\wince600\public\powervr-sdk\ogles2\extras\pvrengine\include\plane.h

  00000			 AREA	 |.pdata|, PDATA
|$T36187| DCD	|$LN5@Plane|
	DCD	0x40000100
; Function compile flags: /Ogspy

  00000			 AREA	 |.text|, CODE, ARM

  00000		 |??0Plane@pvrengine@@QAA@XZ| PROC	; pvrengine::Plane::Plane

; 43   : 		Plane(){}

  00000		 |$LN5@Plane|
  00000		 |$M36184|
  00000	e12fff1e	 bx          lr
  00004		 |$M36185|

			 ENDP  ; |??0Plane@pvrengine@@QAA@XZ|, pvrengine::Plane::Plane

	EXPORT	|??_H@YAXPAXIHP6APAX0@Z@Z|		; `vector constructor iterator'

  00000			 AREA	 |.pdata|, PDATA
|$T36201| DCD	|$LN9@vector|
	DCD	0x40000e01
; Function compile flags: /Ogspy

  00000			 AREA	 |.text|, CODE, ARM

  00000		 |??_H@YAXPAXIHP6APAX0@Z@Z| PROC	; `vector constructor iterator'
  00000		 |$LN9@vector|
  00000	e92d40f0	 stmdb       sp!, {r4 - r7, lr}
  00004		 |$M36198|
  00004	e1a06003	 mov         r6, r3
  00008	e1a07001	 mov         r7, r1
  0000c	e1a04000	 mov         r4, r0
  00010	e2525001	 subs        r5, r2, #1
  00014	4a000005	 bmi         |$LN1@vector|
  00018		 |$LL2@vector|
  00018	e1a00004	 mov         r0, r4
  0001c	e1a0e00f	 mov         lr, pc
  00020	e12fff16	 bx          r6
  00024	e0844007	 add         r4, r4, r7
  00028	e2555001	 subs        r5, r5, #1
  0002c	5afffff9	 bpl         |$LL2@vector|
  00030		 |$LN1@vector|
  00030	e8bd40f0	 ldmia       sp!, {r4 - r7, lr}
  00034	e12fff1e	 bx          lr
  00038		 |$M36199|

			 ENDP  ; |??_H@YAXPAXIHP6APAX0@Z@Z|, `vector constructor iterator'

	EXPORT	|??0BoundingHex@pvrengine@@QAA@XZ|	; pvrengine::BoundingHex::BoundingHex
	IMPORT	|memset|

  00000			 AREA	 |.pdata|, PDATA
|$T36226| DCD	|$LN13@BoundingHe|
	DCD	0x40000801
; Function compile flags: /Ogspy
; File c:\wince600\public\powervr-sdk\ogles2\extras\pvrengine\boundinghex.cpp

  00000			 AREA	 |.text|, CODE, ARM

  00000		 |??0BoundingHex@pvrengine@@QAA@XZ| PROC ; pvrengine::BoundingHex::BoundingHex

; 21   : 	{

  00000		 |$LN13@BoundingHe|
  00000	e92d4010	 stmdb       sp!, {r4, lr}
  00004		 |$M36223|
  00004	e1a04000	 mov         r4, r0

; 22   : 		memset(this,0,sizeof(*this));

  00008	e3a02060	 mov         r2, #0x60
  0000c	e3a01000	 mov         r1, #0
  00010	eb000000	 bl          memset

; 23   : 	}

  00014	e1a00004	 mov         r0, r4
  00018	e8bd4010	 ldmia       sp!, {r4, lr}
  0001c	e12fff1e	 bx          lr
  00020		 |$M36224|

			 ENDP  ; |??0BoundingHex@pvrengine@@QAA@XZ|, pvrengine::BoundingHex::BoundingHex

	EXPORT	|??0BoundingHex@pvrengine@@QAA@ABUBoundingBox@1@@Z| ; pvrengine::BoundingHex::BoundingHex
	IMPORT	|??0Plane@pvrengine@@QAA@ABUPVRTVec3@@00@Z| ; pvrengine::Plane::Plane
; File c:\wince600\public\powervr-sdk\ogles2\extras\pvrengine\include\plane.h

  00000			 AREA	 |.pdata|, PDATA
|$T36257| DCD	|$LN13@BoundingHe@2|
	DCD	0x40005b02
; Function compile flags: /Ogspy
; File c:\wince600\public\powervr-sdk\ogles2\extras\pvrengine\boundinghex.cpp

  00000			 AREA	 |.text|, CODE, ARM

  00000		 |??0BoundingHex@pvrengine@@QAA@ABUBoundingBox@1@@Z| PROC ; pvrengine::BoundingHex::BoundingHex

; 28   : 	{

  00000		 |$LN13@BoundingHe@2|
  00000	e92d4070	 stmdb       sp!, {r4 - r6, lr}
  00004	e24dd010	 sub         sp, sp, #0x10
  00008		 |$M36254|
  00008	e1a05001	 mov         r5, r1
  0000c	e1a06000	 mov         r6, r0

; 29   : 		m_pPlanes[0] = Plane(sBoundingBox.vPoint[0],sBoundingBox.vPoint[1],sBoundingBox.vPoint[2]);

  00010	e2853018	 add         r3, r5, #0x18
  00014	e285200c	 add         r2, r5, #0xC
  00018	e28d0000	 add         r0, sp, #0
  0001c	eb000000	 bl          |??0Plane@pvrengine@@QAA@ABUPVRTVec3@@00@Z|
  00020	e1a04000	 mov         r4, r0
  00024	e5943000	 ldr         r3, [r4]

; 30   : 		m_pPlanes[1] = Plane(sBoundingBox.vPoint[1],sBoundingBox.vPoint[3],sBoundingBox.vPoint[5]);

  00028	e2852024	 add         r2, r5, #0x24
  0002c	e285100c	 add         r1, r5, #0xC
  00030	e5863000	 str         r3, [r6]
  00034	e594e004	 ldr         lr, [r4, #4]
  00038	e285303c	 add         r3, r5, #0x3C
  0003c	e28d0000	 add         r0, sp, #0
  00040	e586e004	 str         lr, [r6, #4]
  00044	e594e008	 ldr         lr, [r4, #8]
  00048	e586e008	 str         lr, [r6, #8]
  0004c	e594e00c	 ldr         lr, [r4, #0xC]
  00050	e586e00c	 str         lr, [r6, #0xC]
  00054	eb000000	 bl          |??0Plane@pvrengine@@QAA@ABUPVRTVec3@@00@Z|
  00058	e1a04000	 mov         r4, r0
  0005c	e5943000	 ldr         r3, [r4]

; 31   : 		m_pPlanes[2] = Plane(sBoundingBox.vPoint[5],sBoundingBox.vPoint[4],sBoundingBox.vPoint[7]);

  00060	e2852030	 add         r2, r5, #0x30
  00064	e28d0000	 add         r0, sp, #0
  00068	e5863010	 str         r3, [r6, #0x10]
  0006c	e5941004	 ldr         r1, [r4, #4]
  00070	e2853054	 add         r3, r5, #0x54
  00074	e5861014	 str         r1, [r6, #0x14]
  00078	e594e008	 ldr         lr, [r4, #8]
  0007c	e285103c	 add         r1, r5, #0x3C
  00080	e586e018	 str         lr, [r6, #0x18]
  00084	e594e00c	 ldr         lr, [r4, #0xC]
  00088	e586e01c	 str         lr, [r6, #0x1C]
  0008c	eb000000	 bl          |??0Plane@pvrengine@@QAA@ABUPVRTVec3@@00@Z|
  00090	e1a04000	 mov         r4, r0
  00094	e5941000	 ldr         r1, [r4]

; 32   : 		m_pPlanes[3] = Plane(sBoundingBox.vPoint[4],sBoundingBox.vPoint[0],sBoundingBox.vPoint[6]);

  00098	e2853048	 add         r3, r5, #0x48
  0009c	e1a02005	 mov         r2, r5
  000a0	e5861020	 str         r1, [r6, #0x20]
  000a4	e594e004	 ldr         lr, [r4, #4]
  000a8	e2851030	 add         r1, r5, #0x30
  000ac	e28d0000	 add         r0, sp, #0
  000b0	e586e024	 str         lr, [r6, #0x24]
  000b4	e594e008	 ldr         lr, [r4, #8]
  000b8	e586e028	 str         lr, [r6, #0x28]
  000bc	e594e00c	 ldr         lr, [r4, #0xC]
  000c0	e586e02c	 str         lr, [r6, #0x2C]
  000c4	eb000000	 bl          |??0Plane@pvrengine@@QAA@ABUPVRTVec3@@00@Z|
  000c8	e1a04000	 mov         r4, r0
  000cc	e5941000	 ldr         r1, [r4]

; 33   : 		m_pPlanes[4] = Plane(sBoundingBox.vPoint[0],sBoundingBox.vPoint[4],sBoundingBox.vPoint[1]);

  000d0	e285300c	 add         r3, r5, #0xC
  000d4	e2852030	 add         r2, r5, #0x30
  000d8	e5861030	 str         r1, [r6, #0x30]
  000dc	e594e004	 ldr         lr, [r4, #4]
  000e0	e1a01005	 mov         r1, r5
  000e4	e28d0000	 add         r0, sp, #0
  000e8	e586e034	 str         lr, [r6, #0x34]
  000ec	e594e008	 ldr         lr, [r4, #8]
  000f0	e586e038	 str         lr, [r6, #0x38]
  000f4	e594e00c	 ldr         lr, [r4, #0xC]
  000f8	e586e03c	 str         lr, [r6, #0x3C]
  000fc	eb000000	 bl          |??0Plane@pvrengine@@QAA@ABUPVRTVec3@@00@Z|
  00100	e1a04000	 mov         r4, r0
  00104	e5941000	 ldr         r1, [r4]

; 34   : 		m_pPlanes[5] = Plane(sBoundingBox.vPoint[3],sBoundingBox.vPoint[7],sBoundingBox.vPoint[2]);

  00108	e2853018	 add         r3, r5, #0x18
  0010c	e2852054	 add         r2, r5, #0x54
  00110	e5861040	 str         r1, [r6, #0x40]
  00114	e594e004	 ldr         lr, [r4, #4]
  00118	e2851024	 add         r1, r5, #0x24
  0011c	e28d0000	 add         r0, sp, #0
  00120	e586e044	 str         lr, [r6, #0x44]
  00124	e594e008	 ldr         lr, [r4, #8]
  00128	e586e048	 str         lr, [r6, #0x48]
  0012c	e594e00c	 ldr         lr, [r4, #0xC]
  00130	e586e04c	 str         lr, [r6, #0x4C]
  00134	eb000000	 bl          |??0Plane@pvrengine@@QAA@ABUPVRTVec3@@00@Z|
  00138	e1a02000	 mov         r2, r0
  0013c	e5923000	 ldr         r3, [r2]

; 35   : 	}

  00140	e1a00006	 mov         r0, r6
  00144	e5863050	 str         r3, [r6, #0x50]
  00148	e5923004	 ldr         r3, [r2, #4]
  0014c	e5863054	 str         r3, [r6, #0x54]
  00150	e5923008	 ldr         r3, [r2, #8]
  00154	e5863058	 str         r3, [r6, #0x58]
  00158	e592300c	 ldr         r3, [r2, #0xC]
  0015c	e586305c	 str         r3, [r6, #0x5C]
  00160	e28dd010	 add         sp, sp, #0x10
  00164	e8bd4070	 ldmia       sp!, {r4 - r6, lr}
  00168	e12fff1e	 bx          lr
  0016c		 |$M36255|

			 ENDP  ; |??0BoundingHex@pvrengine@@QAA@ABUBoundingBox@1@@Z|, pvrengine::BoundingHex::BoundingHex

	END
