; Listing generated by Microsoft (R) Optimizing Compiler Version 14.01.60511.01 

	TTL	C:\WINCE600\PUBLIC\PowerVR-SDK\OGLES2\Extras\PVREngine\ConsoleLog.cpp
	CODE32

  00000			 AREA	 |.drectve|, DRECTVE
	DCB	"-defaultlib:LIBCMT "
	DCB	"-defaultlib:OLDNAMES "

	EXPORT	|?c_i32DefaultSize@?$dynamicArray@VCPVRTString@@@@2HB| [ DATA ] ; dynamicArray<CPVRTString>::c_i32DefaultSize

  00000			 AREA	 |.rdata|, DATA, READONLY
|?c_i32DefaultSize@?$dynamicArray@VCPVRTString@@@@2HB| DCD 0x8 ; dynamicArray<CPVRTString>::c_i32DefaultSize
	EXPORT	|?setOutputFile@ConsoleLog@pvrengine@@QAA_NVCPVRTString@@@Z| ; pvrengine::ConsoleLog::setOutputFile
	EXPORT	|??_C@_01NOFIACDB@w?$AA@| [ DATA ]	; `string'
	IMPORT	|??1CPVRTString@@UAA@XZ|		; CPVRTString::~CPVRTString
	IMPORT	|fopen|
	IMPORT	|?c_str@CPVRTString@@QBAPBDXZ|		; CPVRTString::c_str
	IMPORT	|fclose|
	IMPORT	|??4CPVRTString@@QAAAAV0@ABV0@@Z|	; CPVRTString::operator=
; File c:\wince600\public\powervr-sdk\ogles2\extras\pvrengine\consolelog.cpp

  00000			 AREA	 |.pdata|, PDATA
|$T36459| DCD	|$LN9@setOutputF|
	DCD	0x40002101

  00000			 AREA	 |.rdata|, DATA, READONLY
|??_C@_01NOFIACDB@w?$AA@| DCB "w", 0x0			; `string'
; Function compile flags: /Ogspy

  00000			 AREA	 |.text|, CODE, ARM

  00000		 |?setOutputFile@ConsoleLog@pvrengine@@QAA_NVCPVRTString@@@Z| PROC ; pvrengine::ConsoleLog::setOutputFile

; 65   : 	{

  00000		 |$LN9@setOutputF|
  00000	e92d40f0	 stmdb       sp!, {r4 - r7, lr}
  00004		 |$M36456|
  00004	e1a06001	 mov         r6, r1
  00008	e1a04000	 mov         r4, r0

; 66   : 		bool bClose=true;
; 67   : 		m_strLogFile = strLogFile;

  0000c	e2840004	 add         r0, r4, #4
  00010	e3a05001	 mov         r5, #1
  00014	eb000000	 bl          |??4CPVRTString@@QAAAAV0@ABV0@@Z|

; 68   : 		if(m_LogFile)

  00018	e5943024	 ldr         r3, [r4, #0x24]
  0001c	e3a07000	 mov         r7, #0
  00020	e3530000	 cmp         r3, #0
  00024	0a000003	 beq         |$LN3@setOutputF|

; 69   : 		{	// writing straight out set
; 70   : 			bClose=false;
; 71   : 			fclose(m_LogFile);

  00028	e1a00003	 mov         r0, r3
  0002c	e3a05000	 mov         r5, #0
  00030	eb000000	 bl          fclose

; 72   : 			m_LogFile=NULL;

  00034	e5847024	 str         r7, [r4, #0x24]
  00038		 |$LN3@setOutputF|

; 73   : 		}
; 74   : 		// open new file and continue
; 75   : 		m_LogFile = fopen(m_strLogFile.c_str(),"w");

  00038	e2840004	 add         r0, r4, #4
  0003c	eb000000	 bl          |?c_str@CPVRTString@@QBAPBDXZ|
  00040	e59f1038	 ldr         r1, [pc, #0x38]
  00044	eb000000	 bl          fopen
  00048	e3500000	 cmp         r0, #0
  0004c	e5840024	 str         r0, [r4, #0x24]

; 76   : 		if(!m_LogFile)

  00050	01a04007	 moveq       r4, r7
  00054	0a000004	 beq         |$LN6@setOutputF|

; 79   : 		}
; 80   : 		if(bClose)

  00058	e3550000	 cmp         r5, #0
  0005c	0a000001	 beq         |$LN1@setOutputF|

; 81   : 		{
; 82   : 			fclose(m_LogFile);

  00060	eb000000	 bl          fclose

; 83   : 			m_LogFile = NULL;

  00064	e5847024	 str         r7, [r4, #0x24]
  00068		 |$LN1@setOutputF|
  00068	e3a04001	 mov         r4, #1
  0006c		 |$LN6@setOutputF|

; 77   : 		{
; 78   : 			return false;

  0006c	e1a00006	 mov         r0, r6
  00070	eb000000	 bl          |??1CPVRTString@@UAA@XZ|

; 84   : 		}
; 85   : 		return true;
; 86   : 	}

  00074	e1a00004	 mov         r0, r4
  00078	e8bd40f0	 ldmia       sp!, {r4 - r7, lr}
  0007c	e12fff1e	 bx          lr
  00080		 |$LN10@setOutputF|
  00080		 |$LN11@setOutputF|
  00080	00000000	 DCD         |??_C@_01NOFIACDB@w?$AA@|
  00084		 |$M36457|

			 ENDP  ; |?setOutputFile@ConsoleLog@pvrengine@@QAA_NVCPVRTString@@@Z|, pvrengine::ConsoleLog::setOutputFile

	EXPORT	|?setStraightToFile@ConsoleLog@pvrengine@@QAAX_N@Z| ; pvrengine::ConsoleLog::setStraightToFile

  00000			 AREA	 |.pdata|, PDATA
|$T36470| DCD	|$LN9@setStraigh|
	DCD	0x40001b01
; Function compile flags: /Ogspy

  00000			 AREA	 |.text|, CODE, ARM

  00000		 |?setStraightToFile@ConsoleLog@pvrengine@@QAAX_N@Z| PROC ; pvrengine::ConsoleLog::setStraightToFile

; 91   : 	{

  00000		 |$LN9@setStraigh|
  00000	e92d4010	 stmdb       sp!, {r4, lr}
  00004		 |$M36467|
  00004	e3510000	 cmp         r1, #0
  00008	e1a04000	 mov         r4, r0

; 92   : 		if(bStraightToFile)
; 93   : 		{	// check if valid file set
; 94   : 			if(m_LogFile)

  0000c	e5943024	 ldr         r3, [r4, #0x24]
  00010	0a00000c	 beq         |$LN4@setStraigh|
  00014	e3530000	 cmp         r3, #0
  00018	0a000003	 beq         |$LN3@setStraigh|

; 95   : 			{	// file is already open
; 96   : 				fclose(m_LogFile);

  0001c	e1a00003	 mov         r0, r3
  00020	eb000000	 bl          fclose

; 97   : 				m_LogFile=NULL;

  00024	e3a03000	 mov         r3, #0
  00028	e5843024	 str         r3, [r4, #0x24]
  0002c		 |$LN3@setStraigh|

; 98   : 			}
; 99   : 			m_LogFile = fopen(m_strLogFile.c_str(),"w");

  0002c	e2840004	 add         r0, r4, #4
  00030	eb000000	 bl          |?c_str@CPVRTString@@QBAPBDXZ|
  00034	e59f102c	 ldr         r1, [pc, #0x2C]
  00038	eb000000	 bl          fopen
  0003c	e5840024	 str         r0, [r4, #0x24]

; 107  : 			}
; 108  : 		}
; 109  : 	}

  00040	e8bd4010	 ldmia       sp!, {r4, lr}
  00044	e12fff1e	 bx          lr
  00048		 |$LN4@setStraigh|

; 100  : 		}
; 101  : 		else
; 102  : 		{	
; 103  : 			if(m_LogFile)

  00048	e3530000	 cmp         r3, #0
  0004c	0a000003	 beq         |$LN1@setStraigh|

; 104  : 			{
; 105  : 				fclose(m_LogFile);

  00050	e1a00003	 mov         r0, r3
  00054	eb000000	 bl          fclose

; 106  : 				m_LogFile=NULL;

  00058	e3a03000	 mov         r3, #0
  0005c	e5843024	 str         r3, [r4, #0x24]
  00060		 |$LN1@setStraigh|

; 107  : 			}
; 108  : 		}
; 109  : 	}

  00060	e8bd4010	 ldmia       sp!, {r4, lr}
  00064	e12fff1e	 bx          lr
  00068		 |$LN10@setStraigh|
  00068		 |$LN11@setStraigh|
  00068	00000000	 DCD         |??_C@_01NOFIACDB@w?$AA@|
  0006c		 |$M36468|

			 ENDP  ; |?setStraightToFile@ConsoleLog@pvrengine@@QAAX_N@Z|, pvrengine::ConsoleLog::setStraightToFile

	EXPORT	|?getStraightToFile@ConsoleLog@pvrengine@@QAA_NXZ| ; pvrengine::ConsoleLog::getStraightToFile

  00000			 AREA	 |.pdata|, PDATA
|$T36484| DCD	|$LN7@getStraigh|
	DCD	0x40000700
; Function compile flags: /Ogspy

  00000			 AREA	 |.text|, CODE, ARM

  00000		 |?getStraightToFile@ConsoleLog@pvrengine@@QAA_NXZ| PROC ; pvrengine::ConsoleLog::getStraightToFile

; 114  : 	{

  00000		 |$LN7@getStraigh|
  00000		 |$M36481|

; 115  : 		return(m_LogFile==NULL);

  00000	e5903024	 ldr         r3, [r0, #0x24]
  00004	e3530000	 cmp         r3, #0
  00008	03a03001	 moveq       r3, #1
  0000c	020300ff	 andeq       r0, r3, #0xFF
  00010	13a03000	 movne       r3, #0
  00014	120300ff	 andne       r0, r3, #0xFF

; 116  : 	}

  00018	e12fff1e	 bx          lr
  0001c		 |$M36482|

			 ENDP  ; |?getStraightToFile@ConsoleLog@pvrengine@@QAA_NXZ|, pvrengine::ConsoleLog::getStraightToFile

	EXPORT	|??0?$CPVRTSingleton@VConsoleLog@pvrengine@@@@IAA@XZ| ; CPVRTSingleton<pvrengine::ConsoleLog>::CPVRTSingleton<pvrengine::ConsoleLog>
	EXPORT	|??_7?$CPVRTSingleton@VConsoleLog@pvrengine@@@@6B@| [ DATA ] ; CPVRTSingleton<pvrengine::ConsoleLog>::`vftable'
	IMPORT	|??_E?$CPVRTSingleton@VConsoleLog@pvrengine@@@@MAAPAXI@Z|, WEAK |??_G?$CPVRTSingleton@VConsoleLog@pvrengine@@@@MAAPAXI@Z| ; CPVRTSingleton<pvrengine::ConsoleLog>::`vector deleting destructor', CPVRTSingleton<pvrengine::ConsoleLog>::`scalar deleting destructor'
; File c:\wince600\public\powervr-sdk\ogles2\tools\pvrtsingleton.h

  00000			 AREA	 |.pdata|, PDATA
|$T36494| DCD	|$LN5@CPVRTSingl|
	DCD	0x40000500

  00000			 AREA	 |.rdata|, DATA, READONLY
|??_7?$CPVRTSingleton@VConsoleLog@pvrengine@@@@6B@| DCD |??_E?$CPVRTSingleton@VConsoleLog@pvrengine@@@@MAAPAXI@Z| ; CPVRTSingleton<pvrengine::ConsoleLog>::`vftable'
; Function compile flags: /Ogspy

  00000			 AREA	 |.text|, CODE, ARM

  00000		 |??0?$CPVRTSingleton@VConsoleLog@pvrengine@@@@IAA@XZ| PROC ; CPVRTSingleton<pvrengine::ConsoleLog>::CPVRTSingleton<pvrengine::ConsoleLog>

; 37   : 	CPVRTSingleton() {};

  00000		 |$LN5@CPVRTSingl|
  00000		 |$M36491|
  00000	e1a02000	 mov         r2, r0
  00004	e59f3004	 ldr         r3, [pc, #4]
  00008	e5823000	 str         r3, [r2]
  0000c	e12fff1e	 bx          lr
  00010		 |$LN6@CPVRTSingl|
  00010		 |$LN7@CPVRTSingl|
  00010	00000000	 DCD         |??_7?$CPVRTSingleton@VConsoleLog@pvrengine@@@@6B@|
  00014		 |$M36492|

			 ENDP  ; |??0?$CPVRTSingleton@VConsoleLog@pvrengine@@@@IAA@XZ|, CPVRTSingleton<pvrengine::ConsoleLog>::CPVRTSingleton<pvrengine::ConsoleLog>

	EXPORT	|??1?$CPVRTSingleton@VConsoleLog@pvrengine@@@@MAA@XZ| ; CPVRTSingleton<pvrengine::ConsoleLog>::~CPVRTSingleton<pvrengine::ConsoleLog>

  00000			 AREA	 |.pdata|, PDATA
|$T36504| DCD	|$LN5@CPVRTSingl@2|
	DCD	0x40000400
; Function compile flags: /Ogspy

  00000			 AREA	 |.text|, CODE, ARM

  00000		 |??1?$CPVRTSingleton@VConsoleLog@pvrengine@@@@MAA@XZ| PROC ; CPVRTSingleton<pvrengine::ConsoleLog>::~CPVRTSingleton<pvrengine::ConsoleLog>

; 38   : 	virtual ~CPVRTSingleton() {};

  00000		 |$LN5@CPVRTSingl@2|
  00000		 |$M36501|
  00000	e59f3004	 ldr         r3, [pc, #4]
  00004	e5803000	 str         r3, [r0]
  00008	e12fff1e	 bx          lr
  0000c		 |$LN6@CPVRTSingl@2|
  0000c		 |$LN7@CPVRTSingl@2|
  0000c	00000000	 DCD         |??_7?$CPVRTSingleton@VConsoleLog@pvrengine@@@@6B@|
  00010		 |$M36502|

			 ENDP  ; |??1?$CPVRTSingleton@VConsoleLog@pvrengine@@@@MAA@XZ|, CPVRTSingleton<pvrengine::ConsoleLog>::~CPVRTSingleton<pvrengine::ConsoleLog>

	EXPORT	|??1?$dynamicArray@VCPVRTString@@@@QAA@XZ| ; dynamicArray<CPVRTString>::~dynamicArray<CPVRTString>
	IMPORT	|??3@YAXPAX@Z|				; operator delete
; File c:\wince600\public\powervr-sdk\ogles2\extras\pvrengine\include\dynamicarray.h

  00000			 AREA	 |.pdata|, PDATA
|$T36522| DCD	|$LN10@dynamicArr|
	DCD	0x40001301
; Function compile flags: /Ogspy

  00000			 AREA	 |.text|, CODE, ARM

  00000		 |??1?$dynamicArray@VCPVRTString@@@@QAA@XZ| PROC ; dynamicArray<CPVRTString>::~dynamicArray<CPVRTString>

; 113  : 	{

  00000		 |$LN10@dynamicArr|
  00000	e52de004	 str         lr, [sp, #-4]!
  00004		 |$M36519|

; 114  : 		if(m_pArray)

  00004	e5903008	 ldr         r3, [r0, #8]
  00008	e1b02003	 movs        r2, r3
  0000c	0a00000c	 beq         |$LN5@dynamicArr|

; 115  : 			delete[](m_pArray);

  00010	e5123004	 ldr         r3, [r2, #-4]
  00014	e3530000	 cmp         r3, #0
  00018	0a000007	 beq         |$LN4@dynamicArr|
  0001c	e5923000	 ldr         r3, [r2]
  00020	e3a01003	 mov         r1, #3
  00024	e1a00002	 mov         r0, r2
  00028	e5933000	 ldr         r3, [r3]
  0002c	e1a0e00f	 mov         lr, pc
  00030	e12fff13	 bx          r3

; 116  : 	}

  00034	e49de004	 ldr         lr, [sp], #4
  00038	e12fff1e	 bx          lr
  0003c		 |$LN4@dynamicArr|

; 115  : 			delete[](m_pArray);

  0003c	e2420004	 sub         r0, r2, #4
  00040	eb000000	 bl          |??3@YAXPAX@Z|
  00044		 |$LN5@dynamicArr|

; 116  : 	}

  00044	e49de004	 ldr         lr, [sp], #4
  00048	e12fff1e	 bx          lr
  0004c		 |$M36520|

			 ENDP  ; |??1?$dynamicArray@VCPVRTString@@@@QAA@XZ|, dynamicArray<CPVRTString>::~dynamicArray<CPVRTString>

	EXPORT	|??A?$dynamicArray@VCPVRTString@@@@QAAAAVCPVRTString@@H@Z| ; dynamicArray<CPVRTString>::operator[]

  00000			 AREA	 |.pdata|, PDATA
|$T36533| DCD	|$LN5@operator|
	DCD	0x40000300
; Function compile flags: /Ogspy

  00000			 AREA	 |.text|, CODE, ARM

  00000		 |??A?$dynamicArray@VCPVRTString@@@@QAAAAVCPVRTString@@H@Z| PROC ; dynamicArray<CPVRTString>::operator[]

; 216  : 	{

  00000		 |$LN5@operator|
  00000		 |$M36530|

; 217  : 		_ASSERT(i32Index<m_i32Capacity);
; 218  : 		return m_pArray[i32Index];

  00000	e5903008	 ldr         r3, [r0, #8]
  00004	e0830201	 add         r0, r3, r1, lsl #4

; 219  : 	}

  00008	e12fff1e	 bx          lr
  0000c		 |$M36531|

			 ENDP  ; |??A?$dynamicArray@VCPVRTString@@@@QAAAAVCPVRTString@@H@Z|, dynamicArray<CPVRTString>::operator[]

	EXPORT	|?getSize@?$dynamicArray@VCPVRTString@@@@QBAIXZ| ; dynamicArray<CPVRTString>::getSize

  00000			 AREA	 |.pdata|, PDATA
|$T36543| DCD	|$LN5@getSize|
	DCD	0x40000200
; Function compile flags: /Ogspy

  00000			 AREA	 |.text|, CODE, ARM

  00000		 |?getSize@?$dynamicArray@VCPVRTString@@@@QBAIXZ| PROC ; dynamicArray<CPVRTString>::getSize

; 240  : 	{

  00000		 |$LN5@getSize|
  00000		 |$M36540|

; 241  : 		return m_i32Size;

  00000	e5900000	 ldr         r0, [r0]

; 242  : 	}

  00004	e12fff1e	 bx          lr
  00008		 |$M36541|

			 ENDP  ; |?getSize@?$dynamicArray@VCPVRTString@@@@QBAIXZ|, dynamicArray<CPVRTString>::getSize


  00000			 AREA	 |.pdata|, PDATA
|$T36557| DCD	|$LN8@scalar|
	DCD	0x40000a01
; Function compile flags: /Ogspy

  00000			 AREA	 |.text|, CODE, ARM

  00000		 |??_G?$CPVRTSingleton@VConsoleLog@pvrengine@@@@MAAPAXI@Z| PROC ; CPVRTSingleton<pvrengine::ConsoleLog>::`scalar deleting destructor'
  00000		 |$LN8@scalar|
  00000	e92d4010	 stmdb       sp!, {r4, lr}
  00004		 |$M36554|
  00004	e1a04000	 mov         r4, r0
  00008	e59f3014	 ldr         r3, [pc, #0x14]
  0000c	e3110001	 tst         r1, #1
  00010	e5843000	 str         r3, [r4]
  00014	1b000000	 blne        |??3@YAXPAX@Z|
  00018	e1a00004	 mov         r0, r4
  0001c	e8bd4010	 ldmia       sp!, {r4, lr}
  00020	e12fff1e	 bx          lr
  00024		 |$LN9@scalar|
  00024		 |$LN10@scalar|
  00024	00000000	 DCD         |??_7?$CPVRTSingleton@VConsoleLog@pvrengine@@@@6B@|
  00028		 |$M36555|

			 ENDP  ; |??_G?$CPVRTSingleton@VConsoleLog@pvrengine@@@@MAAPAXI@Z|, CPVRTSingleton<pvrengine::ConsoleLog>::`scalar deleting destructor'

	EXPORT	|??_H@YAXPAXIHP6APAX0@Z@Z|		; `vector constructor iterator'

  00000			 AREA	 |.pdata|, PDATA
|$T36573| DCD	|$LN9@vector|
	DCD	0x40000e01
; Function compile flags: /Ogspy

  00000			 AREA	 |.text|, CODE, ARM

  00000		 |??_H@YAXPAXIHP6APAX0@Z@Z| PROC	; `vector constructor iterator'
  00000		 |$LN9@vector|
  00000	e92d40f0	 stmdb       sp!, {r4 - r7, lr}
  00004		 |$M36570|
  00004	e1a06003	 mov         r6, r3
  00008	e1a07001	 mov         r7, r1
  0000c	e1a04000	 mov         r4, r0
  00010	e2525001	 subs        r5, r2, #1
  00014	4a000005	 bmi         |$LN1@vector|
  00018		 |$LL2@vector|
  00018	e1a00004	 mov         r0, r4
  0001c	e1a0e00f	 mov         lr, pc
  00020	e12fff16	 bx          r6
  00024	e0844007	 add         r4, r4, r7
  00028	e2555001	 subs        r5, r5, #1
  0002c	5afffff9	 bpl         |$LL2@vector|
  00030		 |$LN1@vector|
  00030	e8bd40f0	 ldmia       sp!, {r4 - r7, lr}
  00034	e12fff1e	 bx          lr
  00038		 |$M36571|

			 ENDP  ; |??_H@YAXPAXIHP6APAX0@Z@Z|, `vector constructor iterator'

	EXPORT	|??_I@YAXPAXIHP6AX0@Z@Z|		; `vector destructor iterator'

  00000			 AREA	 |.pdata|, PDATA
|$T36588| DCD	|$LN9@vector@2|
	DCD	0x40000e01
; Function compile flags: /Ogspy

  00000			 AREA	 |.text|, CODE, ARM

  00000		 |??_I@YAXPAXIHP6AX0@Z@Z| PROC		; `vector destructor iterator'
  00000		 |$LN9@vector@2|
  00000	e92d40f0	 stmdb       sp!, {r4 - r7, lr}
  00004		 |$M36585|
  00004	e1a07003	 mov         r7, r3
  00008	e1a06001	 mov         r6, r1
  0000c	e0240296	 mla         r4, r6, r2, r0
  00010	e2525001	 subs        r5, r2, #1
  00014	4a000005	 bmi         |$LN1@vector@2|
  00018		 |$LL2@vector@2|
  00018	e0444006	 sub         r4, r4, r6
  0001c	e1a00004	 mov         r0, r4
  00020	e1a0e00f	 mov         lr, pc
  00024	e12fff17	 bx          r7
  00028	e2555001	 subs        r5, r5, #1
  0002c	5afffff9	 bpl         |$LL2@vector@2|
  00030		 |$LN1@vector@2|
  00030	e8bd40f0	 ldmia       sp!, {r4 - r7, lr}
  00034	e12fff1e	 bx          lr
  00038		 |$M36586|

			 ENDP  ; |??_I@YAXPAXIHP6AX0@Z@Z|, `vector destructor iterator'

	EXPORT	|??1ConsoleLog@pvrengine@@UAA@XZ|	; pvrengine::ConsoleLog::~ConsoleLog
	EXPORT	|??_7ConsoleLog@pvrengine@@6B@| [ DATA ] ; pvrengine::ConsoleLog::`vftable'
	IMPORT	|fflush|
	IMPORT	|??_EConsoleLog@pvrengine@@UAAPAXI@Z|, WEAK |??_GConsoleLog@pvrengine@@UAAPAXI@Z| ; pvrengine::ConsoleLog::`vector deleting destructor', pvrengine::ConsoleLog::`scalar deleting destructor'
; File c:\wince600\public\powervr-sdk\ogles2\tools\pvrtsingleton.h

  00000			 AREA	 |.pdata|, PDATA
|$T36599| DCD	|$LN8@ConsoleLog|
	DCD	0x40001501

  00000			 AREA	 |.rdata|, DATA, READONLY
|??_7ConsoleLog@pvrengine@@6B@| DCD |??_EConsoleLog@pvrengine@@UAAPAXI@Z| ; pvrengine::ConsoleLog::`vftable'
; Function compile flags: /Ogspy
; File c:\wince600\public\powervr-sdk\ogles2\extras\pvrengine\consolelog.cpp

  00000			 AREA	 |.text|, CODE, ARM

  00000		 |??1ConsoleLog@pvrengine@@UAA@XZ| PROC	; pvrengine::ConsoleLog::~ConsoleLog

; 34   : 	{

  00000		 |$LN8@ConsoleLog|
  00000	e92d4010	 stmdb       sp!, {r4, lr}
  00004		 |$M36596|
  00004	e1a04000	 mov         r4, r0
  00008	e59f3040	 ldr         r3, [pc, #0x40]

; 35   : 		if(m_LogFile)

  0000c	e5942024	 ldr         r2, [r4, #0x24]
  00010	e5843000	 str         r3, [r4]
  00014	e3520000	 cmp         r2, #0
  00018	0a000003	 beq         |$LN1@ConsoleLog|

; 36   : 		{
; 37   : 			fflush(m_LogFile);

  0001c	e1a00002	 mov         r0, r2
  00020	eb000000	 bl          fflush

; 38   : 			fclose(m_LogFile);

  00024	e5940024	 ldr         r0, [r4, #0x24]
  00028	eb000000	 bl          fclose
  0002c		 |$LN1@ConsoleLog|

; 39   : 		}
; 40   : 	}

  0002c	e2840014	 add         r0, r4, #0x14
  00030	eb000000	 bl          |??1?$dynamicArray@VCPVRTString@@@@QAA@XZ|
  00034	e2840004	 add         r0, r4, #4
  00038	eb000000	 bl          |??1CPVRTString@@UAA@XZ|
  0003c	e59f3008	 ldr         r3, [pc, #8]
  00040	e5843000	 str         r3, [r4]
  00044	e8bd4010	 ldmia       sp!, {r4, lr}
  00048	e12fff1e	 bx          lr
  0004c		 |$LN9@ConsoleLog|
  0004c		 |$LN10@ConsoleLog|
  0004c	00000000	 DCD         |??_7?$CPVRTSingleton@VConsoleLog@pvrengine@@@@6B@|
  00050		 |$LN11@ConsoleLog|
  00050	00000000	 DCD         |??_7ConsoleLog@pvrengine@@6B@|
  00054		 |$M36597|

			 ENDP  ; |??1ConsoleLog@pvrengine@@UAA@XZ|, pvrengine::ConsoleLog::~ConsoleLog

	EXPORT	|?getLastLogLine@ConsoleLog@pvrengine@@QAA?AVCPVRTString@@XZ| ; pvrengine::ConsoleLog::getLastLogLine
	EXPORT	|??_C@_00CNPNBAHC@?$AA@| [ DATA ]	; `string'
	IMPORT	|??0CPVRTString@@QAA@PBDI@Z|		; CPVRTString::CPVRTString
	IMPORT	|??0CPVRTString@@QAA@ABV0@II@Z|		; CPVRTString::CPVRTString
	IMPORT	|?npos@CPVRTString@@2IB|		; CPVRTString::npos
; File c:\wince600\public\powervr-sdk\ogles2\extras\pvrengine\include\dynamicarray.h

  00000			 AREA	 |.pdata|, PDATA
|$T36624| DCD	|$LN12@getLastLog|
	DCD	0x40002102

  00000			 AREA	 |.rdata|, DATA, READONLY
|??_C@_00CNPNBAHC@?$AA@| DCB 0x0			; `string'
; Function compile flags: /Ogspy
; File c:\wince600\public\powervr-sdk\ogles2\extras\pvrengine\consolelog.cpp

  00000			 AREA	 |.text|, CODE, ARM

  00000		 |?getLastLogLine@ConsoleLog@pvrengine@@QAA?AVCPVRTString@@XZ| PROC ; pvrengine::ConsoleLog::getLastLogLine

; 128  : 	{

  00000		 |$LN12@getLastLog|
  00000	e92d4030	 stmdb       sp!, {r4, r5, lr}
  00004	e24dd010	 sub         sp, sp, #0x10
  00008		 |$M36621|
  00008	e1a05001	 mov         r5, r1

; 129  : 		if(m_daLog.getSize())

  0000c	e5903014	 ldr         r3, [r0, #0x14]
  00010	e1b0e003	 movs        lr, r3
  00014	0a000008	 beq         |$LN1@getLastLog|

; 130  : 		{
; 131  : 			return m_daLog[m_daLog.getSize()-1];

  00018	e59f3060	 ldr         r3, [pc, #0x60]
  0001c	e590101c	 ldr         r1, [r0, #0x1C]
  00020	e3a02000	 mov         r2, #0
  00024	e5933000	 ldr         r3, [r3]
  00028	e081120e	 add         r1, r1, lr, lsl #4
  0002c	e2411010	 sub         r1, r1, #0x10
  00030	e1a00005	 mov         r0, r5
  00034	eb000000	 bl          |??0CPVRTString@@QAA@ABV0@II@Z|
  00038	ea00000b	 b           |$LN2@getLastLog|
  0003c		 |$LN1@getLastLog|

; 132  : 		}
; 133  : 		return CPVRTString("");

  0003c	e59f403c	 ldr         r4, [pc, #0x3C]
  00040	e59f1034	 ldr         r1, [pc, #0x34]
  00044	e28d0000	 add         r0, sp, #0
  00048	e5942000	 ldr         r2, [r4]
  0004c	eb000000	 bl          |??0CPVRTString@@QAA@PBDI@Z|
  00050	e5943000	 ldr         r3, [r4]
  00054	e1a01000	 mov         r1, r0
  00058	e1a00005	 mov         r0, r5
  0005c	e3a02000	 mov         r2, #0
  00060	eb000000	 bl          |??0CPVRTString@@QAA@ABV0@II@Z|
  00064	e28d0000	 add         r0, sp, #0
  00068	eb000000	 bl          |??1CPVRTString@@UAA@XZ|
  0006c		 |$LN2@getLastLog|

; 134  : 	}

  0006c	e1a00005	 mov         r0, r5
  00070	e28dd010	 add         sp, sp, #0x10
  00074	e8bd4030	 ldmia       sp!, {r4, r5, lr}
  00078	e12fff1e	 bx          lr
  0007c		 |$LN13@getLastLog|
  0007c		 |$LN14@getLastLog|
  0007c	00000000	 DCD         |??_C@_00CNPNBAHC@?$AA@|
  00080		 |$LN15@getLastLog|
  00080	00000000	 DCD         |?npos@CPVRTString@@2IB|
  00084		 |$M36622|

			 ENDP  ; |?getLastLogLine@ConsoleLog@pvrengine@@QAA?AVCPVRTString@@XZ|, pvrengine::ConsoleLog::getLastLogLine

	EXPORT	|?writeToFile@ConsoleLog@pvrengine@@QAA_NXZ| ; pvrengine::ConsoleLog::writeToFile
	IMPORT	|fwrite|
	IMPORT	|?size@CPVRTString@@QBAIXZ|		; CPVRTString::size
; File c:\wince600\public\powervr-sdk\ogles2\extras\pvrengine\include\dynamicarray.h

  00000			 AREA	 |.pdata|, PDATA
|$T36651| DCD	|$LN20@writeToFil|
	DCD	0x40003301
; Function compile flags: /Ogspy
; File c:\wince600\public\powervr-sdk\ogles2\extras\pvrengine\consolelog.cpp

  00000			 AREA	 |.text|, CODE, ARM

  00000		 |?writeToFile@ConsoleLog@pvrengine@@QAA_NXZ| PROC ; pvrengine::ConsoleLog::writeToFile

; 139  : 	{

  00000		 |$LN20@writeToFil|
  00000	e92d43f0	 stmdb       sp!, {r4 - r9, lr}
  00004		 |$M36648|
  00004	e1a05000	 mov         r5, r0

; 140  : 		bool bCloseFile=true;
; 141  : 		if(m_LogFile)

  00008	e5953024	 ldr         r3, [r5, #0x24]
  0000c	e3a06001	 mov         r6, #1
  00010	e3a09000	 mov         r9, #0
  00014	e3530000	 cmp         r3, #0
  00018	0a000003	 beq         |$LN7@writeToFil|

; 142  : 		{	// already open and writing to 
; 143  : 			// so replace the file with the entire log
; 144  : 			bCloseFile = false;
; 145  : 			fclose(m_LogFile);

  0001c	e1a00003	 mov         r0, r3
  00020	e3a06000	 mov         r6, #0
  00024	eb000000	 bl          fclose

; 146  : 			m_LogFile = NULL;

  00028	e5859024	 str         r9, [r5, #0x24]
  0002c		 |$LN7@writeToFil|

; 147  : 		}
; 148  : 		m_LogFile = fopen(m_strLogFile.c_str(),"w");

  0002c	e2850004	 add         r0, r5, #4
  00030	eb000000	 bl          |?c_str@CPVRTString@@QBAPBDXZ|
  00034	e59f108c	 ldr         r1, [pc, #0x8C]
  00038	eb000000	 bl          fopen
  0003c	e3500000	 cmp         r0, #0
  00040	e5850024	 str         r0, [r5, #0x24]

; 149  : 		if(m_LogFile)

  00044	0a00001c	 beq         |$LN6@writeToFil|

; 150  : 		{
; 151  : 			for(unsigned int i=0;i<m_daLog.getSize();i++)

  00048	e5953014	 ldr         r3, [r5, #0x14]
  0004c	e3a08000	 mov         r8, #0
  00050	e3530000	 cmp         r3, #0
  00054	0a000010	 beq         |$LN3@writeToFil|
  00058	e3a07000	 mov         r7, #0
  0005c		 |$LL5@writeToFil|

; 152  : 				fwrite(m_daLog[i].c_str(),1,m_daLog[i].size(),m_LogFile);

  0005c	e595301c	 ldr         r3, [r5, #0x1C]
  00060	e0870003	 add         r0, r7, r3
  00064	eb000000	 bl          |?size@CPVRTString@@QBAIXZ|
  00068	e595301c	 ldr         r3, [r5, #0x1C]
  0006c	e1a04000	 mov         r4, r0
  00070	e0870003	 add         r0, r7, r3
  00074	eb000000	 bl          |?c_str@CPVRTString@@QBAPBDXZ|
  00078	e5953024	 ldr         r3, [r5, #0x24]
  0007c	e1a02004	 mov         r2, r4
  00080	e3a01001	 mov         r1, #1
  00084	eb000000	 bl          fwrite
  00088	e5953014	 ldr         r3, [r5, #0x14]
  0008c	e2888001	 add         r8, r8, #1
  00090	e2877010	 add         r7, r7, #0x10
  00094	e1580003	 cmp         r8, r3
  00098	3affffef	 bcc         |$LL5@writeToFil|
  0009c		 |$LN3@writeToFil|

; 157  : 		}
; 158  : 		if(bCloseFile)

  0009c	e3560000	 cmp         r6, #0
  000a0	0a000002	 beq         |$LN1@writeToFil|

; 159  : 		{
; 160  : 			fclose(m_LogFile);

  000a4	e5950024	 ldr         r0, [r5, #0x24]
  000a8	eb000000	 bl          fclose

; 161  : 			m_LogFile=NULL;

  000ac	e5859024	 str         r9, [r5, #0x24]
  000b0		 |$LN1@writeToFil|

; 162  : 		}
; 163  : 		return true;

  000b0	e3a00001	 mov         r0, #1

; 164  : 	}

  000b4	e8bd43f0	 ldmia       sp!, {r4 - r9, lr}
  000b8	e12fff1e	 bx          lr
  000bc		 |$LN6@writeToFil|

; 153  : 		}
; 154  : 		else
; 155  : 		{
; 156  : 			return false;

  000bc	e3a00000	 mov         r0, #0

; 164  : 	}

  000c0	e8bd43f0	 ldmia       sp!, {r4 - r9, lr}
  000c4	e12fff1e	 bx          lr
  000c8		 |$LN21@writeToFil|
  000c8		 |$LN22@writeToFil|
  000c8	00000000	 DCD         |??_C@_01NOFIACDB@w?$AA@|
  000cc		 |$M36649|

			 ENDP  ; |?writeToFile@ConsoleLog@pvrengine@@QAA_NXZ|, pvrengine::ConsoleLog::writeToFile

	EXPORT	|?appendToFile@ConsoleLog@pvrengine@@QAA_NXZ| ; pvrengine::ConsoleLog::appendToFile
	EXPORT	|??_C@_01MCMALHOG@a?$AA@| [ DATA ]	; `string'
	IMPORT	|strlen|
; File c:\wince600\public\powervr-sdk\ogles2\extras\pvrengine\include\dynamicarray.h

  00000			 AREA	 |.pdata|, PDATA
|$T36678| DCD	|$LN19@appendToFi|
	DCD	0x40003001

  00000			 AREA	 |.rdata|, DATA, READONLY
|??_C@_01MCMALHOG@a?$AA@| DCB "a", 0x0			; `string'
; Function compile flags: /Ogspy
; File c:\wince600\public\powervr-sdk\ogles2\extras\pvrengine\consolelog.cpp

  00000			 AREA	 |.text|, CODE, ARM

  00000		 |?appendToFile@ConsoleLog@pvrengine@@QAA_NXZ| PROC ; pvrengine::ConsoleLog::appendToFile

; 169  : 	{

  00000		 |$LN19@appendToFi|
  00000	e92d41f0	 stmdb       sp!, {r4 - r8, lr}
  00004		 |$M36675|
  00004	e1a05000	 mov         r5, r0

; 170  : 		bool bCloseFile=false;
; 171  : 		if(!m_LogFile)

  00008	e5953024	 ldr         r3, [r5, #0x24]
  0000c	e3a06000	 mov         r6, #0
  00010	e3530000	 cmp         r3, #0
  00014	1a000009	 bne         |$LN6@appendToFi|

; 172  : 		{ // need to open file
; 173  : 			m_LogFile = fopen(m_strLogFile.c_str(),"a");

  00018	e2850004	 add         r0, r5, #4
  0001c	eb000000	 bl          |?c_str@CPVRTString@@QBAPBDXZ|
  00020	e59f1094	 ldr         r1, [pc, #0x94]
  00024	eb000000	 bl          fopen
  00028	e3500000	 cmp         r0, #0
  0002c	e5850024	 str         r0, [r5, #0x24]

; 174  : 			if(!m_LogFile)
; 175  : 			{
; 176  : 				return false;

  00030	03a00000	 moveq       r0, #0

; 189  : 	}

  00034	08bd41f0	 ldmeqia     sp!, {r4 - r8, lr}
  00038	012fff1e	 bxeq        lr

; 177  : 			}
; 178  : 			bCloseFile=true;

  0003c	e3a06001	 mov         r6, #1
  00040		 |$LN6@appendToFi|

; 179  : 		}
; 180  : 		for(unsigned int i=0;i<m_daLog.getSize();i++)

  00040	e5953014	 ldr         r3, [r5, #0x14]
  00044	e3a08000	 mov         r8, #0
  00048	e3530000	 cmp         r3, #0
  0004c	0a000011	 beq         |$LN2@appendToFi|
  00050	e3a07000	 mov         r7, #0
  00054		 |$LL4@appendToFi|

; 181  : 			fwrite(m_daLog[i].c_str(),1,strlen(m_daLog[i].c_str()),m_LogFile);

  00054	e595301c	 ldr         r3, [r5, #0x1C]
  00058	e0870003	 add         r0, r7, r3
  0005c	eb000000	 bl          |?c_str@CPVRTString@@QBAPBDXZ|
  00060	eb000000	 bl          strlen
  00064	e595301c	 ldr         r3, [r5, #0x1C]
  00068	e1a04000	 mov         r4, r0
  0006c	e0870003	 add         r0, r7, r3
  00070	eb000000	 bl          |?c_str@CPVRTString@@QBAPBDXZ|
  00074	e5953024	 ldr         r3, [r5, #0x24]
  00078	e1a02004	 mov         r2, r4
  0007c	e3a01001	 mov         r1, #1
  00080	eb000000	 bl          fwrite
  00084	e5953014	 ldr         r3, [r5, #0x14]
  00088	e2888001	 add         r8, r8, #1
  0008c	e2877010	 add         r7, r7, #0x10
  00090	e1580003	 cmp         r8, r3
  00094	3affffee	 bcc         |$LL4@appendToFi|
  00098		 |$LN2@appendToFi|

; 182  : 
; 183  : 		if(bCloseFile)

  00098	e3560000	 cmp         r6, #0
  0009c	0a000003	 beq         |$LN1@appendToFi|

; 184  : 		{
; 185  : 			fclose(m_LogFile);

  000a0	e5950024	 ldr         r0, [r5, #0x24]
  000a4	eb000000	 bl          fclose

; 186  : 			m_LogFile = NULL;

  000a8	e3a03000	 mov         r3, #0
  000ac	e5853024	 str         r3, [r5, #0x24]
  000b0		 |$LN1@appendToFi|

; 187  : 		}
; 188  : 		return true;

  000b0	e3a00001	 mov         r0, #1

; 189  : 	}

  000b4	e8bd41f0	 ldmia       sp!, {r4 - r8, lr}
  000b8	e12fff1e	 bx          lr
  000bc		 |$LN20@appendToFi|
  000bc		 |$LN21@appendToFi|
  000bc	00000000	 DCD         |??_C@_01MCMALHOG@a?$AA@|
  000c0		 |$M36676|

			 ENDP  ; |?appendToFile@ConsoleLog@pvrengine@@QAA_NXZ|, pvrengine::ConsoleLog::appendToFile

	EXPORT	|??0?$dynamicArray@VCPVRTString@@@@QAA@XZ| ; dynamicArray<CPVRTString>::dynamicArray<CPVRTString>
	IMPORT	|??0CPVRTString@@QAA@XZ|		; CPVRTString::CPVRTString
	IMPORT	|??2@YAPAXI@Z|				; operator new

  00000			 AREA	 |.pdata|, PDATA
|$T36705| DCD	|$LN13@dynamicArr@2|
	DCD	0x40001701
; Function compile flags: /Ogspy
; File c:\wince600\public\powervr-sdk\ogles2\extras\pvrengine\include\dynamicarray.h

  00000			 AREA	 |.text|, CODE, ARM

  00000		 |??0?$dynamicArray@VCPVRTString@@@@QAA@XZ| PROC ; dynamicArray<CPVRTString>::dynamicArray<CPVRTString>

; 57   : 	{

  00000		 |$LN13@dynamicArr@2|
  00000	e92d40f0	 stmdb       sp!, {r4 - r7, lr}
  00004		 |$M36702|
  00004	e1a05000	 mov         r5, r0
  00008	e3a03000	 mov         r3, #0
  0000c	e3a06008	 mov         r6, #8

; 58   : 		m_pArray = new T[c_i32DefaultSize];

  00010	e3a00084	 mov         r0, #0x84
  00014	e8850048	 stmia       r5, {r3, r6}
  00018	eb000000	 bl          |??2@YAPAXI@Z|
  0001c	e1b04000	 movs        r4, r0
  00020	0a000008	 beq         |$LN3@dynamicArr@2|
  00024	e4846004	 str         r6, [r4], #4
  00028	e3a07007	 mov         r7, #7
  0002c	e1a06004	 mov         r6, r4
  00030		 |$LL6@dynamicArr@2|
  00030	e1a00006	 mov         r0, r6
  00034	eb000000	 bl          |??0CPVRTString@@QAA@XZ|
  00038	e2866010	 add         r6, r6, #0x10
  0003c	e2577001	 subs        r7, r7, #1
  00040	5afffffa	 bpl         |$LL6@dynamicArr@2|
  00044	ea000000	 b           |$LN4@dynamicArr@2|
  00048		 |$LN3@dynamicArr@2|
  00048	e3a04000	 mov         r4, #0
  0004c		 |$LN4@dynamicArr@2|
  0004c	e5854008	 str         r4, [r5, #8]

; 59   : 	}

  00050	e1a00005	 mov         r0, r5
  00054	e8bd40f0	 ldmia       sp!, {r4 - r7, lr}
  00058	e12fff1e	 bx          lr
  0005c		 |$M36703|

			 ENDP  ; |??0?$dynamicArray@VCPVRTString@@@@QAA@XZ|, dynamicArray<CPVRTString>::dynamicArray<CPVRTString>

	EXPORT	|??0?$dynamicArray@VCPVRTString@@@@QAA@ABV0@@Z| ; dynamicArray<CPVRTString>::dynamicArray<CPVRTString>
; File c:\wince600\public\powervr-sdk\ogles2\extras\pvrengine\consolelog.cpp

  00000			 AREA	 |.pdata|, PDATA
|$T36740| DCD	|$LN22@dynamicArr@3|
	DCD	0x40002e01
; Function compile flags: /Ogspy
; File c:\wince600\public\powervr-sdk\ogles2\extras\pvrengine\include\dynamicarray.h

  00000			 AREA	 |.text|, CODE, ARM

  00000		 |??0?$dynamicArray@VCPVRTString@@@@QAA@ABV0@@Z| PROC ; dynamicArray<CPVRTString>::dynamicArray<CPVRTString>

; 82   : 	{

  00000		 |$LN22@dynamicArr@3|
  00000	e92d41f0	 stmdb       sp!, {r4 - r8, lr}
  00004		 |$M36737|
  00004	e1a08001	 mov         r8, r1
  00008	e1a05000	 mov         r5, r0
  0000c	e5983000	 ldr         r3, [r8]

; 83   : 		m_pArray = new T[m_i32Capacity];

  00010	e3e00000	 mvn         r0, #0
  00014	e5853000	 str         r3, [r5]
  00018	e5986004	 ldr         r6, [r8, #4]
  0001c	e376021f	 cmn         r6, #0x1F, 4
  00020	91a03206	 movls       r3, r6, lsl #4
  00024	81a03000	 movhi       r3, r0
  00028	e3730005	 cmn         r3, #5
  0002c	92830004	 addls       r0, r3, #4
  00030	e5856004	 str         r6, [r5, #4]
  00034	eb000000	 bl          |??2@YAPAXI@Z|
  00038	e1b04000	 movs        r4, r0
  0003c	0a000009	 beq         |$LN10@dynamicArr@3|
  00040	e4846004	 str         r6, [r4], #4
  00044	e2567001	 subs        r7, r6, #1
  00048	e1a06004	 mov         r6, r4
  0004c	4a000006	 bmi         |$LN11@dynamicArr@3|
  00050		 |$LL13@dynamicArr@3|
  00050	e1a00006	 mov         r0, r6
  00054	eb000000	 bl          |??0CPVRTString@@QAA@XZ|
  00058	e2866010	 add         r6, r6, #0x10
  0005c	e2577001	 subs        r7, r7, #1
  00060	5afffffa	 bpl         |$LL13@dynamicArr@3|
  00064	ea000000	 b           |$LN11@dynamicArr@3|
  00068		 |$LN10@dynamicArr@3|
  00068	e3a04000	 mov         r4, #0
  0006c		 |$LN11@dynamicArr@3|

; 84   : 		for(int i=0;i<m_i32Size;i++)

  0006c	e5953000	 ldr         r3, [r5]
  00070	e5854008	 str         r4, [r5, #8]
  00074	e3a06000	 mov         r6, #0
  00078	e3530000	 cmp         r3, #0
  0007c	da00000a	 ble         |$LN1@dynamicArr@3|

; 83   : 		m_pArray = new T[m_i32Capacity];

  00080	e3a04000	 mov         r4, #0
  00084		 |$LL3@dynamicArr@3|

; 85   : 		{
; 86   : 			m_pArray[i]=original.m_pArray[i];

  00084	e5983008	 ldr         r3, [r8, #8]
  00088	e5952008	 ldr         r2, [r5, #8]
  0008c	e0831004	 add         r1, r3, r4
  00090	e0840002	 add         r0, r4, r2
  00094	eb000000	 bl          |??4CPVRTString@@QAAAAV0@ABV0@@Z|
  00098	e5953000	 ldr         r3, [r5]
  0009c	e2866001	 add         r6, r6, #1
  000a0	e2844010	 add         r4, r4, #0x10
  000a4	e1560003	 cmp         r6, r3
  000a8	bafffff5	 blt         |$LL3@dynamicArr@3|
  000ac		 |$LN1@dynamicArr@3|

; 87   : 		}
; 88   : 	}

  000ac	e1a00005	 mov         r0, r5
  000b0	e8bd41f0	 ldmia       sp!, {r4 - r8, lr}
  000b4	e12fff1e	 bx          lr
  000b8		 |$M36738|

			 ENDP  ; |??0?$dynamicArray@VCPVRTString@@@@QAA@ABV0@@Z|, dynamicArray<CPVRTString>::dynamicArray<CPVRTString>

	EXPORT	|?append@?$dynamicArray@VCPVRTString@@@@QAAXVCPVRTString@@@Z| ; dynamicArray<CPVRTString>::append
; File c:\wince600\public\powervr-sdk\ogles2\extras\pvrengine\consolelog.cpp

  00000			 AREA	 |.pdata|, PDATA
|$T36782| DCD	|$LN27@append|
	DCD	0x40004701
; Function compile flags: /Ogspy
; File c:\wince600\public\powervr-sdk\ogles2\extras\pvrengine\include\dynamicarray.h

  00000			 AREA	 |.text|, CODE, ARM

  00000		 |?append@?$dynamicArray@VCPVRTString@@@@QAAXVCPVRTString@@@Z| PROC ; dynamicArray<CPVRTString>::append

; 126  : 	{

  00000		 |$LN27@append|
  00000	e92d41f0	 stmdb       sp!, {r4 - r8, lr}
  00004		 |$M36779|
  00004	e1a08001	 mov         r8, r1
  00008	e1a04000	 mov         r4, r0

; 127  : 		if(m_i32Size==m_i32Capacity)		// should never be >

  0000c	e5942004	 ldr         r2, [r4, #4]
  00010	e5943000	 ldr         r3, [r4]
  00014	e1530002	 cmp         r3, r2
  00018	1a000033	 bne         |$LN14@append|

; 128  : 		{	// expand array: expensive
; 129  : 
; 130  : 			m_i32Capacity*=2;	// array doubles in size for each expansion

  0001c	e1a06082	 mov         r6, r2, lsl #1

; 131  : 			T *pDeadArray,*pNewArray = new T[m_i32Capacity]; // make new array

  00020	e376021f	 cmn         r6, #0x1F, 4
  00024	e3e00000	 mvn         r0, #0
  00028	91a03206	 movls       r3, r6, lsl #4
  0002c	81a03000	 movhi       r3, r0
  00030	e3730005	 cmn         r3, #5
  00034	92830004	 addls       r0, r3, #4
  00038	e5846004	 str         r6, [r4, #4]
  0003c	eb000000	 bl          |??2@YAPAXI@Z|
  00040	e1b05000	 movs        r5, r0
  00044	0a000009	 beq         |$LN11@append|
  00048	e4856004	 str         r6, [r5], #4
  0004c	e2567001	 subs        r7, r6, #1
  00050	e1a06005	 mov         r6, r5
  00054	4a000006	 bmi         |$LN12@append|
  00058		 |$LL18@append|
  00058	e1a00006	 mov         r0, r6
  0005c	eb000000	 bl          |??0CPVRTString@@QAA@XZ|
  00060	e2866010	 add         r6, r6, #0x10
  00064	e2577001	 subs        r7, r7, #1
  00068	5afffffa	 bpl         |$LL18@append|
  0006c	ea000000	 b           |$LN12@append|
  00070		 |$LN11@append|
  00070	e3a05000	 mov         r5, #0
  00074		 |$LN12@append|

; 132  : 
; 133  : 			// copy old values to new array
; 134  : 			for(int i=0;i<m_i32Size;i++)

  00074	e5943000	 ldr         r3, [r4]
  00078	e3a07000	 mov         r7, #0
  0007c	e3530000	 cmp         r3, #0
  00080	da000009	 ble         |$LN1@append|
  00084	e3a06000	 mov         r6, #0
  00088		 |$LL3@append|

; 135  : 			{
; 136  : 				pNewArray[i]=m_pArray[i];

  00088	e5943008	 ldr         r3, [r4, #8]
  0008c	e0860005	 add         r0, r6, r5
  00090	e0861003	 add         r1, r6, r3
  00094	eb000000	 bl          |??4CPVRTString@@QAAAAV0@ABV0@@Z|
  00098	e5943000	 ldr         r3, [r4]
  0009c	e2877001	 add         r7, r7, #1
  000a0	e2866010	 add         r6, r6, #0x10
  000a4	e1570003	 cmp         r7, r3
  000a8	bafffff6	 blt         |$LL3@append|
  000ac		 |$LN1@append|

; 137  : 			}
; 138  : 
; 139  : 
; 140  : 			pDeadArray = m_pArray;

  000ac	e5943008	 ldr         r3, [r4, #8]

; 141  : 			m_pArray = pNewArray;

  000b0	e5845008	 str         r5, [r4, #8]
  000b4	e1b02003	 movs        r2, r3

; 142  : 			delete[](pDeadArray);

  000b8	0a00000b	 beq         |$LN14@append|
  000bc	e5123004	 ldr         r3, [r2, #-4]
  000c0	e3530000	 cmp         r3, #0
  000c4	0a000006	 beq         |$LN13@append|
  000c8	e5923000	 ldr         r3, [r2]
  000cc	e3a01003	 mov         r1, #3
  000d0	e1a00002	 mov         r0, r2
  000d4	e5933000	 ldr         r3, [r3]
  000d8	e1a0e00f	 mov         lr, pc
  000dc	e12fff13	 bx          r3
  000e0	ea000001	 b           |$LN14@append|
  000e4		 |$LN13@append|
  000e4	e2420004	 sub         r0, r2, #4
  000e8	eb000000	 bl          |??3@YAXPAX@Z|
  000ec		 |$LN14@append|

; 143  : 		}
; 144  : 		// add new element to end of array
; 145  : 
; 146  : 		m_pArray[m_i32Size] = addT;

  000ec	e5942000	 ldr         r2, [r4]
  000f0	e5943008	 ldr         r3, [r4, #8]
  000f4	e1a01008	 mov         r1, r8
  000f8	e0830202	 add         r0, r3, r2, lsl #4
  000fc	eb000000	 bl          |??4CPVRTString@@QAAAAV0@ABV0@@Z|

; 147  : 		m_i32Size++;

  00100	e5943000	 ldr         r3, [r4]

; 148  : 	}

  00104	e1a00008	 mov         r0, r8
  00108	e2833001	 add         r3, r3, #1
  0010c	e5843000	 str         r3, [r4]
  00110	eb000000	 bl          |??1CPVRTString@@UAA@XZ|
  00114	e8bd41f0	 ldmia       sp!, {r4 - r8, lr}
  00118	e12fff1e	 bx          lr
  0011c		 |$M36780|

			 ENDP  ; |?append@?$dynamicArray@VCPVRTString@@@@QAAXVCPVRTString@@@Z|, dynamicArray<CPVRTString>::append

	EXPORT	|??_ECPVRTString@@UAAPAXI@Z|		; CPVRTString::`vector deleting destructor'

  00000			 AREA	 |.pdata|, PDATA
|$T36805| DCD	|$LN14@vector@3|
	DCD	0x40001b01
; Function compile flags: /Ogspy

  00000			 AREA	 |.text|, CODE, ARM

  00000		 |??_ECPVRTString@@UAAPAXI@Z| PROC	; CPVRTString::`vector deleting destructor'
  00000		 |$LN14@vector@3|
  00000	e92d40f0	 stmdb       sp!, {r4 - r7, lr}
  00004		 |$M36802|
  00004	e1a05001	 mov         r5, r1
  00008	e1a04000	 mov         r4, r0
  0000c	e3150002	 tst         r5, #2
  00010	0a00000d	 beq         |$LN3@vector@3|
  00014	e5143004	 ldr         r3, [r4, #-4]
  00018	e0846203	 add         r6, r4, r3, lsl #4
  0001c	e2537001	 subs        r7, r3, #1
  00020	4a000004	 bmi         |$LN6@vector@3|
  00024		 |$LL7@vector@3|
  00024	e2466010	 sub         r6, r6, #0x10
  00028	e1a00006	 mov         r0, r6
  0002c	eb000000	 bl          |??1CPVRTString@@UAA@XZ|
  00030	e2577001	 subs        r7, r7, #1
  00034	5afffffa	 bpl         |$LL7@vector@3|
  00038		 |$LN6@vector@3|
  00038	e3150001	 tst         r5, #1
  0003c	12440004	 subne       r0, r4, #4
  00040	1b000000	 blne        |??3@YAXPAX@Z|
  00044	e2444004	 sub         r4, r4, #4
  00048	ea000004	 b           |$LN1@vector@3|
  0004c		 |$LN3@vector@3|
  0004c	e1a00004	 mov         r0, r4
  00050	eb000000	 bl          |??1CPVRTString@@UAA@XZ|
  00054	e3150001	 tst         r5, #1
  00058	11a00004	 movne       r0, r4
  0005c	1b000000	 blne        |??3@YAXPAX@Z|
  00060		 |$LN1@vector@3|
  00060	e1a00004	 mov         r0, r4
  00064	e8bd40f0	 ldmia       sp!, {r4 - r7, lr}
  00068	e12fff1e	 bx          lr
  0006c		 |$M36803|

			 ENDP  ; |??_ECPVRTString@@UAAPAXI@Z|, CPVRTString::`vector deleting destructor'

	EXPORT	|??0ConsoleLog@pvrengine@@QAA@XZ|	; pvrengine::ConsoleLog::ConsoleLog
; File c:\wince600\public\powervr-sdk\ogles2\tools\pvrtsingleton.h

  00000			 AREA	 |.pdata|, PDATA
|$T36818| DCD	|$LN7@ConsoleLog@2|
	DCD	0x40000e01
; Function compile flags: /Ogspy
; File c:\wince600\public\powervr-sdk\ogles2\extras\pvrengine\consolelog.cpp

  00000			 AREA	 |.text|, CODE, ARM

  00000		 |??0ConsoleLog@pvrengine@@QAA@XZ| PROC	; pvrengine::ConsoleLog::ConsoleLog

; 29   : 	{}

  00000		 |$LN7@ConsoleLog@2|
  00000	e92d4010	 stmdb       sp!, {r4, lr}
  00004		 |$M36815|
  00004	e1a04000	 mov         r4, r0
  00008	e59f3024	 ldr         r3, [pc, #0x24]
  0000c	e4803004	 str         r3, [r0], #4
  00010	eb000000	 bl          |??0CPVRTString@@QAA@XZ|
  00014	e2840014	 add         r0, r4, #0x14
  00018	eb000000	 bl          |??0?$dynamicArray@VCPVRTString@@@@QAA@XZ|
  0001c	e3a03000	 mov         r3, #0
  00020	e5c43020	 strb        r3, [r4, #0x20]
  00024	e5843024	 str         r3, [r4, #0x24]
  00028	e1a00004	 mov         r0, r4
  0002c	e8bd4010	 ldmia       sp!, {r4, lr}
  00030	e12fff1e	 bx          lr
  00034		 |$LN8@ConsoleLog@2|
  00034		 |$LN9@ConsoleLog@2|
  00034	00000000	 DCD         |??_7ConsoleLog@pvrengine@@6B@|
  00038		 |$M36816|

			 ENDP  ; |??0ConsoleLog@pvrengine@@QAA@XZ|, pvrengine::ConsoleLog::ConsoleLog


  00000			 AREA	 |.pdata|, PDATA
|$T36831| DCD	|$LN6@scalar@2|
	DCD	0x40000a01
; Function compile flags: /Ogspy

  00000			 AREA	 |.text|, CODE, ARM

  00000		 |??_GConsoleLog@pvrengine@@UAAPAXI@Z| PROC ; pvrengine::ConsoleLog::`scalar deleting destructor'
  00000		 |$LN6@scalar@2|
  00000	e92d4030	 stmdb       sp!, {r4, r5, lr}
  00004		 |$M36828|
  00004	e1a04001	 mov         r4, r1
  00008	e1a05000	 mov         r5, r0
  0000c	eb000000	 bl          |??1ConsoleLog@pvrengine@@UAA@XZ|
  00010	e3140001	 tst         r4, #1
  00014	11a00005	 movne       r0, r5
  00018	1b000000	 blne        |??3@YAXPAX@Z|
  0001c	e1a00005	 mov         r0, r5
  00020	e8bd4030	 ldmia       sp!, {r4, r5, lr}
  00024	e12fff1e	 bx          lr
  00028		 |$M36829|

			 ENDP  ; |??_GConsoleLog@pvrengine@@UAAPAXI@Z|, pvrengine::ConsoleLog::`scalar deleting destructor'

	EXPORT	|__$ArrayPad$| [ DATA ]
	EXPORT	|?log@ConsoleLog@pvrengine@@QAAXPBDZZ|	; pvrengine::ConsoleLog::log
	IMPORT	|vsprintf|
	IMPORT	|__GSHandlerCheck|
	IMPORT	|__security_cookie|
	IMPORT	|__security_check_cookie|

  00000			 AREA	 |.pdata|, PDATA
|$T36849| DCD	|$LN6@log|
	DCD	0xc0003605

  00000			 AREA	 |.xdata|, DATA
|$T36845| DCD	0xffffffdc
; Function compile flags: /Ogspy

  00000			 AREA	 |.text|, CODE, ARM

  00000	00000000	 DCD         |__GSHandlerCheck|
  00004	00000000	 DCD         |$T36845|

  00008		 |?log@ConsoleLog@pvrengine@@QAAXPBDZZ| PROC ; pvrengine::ConsoleLog::log

; 47   : 	{

  00008		 |$LN6@log|
  00008	e1a0c00d	 mov         r12, sp
  0000c	e92d000f	 stmdb       sp!, {r0 - r3}
  00010	e92d5030	 stmdb       sp!, {r4, r5, r12, lr}
  00014	e59fc0c0	 ldr         r12, [pc, #0xC0]
  00018	e08dd00c	 add         sp, sp, r12
  0001c		 |$M36846|
  0001c	e28dca01	 add         r12, sp, #1, 20
  00020	e58c1038	 str         r1, [r12, #0x38]
  00024	e1a05000	 mov         r5, r0
  00028	e59f30a8	 ldr         r3, [pc, #0xA8]
  0002c	e5933000	 ldr         r3, [r3]
  00030	e58c3020	 str         r3, [r12, #0x20]

; 48   : 		va_list args;
; 49   : 		va_start(args,pszFormat);
; 50   : 		char pszString[4096];
; 51   : 		vsprintf(pszString,pszFormat,args);

  00034	e3a02a01	 mov         r2, #1, 20
  00038	e382203c	 orr         r2, r2, #0x3C
  0003c	e08d2002	 add         r2, sp, r2
  00040	e28d0020	 add         r0, sp, #0x20
  00044	eb000000	 bl          vsprintf

; 52   : 		va_end(args);
; 53   : 		m_daLog.append(CPVRTString(pszString));

  00048	e59f4084	 ldr         r4, [pc, #0x84]
  0004c	e28d1020	 add         r1, sp, #0x20
  00050	e28d0000	 add         r0, sp, #0
  00054	e5942000	 ldr         r2, [r4]
  00058	eb000000	 bl          |??0CPVRTString@@QAA@PBDI@Z|
  0005c	e5943000	 ldr         r3, [r4]
  00060	e1a01000	 mov         r1, r0
  00064	e28d0010	 add         r0, sp, #0x10
  00068	e3a02000	 mov         r2, #0
  0006c	eb000000	 bl          |??0CPVRTString@@QAA@ABV0@II@Z|
  00070	e1a01000	 mov         r1, r0
  00074	e2850014	 add         r0, r5, #0x14
  00078	eb000000	 bl          |?append@?$dynamicArray@VCPVRTString@@@@QAAXVCPVRTString@@@Z|
  0007c	e28d0000	 add         r0, sp, #0
  00080	eb000000	 bl          |??1CPVRTString@@UAA@XZ|

; 54   : 		if(m_LogFile)

  00084	e5953024	 ldr         r3, [r5, #0x24]
  00088	e1b04003	 movs        r4, r3
  0008c	0a000008	 beq         |$LN1@log|

; 55   : 		{
; 56   : 			fwrite(pszString,1,strlen(pszString),m_LogFile);

  00090	e28d0020	 add         r0, sp, #0x20
  00094	eb000000	 bl          strlen
  00098	e1a02000	 mov         r2, r0
  0009c	e28d0020	 add         r0, sp, #0x20
  000a0	e1a03004	 mov         r3, r4
  000a4	e3a01001	 mov         r1, #1
  000a8	eb000000	 bl          fwrite

; 57   : 			fflush(m_LogFile);

  000ac	e5950024	 ldr         r0, [r5, #0x24]
  000b0	eb000000	 bl          fflush
  000b4		 |$LN1@log|
  000b4	e28d0a01	 add         r0, sp, #1, 20
  000b8	e5900020	 ldr         r0, [r0, #0x20]
  000bc	eb000000	 bl          __security_check_cookie

; 58   : 		}
; 59   : 		PVRTERROR_OUTPUT_DEBUG(pszString);
; 60   : 	}

  000c0	e3a0ca01	 mov         r12, #1, 20
  000c4	e38cc024	 orr         r12, r12, #0x24
  000c8	e08dd00c	 add         sp, sp, r12
  000cc	e89d6030	 ldmia       sp, {r4, r5, sp, lr}
  000d0	e12fff1e	 bx          lr
  000d4		 |$LN7@log|
  000d4		 |$LN8@log|
  000d4	00000000	 DCD         |?npos@CPVRTString@@2IB|
  000d8		 |$LN9@log|
  000d8	00000000	 DCD         |__security_cookie|
  000dc		 |$LN10@log|
  000dc	ffffefdc	 DCD         0xffffefdc
  000e0		 |$M36847|

			 ENDP  ; |?log@ConsoleLog@pvrengine@@QAAXPBDZZ|, pvrengine::ConsoleLog::log

	EXPORT	|?getLog@ConsoleLog@pvrengine@@QAA?AV?$dynamicArray@VCPVRTString@@@@XZ| ; pvrengine::ConsoleLog::getLog

  00000			 AREA	 |.pdata|, PDATA
|$T36865| DCD	|$LN5@getLog|
	DCD	0x40000801
; Function compile flags: /Ogspy

  00000			 AREA	 |.text|, CODE, ARM

  00000		 |?getLog@ConsoleLog@pvrengine@@QAA?AV?$dynamicArray@VCPVRTString@@@@XZ| PROC ; pvrengine::ConsoleLog::getLog

; 121  : 	{

  00000		 |$LN5@getLog|
  00000	e92d4010	 stmdb       sp!, {r4, lr}
  00004		 |$M36862|
  00004	e1a04001	 mov         r4, r1

; 122  : 		return m_daLog;

  00008	e2801014	 add         r1, r0, #0x14
  0000c	e1a00004	 mov         r0, r4
  00010	eb000000	 bl          |??0?$dynamicArray@VCPVRTString@@@@QAA@ABV0@@Z|

; 123  : 	}

  00014	e1a00004	 mov         r0, r4
  00018	e8bd4010	 ldmia       sp!, {r4, lr}
  0001c	e12fff1e	 bx          lr
  00020		 |$M36863|

			 ENDP  ; |?getLog@ConsoleLog@pvrengine@@QAA?AV?$dynamicArray@VCPVRTString@@@@XZ|, pvrengine::ConsoleLog::getLog

	EXPORT	|?clearLog@ConsoleLog@pvrengine@@QAAXXZ| ; pvrengine::ConsoleLog::clearLog

  00000			 AREA	 |.pdata|, PDATA
|$T36874| DCD	|$LN5@clearLog|
	DCD	0x40001102
; Function compile flags: /Ogspy

  00000			 AREA	 |.text|, CODE, ARM

  00000		 |?clearLog@ConsoleLog@pvrengine@@QAAXXZ| PROC ; pvrengine::ConsoleLog::clearLog

; 194  : 	{

  00000		 |$LN5@clearLog|
  00000	e92d4010	 stmdb       sp!, {r4, lr}
  00004	e24dd00c	 sub         sp, sp, #0xC
  00008		 |$M36871|
  00008	e1a04000	 mov         r4, r0

; 195  : 		m_daLog = dynamicArray<CPVRTString>();

  0000c	e28d0000	 add         r0, sp, #0
  00010	eb000000	 bl          |??0?$dynamicArray@VCPVRTString@@@@QAA@XZ|
  00014	e1a02000	 mov         r2, r0
  00018	e5923000	 ldr         r3, [r2]
  0001c	e28d0000	 add         r0, sp, #0
  00020	e5843014	 str         r3, [r4, #0x14]
  00024	e5923004	 ldr         r3, [r2, #4]
  00028	e5843018	 str         r3, [r4, #0x18]
  0002c	e5923008	 ldr         r3, [r2, #8]
  00030	e584301c	 str         r3, [r4, #0x1C]
  00034	eb000000	 bl          |??1?$dynamicArray@VCPVRTString@@@@QAA@XZ|

; 196  : 	}

  00038	e28dd00c	 add         sp, sp, #0xC
  0003c	e8bd4010	 ldmia       sp!, {r4, lr}
  00040	e12fff1e	 bx          lr
  00044		 |$M36872|

			 ENDP  ; |?clearLog@ConsoleLog@pvrengine@@QAAXXZ|, pvrengine::ConsoleLog::clearLog

	END
