; Listing generated by Microsoft (R) Optimizing Compiler Version 14.01.60511.01 

	TTL	C:\WINCE600\PUBLIC\PowerVR-SDK\OGLES2\Extras\PVREngine\OGLES2\ContextManager.cpp
	CODE32

  00000			 AREA	 |.drectve|, DRECTVE
	DCB	"-defaultlib:LIBCMT "
	DCB	"-defaultlib:OLDNAMES "

	EXPORT	|?c_i32DefaultSize@?$dynamicArray@USPVRTContext@@@@2HB| [ DATA ] ; dynamicArray<SPVRTContext>::c_i32DefaultSize

  00000			 AREA	 |.rdata|, DATA, READONLY
|?c_i32DefaultSize@?$dynamicArray@USPVRTContext@@@@2HB| DCD 0x8 ; dynamicArray<SPVRTContext>::c_i32DefaultSize
	EXPORT	|?getExtensions@ContextManager@pvrengine@@QAAPAVCPVRTgles2Ext@@XZ| ; pvrengine::ContextManager::getExtensions
; File c:\wince600\public\powervr-sdk\ogles2\extras\pvrengine\ogles2\contextmanager.cpp

  00000			 AREA	 |.pdata|, PDATA
|$T36308| DCD	|$LN5@getExtensi|
	DCD	0x40000200
; Function compile flags: /Ogspy

  00000			 AREA	 |.text|, CODE, ARM

  00000		 |?getExtensions@ContextManager@pvrengine@@QAAPAVCPVRTgles2Ext@@XZ| PROC ; pvrengine::ContextManager::getExtensions

; 50   : 	{

  00000		 |$LN5@getExtensi|
  00000		 |$M36305|

; 51   : 		return NULL;	// no extensions in OGLES2

  00000	e3a00000	 mov         r0, #0

; 52   : 	}

  00004	e12fff1e	 bx          lr
  00008		 |$M36306|

			 ENDP  ; |?getExtensions@ContextManager@pvrengine@@QAAPAVCPVRTgles2Ext@@XZ|, pvrengine::ContextManager::getExtensions

	EXPORT	|?initContext@ContextManager@pvrengine@@QAAXXZ| ; pvrengine::ContextManager::initContext

  00000			 AREA	 |.pdata|, PDATA
|$T36316| DCD	|$LN5@initContex|
	DCD	0x40000300
; Function compile flags: /Ogspy

  00000			 AREA	 |.text|, CODE, ARM

  00000		 |?initContext@ContextManager@pvrengine@@QAAXXZ| PROC ; pvrengine::ContextManager::initContext

; 67   : 	{

  00000		 |$LN5@initContex|
  00000		 |$M36313|

; 68   : 		m_i32CurrentContext = 0;

  00000	e3a03000	 mov         r3, #0
  00004	e5803010	 str         r3, [r0, #0x10]

; 69   : 	}

  00008	e12fff1e	 bx          lr
  0000c		 |$M36314|

			 ENDP  ; |?initContext@ContextManager@pvrengine@@QAAXXZ|, pvrengine::ContextManager::initContext

	EXPORT	|??0?$CPVRTSingleton@VContextManager@pvrengine@@@@IAA@XZ| ; CPVRTSingleton<pvrengine::ContextManager>::CPVRTSingleton<pvrengine::ContextManager>
	EXPORT	|??_7?$CPVRTSingleton@VContextManager@pvrengine@@@@6B@| [ DATA ] ; CPVRTSingleton<pvrengine::ContextManager>::`vftable'
	IMPORT	|??_E?$CPVRTSingleton@VContextManager@pvrengine@@@@MAAPAXI@Z|, WEAK |??_G?$CPVRTSingleton@VContextManager@pvrengine@@@@MAAPAXI@Z| ; CPVRTSingleton<pvrengine::ContextManager>::`vector deleting destructor', CPVRTSingleton<pvrengine::ContextManager>::`scalar deleting destructor'
; File c:\wince600\public\powervr-sdk\ogles2\tools\pvrtsingleton.h

  00000			 AREA	 |.pdata|, PDATA
|$T36326| DCD	|$LN5@CPVRTSingl|
	DCD	0x40000500

  00000			 AREA	 |.rdata|, DATA, READONLY
|??_7?$CPVRTSingleton@VContextManager@pvrengine@@@@6B@| DCD |??_E?$CPVRTSingleton@VContextManager@pvrengine@@@@MAAPAXI@Z| ; CPVRTSingleton<pvrengine::ContextManager>::`vftable'
; Function compile flags: /Ogspy

  00000			 AREA	 |.text|, CODE, ARM

  00000		 |??0?$CPVRTSingleton@VContextManager@pvrengine@@@@IAA@XZ| PROC ; CPVRTSingleton<pvrengine::ContextManager>::CPVRTSingleton<pvrengine::ContextManager>

; 37   : 	CPVRTSingleton() {};

  00000		 |$LN5@CPVRTSingl|
  00000		 |$M36323|
  00000	e1a02000	 mov         r2, r0
  00004	e59f3004	 ldr         r3, [pc, #4]
  00008	e5823000	 str         r3, [r2]
  0000c	e12fff1e	 bx          lr
  00010		 |$LN6@CPVRTSingl|
  00010		 |$LN7@CPVRTSingl|
  00010	00000000	 DCD         |??_7?$CPVRTSingleton@VContextManager@pvrengine@@@@6B@|
  00014		 |$M36324|

			 ENDP  ; |??0?$CPVRTSingleton@VContextManager@pvrengine@@@@IAA@XZ|, CPVRTSingleton<pvrengine::ContextManager>::CPVRTSingleton<pvrengine::ContextManager>

	EXPORT	|??1?$CPVRTSingleton@VContextManager@pvrengine@@@@MAA@XZ| ; CPVRTSingleton<pvrengine::ContextManager>::~CPVRTSingleton<pvrengine::ContextManager>

  00000			 AREA	 |.pdata|, PDATA
|$T36336| DCD	|$LN5@CPVRTSingl@2|
	DCD	0x40000400
; Function compile flags: /Ogspy

  00000			 AREA	 |.text|, CODE, ARM

  00000		 |??1?$CPVRTSingleton@VContextManager@pvrengine@@@@MAA@XZ| PROC ; CPVRTSingleton<pvrengine::ContextManager>::~CPVRTSingleton<pvrengine::ContextManager>

; 38   : 	virtual ~CPVRTSingleton() {};

  00000		 |$LN5@CPVRTSingl@2|
  00000		 |$M36333|
  00000	e59f3004	 ldr         r3, [pc, #4]
  00004	e5803000	 str         r3, [r0]
  00008	e12fff1e	 bx          lr
  0000c		 |$LN6@CPVRTSingl@2|
  0000c		 |$LN7@CPVRTSingl@2|
  0000c	00000000	 DCD         |??_7?$CPVRTSingleton@VContextManager@pvrengine@@@@6B@|
  00010		 |$M36334|

			 ENDP  ; |??1?$CPVRTSingleton@VContextManager@pvrengine@@@@MAA@XZ|, CPVRTSingleton<pvrengine::ContextManager>::~CPVRTSingleton<pvrengine::ContextManager>

	EXPORT	|??0?$dynamicArray@USPVRTContext@@@@QAA@H@Z| ; dynamicArray<SPVRTContext>::dynamicArray<SPVRTContext>
	IMPORT	|??2@YAPAXI@Z|				; operator new
; File c:\wince600\public\powervr-sdk\ogles2\extras\pvrengine\include\dynamicarray.h

  00000			 AREA	 |.pdata|, PDATA
|$T36352| DCD	|$LN7@dynamicArr|
	DCD	0x40000d01
; Function compile flags: /Ogspy

  00000			 AREA	 |.text|, CODE, ARM

  00000		 |??0?$dynamicArray@USPVRTContext@@@@QAA@H@Z| PROC ; dynamicArray<SPVRTContext>::dynamicArray<SPVRTContext>

; 69   : 	{

  00000		 |$LN7@dynamicArr|
  00000	e92d4010	 stmdb       sp!, {r4, lr}
  00004		 |$M36349|
  00004	e1a04000	 mov         r4, r0

; 70   : 		_ASSERT(i32Size!=0);
; 71   : 		m_pArray = new T[i32Size];

  00008	e3710107	 cmn         r1, #7, 2
  0000c	91a00101	 movls       r0, r1, lsl #2
  00010	e3a03000	 mov         r3, #0
  00014	83e00000	 mvnhi       r0, #0
  00018	e5843000	 str         r3, [r4]
  0001c	e5841004	 str         r1, [r4, #4]
  00020	eb000000	 bl          |??2@YAPAXI@Z|
  00024	e5840008	 str         r0, [r4, #8]

; 72   : 	}

  00028	e1a00004	 mov         r0, r4
  0002c	e8bd4010	 ldmia       sp!, {r4, lr}
  00030	e12fff1e	 bx          lr
  00034		 |$M36350|

			 ENDP  ; |??0?$dynamicArray@USPVRTContext@@@@QAA@H@Z|, dynamicArray<SPVRTContext>::dynamicArray<SPVRTContext>

	EXPORT	|??1?$dynamicArray@USPVRTContext@@@@QAA@XZ| ; dynamicArray<SPVRTContext>::~dynamicArray<SPVRTContext>
	IMPORT	|??3@YAXPAX@Z|				; operator delete

  00000			 AREA	 |.pdata|, PDATA
|$T36361| DCD	|$LN6@dynamicArr@2|
	DCD	0x40000701
; Function compile flags: /Ogspy

  00000			 AREA	 |.text|, CODE, ARM

  00000		 |??1?$dynamicArray@USPVRTContext@@@@QAA@XZ| PROC ; dynamicArray<SPVRTContext>::~dynamicArray<SPVRTContext>

; 113  : 	{

  00000		 |$LN6@dynamicArr@2|
  00000	e52de004	 str         lr, [sp, #-4]!
  00004		 |$M36358|

; 114  : 		if(m_pArray)

  00004	e5903008	 ldr         r3, [r0, #8]
  00008	e3530000	 cmp         r3, #0

; 115  : 			delete[](m_pArray);

  0000c	11a00003	 movne       r0, r3
  00010	1b000000	 blne        |??3@YAXPAX@Z|

; 116  : 	}

  00014	e49de004	 ldr         lr, [sp], #4
  00018	e12fff1e	 bx          lr
  0001c		 |$M36359|

			 ENDP  ; |??1?$dynamicArray@USPVRTContext@@@@QAA@XZ|, dynamicArray<SPVRTContext>::~dynamicArray<SPVRTContext>

	EXPORT	|??A?$dynamicArray@USPVRTContext@@@@QAAAAUSPVRTContext@@H@Z| ; dynamicArray<SPVRTContext>::operator[]

  00000			 AREA	 |.pdata|, PDATA
|$T36372| DCD	|$LN5@operator|
	DCD	0x40000300
; Function compile flags: /Ogspy

  00000			 AREA	 |.text|, CODE, ARM

  00000		 |??A?$dynamicArray@USPVRTContext@@@@QAAAAUSPVRTContext@@H@Z| PROC ; dynamicArray<SPVRTContext>::operator[]

; 216  : 	{

  00000		 |$LN5@operator|
  00000		 |$M36369|

; 217  : 		_ASSERT(i32Index<m_i32Capacity);
; 218  : 		return m_pArray[i32Index];

  00000	e5903008	 ldr         r3, [r0, #8]
  00004	e0830101	 add         r0, r3, r1, lsl #2

; 219  : 	}

  00008	e12fff1e	 bx          lr
  0000c		 |$M36370|

			 ENDP  ; |??A?$dynamicArray@USPVRTContext@@@@QAAAAUSPVRTContext@@H@Z|, dynamicArray<SPVRTContext>::operator[]

	EXPORT	|?getSize@?$dynamicArray@USPVRTContext@@@@QBAIXZ| ; dynamicArray<SPVRTContext>::getSize

  00000			 AREA	 |.pdata|, PDATA
|$T36382| DCD	|$LN5@getSize|
	DCD	0x40000200
; Function compile flags: /Ogspy

  00000			 AREA	 |.text|, CODE, ARM

  00000		 |?getSize@?$dynamicArray@USPVRTContext@@@@QBAIXZ| PROC ; dynamicArray<SPVRTContext>::getSize

; 240  : 	{

  00000		 |$LN5@getSize|
  00000		 |$M36379|

; 241  : 		return m_i32Size;

  00000	e5900000	 ldr         r0, [r0]

; 242  : 	}

  00004	e12fff1e	 bx          lr
  00008		 |$M36380|

			 ENDP  ; |?getSize@?$dynamicArray@USPVRTContext@@@@QBAIXZ|, dynamicArray<SPVRTContext>::getSize

	EXPORT	|?expandToSize@?$dynamicArray@USPVRTContext@@@@QAAXH@Z| ; dynamicArray<SPVRTContext>::expandToSize

  00000			 AREA	 |.pdata|, PDATA
|$T36400| DCD	|$LN13@expandToSi|
	DCD	0x40001c01
; Function compile flags: /Ogspy

  00000			 AREA	 |.text|, CODE, ARM

  00000		 |?expandToSize@?$dynamicArray@USPVRTContext@@@@QAAXH@Z| PROC ; dynamicArray<SPVRTContext>::expandToSize

; 260  : 	{

  00000		 |$LN13@expandToSi|
  00000	e92d4030	 stmdb       sp!, {r4, r5, lr}
  00004		 |$M36397|
  00004	e1a05001	 mov         r5, r1
  00008	e1a04000	 mov         r4, r0

; 261  : 		if(i32Size<=m_i32Capacity)

  0000c	e5943004	 ldr         r3, [r4, #4]
  00010	e1550003	 cmp         r5, r3
  00014	da000013	 ble         |$LN5@expandToSi|

; 262  : 			return;	// nothing to be done
; 263  : 
; 264  : 		T *pDeadArray,*pNewArray = new T[i32Size]; // make new array

  00018	e3750107	 cmn         r5, #7, 2
  0001c	91a00105	 movls       r0, r5, lsl #2
  00020	83e00000	 mvnhi       r0, #0
  00024	eb000000	 bl          |??2@YAPAXI@Z|

; 265  : 
; 266  : 		// copy old values to new array
; 267  : 		for(int i=0;i<m_i32Size;i++)

  00028	e5943000	 ldr         r3, [r4]
  0002c	e1a01000	 mov         r1, r0
  00030	e3a02000	 mov         r2, #0
  00034	e3530000	 cmp         r3, #0
  00038	da000006	 ble         |$LN1@expandToSi|
  0003c		 |$LL3@expandToSi|

; 268  : 		{
; 269  : 			pNewArray[i]=m_pArray[i];

  0003c	e5943008	 ldr         r3, [r4, #8]
  00040	e7933102	 ldr         r3, [r3, +r2, lsl #2]
  00044	e7813102	 str         r3, [r1, +r2, lsl #2]
  00048	e5943000	 ldr         r3, [r4]
  0004c	e2822001	 add         r2, r2, #1
  00050	e1520003	 cmp         r2, r3
  00054	bafffff8	 blt         |$LL3@expandToSi|
  00058		 |$LN1@expandToSi|

; 270  : 		}
; 271  : 
; 272  : 		m_i32Capacity=i32Size;
; 273  : 		pDeadArray = m_pArray;

  00058	e5940008	 ldr         r0, [r4, #8]
  0005c	e5845004	 str         r5, [r4, #4]

; 274  : 		m_pArray = pNewArray;

  00060	e5841008	 str         r1, [r4, #8]

; 275  : 		delete[](pDeadArray);

  00064	eb000000	 bl          |??3@YAXPAX@Z|
  00068		 |$LN5@expandToSi|

; 276  : 	}

  00068	e8bd4030	 ldmia       sp!, {r4, r5, lr}
  0006c	e12fff1e	 bx          lr
  00070		 |$M36398|

			 ENDP  ; |?expandToSize@?$dynamicArray@USPVRTContext@@@@QAAXH@Z|, dynamicArray<SPVRTContext>::expandToSize


  00000			 AREA	 |.pdata|, PDATA
|$T36414| DCD	|$LN8@scalar|
	DCD	0x40000a01
; Function compile flags: /Ogspy

  00000			 AREA	 |.text|, CODE, ARM

  00000		 |??_G?$CPVRTSingleton@VContextManager@pvrengine@@@@MAAPAXI@Z| PROC ; CPVRTSingleton<pvrengine::ContextManager>::`scalar deleting destructor'
  00000		 |$LN8@scalar|
  00000	e92d4010	 stmdb       sp!, {r4, lr}
  00004		 |$M36411|
  00004	e1a04000	 mov         r4, r0
  00008	e59f3014	 ldr         r3, [pc, #0x14]
  0000c	e3110001	 tst         r1, #1
  00010	e5843000	 str         r3, [r4]
  00014	1b000000	 blne        |??3@YAXPAX@Z|
  00018	e1a00004	 mov         r0, r4
  0001c	e8bd4010	 ldmia       sp!, {r4, lr}
  00020	e12fff1e	 bx          lr
  00024		 |$LN9@scalar|
  00024		 |$LN10@scalar|
  00024	00000000	 DCD         |??_7?$CPVRTSingleton@VContextManager@pvrengine@@@@6B@|
  00028		 |$M36412|

			 ENDP  ; |??_G?$CPVRTSingleton@VContextManager@pvrengine@@@@MAAPAXI@Z|, CPVRTSingleton<pvrengine::ContextManager>::`scalar deleting destructor'

	EXPORT	|??0ContextManager@pvrengine@@QAA@XZ|	; pvrengine::ContextManager::ContextManager
	EXPORT	|??_7ContextManager@pvrengine@@6B@| [ DATA ] ; pvrengine::ContextManager::`vftable'
	IMPORT	|??_EContextManager@pvrengine@@UAAPAXI@Z|, WEAK |??_GContextManager@pvrengine@@UAAPAXI@Z| ; pvrengine::ContextManager::`vector deleting destructor', pvrengine::ContextManager::`scalar deleting destructor'

  00000			 AREA	 |.pdata|, PDATA
|$T36440| DCD	|$LN11@ContextMan|
	DCD	0x40001101

  00000			 AREA	 |.rdata|, DATA, READONLY
|??_7ContextManager@pvrengine@@6B@| DCD |??_EContextManager@pvrengine@@UAAPAXI@Z| ; pvrengine::ContextManager::`vftable'
; Function compile flags: /Ogspy
; File c:\wince600\public\powervr-sdk\ogles2\extras\pvrengine\ogles2\contextmanager.cpp

  00000			 AREA	 |.text|, CODE, ARM

  00000		 |??0ContextManager@pvrengine@@QAA@XZ| PROC ; pvrengine::ContextManager::ContextManager

; 44   : 	{

  00000		 |$LN11@ContextMan|
  00000	e92d4070	 stmdb       sp!, {r4 - r6, lr}
  00004		 |$M36437|
  00004	e1a05000	 mov         r5, r0
  00008	e59f3030	 ldr         r3, [pc, #0x30]
  0000c	e1a04005	 mov         r4, r5
  00010	e3a02001	 mov         r2, #1
  00014	e4843004	 str         r3, [r4], #4
  00018	e3a06000	 mov         r6, #0
  0001c	e3a00004	 mov         r0, #4
  00020	e5846000	 str         r6, [r4]
  00024	e5842004	 str         r2, [r4, #4]
  00028	eb000000	 bl          |??2@YAPAXI@Z|
  0002c	e5840008	 str         r0, [r4, #8]
  00030	e5856010	 str         r6, [r5, #0x10]

; 45   : 	}

  00034	e1a00005	 mov         r0, r5
  00038	e8bd4070	 ldmia       sp!, {r4 - r6, lr}
  0003c	e12fff1e	 bx          lr
  00040		 |$LN12@ContextMan|
  00040		 |$LN13@ContextMan|
  00040	00000000	 DCD         |??_7ContextManager@pvrengine@@6B@|
  00044		 |$M36438|

			 ENDP  ; |??0ContextManager@pvrengine@@QAA@XZ|, pvrengine::ContextManager::ContextManager

	EXPORT	|??1ContextManager@pvrengine@@UAA@XZ|	; pvrengine::ContextManager::~ContextManager
; File c:\wince600\public\powervr-sdk\ogles2\tools\pvrtsingleton.h

  00000			 AREA	 |.pdata|, PDATA
|$T36461| DCD	|$LN10@ContextMan@2|
	DCD	0x40000f01
; Function compile flags: /Ogspy
; File c:\wince600\public\powervr-sdk\ogles2\extras\pvrengine\include\ogles2\contextmanager.h

  00000			 AREA	 |.text|, CODE, ARM

  00000		 |??1ContextManager@pvrengine@@UAA@XZ| PROC ; pvrengine::ContextManager::~ContextManager

; 57   : 		~ContextManager(){}

  00000		 |$LN10@ContextMan@2|
  00000	e92d4010	 stmdb       sp!, {r4, lr}
  00004		 |$M36458|
  00004	e1a04000	 mov         r4, r0
  00008	e59f3028	 ldr         r3, [pc, #0x28]
  0000c	e1a02004	 mov         r2, r4
  00010	e4823004	 str         r3, [r2], #4
  00014	e5923008	 ldr         r3, [r2, #8]
  00018	e3530000	 cmp         r3, #0
  0001c	11a00003	 movne       r0, r3
  00020	1b000000	 blne        |??3@YAXPAX@Z|
  00024	e59f3008	 ldr         r3, [pc, #8]
  00028	e5843000	 str         r3, [r4]
  0002c	e8bd4010	 ldmia       sp!, {r4, lr}
  00030	e12fff1e	 bx          lr
  00034		 |$LN11@ContextMan@2|
  00034		 |$LN12@ContextMan@2|
  00034	00000000	 DCD         |??_7?$CPVRTSingleton@VContextManager@pvrengine@@@@6B@|
  00038		 |$LN13@ContextMan@2|
  00038	00000000	 DCD         |??_7ContextManager@pvrengine@@6B@|
  0003c		 |$M36459|

			 ENDP  ; |??1ContextManager@pvrengine@@UAA@XZ|, pvrengine::ContextManager::~ContextManager


  00000			 AREA	 |.pdata|, PDATA
|$T36475| DCD	|$LN6@scalar@2|
	DCD	0x40000a01
; Function compile flags: /Ogspy

  00000			 AREA	 |.text|, CODE, ARM

  00000		 |??_GContextManager@pvrengine@@UAAPAXI@Z| PROC ; pvrengine::ContextManager::`scalar deleting destructor'
  00000		 |$LN6@scalar@2|
  00000	e92d4030	 stmdb       sp!, {r4, r5, lr}
  00004		 |$M36472|
  00004	e1a04001	 mov         r4, r1
  00008	e1a05000	 mov         r5, r0
  0000c	eb000000	 bl          |??1ContextManager@pvrengine@@UAA@XZ|
  00010	e3140001	 tst         r4, #1
  00014	11a00005	 movne       r0, r5
  00018	1b000000	 blne        |??3@YAXPAX@Z|
  0001c	e1a00005	 mov         r0, r5
  00020	e8bd4030	 ldmia       sp!, {r4, r5, lr}
  00024	e12fff1e	 bx          lr
  00028		 |$M36473|

			 ENDP  ; |??_GContextManager@pvrengine@@UAAPAXI@Z|, pvrengine::ContextManager::`scalar deleting destructor'

	EXPORT	|?getCurrentContext@ContextManager@pvrengine@@QAAPAUSPVRTContext@@XZ| ; pvrengine::ContextManager::getCurrentContext
; File c:\wince600\public\powervr-sdk\ogles2\extras\pvrengine\include\dynamicarray.h

  00000			 AREA	 |.pdata|, PDATA
|$T36488| DCD	|$LN9@getCurrent|
	DCD	0x40000600
; Function compile flags: /Ogspy
; File c:\wince600\public\powervr-sdk\ogles2\extras\pvrengine\ogles2\contextmanager.cpp

  00000			 AREA	 |.text|, CODE, ARM

  00000		 |?getCurrentContext@ContextManager@pvrengine@@QAAPAUSPVRTContext@@XZ| PROC ; pvrengine::ContextManager::getCurrentContext

; 57   : 	{

  00000		 |$LN9@getCurrent|
  00000		 |$M36485|

; 58   : 		if(m_i32CurrentContext>=0)

  00000	e5903010	 ldr         r3, [r0, #0x10]
  00004	e1b02003	 movs        r2, r3

; 59   : 			return &m_daContext[m_i32CurrentContext];

  00008	5590300c	 ldrpl       r3, [r0, #0xC]
  0000c	50830102	 addpl       r0, r3, r2, lsl #2

; 60   : 		else
; 61   : 			return NULL;

  00010	43a00000	 movmi       r0, #0

; 62   : 	}

  00014	e12fff1e	 bx          lr
  00018		 |$M36486|

			 ENDP  ; |?getCurrentContext@ContextManager@pvrengine@@QAAPAUSPVRTContext@@XZ|, pvrengine::ContextManager::getCurrentContext

	EXPORT	|?addNewContext@ContextManager@pvrengine@@QAAHXZ| ; pvrengine::ContextManager::addNewContext
; File c:\wince600\public\powervr-sdk\ogles2\extras\pvrengine\include\dynamicarray.h

  00000			 AREA	 |.pdata|, PDATA
|$T36506| DCD	|$LN9@addNewCont|
	DCD	0x40000801
; Function compile flags: /Ogspy
; File c:\wince600\public\powervr-sdk\ogles2\extras\pvrengine\ogles2\contextmanager.cpp

  00000			 AREA	 |.text|, CODE, ARM

  00000		 |?addNewContext@ContextManager@pvrengine@@QAAHXZ| PROC ; pvrengine::ContextManager::addNewContext

; 74   : 	{

  00000		 |$LN9@addNewCont|
  00000	e92d4010	 stmdb       sp!, {r4, lr}
  00004		 |$M36503|
  00004	e1a04000	 mov         r4, r0

; 75   : 		m_daContext.expandToSize(m_daContext.getSize()+1);

  00008	e5b03004	 ldr         r3, [r0, #4]!
  0000c	e2831001	 add         r1, r3, #1
  00010	eb000000	 bl          |?expandToSize@?$dynamicArray@USPVRTContext@@@@QAAXH@Z|

; 76   : 		return m_daContext.getSize();

  00014	e5940004	 ldr         r0, [r4, #4]

; 77   : 	}

  00018	e8bd4010	 ldmia       sp!, {r4, lr}
  0001c	e12fff1e	 bx          lr
  00020		 |$M36504|

			 ENDP  ; |?addNewContext@ContextManager@pvrengine@@QAAHXZ|, pvrengine::ContextManager::addNewContext

	EXPORT	|?setCurrentContext@ContextManager@pvrengine@@QAAXI@Z| ; pvrengine::ContextManager::setCurrentContext
; File c:\wince600\public\powervr-sdk\ogles2\extras\pvrengine\include\dynamicarray.h

  00000			 AREA	 |.pdata|, PDATA
|$T36519| DCD	|$LN8@setCurrent|
	DCD	0x40000600
; Function compile flags: /Ogspy
; File c:\wince600\public\powervr-sdk\ogles2\extras\pvrengine\ogles2\contextmanager.cpp

  00000			 AREA	 |.text|, CODE, ARM

  00000		 |?setCurrentContext@ContextManager@pvrengine@@QAAXI@Z| PROC ; pvrengine::ContextManager::setCurrentContext

; 82   : 	{

  00000		 |$LN8@setCurrent|
  00000		 |$M36516|
  00000	e3510000	 cmp         r1, #0

; 83   : 		if(i32Context>0 && i32Context<m_daContext.getSize())

  00004	0a000002	 beq         |$LN1@setCurrent|
  00008	e5903004	 ldr         r3, [r0, #4]
  0000c	e1510003	 cmp         r1, r3

; 84   : 		{
; 85   : 			m_i32CurrentContext = i32Context;

  00010	35801010	 strcc       r1, [r0, #0x10]
  00014		 |$LN1@setCurrent|

; 86   : 		}
; 87   : 	}

  00014	e12fff1e	 bx          lr
  00018		 |$M36517|

			 ENDP  ; |?setCurrentContext@ContextManager@pvrengine@@QAAXI@Z|, pvrengine::ContextManager::setCurrentContext

	END
