; Listing generated by Microsoft (R) Optimizing Compiler Version 14.01.60511.01 

	TTL	C:\WINCE600\PUBLIC\PowerVR-SDK\OGLES2\Extras\PVREngine\LightBase.cpp
	CODE32

  00000			 AREA	 |.drectve|, DRECTVE
	DCB	"-defaultlib:LIBCMT "
	DCB	"-defaultlib:OLDNAMES "

	EXPORT	|??0PVRTVec3@@QAA@XZ|			; PVRTVec3::PVRTVec3
; File c:\wince600\public\powervr-sdk\ogles2\tools\pvrtvector.h

  00000			 AREA	 |.pdata|, PDATA
|$T36237| DCD	|$LN5@PVRTVec3|
	DCD	0x40000100
; Function compile flags: /Ogspy

  00000			 AREA	 |.text|, CODE, ARM

  00000		 |??0PVRTVec3@@QAA@XZ| PROC		; PVRTVec3::PVRTVec3

; 330  : 	PVRTVec3(){}

  00000		 |$LN5@PVRTVec3|
  00000		 |$M36234|
  00000	e12fff1e	 bx          lr
  00004		 |$M36235|

			 ENDP  ; |??0PVRTVec3@@QAA@XZ|, PVRTVec3::PVRTVec3

	EXPORT	|??0PVRTVec4@@QAA@XZ|			; PVRTVec4::PVRTVec4

  00000			 AREA	 |.pdata|, PDATA
|$T36247| DCD	|$LN5@PVRTVec4|
	DCD	0x40000100
; Function compile flags: /Ogspy

  00000			 AREA	 |.text|, CODE, ARM

  00000		 |??0PVRTVec4@@QAA@XZ| PROC		; PVRTVec4::PVRTVec4

; 674  : 	PVRTVec4(){}

  00000		 |$LN5@PVRTVec4|
  00000		 |$M36244|
  00000	e12fff1e	 bx          lr
  00004		 |$M36245|

			 ENDP  ; |??0PVRTVec4@@QAA@XZ|, PVRTVec4::PVRTVec4

	EXPORT	|??0PVRTVec4@@QAA@ABUPVRTVec3@@M@Z|	; PVRTVec4::PVRTVec4

  00000			 AREA	 |.pdata|, PDATA
|$T36259| DCD	|$LN5@PVRTVec4@2|
	DCD	0x40000b01
; Function compile flags: /Ogspy

  00000			 AREA	 |.text|, CODE, ARM

  00000		 |??0PVRTVec4@@QAA@ABUPVRTVec3@@M@Z| PROC ; PVRTVec4::PVRTVec4

; 704  : 	PVRTVec4(const PVRTVec3& vec3, VERTTYPE fW)

  00000		 |$LN5@PVRTVec4@2|
  00000	e52de004	 str         lr, [sp, #-4]!
  00004		 |$M36256|
  00004	e1a0e000	 mov         lr, r0

; 705  : 	{
; 706  : 		x = vec3.x;	y = vec3.y;	z = vec3.z;	w = fW;

  00008	e5913000	 ldr         r3, [r1]

; 707  : 	}

  0000c	e58e3000	 str         r3, [lr]
  00010	e5913004	 ldr         r3, [r1, #4]
  00014	e58e3004	 str         r3, [lr, #4]
  00018	e5913008	 ldr         r3, [r1, #8]
  0001c	e58e200c	 str         r2, [lr, #0xC]
  00020	e58e3008	 str         r3, [lr, #8]
  00024	e49de004	 ldr         lr, [sp], #4
  00028	e12fff1e	 bx          lr
  0002c		 |$M36257|

			 ENDP  ; |??0PVRTVec4@@QAA@ABUPVRTVec3@@M@Z|, PVRTVec4::PVRTVec4

	EXPORT	|??0Light@pvrengine@@QAA@XZ|		; pvrengine::Light::Light
	EXPORT	|??_7Light@pvrengine@@6B@| [ DATA ]	; pvrengine::Light::`vftable'
	IMPORT	|_purecall|

  00000			 AREA	 |.pdata|, PDATA
|$T36272| DCD	|$LN7@Light|
	DCD	0x40000500

  00000			 AREA	 |.rdata|, DATA, READONLY
|??_7Light@pvrengine@@6B@| DCD |_purecall|		; pvrengine::Light::`vftable'
	DCD	|_purecall|
; Function compile flags: /Ogspy
; File c:\wince600\public\powervr-sdk\ogles2\extras\pvrengine\include\ogles2\light.h

  00000			 AREA	 |.text|, CODE, ARM

  00000		 |??0Light@pvrengine@@QAA@XZ| PROC	; pvrengine::Light::Light

; 48   : 		Light(){}

  00000		 |$LN7@Light|
  00000		 |$M36269|
  00000	e1a02000	 mov         r2, r0
  00004	e59f3004	 ldr         r3, [pc, #4]
  00008	e5823000	 str         r3, [r2]
  0000c	e12fff1e	 bx          lr
  00010		 |$LN8@Light|
  00010		 |$LN9@Light|
  00010	00000000	 DCD         |??_7Light@pvrengine@@6B@|
  00014		 |$M36270|

			 ENDP  ; |??0Light@pvrengine@@QAA@XZ|, pvrengine::Light::Light

	EXPORT	|??0LightDirectional@pvrengine@@QAA@UPVRTVec3@@0@Z| ; pvrengine::LightDirectional::LightDirectional
	EXPORT	|??_7LightDirectional@pvrengine@@6B@| [ DATA ] ; pvrengine::LightDirectional::`vftable'
	EXPORT	|?getType@LightDirectional@pvrengine@@UAA?AW4eLightType@2@XZ| ; pvrengine::LightDirectional::getType
	IMPORT	|?shineLight@LightDirectional@pvrengine@@UAAXI@Z| ; pvrengine::LightDirectional::shineLight
; File c:\wince600\public\powervr-sdk\ogles2\tools\pvrtvector.h

  00000			 AREA	 |.pdata|, PDATA
|$T36306| DCD	|$LN13@LightDirec|
	DCD	0x40001003

  00000			 AREA	 |.rdata|, DATA, READONLY
|??_7LightDirectional@pvrengine@@6B@| DCD |?shineLight@LightDirectional@pvrengine@@UAAXI@Z| ; pvrengine::LightDirectional::`vftable'
	DCD	|?getType@LightDirectional@pvrengine@@UAA?AW4eLightType@2@XZ|
; Function compile flags: /Ogspy
; File c:\wince600\public\powervr-sdk\ogles2\extras\pvrengine\lightbase.cpp

  00000			 AREA	 |.text|, CODE, ARM

  00000		 |??0LightDirectional@pvrengine@@QAA@UPVRTVec3@@0@Z| PROC ; pvrengine::LightDirectional::LightDirectional

; 22   : 	{

  00000		 |$LN13@LightDirec|
  00000	e1a0c00d	 mov         r12, sp
  00004	e92d000f	 stmdb       sp!, {r0 - r3}
  00008	e92d50f0	 stmdb       sp!, {r4 - r7, r12, lr}
  0000c		 |$M36303|
  0000c	e59fe028	 ldr         lr, [pc, #0x28]

; 23   : 		m_v3Colour = v3Colour;

  00010	e59d4028	 ldr         r4, [sp, #0x28]
  00014	e59d502c	 ldr         r5, [sp, #0x2C]
  00018	e59d6030	 ldr         r6, [sp, #0x30]

; 24   : 		m_v4Direction = PVRTVec4(v3Direction,f2vt(0.0f));

  0001c	e3a07000	 mov         r7, #0
  00020	e580e000	 str         lr, [r0]
  00024	e280c004	 add         r12, r0, #4
  00028	e88c0070	 stmia       r12, {r4 - r6}
  0002c	e280c010	 add         r12, r0, #0x10
  00030	e88c008e	 stmia       r12, {r1 - r3, r7}

; 25   : 	}

  00034	e89d60f0	 ldmia       sp, {r4 - r7, sp, lr}
  00038	e12fff1e	 bx          lr
  0003c		 |$LN14@LightDirec|
  0003c		 |$LN15@LightDirec|
  0003c	00000000	 DCD         |??_7LightDirectional@pvrengine@@6B@|
  00040		 |$M36304|

			 ENDP  ; |??0LightDirectional@pvrengine@@QAA@UPVRTVec3@@0@Z|, pvrengine::LightDirectional::LightDirectional

; File c:\wince600\public\powervr-sdk\ogles2\extras\pvrengine\include\ogles2\light.h

  00000			 AREA	 |.pdata|, PDATA
|$T36317| DCD	|$LN5@getType|
	DCD	0x40000200
; Function compile flags: /Ogspy

  00000			 AREA	 |.text|, CODE, ARM

  00000		 |?getType@LightDirectional@pvrengine@@UAA?AW4eLightType@2@XZ| PROC ; pvrengine::LightDirectional::getType

; 202  : 		eLightType getType(){return eLight_Directional;}

  00000		 |$LN5@getType|
  00000		 |$M36314|
  00000	e3a00001	 mov         r0, #1
  00004	e12fff1e	 bx          lr
  00008		 |$M36315|

			 ENDP  ; |?getType@LightDirectional@pvrengine@@UAA?AW4eLightType@2@XZ|, pvrengine::LightDirectional::getType

	EXPORT	|??0LightDirectional@pvrengine@@QAA@UPVRTVec4@@UPVRTVec3@@@Z| ; pvrengine::LightDirectional::LightDirectional
; File c:\wince600\public\powervr-sdk\ogles2\tools\pvrtvector.h

  00000			 AREA	 |.pdata|, PDATA
|$T36341| DCD	|$LN11@LightDirec@2|
	DCD	0x40001003
; Function compile flags: /Ogspy
; File c:\wince600\public\powervr-sdk\ogles2\extras\pvrengine\lightbase.cpp

  00000			 AREA	 |.text|, CODE, ARM

  00000		 |??0LightDirectional@pvrengine@@QAA@UPVRTVec4@@UPVRTVec3@@@Z| PROC ; pvrengine::LightDirectional::LightDirectional

; 30   : 	{

  00000		 |$LN11@LightDirec@2|
  00000	e1a0c00d	 mov         r12, sp
  00004	e92d000f	 stmdb       sp!, {r0 - r3}
  00008	e92d50f0	 stmdb       sp!, {r4 - r7, r12, lr}
  0000c		 |$M36338|
  0000c	e59fe028	 ldr         lr, [pc, #0x28]

; 31   : 		m_v3Colour = v3Colour;

  00010	e59d402c	 ldr         r4, [sp, #0x2C]
  00014	e59d5030	 ldr         r5, [sp, #0x30]
  00018	e59d6034	 ldr         r6, [sp, #0x34]

; 32   : 		m_v4Direction = v4Direction;

  0001c	e59d7028	 ldr         r7, [sp, #0x28]
  00020	e580e000	 str         lr, [r0]
  00024	e280c004	 add         r12, r0, #4
  00028	e88c0070	 stmia       r12, {r4 - r6}
  0002c	e280c010	 add         r12, r0, #0x10
  00030	e88c008e	 stmia       r12, {r1 - r3, r7}

; 33   : 	}

  00034	e89d60f0	 ldmia       sp, {r4 - r7, sp, lr}
  00038	e12fff1e	 bx          lr
  0003c		 |$LN12@LightDirec@2|
  0003c		 |$LN13@LightDirec@2|
  0003c	00000000	 DCD         |??_7LightDirectional@pvrengine@@6B@|
  00040		 |$M36339|

			 ENDP  ; |??0LightDirectional@pvrengine@@QAA@UPVRTVec4@@UPVRTVec3@@@Z|, pvrengine::LightDirectional::LightDirectional

	EXPORT	|?setDirection@LightDirectional@pvrengine@@QAAXUPVRTVec3@@@Z| ; pvrengine::LightDirectional::setDirection

  00000			 AREA	 |.pdata|, PDATA
|$T36354| DCD	|$LN5@setDirecti|
	DCD	0x40000601
; Function compile flags: /Ogspy

  00000			 AREA	 |.text|, CODE, ARM

  00000		 |?setDirection@LightDirectional@pvrengine@@QAAXUPVRTVec3@@@Z| PROC ; pvrengine::LightDirectional::setDirection

; 38   : 	{

  00000		 |$LN5@setDirecti|
  00000	e52de004	 str         lr, [sp, #-4]!
  00004		 |$M36351|

; 39   : 		m_v4Direction.x = v3Direction.x;
; 40   : 		m_v4Direction.y = v3Direction.y;
; 41   : 		m_v4Direction.z = v3Direction.z;
; 42   : 		m_v4Direction.w = f2vt(0.0f);

  00004	e3a0e000	 mov         lr, #0
  00008	e280c010	 add         r12, r0, #0x10
  0000c	e88c400e	 stmia       r12, {r1 - r3, lr}

; 43   : 	}

  00010	e49de004	 ldr         lr, [sp], #4
  00014	e12fff1e	 bx          lr
  00018		 |$M36352|

			 ENDP  ; |?setDirection@LightDirectional@pvrengine@@QAAXUPVRTVec3@@@Z|, pvrengine::LightDirectional::setDirection

	EXPORT	|?setDirection@LightDirectional@pvrengine@@QAAXUPVRTVec4@@@Z| ; pvrengine::LightDirectional::setDirection

  00000			 AREA	 |.pdata|, PDATA
|$T36365| DCD	|$LN5@setDirecti@2|
	DCD	0x40000803
; Function compile flags: /Ogspy

  00000			 AREA	 |.text|, CODE, ARM

  00000		 |?setDirection@LightDirectional@pvrengine@@QAAXUPVRTVec4@@@Z| PROC ; pvrengine::LightDirectional::setDirection

; 48   : 	{

  00000		 |$LN5@setDirecti@2|
  00000	e1a0c00d	 mov         r12, sp
  00004	e92d000f	 stmdb       sp!, {r0 - r3}
  00008	e92d5000	 stmdb       sp!, {r12, lr}
  0000c		 |$M36362|

; 49   : 		m_v4Direction = v4Direction;

  0000c	e59de018	 ldr         lr, [sp, #0x18]
  00010	e280c010	 add         r12, r0, #0x10
  00014	e88c400e	 stmia       r12, {r1 - r3, lr}

; 50   : 	}

  00018	e89d6000	 ldmia       sp, {sp, lr}
  0001c	e12fff1e	 bx          lr
  00020		 |$M36363|

			 ENDP  ; |?setDirection@LightDirectional@pvrengine@@QAAXUPVRTVec4@@@Z|, pvrengine::LightDirectional::setDirection

	EXPORT	|??0LightPoint@pvrengine@@QAA@UPVRTVec3@@0@Z| ; pvrengine::LightPoint::LightPoint
	EXPORT	|??_7LightPoint@pvrengine@@6B@| [ DATA ] ; pvrengine::LightPoint::`vftable'
	EXPORT	|?getType@LightPoint@pvrengine@@UAA?AW4eLightType@2@XZ| ; pvrengine::LightPoint::getType
	IMPORT	|?shineLight@LightPoint@pvrengine@@UAAXI@Z| ; pvrengine::LightPoint::shineLight
; File c:\wince600\public\powervr-sdk\ogles2\tools\pvrtvector.h

  00000			 AREA	 |.pdata|, PDATA
|$T36397| DCD	|$LN13@LightPoint|
	DCD	0x40001003

  00000			 AREA	 |.rdata|, DATA, READONLY
|??_7LightPoint@pvrengine@@6B@| DCD |?shineLight@LightPoint@pvrengine@@UAAXI@Z| ; pvrengine::LightPoint::`vftable'
	DCD	|?getType@LightPoint@pvrengine@@UAA?AW4eLightType@2@XZ|
; Function compile flags: /Ogspy
; File c:\wince600\public\powervr-sdk\ogles2\extras\pvrengine\lightbase.cpp

  00000			 AREA	 |.text|, CODE, ARM

  00000		 |??0LightPoint@pvrengine@@QAA@UPVRTVec3@@0@Z| PROC ; pvrengine::LightPoint::LightPoint

; 55   : 	{

  00000		 |$LN13@LightPoint|
  00000	e1a0c00d	 mov         r12, sp
  00004	e92d000f	 stmdb       sp!, {r0 - r3}
  00008	e92d50f0	 stmdb       sp!, {r4 - r7, r12, lr}
  0000c		 |$M36394|
  0000c	e59fe028	 ldr         lr, [pc, #0x28]

; 56   : 		m_v3Colour = v3Colour;

  00010	e59d4028	 ldr         r4, [sp, #0x28]
  00014	e59d502c	 ldr         r5, [sp, #0x2C]
  00018	e59d6030	 ldr         r6, [sp, #0x30]

; 57   : 		m_v4Position = PVRTVec4(v3Position,f2vt(1.0f));

  0001c	e3a075fe	 mov         r7, #0xFE, 10
  00020	e580e000	 str         lr, [r0]
  00024	e280c004	 add         r12, r0, #4
  00028	e88c0070	 stmia       r12, {r4 - r6}
  0002c	e280c010	 add         r12, r0, #0x10
  00030	e88c008e	 stmia       r12, {r1 - r3, r7}

; 58   : 	}

  00034	e89d60f0	 ldmia       sp, {r4 - r7, sp, lr}
  00038	e12fff1e	 bx          lr
  0003c		 |$LN14@LightPoint|
  0003c		 |$LN15@LightPoint|
  0003c	00000000	 DCD         |??_7LightPoint@pvrengine@@6B@|
  00040		 |$M36395|

			 ENDP  ; |??0LightPoint@pvrengine@@QAA@UPVRTVec3@@0@Z|, pvrengine::LightPoint::LightPoint

; File c:\wince600\public\powervr-sdk\ogles2\extras\pvrengine\include\ogles2\light.h

  00000			 AREA	 |.pdata|, PDATA
|$T36408| DCD	|$LN5@getType@2|
	DCD	0x40000200
; Function compile flags: /Ogspy

  00000			 AREA	 |.text|, CODE, ARM

  00000		 |?getType@LightPoint@pvrengine@@UAA?AW4eLightType@2@XZ| PROC ; pvrengine::LightPoint::getType

; 132  : 		eLightType getType(){return eLight_Point;}

  00000		 |$LN5@getType@2|
  00000		 |$M36405|
  00000	e3a00000	 mov         r0, #0
  00004	e12fff1e	 bx          lr
  00008		 |$M36406|

			 ENDP  ; |?getType@LightPoint@pvrengine@@UAA?AW4eLightType@2@XZ|, pvrengine::LightPoint::getType

	EXPORT	|??0LightPoint@pvrengine@@QAA@UPVRTVec4@@UPVRTVec3@@@Z| ; pvrengine::LightPoint::LightPoint
; File c:\wince600\public\powervr-sdk\ogles2\tools\pvrtvector.h

  00000			 AREA	 |.pdata|, PDATA
|$T36432| DCD	|$LN11@LightPoint@2|
	DCD	0x40001003
; Function compile flags: /Ogspy
; File c:\wince600\public\powervr-sdk\ogles2\extras\pvrengine\lightbase.cpp

  00000			 AREA	 |.text|, CODE, ARM

  00000		 |??0LightPoint@pvrengine@@QAA@UPVRTVec4@@UPVRTVec3@@@Z| PROC ; pvrengine::LightPoint::LightPoint

; 63   : 	{

  00000		 |$LN11@LightPoint@2|
  00000	e1a0c00d	 mov         r12, sp
  00004	e92d000f	 stmdb       sp!, {r0 - r3}
  00008	e92d50f0	 stmdb       sp!, {r4 - r7, r12, lr}
  0000c		 |$M36429|
  0000c	e59fe028	 ldr         lr, [pc, #0x28]

; 64   : 		m_v3Colour = v3Colour;

  00010	e59d402c	 ldr         r4, [sp, #0x2C]
  00014	e59d5030	 ldr         r5, [sp, #0x30]
  00018	e59d6034	 ldr         r6, [sp, #0x34]

; 65   : 		m_v4Position = v4Position;

  0001c	e59d7028	 ldr         r7, [sp, #0x28]
  00020	e580e000	 str         lr, [r0]
  00024	e280c004	 add         r12, r0, #4
  00028	e88c0070	 stmia       r12, {r4 - r6}
  0002c	e280c010	 add         r12, r0, #0x10
  00030	e88c008e	 stmia       r12, {r1 - r3, r7}

; 66   : 	}

  00034	e89d60f0	 ldmia       sp, {r4 - r7, sp, lr}
  00038	e12fff1e	 bx          lr
  0003c		 |$LN12@LightPoint@2|
  0003c		 |$LN13@LightPoint@2|
  0003c	00000000	 DCD         |??_7LightPoint@pvrengine@@6B@|
  00040		 |$M36430|

			 ENDP  ; |??0LightPoint@pvrengine@@QAA@UPVRTVec4@@UPVRTVec3@@@Z|, pvrengine::LightPoint::LightPoint

	EXPORT	|?setPosition@LightPoint@pvrengine@@QAAXUPVRTVec4@@@Z| ; pvrengine::LightPoint::setPosition

  00000			 AREA	 |.pdata|, PDATA
|$T36445| DCD	|$LN5@setPositio|
	DCD	0x40000803
; Function compile flags: /Ogspy

  00000			 AREA	 |.text|, CODE, ARM

  00000		 |?setPosition@LightPoint@pvrengine@@QAAXUPVRTVec4@@@Z| PROC ; pvrengine::LightPoint::setPosition

; 71   : 	{

  00000		 |$LN5@setPositio|
  00000	e1a0c00d	 mov         r12, sp
  00004	e92d000f	 stmdb       sp!, {r0 - r3}
  00008	e92d5000	 stmdb       sp!, {r12, lr}
  0000c		 |$M36442|

; 72   : 		m_v4Position = v4Position;

  0000c	e59de018	 ldr         lr, [sp, #0x18]
  00010	e280c010	 add         r12, r0, #0x10
  00014	e88c400e	 stmia       r12, {r1 - r3, lr}

; 73   : 	}

  00018	e89d6000	 ldmia       sp, {sp, lr}
  0001c	e12fff1e	 bx          lr
  00020		 |$M36443|

			 ENDP  ; |?setPosition@LightPoint@pvrengine@@QAAXUPVRTVec4@@@Z|, pvrengine::LightPoint::setPosition

	EXPORT	|?setPosition@LightPoint@pvrengine@@QAAXUPVRTVec3@@@Z| ; pvrengine::LightPoint::setPosition

  00000			 AREA	 |.pdata|, PDATA
|$T36456| DCD	|$LN5@setPositio@2|
	DCD	0x40000601
; Function compile flags: /Ogspy

  00000			 AREA	 |.text|, CODE, ARM

  00000		 |?setPosition@LightPoint@pvrengine@@QAAXUPVRTVec3@@@Z| PROC ; pvrengine::LightPoint::setPosition

; 78   : 	{

  00000		 |$LN5@setPositio@2|
  00000	e52de004	 str         lr, [sp, #-4]!
  00004		 |$M36453|

; 79   : 		m_v4Position.x = v3Position.x;
; 80   : 		m_v4Position.y = v3Position.y;
; 81   : 		m_v4Position.z = v3Position.z;
; 82   : 		m_v4Position.w = f2vt(1.0f);

  00004	e3a0e5fe	 mov         lr, #0xFE, 10
  00008	e280c010	 add         r12, r0, #0x10
  0000c	e88c400e	 stmia       r12, {r1 - r3, lr}

; 83   : 	}

  00010	e49de004	 ldr         lr, [sp], #4
  00014	e12fff1e	 bx          lr
  00018		 |$M36454|

			 ENDP  ; |?setPosition@LightPoint@pvrengine@@QAAXUPVRTVec3@@@Z|, pvrengine::LightPoint::setPosition

	END
