; Listing generated by Microsoft (R) Optimizing Compiler Version 14.01.60511.01 

	TTL	C:\WINCE600\PUBLIC\PowerVR-SDK\OGLES2\Extras\PVREngine\OGLES2\Light.cpp
	CODE32

  00000			 AREA	 |.drectve|, DRECTVE
	DCB	"-defaultlib:LIBCMT "
	DCB	"-defaultlib:OLDNAMES "

	EXPORT	|?shineLight@LightDirectional@pvrengine@@UAAXI@Z| ; pvrengine::LightDirectional::shineLight
; File c:\wince600\public\powervr-sdk\ogles2\extras\pvrengine\ogles2\light.cpp

  00000			 AREA	 |.pdata|, PDATA
|$T36172| DCD	|$LN5@shineLight|
	DCD	0x40000100
; Function compile flags: /Ogspy

  00000			 AREA	 |.text|, CODE, ARM

  00000		 |?shineLight@LightDirectional@pvrengine@@UAAXI@Z| PROC ; pvrengine::LightDirectional::shineLight

; 20   : 	{

  00000		 |$LN5@shineLight|
  00000		 |$M36169|

; 21   : 		// not required in this API
; 22   : 	}

  00000	e12fff1e	 bx          lr
  00004		 |$M36170|

			 ENDP  ; |?shineLight@LightDirectional@pvrengine@@UAAXI@Z|, pvrengine::LightDirectional::shineLight

	EXPORT	|?shineLight@LightPoint@pvrengine@@UAAXI@Z| ; pvrengine::LightPoint::shineLight

  00000			 AREA	 |.pdata|, PDATA
|$T36179| DCD	|$LN5@shineLight@2|
	DCD	0x40000100
; Function compile flags: /Ogspy

  00000			 AREA	 |.text|, CODE, ARM

  00000		 |?shineLight@LightPoint@pvrengine@@UAAXI@Z| PROC ; pvrengine::LightPoint::shineLight

; 27   : 	{

  00000		 |$LN5@shineLight@2|
  00000		 |$M36176|

; 28   : 		// not required in this API
; 29   : 	}

  00000	e12fff1e	 bx          lr
  00004		 |$M36177|

			 ENDP  ; |?shineLight@LightPoint@pvrengine@@UAAXI@Z|, pvrengine::LightPoint::shineLight

	END
