; Listing generated by Microsoft (R) Optimizing Compiler Version 14.01.60511.01 

	TTL	C:\WINCE600\PUBLIC\PowerVR-SDK\OGLES2\Extras\PVREngine\MaterialManager.cpp
	CODE32

  00000			 AREA	 |.drectve|, DRECTVE
	DCB	"-defaultlib:LIBCMT "
	DCB	"-defaultlib:OLDNAMES "

	EXPORT	|?c_i32DefaultSize@?$dynamicArray@PAVMaterial@pvrengine@@@@2HB| [ DATA ] ; dynamicArray<pvrengine::Material *>::c_i32DefaultSize
	EXPORT	|?c_i32DefaultSize@?$dynamicArray@VUniform@pvrengine@@@@2HB| [ DATA ] ; dynamicArray<pvrengine::Uniform>::c_i32DefaultSize
	EXPORT	|?c_i32DefaultSize@?$dynamicArray@VCPVRTString@@@@2HB| [ DATA ] ; dynamicArray<CPVRTString>::c_i32DefaultSize

  00000			 AREA	 |.rdata|, DATA, READONLY
|?c_i32DefaultSize@?$dynamicArray@VCPVRTString@@@@2HB| DCD 0x8 ; dynamicArray<CPVRTString>::c_i32DefaultSize

  00000			 AREA	 |.rdata|, DATA, READONLY
|?c_i32DefaultSize@?$dynamicArray@VUniform@pvrengine@@@@2HB| DCD 0x8 ; dynamicArray<pvrengine::Uniform>::c_i32DefaultSize

  00000			 AREA	 |.rdata|, DATA, READONLY
|?c_i32DefaultSize@?$dynamicArray@PAVMaterial@pvrengine@@@@2HB| DCD 0x8 ; dynamicArray<pvrengine::Material *>::c_i32DefaultSize
	EXPORT	|?getValid@Material@pvrengine@@QAA_NXZ|	; pvrengine::Material::getValid
; File c:\wince600\public\powervr-sdk\ogles2\extras\pvrengine\include\ogles2\material.h

  00000			 AREA	 |.pdata|, PDATA
|$T36912| DCD	|$LN5@getValid|
	DCD	0x40000200
; Function compile flags: /Ogspy

  00000			 AREA	 |.text|, CODE, ARM

  00000		 |?getValid@Material@pvrengine@@QAA_NXZ| PROC ; pvrengine::Material::getValid

; 201  : 		bool					getValid(){return m_bValid;}

  00000		 |$LN5@getValid|
  00000		 |$M36909|
  00000	e5d00004	 ldrb        r0, [r0, #4]
  00004	e12fff1e	 bx          lr
  00008		 |$M36910|

			 ENDP  ; |?getValid@Material@pvrengine@@QAA_NXZ|, pvrengine::Material::getValid

	EXPORT	|?Init@MaterialManager@pvrengine@@AAAXXZ| ; pvrengine::MaterialManager::Init
	IMPORT	|??0Material@pvrengine@@QAA@W4EDefaultMaterial@1@@Z| ; pvrengine::Material::Material
	IMPORT	|??2@YAPAXI@Z|				; operator new
; File c:\wince600\public\powervr-sdk\ogles2\extras\pvrengine\materialmanager.cpp

  00000			 AREA	 |.pdata|, PDATA
|$T36924| DCD	|$LN7@Init|
	DCD	0x40000d01
; Function compile flags: /Ogspy

  00000			 AREA	 |.text|, CODE, ARM

  00000		 |?Init@MaterialManager@pvrengine@@AAAXXZ| PROC ; pvrengine::MaterialManager::Init

; 70   : 	{

  00000		 |$LN7@Init|
  00000	e92d4010	 stmdb       sp!, {r4, lr}
  00004		 |$M36921|
  00004	e1a04000	 mov         r4, r0

; 71   : 		m_pFlatMaterial = new Material(eFlat);

  00008	e3a00f42	 mov         r0, #0x42, 30
  0000c	eb000000	 bl          |??2@YAPAXI@Z|
  00010	e3500000	 cmp         r0, #0
  00014	0a000002	 beq         |$LN3@Init|
  00018	e3a01000	 mov         r1, #0
  0001c	eb000000	 bl          |??0Material@pvrengine@@QAA@W4EDefaultMaterial@1@@Z|
  00020	ea000000	 b           |$LN4@Init|
  00024		 |$LN3@Init|
  00024	e3a00000	 mov         r0, #0
  00028		 |$LN4@Init|
  00028	e5840010	 str         r0, [r4, #0x10]

; 72   : 	}

  0002c	e8bd4010	 ldmia       sp!, {r4, lr}
  00030	e12fff1e	 bx          lr
  00034		 |$M36922|

			 ENDP  ; |?Init@MaterialManager@pvrengine@@AAAXXZ|, pvrengine::MaterialManager::Init

	EXPORT	|?ReportActiveMaterial@MaterialManager@pvrengine@@QAAXPAVMaterial@2@@Z| ; pvrengine::MaterialManager::ReportActiveMaterial
	IMPORT	|?Deactivate@Material@pvrengine@@QAAXXZ| ; pvrengine::Material::Deactivate

  00000			 AREA	 |.pdata|, PDATA
|$T36933| DCD	|$LN6@ReportActi|
	DCD	0x40000a01
; Function compile flags: /Ogspy

  00000			 AREA	 |.text|, CODE, ARM

  00000		 |?ReportActiveMaterial@MaterialManager@pvrengine@@QAAXPAVMaterial@2@@Z| PROC ; pvrengine::MaterialManager::ReportActiveMaterial

; 151  : 	{

  00000		 |$LN6@ReportActi|
  00000	e92d4030	 stmdb       sp!, {r4, r5, lr}
  00004		 |$M36930|
  00004	e1a05001	 mov         r5, r1
  00008	e1a04000	 mov         r4, r0

; 152  : 		if(m_pActiveMaterial)

  0000c	e5943014	 ldr         r3, [r4, #0x14]
  00010	e3530000	 cmp         r3, #0

; 153  : 			m_pActiveMaterial->Deactivate();	// only one active material at a time

  00014	11a00003	 movne       r0, r3
  00018	1b000000	 blne        |?Deactivate@Material@pvrengine@@QAAXXZ|

; 154  : 		m_pActiveMaterial = pNewMaterial;

  0001c	e5845014	 str         r5, [r4, #0x14]

; 155  : 	}

  00020	e8bd4030	 ldmia       sp!, {r4, r5, lr}
  00024	e12fff1e	 bx          lr
  00028		 |$M36931|

			 ENDP  ; |?ReportActiveMaterial@MaterialManager@pvrengine@@QAAXPAVMaterial@2@@Z|, pvrengine::MaterialManager::ReportActiveMaterial

	EXPORT	|?getFlatMaterial@MaterialManager@pvrengine@@QAAPAVMaterial@2@XZ| ; pvrengine::MaterialManager::getFlatMaterial

  00000			 AREA	 |.pdata|, PDATA
|$T36943| DCD	|$LN5@getFlatMat|
	DCD	0x40000200
; Function compile flags: /Ogspy

  00000			 AREA	 |.text|, CODE, ARM

  00000		 |?getFlatMaterial@MaterialManager@pvrengine@@QAAPAVMaterial@2@XZ| PROC ; pvrengine::MaterialManager::getFlatMaterial

; 160  : 	{

  00000		 |$LN5@getFlatMat|
  00000		 |$M36940|

; 161  : 		return m_pFlatMaterial;

  00000	e5900010	 ldr         r0, [r0, #0x10]

; 162  : 	}

  00004	e12fff1e	 bx          lr
  00008		 |$M36941|

			 ENDP  ; |?getFlatMaterial@MaterialManager@pvrengine@@QAAPAVMaterial@2@XZ|, pvrengine::MaterialManager::getFlatMaterial

	EXPORT	|??0?$CPVRTSingleton@VMaterialManager@pvrengine@@@@IAA@XZ| ; CPVRTSingleton<pvrengine::MaterialManager>::CPVRTSingleton<pvrengine::MaterialManager>
	EXPORT	|??_7?$CPVRTSingleton@VMaterialManager@pvrengine@@@@6B@| [ DATA ] ; CPVRTSingleton<pvrengine::MaterialManager>::`vftable'
	IMPORT	|??_E?$CPVRTSingleton@VMaterialManager@pvrengine@@@@MAAPAXI@Z|, WEAK |??_G?$CPVRTSingleton@VMaterialManager@pvrengine@@@@MAAPAXI@Z| ; CPVRTSingleton<pvrengine::MaterialManager>::`vector deleting destructor', CPVRTSingleton<pvrengine::MaterialManager>::`scalar deleting destructor'
; File c:\wince600\public\powervr-sdk\ogles2\tools\pvrtsingleton.h

  00000			 AREA	 |.pdata|, PDATA
|$T36953| DCD	|$LN5@CPVRTSingl|
	DCD	0x40000500

  00000			 AREA	 |.rdata|, DATA, READONLY
|??_7?$CPVRTSingleton@VMaterialManager@pvrengine@@@@6B@| DCD |??_E?$CPVRTSingleton@VMaterialManager@pvrengine@@@@MAAPAXI@Z| ; CPVRTSingleton<pvrengine::MaterialManager>::`vftable'
; Function compile flags: /Ogspy

  00000			 AREA	 |.text|, CODE, ARM

  00000		 |??0?$CPVRTSingleton@VMaterialManager@pvrengine@@@@IAA@XZ| PROC ; CPVRTSingleton<pvrengine::MaterialManager>::CPVRTSingleton<pvrengine::MaterialManager>

; 37   : 	CPVRTSingleton() {};

  00000		 |$LN5@CPVRTSingl|
  00000		 |$M36950|
  00000	e1a02000	 mov         r2, r0
  00004	e59f3004	 ldr         r3, [pc, #4]
  00008	e5823000	 str         r3, [r2]
  0000c	e12fff1e	 bx          lr
  00010		 |$LN6@CPVRTSingl|
  00010		 |$LN7@CPVRTSingl|
  00010	00000000	 DCD         |??_7?$CPVRTSingleton@VMaterialManager@pvrengine@@@@6B@|
  00014		 |$M36951|

			 ENDP  ; |??0?$CPVRTSingleton@VMaterialManager@pvrengine@@@@IAA@XZ|, CPVRTSingleton<pvrengine::MaterialManager>::CPVRTSingleton<pvrengine::MaterialManager>

	EXPORT	|??1?$CPVRTSingleton@VMaterialManager@pvrengine@@@@MAA@XZ| ; CPVRTSingleton<pvrengine::MaterialManager>::~CPVRTSingleton<pvrengine::MaterialManager>

  00000			 AREA	 |.pdata|, PDATA
|$T36963| DCD	|$LN5@CPVRTSingl@2|
	DCD	0x40000400
; Function compile flags: /Ogspy

  00000			 AREA	 |.text|, CODE, ARM

  00000		 |??1?$CPVRTSingleton@VMaterialManager@pvrengine@@@@MAA@XZ| PROC ; CPVRTSingleton<pvrengine::MaterialManager>::~CPVRTSingleton<pvrengine::MaterialManager>

; 38   : 	virtual ~CPVRTSingleton() {};

  00000		 |$LN5@CPVRTSingl@2|
  00000		 |$M36960|
  00000	e59f3004	 ldr         r3, [pc, #4]
  00004	e5803000	 str         r3, [r0]
  00008	e12fff1e	 bx          lr
  0000c		 |$LN6@CPVRTSingl@2|
  0000c		 |$LN7@CPVRTSingl@2|
  0000c	00000000	 DCD         |??_7?$CPVRTSingleton@VMaterialManager@pvrengine@@@@6B@|
  00010		 |$M36961|

			 ENDP  ; |??1?$CPVRTSingleton@VMaterialManager@pvrengine@@@@MAA@XZ|, CPVRTSingleton<pvrengine::MaterialManager>::~CPVRTSingleton<pvrengine::MaterialManager>

	EXPORT	|??0?$dynamicArray@PAVMaterial@pvrengine@@@@QAA@XZ| ; dynamicArray<pvrengine::Material *>::dynamicArray<pvrengine::Material *>
; File c:\wince600\public\powervr-sdk\ogles2\extras\pvrengine\include\dynamicarray.h

  00000			 AREA	 |.pdata|, PDATA
|$T36976| DCD	|$LN5@dynamicArr|
	DCD	0x40000c01
; Function compile flags: /Ogspy

  00000			 AREA	 |.text|, CODE, ARM

  00000		 |??0?$dynamicArray@PAVMaterial@pvrengine@@@@QAA@XZ| PROC ; dynamicArray<pvrengine::Material *>::dynamicArray<pvrengine::Material *>

; 57   : 	{

  00000		 |$LN5@dynamicArr|
  00000	e92d4010	 stmdb       sp!, {r4, lr}
  00004		 |$M36973|
  00004	e1a04000	 mov         r4, r0
  00008	e3a03000	 mov         r3, #0
  0000c	e3a02008	 mov         r2, #8

; 58   : 		m_pArray = new T[c_i32DefaultSize];

  00010	e3a00020	 mov         r0, #0x20
  00014	e5843000	 str         r3, [r4]
  00018	e5842004	 str         r2, [r4, #4]
  0001c	eb000000	 bl          |??2@YAPAXI@Z|
  00020	e5840008	 str         r0, [r4, #8]

; 59   : 	}

  00024	e1a00004	 mov         r0, r4
  00028	e8bd4010	 ldmia       sp!, {r4, lr}
  0002c	e12fff1e	 bx          lr
  00030		 |$M36974|

			 ENDP  ; |??0?$dynamicArray@PAVMaterial@pvrengine@@@@QAA@XZ|, dynamicArray<pvrengine::Material *>::dynamicArray<pvrengine::Material *>

	EXPORT	|??0?$dynamicArray@PAVMaterial@pvrengine@@@@QAA@H@Z| ; dynamicArray<pvrengine::Material *>::dynamicArray<pvrengine::Material *>

  00000			 AREA	 |.pdata|, PDATA
|$T36990| DCD	|$LN7@dynamicArr@2|
	DCD	0x40000d01
; Function compile flags: /Ogspy

  00000			 AREA	 |.text|, CODE, ARM

  00000		 |??0?$dynamicArray@PAVMaterial@pvrengine@@@@QAA@H@Z| PROC ; dynamicArray<pvrengine::Material *>::dynamicArray<pvrengine::Material *>

; 69   : 	{

  00000		 |$LN7@dynamicArr@2|
  00000	e92d4010	 stmdb       sp!, {r4, lr}
  00004		 |$M36987|
  00004	e1a04000	 mov         r4, r0

; 70   : 		_ASSERT(i32Size!=0);
; 71   : 		m_pArray = new T[i32Size];

  00008	e3710107	 cmn         r1, #7, 2
  0000c	91a00101	 movls       r0, r1, lsl #2
  00010	e3a03000	 mov         r3, #0
  00014	83e00000	 mvnhi       r0, #0
  00018	e5843000	 str         r3, [r4]
  0001c	e5841004	 str         r1, [r4, #4]
  00020	eb000000	 bl          |??2@YAPAXI@Z|
  00024	e5840008	 str         r0, [r4, #8]

; 72   : 	}

  00028	e1a00004	 mov         r0, r4
  0002c	e8bd4010	 ldmia       sp!, {r4, lr}
  00030	e12fff1e	 bx          lr
  00034		 |$M36988|

			 ENDP  ; |??0?$dynamicArray@PAVMaterial@pvrengine@@@@QAA@H@Z|, dynamicArray<pvrengine::Material *>::dynamicArray<pvrengine::Material *>

	EXPORT	|??1?$dynamicArray@PAVMaterial@pvrengine@@@@QAA@XZ| ; dynamicArray<pvrengine::Material *>::~dynamicArray<pvrengine::Material *>
	IMPORT	|??3@YAXPAX@Z|				; operator delete

  00000			 AREA	 |.pdata|, PDATA
|$T36999| DCD	|$LN6@dynamicArr@3|
	DCD	0x40000701
; Function compile flags: /Ogspy

  00000			 AREA	 |.text|, CODE, ARM

  00000		 |??1?$dynamicArray@PAVMaterial@pvrengine@@@@QAA@XZ| PROC ; dynamicArray<pvrengine::Material *>::~dynamicArray<pvrengine::Material *>

; 113  : 	{

  00000		 |$LN6@dynamicArr@3|
  00000	e52de004	 str         lr, [sp, #-4]!
  00004		 |$M36996|

; 114  : 		if(m_pArray)

  00004	e5903008	 ldr         r3, [r0, #8]
  00008	e3530000	 cmp         r3, #0

; 115  : 			delete[](m_pArray);

  0000c	11a00003	 movne       r0, r3
  00010	1b000000	 blne        |??3@YAXPAX@Z|

; 116  : 	}

  00014	e49de004	 ldr         lr, [sp], #4
  00018	e12fff1e	 bx          lr
  0001c		 |$M36997|

			 ENDP  ; |??1?$dynamicArray@PAVMaterial@pvrengine@@@@QAA@XZ|, dynamicArray<pvrengine::Material *>::~dynamicArray<pvrengine::Material *>

	EXPORT	|?append@?$dynamicArray@PAVMaterial@pvrengine@@@@QAAXPAVMaterial@pvrengine@@@Z| ; dynamicArray<pvrengine::Material *>::append

  00000			 AREA	 |.pdata|, PDATA
|$T37017| DCD	|$LN13@append|
	DCD	0x40002401
; Function compile flags: /Ogspy

  00000			 AREA	 |.text|, CODE, ARM

  00000		 |?append@?$dynamicArray@PAVMaterial@pvrengine@@@@QAAXPAVMaterial@pvrengine@@@Z| PROC ; dynamicArray<pvrengine::Material *>::append

; 126  : 	{

  00000		 |$LN13@append|
  00000	e92d4030	 stmdb       sp!, {r4, r5, lr}
  00004		 |$M37014|
  00004	e1a05001	 mov         r5, r1
  00008	e1a04000	 mov         r4, r0

; 127  : 		if(m_i32Size==m_i32Capacity)		// should never be >

  0000c	e5942004	 ldr         r2, [r4, #4]
  00010	e5943000	 ldr         r3, [r4]
  00014	e1530002	 cmp         r3, r2
  00018	1a000014	 bne         |$LN4@append|

; 128  : 		{	// expand array: expensive
; 129  : 
; 130  : 			m_i32Capacity*=2;	// array doubles in size for each expansion

  0001c	e1a03082	 mov         r3, r2, lsl #1

; 131  : 			T *pDeadArray,*pNewArray = new T[m_i32Capacity]; // make new array

  00020	e3730107	 cmn         r3, #7, 2
  00024	91a00103	 movls       r0, r3, lsl #2
  00028	83e00000	 mvnhi       r0, #0
  0002c	e5843004	 str         r3, [r4, #4]
  00030	eb000000	 bl          |??2@YAPAXI@Z|

; 132  : 
; 133  : 			// copy old values to new array
; 134  : 			for(int i=0;i<m_i32Size;i++)

  00034	e5943000	 ldr         r3, [r4]
  00038	e1a01000	 mov         r1, r0
  0003c	e3a02000	 mov         r2, #0
  00040	e3530000	 cmp         r3, #0
  00044	da000006	 ble         |$LN1@append|
  00048		 |$LL3@append|

; 135  : 			{
; 136  : 				pNewArray[i]=m_pArray[i];

  00048	e5943008	 ldr         r3, [r4, #8]
  0004c	e7933102	 ldr         r3, [r3, +r2, lsl #2]
  00050	e7813102	 str         r3, [r1, +r2, lsl #2]
  00054	e5943000	 ldr         r3, [r4]
  00058	e2822001	 add         r2, r2, #1
  0005c	e1520003	 cmp         r2, r3
  00060	bafffff8	 blt         |$LL3@append|
  00064		 |$LN1@append|

; 137  : 			}
; 138  : 
; 139  : 
; 140  : 			pDeadArray = m_pArray;

  00064	e5940008	 ldr         r0, [r4, #8]

; 141  : 			m_pArray = pNewArray;

  00068	e5841008	 str         r1, [r4, #8]

; 142  : 			delete[](pDeadArray);

  0006c	eb000000	 bl          |??3@YAXPAX@Z|
  00070		 |$LN4@append|

; 143  : 		}
; 144  : 		// add new element to end of array
; 145  : 
; 146  : 		m_pArray[m_i32Size] = addT;

  00070	e5942000	 ldr         r2, [r4]
  00074	e5943008	 ldr         r3, [r4, #8]
  00078	e7835102	 str         r5, [r3, +r2, lsl #2]

; 147  : 		m_i32Size++;

  0007c	e5943000	 ldr         r3, [r4]
  00080	e2833001	 add         r3, r3, #1
  00084	e5843000	 str         r3, [r4]

; 148  : 	}

  00088	e8bd4030	 ldmia       sp!, {r4, r5, lr}
  0008c	e12fff1e	 bx          lr
  00090		 |$M37015|

			 ENDP  ; |?append@?$dynamicArray@PAVMaterial@pvrengine@@@@QAAXPAVMaterial@pvrengine@@@Z|, dynamicArray<pvrengine::Material *>::append

	EXPORT	|??A?$dynamicArray@PAVMaterial@pvrengine@@@@QAAAAPAVMaterial@pvrengine@@H@Z| ; dynamicArray<pvrengine::Material *>::operator[]

  00000			 AREA	 |.pdata|, PDATA
|$T37028| DCD	|$LN5@operator|
	DCD	0x40000300
; Function compile flags: /Ogspy

  00000			 AREA	 |.text|, CODE, ARM

  00000		 |??A?$dynamicArray@PAVMaterial@pvrengine@@@@QAAAAPAVMaterial@pvrengine@@H@Z| PROC ; dynamicArray<pvrengine::Material *>::operator[]

; 216  : 	{

  00000		 |$LN5@operator|
  00000		 |$M37025|

; 217  : 		_ASSERT(i32Index<m_i32Capacity);
; 218  : 		return m_pArray[i32Index];

  00000	e5903008	 ldr         r3, [r0, #8]
  00004	e0830101	 add         r0, r3, r1, lsl #2

; 219  : 	}

  00008	e12fff1e	 bx          lr
  0000c		 |$M37026|

			 ENDP  ; |??A?$dynamicArray@PAVMaterial@pvrengine@@@@QAAAAPAVMaterial@pvrengine@@H@Z|, dynamicArray<pvrengine::Material *>::operator[]

	EXPORT	|?getSize@?$dynamicArray@PAVMaterial@pvrengine@@@@QBAIXZ| ; dynamicArray<pvrengine::Material *>::getSize

  00000			 AREA	 |.pdata|, PDATA
|$T37038| DCD	|$LN5@getSize|
	DCD	0x40000200
; Function compile flags: /Ogspy

  00000			 AREA	 |.text|, CODE, ARM

  00000		 |?getSize@?$dynamicArray@PAVMaterial@pvrengine@@@@QBAIXZ| PROC ; dynamicArray<pvrengine::Material *>::getSize

; 240  : 	{

  00000		 |$LN5@getSize|
  00000		 |$M37035|

; 241  : 		return m_i32Size;

  00000	e5900000	 ldr         r0, [r0]

; 242  : 	}

  00004	e12fff1e	 bx          lr
  00008		 |$M37036|

			 ENDP  ; |?getSize@?$dynamicArray@PAVMaterial@pvrengine@@@@QBAIXZ|, dynamicArray<pvrengine::Material *>::getSize

	EXPORT	|??1?$dynamicArray@VUniform@pvrengine@@@@QAA@XZ| ; dynamicArray<pvrengine::Uniform>::~dynamicArray<pvrengine::Uniform>

  00000			 AREA	 |.pdata|, PDATA
|$T37047| DCD	|$LN6@dynamicArr@4|
	DCD	0x40000701
; Function compile flags: /Ogspy

  00000			 AREA	 |.text|, CODE, ARM

  00000		 |??1?$dynamicArray@VUniform@pvrengine@@@@QAA@XZ| PROC ; dynamicArray<pvrengine::Uniform>::~dynamicArray<pvrengine::Uniform>

; 113  : 	{

  00000		 |$LN6@dynamicArr@4|
  00000	e52de004	 str         lr, [sp, #-4]!
  00004		 |$M37044|

; 114  : 		if(m_pArray)

  00004	e5903008	 ldr         r3, [r0, #8]
  00008	e3530000	 cmp         r3, #0

; 115  : 			delete[](m_pArray);

  0000c	11a00003	 movne       r0, r3
  00010	1b000000	 blne        |??3@YAXPAX@Z|

; 116  : 	}

  00014	e49de004	 ldr         lr, [sp], #4
  00018	e12fff1e	 bx          lr
  0001c		 |$M37045|

			 ENDP  ; |??1?$dynamicArray@VUniform@pvrengine@@@@QAA@XZ|, dynamicArray<pvrengine::Uniform>::~dynamicArray<pvrengine::Uniform>


  00000			 AREA	 |.pdata|, PDATA
|$T37061| DCD	|$LN8@scalar|
	DCD	0x40000a01
; Function compile flags: /Ogspy

  00000			 AREA	 |.text|, CODE, ARM

  00000		 |??_G?$CPVRTSingleton@VMaterialManager@pvrengine@@@@MAAPAXI@Z| PROC ; CPVRTSingleton<pvrengine::MaterialManager>::`scalar deleting destructor'
  00000		 |$LN8@scalar|
  00000	e92d4010	 stmdb       sp!, {r4, lr}
  00004		 |$M37058|
  00004	e1a04000	 mov         r4, r0
  00008	e59f3014	 ldr         r3, [pc, #0x14]
  0000c	e3110001	 tst         r1, #1
  00010	e5843000	 str         r3, [r4]
  00014	1b000000	 blne        |??3@YAXPAX@Z|
  00018	e1a00004	 mov         r0, r4
  0001c	e8bd4010	 ldmia       sp!, {r4, lr}
  00020	e12fff1e	 bx          lr
  00024		 |$LN9@scalar|
  00024		 |$LN10@scalar|
  00024	00000000	 DCD         |??_7?$CPVRTSingleton@VMaterialManager@pvrengine@@@@6B@|
  00028		 |$M37059|

			 ENDP  ; |??_G?$CPVRTSingleton@VMaterialManager@pvrengine@@@@MAAPAXI@Z|, CPVRTSingleton<pvrengine::MaterialManager>::`scalar deleting destructor'

	EXPORT	|??1Material@pvrengine@@QAA@XZ|		; pvrengine::Material::~Material
	IMPORT	|??1CPVRTString@@UAA@XZ|		; CPVRTString::~CPVRTString
	IMPORT	|??1CPVRTPFXEffect@@QAA@XZ|		; CPVRTPFXEffect::~CPVRTPFXEffect
	IMPORT	|??1CPVRTPFXParser@@QAA@XZ|		; CPVRTPFXParser::~CPVRTPFXParser

  00000			 AREA	 |.pdata|, PDATA
|$T37111| DCD	|$LN20@Material|
	DCD	0x40002401
; Function compile flags: /Ogspy
; File c:\wince600\public\powervr-sdk\ogles2\extras\pvrengine\include\ogles2\material.h

  00000			 AREA	 |.text|, CODE, ARM

  00000		 |??1Material@pvrengine@@QAA@XZ| PROC	; pvrengine::Material::~Material

; 53   : 		~Material(){}

  00000		 |$LN20@Material|
  00000	e92d4010	 stmdb       sp!, {r4, lr}
  00004		 |$M37108|
  00004	e1a04000	 mov         r4, r0
  00008	e59430d8	 ldr         r3, [r4, #0xD8]
  0000c	e3530000	 cmp         r3, #0
  00010	11a00003	 movne       r0, r3
  00014	1b000000	 blne        |??3@YAXPAX@Z|
  00018	e59430cc	 ldr         r3, [r4, #0xCC]
  0001c	e3530000	 cmp         r3, #0
  00020	11a00003	 movne       r0, r3
  00024	1b000000	 blne        |??3@YAXPAX@Z|
  00028	e59430c0	 ldr         r3, [r4, #0xC0]
  0002c	e3530000	 cmp         r3, #0
  00030	11a00003	 movne       r0, r3
  00034	1b000000	 blne        |??3@YAXPAX@Z|
  00038	e59430b4	 ldr         r3, [r4, #0xB4]
  0003c	e3530000	 cmp         r3, #0
  00040	11a00003	 movne       r0, r3
  00044	1b000000	 blne        |??3@YAXPAX@Z|
  00048	e59430a8	 ldr         r3, [r4, #0xA8]
  0004c	e3530000	 cmp         r3, #0
  00050	11a00003	 movne       r0, r3
  00054	1b000000	 blne        |??3@YAXPAX@Z|
  00058	e2840060	 add         r0, r4, #0x60
  0005c	eb000000	 bl          |??1CPVRTPFXParser@@QAA@XZ|
  00060	e2840048	 add         r0, r4, #0x48
  00064	eb000000	 bl          |??1CPVRTPFXEffect@@QAA@XZ|
  00068	e2840038	 add         r0, r4, #0x38
  0006c	eb000000	 bl          |??1CPVRTString@@UAA@XZ|
  00070	e2840028	 add         r0, r4, #0x28
  00074	eb000000	 bl          |??1CPVRTString@@UAA@XZ|
  00078	e2840018	 add         r0, r4, #0x18
  0007c	eb000000	 bl          |??1CPVRTString@@UAA@XZ|
  00080	e2840008	 add         r0, r4, #8
  00084	eb000000	 bl          |??1CPVRTString@@UAA@XZ|
  00088	e8bd4010	 ldmia       sp!, {r4, lr}
  0008c	e12fff1e	 bx          lr
  00090		 |$M37109|

			 ENDP  ; |??1Material@pvrengine@@QAA@XZ|, pvrengine::Material::~Material

	EXPORT	|??0MaterialManager@pvrengine@@QAA@XZ|	; pvrengine::MaterialManager::MaterialManager
	EXPORT	|??_7MaterialManager@pvrengine@@6B@| [ DATA ] ; pvrengine::MaterialManager::`vftable'
	IMPORT	|??_EMaterialManager@pvrengine@@UAAPAXI@Z|, WEAK |??_GMaterialManager@pvrengine@@UAAPAXI@Z| ; pvrengine::MaterialManager::`vector deleting destructor', pvrengine::MaterialManager::`scalar deleting destructor'
; File c:\wince600\public\powervr-sdk\ogles2\extras\pvrengine\include\dynamicarray.h

  00000			 AREA	 |.pdata|, PDATA
|$T37131| DCD	|$LN9@MaterialMa|
	DCD	0x40001201

  00000			 AREA	 |.rdata|, DATA, READONLY
|??_7MaterialManager@pvrengine@@6B@| DCD |??_EMaterialManager@pvrengine@@UAAPAXI@Z| ; pvrengine::MaterialManager::`vftable'
; Function compile flags: /Ogspy
; File c:\wince600\public\powervr-sdk\ogles2\extras\pvrengine\materialmanager.cpp

  00000			 AREA	 |.text|, CODE, ARM

  00000		 |??0MaterialManager@pvrengine@@QAA@XZ| PROC ; pvrengine::MaterialManager::MaterialManager

; 29   : 	{

  00000		 |$LN9@MaterialMa|
  00000	e92d4030	 stmdb       sp!, {r4, r5, lr}
  00004		 |$M37128|
  00004	e1a05000	 mov         r5, r0
  00008	e59f3034	 ldr         r3, [pc, #0x34]
  0000c	e1a04005	 mov         r4, r5
  00010	e3a02000	 mov         r2, #0
  00014	e4843004	 str         r3, [r4], #4
  00018	e3a03008	 mov         r3, #8
  0001c	e3a00020	 mov         r0, #0x20
  00020	e884000c	 stmia       r4, {r2, r3}
  00024	eb000000	 bl          |??2@YAPAXI@Z|
  00028	e1a03000	 mov         r3, r0

; 30   : 		Init();

  0002c	e1a00005	 mov         r0, r5
  00030	e5843008	 str         r3, [r4, #8]
  00034	eb000000	 bl          |?Init@MaterialManager@pvrengine@@AAAXXZ|

; 31   : 	}

  00038	e1a00005	 mov         r0, r5
  0003c	e8bd4030	 ldmia       sp!, {r4, r5, lr}
  00040	e12fff1e	 bx          lr
  00044		 |$LN10@MaterialMa|
  00044		 |$LN11@MaterialMa|
  00044	00000000	 DCD         |??_7MaterialManager@pvrengine@@6B@|
  00048		 |$M37129|

			 ENDP  ; |??0MaterialManager@pvrengine@@QAA@XZ|, pvrengine::MaterialManager::MaterialManager

	EXPORT	|??0MaterialManager@pvrengine@@QAA@H@Z|	; pvrengine::MaterialManager::MaterialManager
; File c:\wince600\public\powervr-sdk\ogles2\extras\pvrengine\include\dynamicarray.h

  00000			 AREA	 |.pdata|, PDATA
|$T37173| DCD	|$LN16@MaterialMa@2|
	DCD	0x40001d01
; Function compile flags: /Ogspy
; File c:\wince600\public\powervr-sdk\ogles2\extras\pvrengine\materialmanager.cpp

  00000			 AREA	 |.text|, CODE, ARM

  00000		 |??0MaterialManager@pvrengine@@QAA@H@Z| PROC ; pvrengine::MaterialManager::MaterialManager

; 36   : 	{

  00000		 |$LN16@MaterialMa@2|
  00000	e92d4070	 stmdb       sp!, {r4 - r6, lr}
  00004		 |$M37170|
  00004	e1a06001	 mov         r6, r1
  00008	e1a05000	 mov         r5, r0
  0000c	e59f305c	 ldr         r3, [pc, #0x5C]
  00010	e1a04005	 mov         r4, r5
  00014	e3a02000	 mov         r2, #0
  00018	e4843004	 str         r3, [r4], #4
  0001c	e3a03008	 mov         r3, #8
  00020	e3a00020	 mov         r0, #0x20
  00024	e884000c	 stmia       r4, {r2, r3}
  00028	eb000000	 bl          |??2@YAPAXI@Z|
  0002c	e1a03000	 mov         r3, r0

; 37   : 		Init();

  00030	e1a00005	 mov         r0, r5
  00034	e5843008	 str         r3, [r4, #8]
  00038	eb000000	 bl          |?Init@MaterialManager@pvrengine@@AAAXXZ|

; 38   : 		m_daMaterials = dynamicArray<Material*>(i32MaxMaterials);

  0003c	e3760107	 cmn         r6, #7, 2
  00040	91a00106	 movls       r0, r6, lsl #2
  00044	83e00000	 mvnhi       r0, #0
  00048	e3a04000	 mov         r4, #0
  0004c	eb000000	 bl          |??2@YAPAXI@Z|
  00050	e3500000	 cmp         r0, #0
  00054	e585000c	 str         r0, [r5, #0xC]
  00058	e5854004	 str         r4, [r5, #4]
  0005c	e5856008	 str         r6, [r5, #8]
  00060	1b000000	 blne        |??3@YAXPAX@Z|

; 39   : 	}

  00064	e1a00005	 mov         r0, r5
  00068	e8bd4070	 ldmia       sp!, {r4 - r6, lr}
  0006c	e12fff1e	 bx          lr
  00070		 |$LN17@MaterialMa@2|
  00070		 |$LN18@MaterialMa@2|
  00070	00000000	 DCD         |??_7MaterialManager@pvrengine@@6B@|
  00074		 |$M37171|

			 ENDP  ; |??0MaterialManager@pvrengine@@QAA@H@Z|, pvrengine::MaterialManager::MaterialManager

	EXPORT	|??_GMaterial@pvrengine@@QAAPAXI@Z|	; pvrengine::Material::`scalar deleting destructor'

  00000			 AREA	 |.pdata|, PDATA
|$T37186| DCD	|$LN6@scalar@2|
	DCD	0x40000a01
; Function compile flags: /Ogspy

  00000			 AREA	 |.text|, CODE, ARM

  00000		 |??_GMaterial@pvrengine@@QAAPAXI@Z| PROC ; pvrengine::Material::`scalar deleting destructor'
  00000		 |$LN6@scalar@2|
  00000	e92d4030	 stmdb       sp!, {r4, r5, lr}
  00004		 |$M37183|
  00004	e1a04001	 mov         r4, r1
  00008	e1a05000	 mov         r5, r0
  0000c	eb000000	 bl          |??1Material@pvrengine@@QAA@XZ|
  00010	e3140001	 tst         r4, #1
  00014	11a00005	 movne       r0, r5
  00018	1b000000	 blne        |??3@YAXPAX@Z|
  0001c	e1a00005	 mov         r0, r5
  00020	e8bd4030	 ldmia       sp!, {r4, r5, lr}
  00024	e12fff1e	 bx          lr
  00028		 |$M37184|

			 ENDP  ; |??_GMaterial@pvrengine@@QAAPAXI@Z|, pvrengine::Material::`scalar deleting destructor'

	EXPORT	|?getMaterial@MaterialManager@pvrengine@@QAAPAVMaterial@2@I@Z| ; pvrengine::MaterialManager::getMaterial
; File c:\wince600\public\powervr-sdk\ogles2\extras\pvrengine\include\dynamicarray.h

  00000			 AREA	 |.pdata|, PDATA
|$T37200| DCD	|$LN7@getMateria|
	DCD	0x40000300
; Function compile flags: /Ogspy
; File c:\wince600\public\powervr-sdk\ogles2\extras\pvrengine\materialmanager.cpp

  00000			 AREA	 |.text|, CODE, ARM

  00000		 |?getMaterial@MaterialManager@pvrengine@@QAAPAVMaterial@2@I@Z| PROC ; pvrengine::MaterialManager::getMaterial

; 144  : 	{

  00000		 |$LN7@getMateria|
  00000		 |$M37197|

; 145  : 		return m_daMaterials[u32Id];

  00000	e590300c	 ldr         r3, [r0, #0xC]
  00004	e7930101	 ldr         r0, [r3, +r1, lsl #2]

; 146  : 	}

  00008	e12fff1e	 bx          lr
  0000c		 |$M37198|

			 ENDP  ; |?getMaterial@MaterialManager@pvrengine@@QAAPAVMaterial@2@I@Z|, pvrengine::MaterialManager::getMaterial

	EXPORT	|??__Fobject@?1??inst@?$CPVRTSingleton@VConsoleLog@pvrengine@@@@SAAAVConsoleLog@pvrengine@@XZ@YAXXZ| ; `CPVRTSingleton<pvrengine::ConsoleLog>::inst'::`2'::`dynamic atexit destructor for 'object''
	EXPORT	|??_B?1??inst@?$CPVRTSingleton@VConsoleLog@pvrengine@@@@SAAAVConsoleLog@pvrengine@@XZ@51| [ DATA ] ; `CPVRTSingleton<pvrengine::ConsoleLog>::inst'::`2'::`local static guard'
	EXPORT	|?inst@?$CPVRTSingleton@VConsoleLog@pvrengine@@@@SAAAVConsoleLog@pvrengine@@XZ| ; CPVRTSingleton<pvrengine::ConsoleLog>::inst
	EXPORT	|?object@?1??inst@?$CPVRTSingleton@VConsoleLog@pvrengine@@@@SAAAVConsoleLog@pvrengine@@XZ@4V34@A| [ DATA ] ; `CPVRTSingleton<pvrengine::ConsoleLog>::inst'::`2'::object
	IMPORT	|atexit|
	IMPORT	|??0ConsoleLog@pvrengine@@QAA@XZ|	; pvrengine::ConsoleLog::ConsoleLog
; File c:\wince600\public\powervr-sdk\ogles2\tools\pvrtsingleton.h

  00000			 AREA	 |.bss|, NOINIT
|??_B?1??inst@?$CPVRTSingleton@VConsoleLog@pvrengine@@@@SAAAVConsoleLog@pvrengine@@XZ@51| % 0x4 ; `CPVRTSingleton<pvrengine::ConsoleLog>::inst'::`2'::`local static guard'

  00000			 AREA	 |.bss|, NOINIT
|?object@?1??inst@?$CPVRTSingleton@VConsoleLog@pvrengine@@@@SAAAVConsoleLog@pvrengine@@XZ@4V34@A| % 0x28 ; `CPVRTSingleton<pvrengine::ConsoleLog>::inst'::`2'::object

  00000			 AREA	 |.pdata|, PDATA
|$T37209| DCD	|$LN6@inst|
	DCD	0x40001101
; Function compile flags: /Ogspy

  00000			 AREA	 |.text|, CODE, ARM

  00000		 |?inst@?$CPVRTSingleton@VConsoleLog@pvrengine@@@@SAAAVConsoleLog@pvrengine@@XZ| PROC ; CPVRTSingleton<pvrengine::ConsoleLog>::inst

; 26   : 	{

  00000		 |$LN6@inst|
  00000	e52de004	 str         lr, [sp, #-4]!
  00004		 |$M37206|

; 27   : 		static T object;

  00004	e59f2034	 ldr         r2, [pc, #0x34]
  00008	e5923000	 ldr         r3, [r2]
  0000c	e3130001	 tst         r3, #1
  00010	1a000005	 bne         |$LN1@inst|
  00014	e59f001c	 ldr         r0, [pc, #0x1C]
  00018	e3833001	 orr         r3, r3, #1
  0001c	e5823000	 str         r3, [r2]
  00020	eb000000	 bl          |??0ConsoleLog@pvrengine@@QAA@XZ|
  00024	e59f0010	 ldr         r0, [pc, #0x10]
  00028	eb000000	 bl          atexit
  0002c		 |$LN1@inst|

; 28   : 		return object;
; 29   : 	}

  0002c	e59f0004	 ldr         r0, [pc, #4]
  00030	e49de004	 ldr         lr, [sp], #4
  00034	e12fff1e	 bx          lr
  00038		 |$LN7@inst|
  00038		 |$LN8@inst|
  00038	00000000	 DCD         |?object@?1??inst@?$CPVRTSingleton@VConsoleLog@pvrengine@@@@SAAAVConsoleLog@pvrengine@@XZ@4V34@A|
  0003c		 |$LN9@inst|
  0003c	00000000	 DCD         |??__Fobject@?1??inst@?$CPVRTSingleton@VConsoleLog@pvrengine@@@@SAAAVConsoleLog@pvrengine@@XZ@YAXXZ|
  00040		 |$LN10@inst|
  00040	00000000	 DCD         |??_B?1??inst@?$CPVRTSingleton@VConsoleLog@pvrengine@@@@SAAAVConsoleLog@pvrengine@@XZ@51|
  00044		 |$M37207|

			 ENDP  ; |?inst@?$CPVRTSingleton@VConsoleLog@pvrengine@@@@SAAAVConsoleLog@pvrengine@@XZ|, CPVRTSingleton<pvrengine::ConsoleLog>::inst

	EXPORT	|??1MaterialManager@pvrengine@@UAA@XZ|	; pvrengine::MaterialManager::~MaterialManager

  00000			 AREA	 |.pdata|, PDATA
|$T37296| DCD	|$LN63@MaterialMa@3|
	DCD	0x40004e01
; Function compile flags: /Ogspy
; File c:\wince600\public\powervr-sdk\ogles2\extras\pvrengine\materialmanager.cpp

  00000			 AREA	 |.text|, CODE, ARM

  00000		 |??1MaterialManager@pvrengine@@UAA@XZ| PROC ; pvrengine::MaterialManager::~MaterialManager

; 44   : 	{

  00000		 |$LN63@MaterialMa@3|
  00000	e92d40f0	 stmdb       sp!, {r4 - r7, lr}
  00004		 |$M37293|
  00004	e1a04000	 mov         r4, r0

; 45   : 		for(unsigned int i=0;i<m_daMaterials.getSize();++i)

  00008	e5943004	 ldr         r3, [r4, #4]
  0000c	e59f2120	 ldr         r2, [pc, #0x120]
  00010	e3a01000	 mov         r1, #0
  00014	e3530000	 cmp         r3, #0
  00018	e5842000	 str         r2, [r4]
  0001c	e3a07000	 mov         r7, #0
  00020	0a000019	 beq         |$LN12@MaterialMa@3|
  00024		 |$LL14@MaterialMa@3|

; 46   : 		{	// check if material is already in manager
; 47   : 			for(unsigned int j=i+1;j<m_daMaterials.getSize();++j)

  00024	e5943004	 ldr         r3, [r4, #4]
  00028	e2812001	 add         r2, r1, #1
  0002c	e1a0e002	 mov         lr, r2
  00030	e1520003	 cmp         r2, r3
  00034	2a000010	 bcs         |$LN13@MaterialMa@3|
  00038	e594000c	 ldr         r0, [r4, #0xC]
  0003c	e0803101	 add         r3, r0, r1, lsl #2
  00040	e7b05101	 ldr         r5, [r0, +r1, lsl #2]!
  00044	e2831004	 add         r1, r3, #4
  00048		 |$LL11@MaterialMa@3|

; 48   : 			{
; 49   : 				if(m_daMaterials[i]==m_daMaterials[j]
; 50   : 				|| m_daMaterials[i]==m_pFlatMaterial)

  00048	e5913000	 ldr         r3, [r1]
  0004c	e1550003	 cmp         r5, r3
  00050	0a000008	 beq         |$LN57@MaterialMa@3|
  00054	e5943010	 ldr         r3, [r4, #0x10]
  00058	e1550003	 cmp         r5, r3
  0005c	0a000005	 beq         |$LN57@MaterialMa@3|
  00060	e5943004	 ldr         r3, [r4, #4]
  00064	e28ee001	 add         lr, lr, #1
  00068	e2811004	 add         r1, r1, #4
  0006c	e15e0003	 cmp         lr, r3
  00070	3afffff4	 bcc         |$LL11@MaterialMa@3|
  00074	ea000000	 b           |$LN13@MaterialMa@3|
  00078		 |$LN57@MaterialMa@3|

; 51   : 				{
; 52   : 					m_daMaterials[i]=NULL;

  00078	e5807000	 str         r7, [r0]
  0007c		 |$LN13@MaterialMa@3|

; 45   : 		for(unsigned int i=0;i<m_daMaterials.getSize();++i)

  0007c	e5943004	 ldr         r3, [r4, #4]
  00080	e1a01002	 mov         r1, r2
  00084	e1520003	 cmp         r2, r3
  00088	3affffe5	 bcc         |$LL14@MaterialMa@3|
  0008c		 |$LN12@MaterialMa@3|

; 53   : 					break;
; 54   : 				}
; 55   : 			}
; 56   : 		}
; 57   : 
; 58   : 		for(unsigned int i=0;i<m_daMaterials.getSize();++i)

  0008c	e5943004	 ldr         r3, [r4, #4]
  00090	e3a05000	 mov         r5, #0
  00094	e3530000	 cmp         r3, #0
  00098	0a000014	 beq         |$LN4@MaterialMa@3|
  0009c		 |$LL6@MaterialMa@3|
  0009c	e594300c	 ldr         r3, [r4, #0xC]
  000a0	e1a02105	 mov         r2, r5, lsl #2

; 59   : 		{
; 60   : 			if(m_daMaterials[i]!=m_pFlatMaterial)

  000a4	e7b21003	 ldr         r1, [r2, +r3]!
  000a8	e5943010	 ldr         r3, [r4, #0x10]
  000ac	e1510003	 cmp         r1, r3
  000b0	0a00000a	 beq         |$LN5@MaterialMa@3|

; 61   : 				PVRDELETE(m_daMaterials[i]);

  000b4	e3510000	 cmp         r1, #0
  000b8	0a000006	 beq         |$LN17@MaterialMa@3|
  000bc	e5923000	 ldr         r3, [r2]
  000c0	e1b06003	 movs        r6, r3
  000c4	0a000003	 beq         |$LN17@MaterialMa@3|
  000c8	e1a00006	 mov         r0, r6
  000cc	eb000000	 bl          |??1Material@pvrengine@@QAA@XZ|
  000d0	e1a00006	 mov         r0, r6
  000d4	eb000000	 bl          |??3@YAXPAX@Z|
  000d8		 |$LN17@MaterialMa@3|
  000d8	e594300c	 ldr         r3, [r4, #0xC]
  000dc	e7837105	 str         r7, [r3, +r5, lsl #2]
  000e0		 |$LN5@MaterialMa@3|
  000e0	e5943004	 ldr         r3, [r4, #4]
  000e4	e2855001	 add         r5, r5, #1
  000e8	e1550003	 cmp         r5, r3
  000ec	3affffea	 bcc         |$LL6@MaterialMa@3|
  000f0		 |$LN4@MaterialMa@3|

; 62   : 		}
; 63   : 
; 64   : 		PVRDELETE(m_pFlatMaterial);

  000f0	e5943010	 ldr         r3, [r4, #0x10]
  000f4	e1b05003	 movs        r5, r3
  000f8	0a000003	 beq         |$LN19@MaterialMa@3|
  000fc	e1a00005	 mov         r0, r5
  00100	eb000000	 bl          |??1Material@pvrengine@@QAA@XZ|
  00104	e1a00005	 mov         r0, r5
  00108	eb000000	 bl          |??3@YAXPAX@Z|
  0010c		 |$LN19@MaterialMa@3|

; 65   : 	}

  0010c	e5847010	 str         r7, [r4, #0x10]
  00110	e594300c	 ldr         r3, [r4, #0xC]
  00114	e3530000	 cmp         r3, #0
  00118	11a00003	 movne       r0, r3
  0011c	1b000000	 blne        |??3@YAXPAX@Z|
  00120	e59f3008	 ldr         r3, [pc, #8]
  00124	e5843000	 str         r3, [r4]
  00128	e8bd40f0	 ldmia       sp!, {r4 - r7, lr}
  0012c	e12fff1e	 bx          lr
  00130		 |$LN64@MaterialMa@3|
  00130		 |$LN65@MaterialMa@3|
  00130	00000000	 DCD         |??_7?$CPVRTSingleton@VMaterialManager@pvrengine@@@@6B@|
  00134		 |$LN66@MaterialMa@3|
  00134	00000000	 DCD         |??_7MaterialManager@pvrengine@@6B@|
  00138		 |$M37294|

			 ENDP  ; |??1MaterialManager@pvrengine@@UAA@XZ|, pvrengine::MaterialManager::~MaterialManager

	EXPORT	|?LoadMaterial@MaterialManager@pvrengine@@QAAPAVMaterial@2@ABVCPVRTString@@0ABUSPODMaterial@@ABUSPODTexture@@@Z| ; pvrengine::MaterialManager::LoadMaterial
	EXPORT	|??_C@_0DB@IBKHKOFE@Loading?5material?5failed?4?5Replaci@| [ DATA ] ; `string'
	EXPORT	|??_C@_0CB@NDCPDEJE@?6Material?5?$CFs?5already?5in?5manager?4@| [ DATA ] ; `string'
	EXPORT	|??_C@_01KMDKNFGN@?1?$AA@| [ DATA ]	; `string'
	EXPORT	|??_C@_0N@GIBGNPCH@?$CK?$CK?$CK?5None?5?$CK?$CK?$CK?$AA@| [ DATA ] ; `string'
	IMPORT	|??0Material@pvrengine@@QAA@IABVCPVRTString@@ABUSPODMaterial@@@Z| ; pvrengine::Material::Material
	IMPORT	|?log@ConsoleLog@pvrengine@@QAAXPBDZZ|	; pvrengine::ConsoleLog::log
	IMPORT	|??0Material@pvrengine@@QAA@IABVCPVRTString@@0ABUSPODMaterial@@@Z| ; pvrengine::Material::Material
	IMPORT	|?getTextureFileName@Material@pvrengine@@QBA?AVCPVRTString@@XZ| ; pvrengine::Material::getTextureFileName
	IMPORT	|?getName@Material@pvrengine@@QBA?AVCPVRTString@@XZ| ; pvrengine::Material::getName
	IMPORT	|?compare@CPVRTString@@QBAHPBD@Z|	; CPVRTString::compare
	IMPORT	|?getEffectName@Material@pvrengine@@QBA?AVCPVRTString@@XZ| ; pvrengine::Material::getEffectName
	IMPORT	|?compare@CPVRTString@@QBAHABV1@@Z|	; CPVRTString::compare
	IMPORT	|?getEffectFileName@Material@pvrengine@@QBA?AVCPVRTString@@XZ| ; pvrengine::Material::getEffectFileName
	IMPORT	|??0CPVRTString@@QAA@ABV0@II@Z|		; CPVRTString::CPVRTString
	IMPORT	|??4CPVRTString@@QAAAAV0@PBD@Z|		; CPVRTString::operator=
	IMPORT	|??YCPVRTString@@QAAAAV0@PBD@Z|		; CPVRTString::operator+=
	IMPORT	|??4CPVRTString@@QAAAAV0@ABV0@@Z|	; CPVRTString::operator=
	IMPORT	|??0CPVRTString@@QAA@PBDI@Z|		; CPVRTString::CPVRTString
	IMPORT	|?npos@CPVRTString@@2IB|		; CPVRTString::npos

  00000			 AREA	 |.pdata|, PDATA
|$T37385| DCD	|$LN58@LoadMateri|
	DCD	0x4000b502

  00000			 AREA	 |.rdata|, DATA, READONLY
|??_C@_0DB@IBKHKOFE@Loading?5material?5failed?4?5Replaci@| DCB "Loading m"
	DCB	"aterial failed. Replacing with default", 0xa, 0x0 ; `string'

  00000			 AREA	 |.rdata|, DATA, READONLY
|??_C@_0CB@NDCPDEJE@?6Material?5?$CFs?5already?5in?5manager?4@| DCB 0xa, "M"
	DCB	"aterial %s already in manager.", 0x0	; `string'

  00000			 AREA	 |.rdata|, DATA, READONLY
|??_C@_01KMDKNFGN@?1?$AA@| DCB "/", 0x0			; `string'

  00000			 AREA	 |.rdata|, DATA, READONLY
|??_C@_0N@GIBGNPCH@?$CK?$CK?$CK?5None?5?$CK?$CK?$CK?$AA@| DCB "*** None *"
	DCB	"**", 0x0				; `string'
; Function compile flags: /Ogspy

  00000			 AREA	 |.text|, CODE, ARM

  00000		 |?LoadMaterial@MaterialManager@pvrengine@@QAAPAVMaterial@2@ABVCPVRTString@@0ABUSPODMaterial@@ABUSPODTexture@@@Z| PROC ; pvrengine::MaterialManager::LoadMaterial

; 80   : 	{

  00000		 |$LN58@LoadMateri|
  00000	e92d43f0	 stmdb       sp!, {r4 - r9, lr}
  00004	e24dd064	 sub         sp, sp, #0x64
  00008		 |$M37382|
  00008	e1a04003	 mov         r4, r3
  0000c	e1a09002	 mov         r9, r2
  00010	e1a08001	 mov         r8, r1
  00014	e1a05000	 mov         r5, r0

; 81   : 		CPVRTString strPFXFilename = NONE_STRING;

  00018	e59f72b0	 ldr         r7, [pc, #0x2B0]
  0001c	e59f12a8	 ldr         r1, [pc, #0x2A8]
  00020	e28d0004	 add         r0, sp, #4
  00024	e5972000	 ldr         r2, [r7]
  00028	e3a06000	 mov         r6, #0
  0002c	eb000000	 bl          |??0CPVRTString@@QAA@PBDI@Z|

; 82   : 		if(sPODMaterial.pszEffectFile)

  00030	e594e034	 ldr         lr, [r4, #0x34]

; 83   : 		{
; 84   : 			strPFXFilename = strEffectPath;

  00034	e28d0004	 add         r0, sp, #4
  00038	e35e0000	 cmp         lr, #0
  0003c	0a000007	 beq         |$LN13@LoadMateri|
  00040	e1a01008	 mov         r1, r8
  00044	eb000000	 bl          |??4CPVRTString@@QAAAAV0@ABV0@@Z|

; 85   : 			((strPFXFilename+="/")+=sPODMaterial.pszEffectFile);

  00048	e59f1278	 ldr         r1, [pc, #0x278]
  0004c	e28d0004	 add         r0, sp, #4
  00050	eb000000	 bl          |??YCPVRTString@@QAAAAV0@PBD@Z|
  00054	e5941034	 ldr         r1, [r4, #0x34]
  00058	eb000000	 bl          |??YCPVRTString@@QAAAAV0@PBD@Z|

; 86   : 		}
; 87   : 		else

  0005c	ea000001	 b           |$LN12@LoadMateri|
  00060		 |$LN13@LoadMateri|

; 88   : 		{
; 89   : 			strPFXFilename = NONE_STRING;

  00060	e59f1264	 ldr         r1, [pc, #0x264]
  00064	eb000000	 bl          |??4CPVRTString@@QAAAAV0@PBD@Z|
  00068		 |$LN12@LoadMateri|

; 90   : 		}
; 91   : 
; 92   : 		// resolve texture file name/path
; 93   : 		CPVRTString strTextureFile = strTexturePath;

  00068	e5973000	 ldr         r3, [r7]
  0006c	e3a02000	 mov         r2, #0
  00070	e1a01009	 mov         r1, r9
  00074	e28d0014	 add         r0, sp, #0x14
  00078	eb000000	 bl          |??0CPVRTString@@QAA@ABV0@II@Z|

; 94   : 		if(!sPODMaterial.pszEffectFile)

  0007c	e5943034	 ldr         r3, [r4, #0x34]
  00080	e3530000	 cmp         r3, #0
  00084	1a00000b	 bne         |$LN10@LoadMateri|

; 95   : 		{
; 96   : 			if(sPODMaterial.nIdxTexDiffuse!=-1 && sPODTexture.pszName)

  00088	e5943004	 ldr         r3, [r4, #4]
  0008c	e3730001	 cmn         r3, #1
  00090	0a000008	 beq         |$LN10@LoadMateri|
  00094	e59d7080	 ldr         r7, [sp, #0x80]
  00098	e5973000	 ldr         r3, [r7]
  0009c	e3530000	 cmp         r3, #0
  000a0	0a000004	 beq         |$LN10@LoadMateri|

; 97   : 			{
; 98   : 				(strTextureFile+="/") += sPODTexture.pszName;

  000a4	e59f121c	 ldr         r1, [pc, #0x21C]
  000a8	e28d0014	 add         r0, sp, #0x14
  000ac	eb000000	 bl          |??YCPVRTString@@QAAAAV0@PBD@Z|
  000b0	e5971000	 ldr         r1, [r7]
  000b4	eb000000	 bl          |??YCPVRTString@@QAAAAV0@PBD@Z|
  000b8		 |$LN10@LoadMateri|

; 99   : 			}
; 100  : 		}
; 101  : 
; 102  : 		for(unsigned int i=0;i<m_daMaterials.getSize();++i)

  000b8	e5953004	 ldr         r3, [r5, #4]
  000bc	e3a07000	 mov         r7, #0
  000c0	e3530000	 cmp         r3, #0
  000c4	0a00003c	 beq         |$LN7@LoadMateri|
  000c8		 |$LL9@LoadMateri|

; 103  : 		{	// check if material is already in manager
; 104  : 			// check
; 105  : 			if(m_daMaterials[i]->getEffectFileName().compare(strPFXFilename)==0
; 106  : 				&&m_daMaterials[i]->getEffectName().compare(sPODMaterial.pszEffectName)==0
; 107  : 				&&m_daMaterials[i]->getName().compare(sPODMaterial.pszName)==0
; 108  : 				&&m_daMaterials[i]->getTextureFileName().compare(strTextureFile)==0)

  000c8	e595300c	 ldr         r3, [r5, #0xC]
  000cc	e28d1054	 add         r1, sp, #0x54
  000d0	e7930107	 ldr         r0, [r3, +r7, lsl #2]
  000d4	eb000000	 bl          |?getEffectFileName@Material@pvrengine@@QBA?AVCPVRTString@@XZ|
  000d8	e28d1004	 add         r1, sp, #4
  000dc	e3866001	 orr         r6, r6, #1
  000e0	eb000000	 bl          |?compare@CPVRTString@@QBAHABV1@@Z|
  000e4	e3500000	 cmp         r0, #0
  000e8	1a00001b	 bne         |$LN16@LoadMateri|
  000ec	e595300c	 ldr         r3, [r5, #0xC]
  000f0	e28d1044	 add         r1, sp, #0x44
  000f4	e7930107	 ldr         r0, [r3, +r7, lsl #2]
  000f8	eb000000	 bl          |?getEffectName@Material@pvrengine@@QBA?AVCPVRTString@@XZ|
  000fc	e5941038	 ldr         r1, [r4, #0x38]
  00100	e3866002	 orr         r6, r6, #2
  00104	eb000000	 bl          |?compare@CPVRTString@@QBAHPBD@Z|
  00108	e3500000	 cmp         r0, #0
  0010c	1a000012	 bne         |$LN16@LoadMateri|
  00110	e595300c	 ldr         r3, [r5, #0xC]
  00114	e28d1034	 add         r1, sp, #0x34
  00118	e7930107	 ldr         r0, [r3, +r7, lsl #2]
  0011c	eb000000	 bl          |?getName@Material@pvrengine@@QBA?AVCPVRTString@@XZ|
  00120	e5941000	 ldr         r1, [r4]
  00124	e3866004	 orr         r6, r6, #4
  00128	eb000000	 bl          |?compare@CPVRTString@@QBAHPBD@Z|
  0012c	e3500000	 cmp         r0, #0
  00130	1a000009	 bne         |$LN16@LoadMateri|
  00134	e595300c	 ldr         r3, [r5, #0xC]
  00138	e28d1024	 add         r1, sp, #0x24
  0013c	e7930107	 ldr         r0, [r3, +r7, lsl #2]
  00140	eb000000	 bl          |?getTextureFileName@Material@pvrengine@@QBA?AVCPVRTString@@XZ|
  00144	e28d1014	 add         r1, sp, #0x14
  00148	e3866008	 orr         r6, r6, #8
  0014c	eb000000	 bl          |?compare@CPVRTString@@QBAHABV1@@Z|
  00150	e3500000	 cmp         r0, #0
  00154	03a03001	 moveq       r3, #1
  00158	0a000000	 beq         |$LN17@LoadMateri|
  0015c		 |$LN16@LoadMateri|
  0015c	e3a03000	 mov         r3, #0
  00160		 |$LN17@LoadMateri|
  00160	e3160008	 tst         r6, #8
  00164	128d0024	 addne       r0, sp, #0x24
  00168	e20380ff	 and         r8, r3, #0xFF
  0016c	13c66008	 bicne       r6, r6, #8
  00170	1b000000	 blne        |??1CPVRTString@@UAA@XZ|
  00174	e3160004	 tst         r6, #4
  00178	128d0034	 addne       r0, sp, #0x34
  0017c	13c66004	 bicne       r6, r6, #4
  00180	1b000000	 blne        |??1CPVRTString@@UAA@XZ|
  00184	e3160002	 tst         r6, #2
  00188	128d0044	 addne       r0, sp, #0x44
  0018c	13c66002	 bicne       r6, r6, #2
  00190	1b000000	 blne        |??1CPVRTString@@UAA@XZ|
  00194	e3160001	 tst         r6, #1
  00198	128d0054	 addne       r0, sp, #0x54
  0019c	13c66001	 bicne       r6, r6, #1
  001a0	1b000000	 blne        |??1CPVRTString@@UAA@XZ|
  001a4	e3580000	 cmp         r8, #0
  001a8	1a000011	 bne         |$LN52@LoadMateri|
  001ac	e5953004	 ldr         r3, [r5, #4]
  001b0	e2877001	 add         r7, r7, #1
  001b4	e1570003	 cmp         r7, r3
  001b8	3affffc2	 bcc         |$LL9@LoadMateri|
  001bc		 |$LN7@LoadMateri|

; 114  : 			}
; 115  : 		}
; 116  : 
; 117  : 		// actually make/load material - and attempt error handle
; 118  : 		Material* pNewMaterial;
; 119  : 		if(sPODMaterial.pszEffectFile)

  001bc	e5943034	 ldr         r3, [r4, #0x34]

; 120  : 		{	// with effect -> m_daMaterials.getSize() gives unique id to a material
; 121  : 			pNewMaterial = new Material(m_daMaterials.getSize(),strPFXFilename,strTexturePath,sPODMaterial);

  001c0	e3a00f42	 mov         r0, #0x42, 30
  001c4	e3530000	 cmp         r3, #0
  001c8	0a000014	 beq         |$LN5@LoadMateri|
  001cc	eb000000	 bl          |??2@YAPAXI@Z|
  001d0	e3500000	 cmp         r0, #0
  001d4	0a00001a	 beq         |$LN20@LoadMateri|
  001d8	e5951004	 ldr         r1, [r5, #4]
  001dc	e1a03009	 mov         r3, r9
  001e0	e28d2004	 add         r2, sp, #4
  001e4	e58d4000	 str         r4, [sp]
  001e8	eb000000	 bl          |??0Material@pvrengine@@QAA@IABVCPVRTString@@0ABUSPODMaterial@@@Z|

; 122  : 		}
; 123  : 		else
; 124  : 		{	// no effect
; 125  : 			pNewMaterial = new Material(m_daMaterials.getSize(),strTextureFile,sPODMaterial);

  001ec	e1a04000	 mov         r4, r0
  001f0	ea000014	 b           |$LN21@LoadMateri|
  001f4		 |$LN52@LoadMateri|

; 109  : 			{
; 110  : 				ConsoleLog::inst().log("\nMaterial %s already in manager.",sPODMaterial.pszName);

  001f4	eb000000	 bl          |?inst@?$CPVRTSingleton@VConsoleLog@pvrengine@@@@SAAAVConsoleLog@pvrengine@@XZ|
  001f8	e5942000	 ldr         r2, [r4]
  001fc	e59f10c0	 ldr         r1, [pc, #0xC0]
  00200	eb000000	 bl          |?log@ConsoleLog@pvrengine@@QAAXPBDZZ|

; 111  : 				m_daMaterials.append(m_daMaterials[i]);

  00204	e595300c	 ldr         r3, [r5, #0xC]
  00208	e2850004	 add         r0, r5, #4
  0020c	e7931107	 ldr         r1, [r3, +r7, lsl #2]
  00210	eb000000	 bl          |?append@?$dynamicArray@PAVMaterial@pvrengine@@@@QAAXPAVMaterial@pvrengine@@@Z|

; 112  : 
; 113  : 				return m_daMaterials[i];

  00214	e595300c	 ldr         r3, [r5, #0xC]
  00218	e7934107	 ldr         r4, [r3, +r7, lsl #2]
  0021c	ea00001f	 b           |$LN54@LoadMateri|
  00220		 |$LN5@LoadMateri|

; 122  : 		}
; 123  : 		else
; 124  : 		{	// no effect
; 125  : 			pNewMaterial = new Material(m_daMaterials.getSize(),strTextureFile,sPODMaterial);

  00220	eb000000	 bl          |??2@YAPAXI@Z|
  00224	e3500000	 cmp         r0, #0
  00228	0a000005	 beq         |$LN20@LoadMateri|
  0022c	e5951004	 ldr         r1, [r5, #4]
  00230	e1a03004	 mov         r3, r4
  00234	e28d2014	 add         r2, sp, #0x14
  00238	eb000000	 bl          |??0Material@pvrengine@@QAA@IABVCPVRTString@@ABUSPODMaterial@@@Z|
  0023c	e1a04000	 mov         r4, r0
  00240	ea000000	 b           |$LN21@LoadMateri|
  00244		 |$LN20@LoadMateri|
  00244	e3a04000	 mov         r4, #0
  00248		 |$LN21@LoadMateri|

; 126  : 		}
; 127  : 
; 128  : 		if((!pNewMaterial) || !pNewMaterial->getValid())

  00248	e3540000	 cmp         r4, #0
  0024c	0a000006	 beq         |$LN2@LoadMateri|
  00250	e5d43004	 ldrb        r3, [r4, #4]
  00254	e3530000	 cmp         r3, #0
  00258	0a000003	 beq         |$LN2@LoadMateri|

; 134  : 		}
; 135  : 
; 136  : 		m_daMaterials.append(pNewMaterial);

  0025c	e1a01004	 mov         r1, r4
  00260	e2850004	 add         r0, r5, #4
  00264	eb000000	 bl          |?append@?$dynamicArray@PAVMaterial@pvrengine@@@@QAAXPAVMaterial@pvrengine@@@Z|

; 137  : 
; 138  : 		return pNewMaterial;

  00268	ea00000c	 b           |$LN54@LoadMateri|
  0026c		 |$LN2@LoadMateri|

; 129  : 		{
; 130  : 			ConsoleLog::inst().log("Loading material failed. Replacing with default\n");

  0026c	eb000000	 bl          |?inst@?$CPVRTSingleton@VConsoleLog@pvrengine@@@@SAAAVConsoleLog@pvrengine@@XZ|
  00270	e59f1048	 ldr         r1, [pc, #0x48]
  00274	eb000000	 bl          |?log@ConsoleLog@pvrengine@@QAAXPBDZZ|

; 131  : 			PVRDELETE(pNewMaterial);

  00278	e3540000	 cmp         r4, #0
  0027c	0a000003	 beq         |$LN22@LoadMateri|
  00280	e1a00004	 mov         r0, r4
  00284	eb000000	 bl          |??1Material@pvrengine@@QAA@XZ|
  00288	e1a00004	 mov         r0, r4
  0028c	eb000000	 bl          |??3@YAXPAX@Z|
  00290		 |$LN22@LoadMateri|

; 132  : 			m_daMaterials.append(m_pFlatMaterial);

  00290	e5951010	 ldr         r1, [r5, #0x10]
  00294	e2850004	 add         r0, r5, #4
  00298	eb000000	 bl          |?append@?$dynamicArray@PAVMaterial@pvrengine@@@@QAAXPAVMaterial@pvrengine@@@Z|

; 133  : 			return(m_pFlatMaterial);

  0029c	e5954010	 ldr         r4, [r5, #0x10]
  002a0		 |$LN54@LoadMateri|
  002a0	e28d0014	 add         r0, sp, #0x14
  002a4	eb000000	 bl          |??1CPVRTString@@UAA@XZ|
  002a8	e28d0004	 add         r0, sp, #4
  002ac	eb000000	 bl          |??1CPVRTString@@UAA@XZ|

; 139  : 	}

  002b0	e1a00004	 mov         r0, r4
  002b4	e28dd064	 add         sp, sp, #0x64
  002b8	e8bd43f0	 ldmia       sp!, {r4 - r9, lr}
  002bc	e12fff1e	 bx          lr
  002c0		 |$LN59@LoadMateri|
  002c0		 |$LN60@LoadMateri|
  002c0	00000000	 DCD         |??_C@_0DB@IBKHKOFE@Loading?5material?5failed?4?5Replaci@|
  002c4		 |$LN61@LoadMateri|
  002c4	00000000	 DCD         |??_C@_0CB@NDCPDEJE@?6Material?5?$CFs?5already?5in?5manager?4@|
  002c8		 |$LN62@LoadMateri|
  002c8	00000000	 DCD         |??_C@_01KMDKNFGN@?1?$AA@|
  002cc		 |$LN63@LoadMateri|
  002cc	00000000	 DCD         |??_C@_0N@GIBGNPCH@?$CK?$CK?$CK?5None?5?$CK?$CK?$CK?$AA@|
  002d0		 |$LN64@LoadMateri|
  002d0	00000000	 DCD         |?npos@CPVRTString@@2IB|
  002d4		 |$M37383|

			 ENDP  ; |?LoadMaterial@MaterialManager@pvrengine@@QAAPAVMaterial@2@ABVCPVRTString@@0ABUSPODMaterial@@ABUSPODTexture@@@Z|, pvrengine::MaterialManager::LoadMaterial


  00000			 AREA	 |.pdata|, PDATA
|$T37402| DCD	|$LN6@scalar@3|
	DCD	0x40000a01
; Function compile flags: /Ogspy

  00000			 AREA	 |.text|, CODE, ARM

  00000		 |??_GMaterialManager@pvrengine@@UAAPAXI@Z| PROC ; pvrengine::MaterialManager::`scalar deleting destructor'
  00000		 |$LN6@scalar@3|
  00000	e92d4030	 stmdb       sp!, {r4, r5, lr}
  00004		 |$M37399|
  00004	e1a04001	 mov         r4, r1
  00008	e1a05000	 mov         r5, r0
  0000c	eb000000	 bl          |??1MaterialManager@pvrengine@@UAA@XZ|
  00010	e3140001	 tst         r4, #1
  00014	11a00005	 movne       r0, r5
  00018	1b000000	 blne        |??3@YAXPAX@Z|
  0001c	e1a00005	 mov         r0, r5
  00020	e8bd4030	 ldmia       sp!, {r4, r5, lr}
  00024	e12fff1e	 bx          lr
  00028		 |$M37400|

			 ENDP  ; |??_GMaterialManager@pvrengine@@UAAPAXI@Z|, pvrengine::MaterialManager::`scalar deleting destructor'

	IMPORT	|??1ConsoleLog@pvrengine@@UAA@XZ|	; pvrengine::ConsoleLog::~ConsoleLog

  00000			 AREA	 |.pdata|, PDATA
|$T37409| DCD	|$LN5@dynamic|
	DCD	0x40000601
; Function compile flags: /Ogspy

  00000			 AREA	 |.text$yd|, CODE, ARM

  00000		 |??__Fobject@?1??inst@?$CPVRTSingleton@VConsoleLog@pvrengine@@@@SAAAVConsoleLog@pvrengine@@XZ@YAXXZ| PROC ; `CPVRTSingleton<pvrengine::ConsoleLog>::inst'::`2'::`dynamic atexit destructor for 'object''
  00000		 |$LN5@dynamic|
  00000	e52de004	 str         lr, [sp, #-4]!
  00004		 |$M37406|
  00004	e59f0008	 ldr         r0, [pc, #8]
  00008	eb000000	 bl          |??1ConsoleLog@pvrengine@@UAA@XZ|
  0000c	e49de004	 ldr         lr, [sp], #4
  00010	e12fff1e	 bx          lr
  00014		 |$LN6@dynamic|
  00014		 |$LN7@dynamic|
  00014	00000000	 DCD         |?object@?1??inst@?$CPVRTSingleton@VConsoleLog@pvrengine@@@@SAAAVConsoleLog@pvrengine@@XZ@4V34@A|
  00018		 |$M37407|

			 ENDP  ; |??__Fobject@?1??inst@?$CPVRTSingleton@VConsoleLog@pvrengine@@@@SAAAVConsoleLog@pvrengine@@XZ@YAXXZ|, `CPVRTSingleton<pvrengine::ConsoleLog>::inst'::`2'::`dynamic atexit destructor for 'object''

	END
