; Listing generated by Microsoft (R) Optimizing Compiler Version 14.01.60511.01 

	TTL	C:\WINCE600\PUBLIC\PowerVR-SDK\OGLES2\Extras\PVREngine\MaterialBase.cpp
	CODE32

  00000			 AREA	 |.drectve|, DRECTVE
	DCB	"-defaultlib:LIBCMT "
	DCB	"-defaultlib:OLDNAMES "

	EXPORT	|?c_i32DefaultSize@?$dynamicArray@VUniform@pvrengine@@@@2HB| [ DATA ] ; dynamicArray<pvrengine::Uniform>::c_i32DefaultSize

  00000			 AREA	 |.rdata|, DATA, READONLY
|?c_i32DefaultSize@?$dynamicArray@VUniform@pvrengine@@@@2HB| DCD 0x8 ; dynamicArray<pvrengine::Uniform>::c_i32DefaultSize
	EXPORT	|??0PVRTVec3@@QAA@XZ|			; PVRTVec3::PVRTVec3
; File c:\wince600\public\powervr-sdk\ogles2\tools\pvrtvector.h

  00000			 AREA	 |.pdata|, PDATA
|$T36555| DCD	|$LN5@PVRTVec3|
	DCD	0x40000100
; Function compile flags: /Ogspy

  00000			 AREA	 |.text|, CODE, ARM

  00000		 |??0PVRTVec3@@QAA@XZ| PROC		; PVRTVec3::PVRTVec3

; 330  : 	PVRTVec3(){}

  00000		 |$LN5@PVRTVec3|
  00000		 |$M36552|
  00000	e12fff1e	 bx          lr
  00004		 |$M36553|

			 ENDP  ; |??0PVRTVec3@@QAA@XZ|, PVRTVec3::PVRTVec3

	EXPORT	|??0PVRTVec3@@QAA@PBM@Z|		; PVRTVec3::PVRTVec3

  00000			 AREA	 |.pdata|, PDATA
|$T36566| DCD	|$LN5@PVRTVec3@2|
	DCD	0x40000800
; Function compile flags: /Ogspy

  00000			 AREA	 |.text|, CODE, ARM

  00000		 |??0PVRTVec3@@QAA@PBM@Z| PROC		; PVRTVec3::PVRTVec3

; 356  : 	PVRTVec3(const VERTTYPE* pVec)

  00000		 |$LN5@PVRTVec3@2|
  00000		 |$M36563|
  00000	e1a02000	 mov         r2, r0

; 357  : 	{
; 358  : 		x = (*pVec++); y = (*pVec++); z = *pVec;

  00004	e4913004	 ldr         r3, [r1], #4

; 359  : 	}

  00008	e5823000	 str         r3, [r2]
  0000c	e5913000	 ldr         r3, [r1]
  00010	e5823004	 str         r3, [r2, #4]
  00014	e5913004	 ldr         r3, [r1, #4]
  00018	e5823008	 str         r3, [r2, #8]
  0001c	e12fff1e	 bx          lr
  00020		 |$M36564|

			 ENDP  ; |??0PVRTVec3@@QAA@PBM@Z|, PVRTVec3::PVRTVec3

	EXPORT	|??0Uniform@pvrengine@@QAA@XZ|		; pvrengine::Uniform::Uniform
; File c:\wince600\public\powervr-sdk\ogles2\extras\pvrengine\include\ogles2\uniform.h

  00000			 AREA	 |.pdata|, PDATA
|$T36576| DCD	|$LN5@Uniform|
	DCD	0x40000100
; Function compile flags: /Ogspy

  00000			 AREA	 |.text|, CODE, ARM

  00000		 |??0Uniform@pvrengine@@QAA@XZ| PROC	; pvrengine::Uniform::Uniform

; 35   : 		Uniform(){}

  00000		 |$LN5@Uniform|
  00000		 |$M36573|
  00000	e12fff1e	 bx          lr
  00004		 |$M36574|

			 ENDP  ; |??0Uniform@pvrengine@@QAA@XZ|, pvrengine::Uniform::Uniform

	EXPORT	|?Init@Material@pvrengine@@AAAXI@Z|	; pvrengine::Material::Init
; File c:\wince600\public\powervr-sdk\ogles2\extras\pvrengine\materialbase.cpp

  00000			 AREA	 |.pdata|, PDATA
|$T36585| DCD	|$LN5@Init|
	DCD	0x40000600
; Function compile flags: /Ogspy

  00000			 AREA	 |.text|, CODE, ARM

  00000		 |?Init@Material@pvrengine@@AAAXI@Z| PROC ; pvrengine::Material::Init

; 28   : 	{

  00000		 |$LN5@Init|
  00000		 |$M36582|

; 29   : 		m_bValid=false;

  00000	e3a03000	 mov         r3, #0
  00004	e5c03004	 strb        r3, [r0, #4]

; 30   : 		m_bActive = false;

  00008	e5c03005	 strb        r3, [r0, #5]

; 31   : 		m_bSkinned = false;

  0000c	e5c03006	 strb        r3, [r0, #6]

; 32   : 		m_u32Id = u32Id;

  00010	e5801000	 str         r1, [r0]

; 33   : 	}

  00014	e12fff1e	 bx          lr
  00018		 |$M36583|

			 ENDP  ; |?Init@Material@pvrengine@@AAAXI@Z|, pvrengine::Material::Init

	EXPORT	|?loadPODMaterialValues@Material@pvrengine@@AAAXABUSPODMaterial@@@Z| ; pvrengine::Material::loadPODMaterialValues
; File c:\wince600\public\powervr-sdk\ogles2\tools\pvrtvector.h

  00000			 AREA	 |.pdata|, PDATA
|$T36621| DCD	|$LN11@loadPODMat|
	DCD	0x40001c01
; Function compile flags: /Ogspy
; File c:\wince600\public\powervr-sdk\ogles2\extras\pvrengine\materialbase.cpp

  00000			 AREA	 |.text|, CODE, ARM

  00000		 |?loadPODMaterialValues@Material@pvrengine@@AAAXABUSPODMaterial@@@Z| PROC ; pvrengine::Material::loadPODMaterialValues

; 38   : 	{

  00000		 |$LN11@loadPODMat|
  00000	e92d4030	 stmdb       sp!, {r4, r5, lr}
  00004		 |$M36618|

; 39   : 		// set material values
; 40   : 		m_fOpacity = sPODMaterial.fMatOpacity;		/*! Material opacity (used with vertex alpha ?) */

  00004	e5913008	 ldr         r3, [r1, #8]

; 41   : 		m_vAmbient = PVRTVec3(sPODMaterial.pfMatAmbient);	/*! Ambient RGB value */

  00008	e1a02001	 mov         r2, r1

; 42   : 		m_vDiffuse = PVRTVec3(sPODMaterial.pfMatDiffuse);	/*! Diffuse RGB value */

  0000c	e1a04001	 mov         r4, r1
  00010	e58030dc	 str         r3, [r0, #0xDC]
  00014	e5b2e00c	 ldr         lr, [r2, #0xC]!

; 43   : 		m_vSpecular = PVRTVec3(sPODMaterial.pfMatSpecular);	/*! Specular RGB value */

  00018	e1a05001	 mov         r5, r1
  0001c	e5b23004	 ldr         r3, [r2, #4]!
  00020	e5922004	 ldr         r2, [r2, #4]
  00024	e580e0e0	 str         lr, [r0, #0xE0]
  00028	e58030e4	 str         r3, [r0, #0xE4]
  0002c	e58020e8	 str         r2, [r0, #0xE8]
  00030	e5b43018	 ldr         r3, [r4, #0x18]!
  00034	e5b42004	 ldr         r2, [r4, #4]!
  00038	e594e004	 ldr         lr, [r4, #4]
  0003c	e58030ec	 str         r3, [r0, #0xEC]
  00040	e58020f0	 str         r2, [r0, #0xF0]
  00044	e580e0f4	 str         lr, [r0, #0xF4]
  00048	e5b53024	 ldr         r3, [r5, #0x24]!
  0004c	e5b52004	 ldr         r2, [r5, #4]!
  00050	e595e004	 ldr         lr, [r5, #4]
  00054	e58030f8	 str         r3, [r0, #0xF8]
  00058	e58020fc	 str         r2, [r0, #0xFC]
  0005c	e580e100	 str         lr, [r0, #0x100]

; 44   : 		m_fShininess = sPODMaterial.fMatShininess;		/*! Material shininess */

  00060	e5913030	 ldr         r3, [r1, #0x30]
  00064	e5803104	 str         r3, [r0, #0x104]

; 45   : 	}

  00068	e8bd4030	 ldmia       sp!, {r4, r5, lr}
  0006c	e12fff1e	 bx          lr
  00070		 |$M36619|

			 ENDP  ; |?loadPODMaterialValues@Material@pvrengine@@AAAXABUSPODMaterial@@@Z|, pvrengine::Material::loadPODMaterialValues

	EXPORT	|?getEffectFileName@Material@pvrengine@@QBA?AVCPVRTString@@XZ| ; pvrengine::Material::getEffectFileName
	IMPORT	|??0CPVRTString@@QAA@ABV0@II@Z|		; CPVRTString::CPVRTString
	IMPORT	|?npos@CPVRTString@@2IB|		; CPVRTString::npos

  00000			 AREA	 |.pdata|, PDATA
|$T36632| DCD	|$LN5@getEffectF|
	DCD	0x40000c01
; Function compile flags: /Ogspy

  00000			 AREA	 |.text|, CODE, ARM

  00000		 |?getEffectFileName@Material@pvrengine@@QBA?AVCPVRTString@@XZ| PROC ; pvrengine::Material::getEffectFileName

; 51   : 	{

  00000		 |$LN5@getEffectF|
  00000	e92d4010	 stmdb       sp!, {r4, lr}
  00004		 |$M36629|
  00004	e1a04001	 mov         r4, r1

; 52   : 		return m_strEffectFileName;

  00008	e59f301c	 ldr         r3, [pc, #0x1C]
  0000c	e2801008	 add         r1, r0, #8
  00010	e3a02000	 mov         r2, #0
  00014	e5933000	 ldr         r3, [r3]
  00018	e1a00004	 mov         r0, r4
  0001c	eb000000	 bl          |??0CPVRTString@@QAA@ABV0@II@Z|

; 53   : 	}

  00020	e1a00004	 mov         r0, r4
  00024	e8bd4010	 ldmia       sp!, {r4, lr}
  00028	e12fff1e	 bx          lr
  0002c		 |$LN6@getEffectF|
  0002c		 |$LN7@getEffectF|
  0002c	00000000	 DCD         |?npos@CPVRTString@@2IB|
  00030		 |$M36630|

			 ENDP  ; |?getEffectFileName@Material@pvrengine@@QBA?AVCPVRTString@@XZ|, pvrengine::Material::getEffectFileName

	EXPORT	|?getTextureFileName@Material@pvrengine@@QBA?AVCPVRTString@@XZ| ; pvrengine::Material::getTextureFileName

  00000			 AREA	 |.pdata|, PDATA
|$T36645| DCD	|$LN5@getTexture|
	DCD	0x40000c01
; Function compile flags: /Ogspy

  00000			 AREA	 |.text|, CODE, ARM

  00000		 |?getTextureFileName@Material@pvrengine@@QBA?AVCPVRTString@@XZ| PROC ; pvrengine::Material::getTextureFileName

; 58   : 	{

  00000		 |$LN5@getTexture|
  00000	e92d4010	 stmdb       sp!, {r4, lr}
  00004		 |$M36642|
  00004	e1a04001	 mov         r4, r1

; 59   : 		return m_strTextureFileName;

  00008	e59f301c	 ldr         r3, [pc, #0x1C]
  0000c	e2801038	 add         r1, r0, #0x38
  00010	e3a02000	 mov         r2, #0
  00014	e5933000	 ldr         r3, [r3]
  00018	e1a00004	 mov         r0, r4
  0001c	eb000000	 bl          |??0CPVRTString@@QAA@ABV0@II@Z|

; 60   : 	}

  00020	e1a00004	 mov         r0, r4
  00024	e8bd4010	 ldmia       sp!, {r4, lr}
  00028	e12fff1e	 bx          lr
  0002c		 |$LN6@getTexture|
  0002c		 |$LN7@getTexture|
  0002c	00000000	 DCD         |?npos@CPVRTString@@2IB|
  00030		 |$M36643|

			 ENDP  ; |?getTextureFileName@Material@pvrengine@@QBA?AVCPVRTString@@XZ|, pvrengine::Material::getTextureFileName

	EXPORT	|?getEffectName@Material@pvrengine@@QBA?AVCPVRTString@@XZ| ; pvrengine::Material::getEffectName

  00000			 AREA	 |.pdata|, PDATA
|$T36658| DCD	|$LN5@getEffectN|
	DCD	0x40000c01
; Function compile flags: /Ogspy

  00000			 AREA	 |.text|, CODE, ARM

  00000		 |?getEffectName@Material@pvrengine@@QBA?AVCPVRTString@@XZ| PROC ; pvrengine::Material::getEffectName

; 65   : 	{

  00000		 |$LN5@getEffectN|
  00000	e92d4010	 stmdb       sp!, {r4, lr}
  00004		 |$M36655|
  00004	e1a04001	 mov         r4, r1

; 66   : 		return m_strEffectName;

  00008	e59f301c	 ldr         r3, [pc, #0x1C]
  0000c	e2801018	 add         r1, r0, #0x18
  00010	e3a02000	 mov         r2, #0
  00014	e5933000	 ldr         r3, [r3]
  00018	e1a00004	 mov         r0, r4
  0001c	eb000000	 bl          |??0CPVRTString@@QAA@ABV0@II@Z|

; 67   : 	}

  00020	e1a00004	 mov         r0, r4
  00024	e8bd4010	 ldmia       sp!, {r4, lr}
  00028	e12fff1e	 bx          lr
  0002c		 |$LN6@getEffectN|
  0002c		 |$LN7@getEffectN|
  0002c	00000000	 DCD         |?npos@CPVRTString@@2IB|
  00030		 |$M36656|

			 ENDP  ; |?getEffectName@Material@pvrengine@@QBA?AVCPVRTString@@XZ|, pvrengine::Material::getEffectName

	EXPORT	|?getName@Material@pvrengine@@QBA?AVCPVRTString@@XZ| ; pvrengine::Material::getName

  00000			 AREA	 |.pdata|, PDATA
|$T36671| DCD	|$LN5@getName|
	DCD	0x40000c01
; Function compile flags: /Ogspy

  00000			 AREA	 |.text|, CODE, ARM

  00000		 |?getName@Material@pvrengine@@QBA?AVCPVRTString@@XZ| PROC ; pvrengine::Material::getName

; 72   : 	{

  00000		 |$LN5@getName|
  00000	e92d4010	 stmdb       sp!, {r4, lr}
  00004		 |$M36668|
  00004	e1a04001	 mov         r4, r1

; 73   : 		return m_strName;

  00008	e59f301c	 ldr         r3, [pc, #0x1C]
  0000c	e2801028	 add         r1, r0, #0x28
  00010	e3a02000	 mov         r2, #0
  00014	e5933000	 ldr         r3, [r3]
  00018	e1a00004	 mov         r0, r4
  0001c	eb000000	 bl          |??0CPVRTString@@QAA@ABV0@II@Z|

; 74   : 	}

  00020	e1a00004	 mov         r0, r4
  00024	e8bd4010	 ldmia       sp!, {r4, lr}
  00028	e12fff1e	 bx          lr
  0002c		 |$LN6@getName|
  0002c		 |$LN7@getName|
  0002c	00000000	 DCD         |?npos@CPVRTString@@2IB|
  00030		 |$M36669|

			 ENDP  ; |?getName@Material@pvrengine@@QBA?AVCPVRTString@@XZ|, pvrengine::Material::getName

	EXPORT	|?Deactivate@Material@pvrengine@@QAAXXZ| ; pvrengine::Material::Deactivate

  00000			 AREA	 |.pdata|, PDATA
|$T36681| DCD	|$LN5@Deactivate|
	DCD	0x40000300
; Function compile flags: /Ogspy

  00000			 AREA	 |.text|, CODE, ARM

  00000		 |?Deactivate@Material@pvrengine@@QAAXXZ| PROC ; pvrengine::Material::Deactivate

; 79   : 	{

  00000		 |$LN5@Deactivate|
  00000		 |$M36678|

; 80   : 		m_bActive = false;

  00000	e3a03000	 mov         r3, #0
  00004	e5c03005	 strb        r3, [r0, #5]

; 81   : 	}

  00008	e12fff1e	 bx          lr
  0000c		 |$M36679|

			 ENDP  ; |?Deactivate@Material@pvrengine@@QAAXXZ|, pvrengine::Material::Deactivate

	EXPORT	|??1?$dynamicArray@VUniform@pvrengine@@@@QAA@XZ| ; dynamicArray<pvrengine::Uniform>::~dynamicArray<pvrengine::Uniform>
	IMPORT	|??3@YAXPAX@Z|				; operator delete
; File c:\wince600\public\powervr-sdk\ogles2\extras\pvrengine\include\dynamicarray.h

  00000			 AREA	 |.pdata|, PDATA
|$T36690| DCD	|$LN6@dynamicArr|
	DCD	0x40000701
; Function compile flags: /Ogspy

  00000			 AREA	 |.text|, CODE, ARM

  00000		 |??1?$dynamicArray@VUniform@pvrengine@@@@QAA@XZ| PROC ; dynamicArray<pvrengine::Uniform>::~dynamicArray<pvrengine::Uniform>

; 113  : 	{

  00000		 |$LN6@dynamicArr|
  00000	e52de004	 str         lr, [sp, #-4]!
  00004		 |$M36687|

; 114  : 		if(m_pArray)

  00004	e5903008	 ldr         r3, [r0, #8]
  00008	e3530000	 cmp         r3, #0

; 115  : 			delete[](m_pArray);

  0000c	11a00003	 movne       r0, r3
  00010	1b000000	 blne        |??3@YAXPAX@Z|

; 116  : 	}

  00014	e49de004	 ldr         lr, [sp], #4
  00018	e12fff1e	 bx          lr
  0001c		 |$M36688|

			 ENDP  ; |??1?$dynamicArray@VUniform@pvrengine@@@@QAA@XZ|, dynamicArray<pvrengine::Uniform>::~dynamicArray<pvrengine::Uniform>

	EXPORT	|??_H@YAXPAXIHP6APAX0@Z@Z|		; `vector constructor iterator'

  00000			 AREA	 |.pdata|, PDATA
|$T36704| DCD	|$LN9@vector|
	DCD	0x40000e01
; Function compile flags: /Ogspy

  00000			 AREA	 |.text|, CODE, ARM

  00000		 |??_H@YAXPAXIHP6APAX0@Z@Z| PROC	; `vector constructor iterator'
  00000		 |$LN9@vector|
  00000	e92d40f0	 stmdb       sp!, {r4 - r7, lr}
  00004		 |$M36701|
  00004	e1a06003	 mov         r6, r3
  00008	e1a07001	 mov         r7, r1
  0000c	e1a04000	 mov         r4, r0
  00010	e2525001	 subs        r5, r2, #1
  00014	4a000005	 bmi         |$LN1@vector|
  00018		 |$LL2@vector|
  00018	e1a00004	 mov         r0, r4
  0001c	e1a0e00f	 mov         lr, pc
  00020	e12fff16	 bx          r6
  00024	e0844007	 add         r4, r4, r7
  00028	e2555001	 subs        r5, r5, #1
  0002c	5afffff9	 bpl         |$LL2@vector|
  00030		 |$LN1@vector|
  00030	e8bd40f0	 ldmia       sp!, {r4 - r7, lr}
  00034	e12fff1e	 bx          lr
  00038		 |$M36702|

			 ENDP  ; |??_H@YAXPAXIHP6APAX0@Z@Z|, `vector constructor iterator'

	EXPORT	|??0?$dynamicArray@VUniform@pvrengine@@@@QAA@XZ| ; dynamicArray<pvrengine::Uniform>::dynamicArray<pvrengine::Uniform>
	IMPORT	|??2@YAPAXI@Z|				; operator new
; File c:\wince600\public\powervr-sdk\ogles2\extras\pvrengine\include\ogles2\uniform.h

  00000			 AREA	 |.pdata|, PDATA
|$T36732| DCD	|$LN15@dynamicArr@2|
	DCD	0x40000c01
; Function compile flags: /Ogspy
; File c:\wince600\public\powervr-sdk\ogles2\extras\pvrengine\include\dynamicarray.h

  00000			 AREA	 |.text|, CODE, ARM

  00000		 |??0?$dynamicArray@VUniform@pvrengine@@@@QAA@XZ| PROC ; dynamicArray<pvrengine::Uniform>::dynamicArray<pvrengine::Uniform>

; 57   : 	{

  00000		 |$LN15@dynamicArr@2|
  00000	e92d4010	 stmdb       sp!, {r4, lr}
  00004		 |$M36729|
  00004	e1a04000	 mov         r4, r0
  00008	e3a03000	 mov         r3, #0
  0000c	e3a02008	 mov         r2, #8

; 58   : 		m_pArray = new T[c_i32DefaultSize];

  00010	e3a00060	 mov         r0, #0x60
  00014	e5843000	 str         r3, [r4]
  00018	e5842004	 str         r2, [r4, #4]
  0001c	eb000000	 bl          |??2@YAPAXI@Z|
  00020	e5840008	 str         r0, [r4, #8]

; 59   : 	}

  00024	e1a00004	 mov         r0, r4
  00028	e8bd4010	 ldmia       sp!, {r4, lr}
  0002c	e12fff1e	 bx          lr
  00030		 |$M36730|

			 ENDP  ; |??0?$dynamicArray@VUniform@pvrengine@@@@QAA@XZ|, dynamicArray<pvrengine::Uniform>::dynamicArray<pvrengine::Uniform>

	EXPORT	|??0Material@pvrengine@@QAA@XZ|		; pvrengine::Material::Material
	IMPORT	|??0CPVRTPFXParser@@QAA@XZ|		; CPVRTPFXParser::CPVRTPFXParser
	IMPORT	|??0CPVRTPFXEffect@@QAA@XZ|		; CPVRTPFXEffect::CPVRTPFXEffect
	IMPORT	|??0CPVRTString@@QAA@XZ|		; CPVRTString::CPVRTString
; File c:\wince600\public\powervr-sdk\ogles2\extras\pvrengine\materialbase.cpp

  00000			 AREA	 |.pdata|, PDATA
|$T36914| DCD	|$LN73@Material|
	DCD	0x40003501
; Function compile flags: /Ogspy

  00000			 AREA	 |.text|, CODE, ARM

  00000		 |??0Material@pvrengine@@QAA@XZ| PROC	; pvrengine::Material::Material

; 21   : 	{

  00000		 |$LN73@Material|
  00000	e92d40f0	 stmdb       sp!, {r4 - r7, lr}
  00004		 |$M36911|
  00004	e1a05000	 mov         r5, r0
  00008	e2850008	 add         r0, r5, #8
  0000c	eb000000	 bl          |??0CPVRTString@@QAA@XZ|
  00010	e2850018	 add         r0, r5, #0x18
  00014	eb000000	 bl          |??0CPVRTString@@QAA@XZ|
  00018	e2850028	 add         r0, r5, #0x28
  0001c	eb000000	 bl          |??0CPVRTString@@QAA@XZ|
  00020	e2850038	 add         r0, r5, #0x38
  00024	eb000000	 bl          |??0CPVRTString@@QAA@XZ|
  00028	e2850048	 add         r0, r5, #0x48
  0002c	eb000000	 bl          |??0CPVRTPFXEffect@@QAA@XZ|
  00030	e2850060	 add         r0, r5, #0x60
  00034	eb000000	 bl          |??0CPVRTPFXParser@@QAA@XZ|
  00038	e1a04005	 mov         r4, r5
  0003c	e3a07000	 mov         r7, #0
  00040	e5a470a0	 str         r7, [r4, #0xA0]!
  00044	e3a06008	 mov         r6, #8
  00048	e3a00060	 mov         r0, #0x60
  0004c	e5846004	 str         r6, [r4, #4]
  00050	eb000000	 bl          |??2@YAPAXI@Z|
  00054	e5840008	 str         r0, [r4, #8]
  00058	e1a04005	 mov         r4, r5
  0005c	e5a470ac	 str         r7, [r4, #0xAC]!
  00060	e3a00060	 mov         r0, #0x60
  00064	e5846004	 str         r6, [r4, #4]
  00068	eb000000	 bl          |??2@YAPAXI@Z|
  0006c	e5840008	 str         r0, [r4, #8]
  00070	e1a04005	 mov         r4, r5
  00074	e5a470b8	 str         r7, [r4, #0xB8]!
  00078	e3a00060	 mov         r0, #0x60
  0007c	e5846004	 str         r6, [r4, #4]
  00080	eb000000	 bl          |??2@YAPAXI@Z|
  00084	e5840008	 str         r0, [r4, #8]
  00088	e1a04005	 mov         r4, r5
  0008c	e5a470c4	 str         r7, [r4, #0xC4]!
  00090	e3a00060	 mov         r0, #0x60
  00094	e5846004	 str         r6, [r4, #4]
  00098	eb000000	 bl          |??2@YAPAXI@Z|
  0009c	e5840008	 str         r0, [r4, #8]
  000a0	e1a04005	 mov         r4, r5
  000a4	e5a470d0	 str         r7, [r4, #0xD0]!
  000a8	e3a00060	 mov         r0, #0x60
  000ac	e5846004	 str         r6, [r4, #4]
  000b0	eb000000	 bl          |??2@YAPAXI@Z|
  000b4	e5840008	 str         r0, [r4, #8]

; 22   : 		Init(0);	

  000b8	e5c57004	 strb        r7, [r5, #4]
  000bc	e5c57005	 strb        r7, [r5, #5]
  000c0	e5c57006	 strb        r7, [r5, #6]
  000c4	e5857000	 str         r7, [r5]

; 23   : 	}

  000c8	e1a00005	 mov         r0, r5
  000cc	e8bd40f0	 ldmia       sp!, {r4 - r7, lr}
  000d0	e12fff1e	 bx          lr
  000d4		 |$M36912|

			 ENDP  ; |??0Material@pvrengine@@QAA@XZ|, pvrengine::Material::Material

	END
