; Listing generated by Microsoft (R) Optimizing Compiler Version 14.01.60511.01 

	TTL	C:\WINCE600\PUBLIC\PowerVR-SDK\OGLES2\Extras\PVREngine\OGLES2\Mesh.cpp
	CODE32

  00000			 AREA	 |.drectve|, DRECTVE
	DCB	"-defaultlib:LIBCMT "
	DCB	"-defaultlib:OLDNAMES "

	EXPORT	|?c_i32DefaultSize@?$dynamicArray@VUniform@pvrengine@@@@2HB| [ DATA ] ; dynamicArray<pvrengine::Uniform>::c_i32DefaultSize
	EXPORT	|?c_i32DefaultSize@?$dynamicArray@USPVRTPFXUniform@@@@2HB| [ DATA ] ; dynamicArray<SPVRTPFXUniform>::c_i32DefaultSize
	EXPORT	|?c_i32DefaultSize@?$dynamicArray@USPVRTContext@@@@2HB| [ DATA ] ; dynamicArray<SPVRTContext>::c_i32DefaultSize
	EXPORT	|?c_i32DefaultSize@?$dynamicArray@VCPVRTString@@@@2HB| [ DATA ] ; dynamicArray<CPVRTString>::c_i32DefaultSize
	EXPORT	|?c_i32DefaultSize@?$dynamicArray@PAVLight@pvrengine@@@@2HB| [ DATA ] ; dynamicArray<pvrengine::Light *>::c_i32DefaultSize
	EXPORT	|?c_i32DefaultSize@?$dynamicArray@PAVMaterial@pvrengine@@@@2HB| [ DATA ] ; dynamicArray<pvrengine::Material *>::c_i32DefaultSize

  00000			 AREA	 |.rdata|, DATA, READONLY
|pBoundingBoxIndices| DCW 0x0
	DCW	0x1
	DCW	0x1
	DCW	0x3
	DCW	0x3
	DCW	0x2
	DCW	0x2
	DCW	0x0
	DCW	0x0
	DCW	0x4
	DCW	0x4
	DCW	0x6
	DCW	0x6
	DCW	0x2
	DCW	0x4
	DCW	0x5
	DCW	0x5
	DCW	0x7
	DCW	0x7
	DCW	0x6
	DCW	0x5
	DCW	0x1
	DCW	0x3
	DCW	0x7
	DCW	0x8
	DCW	0x0
	DCW	0x8
	DCW	0x1
	DCW	0x8
	DCW	0x2
	DCW	0x8
	DCW	0x3
	DCW	0x8
	DCW	0x4
	DCW	0x8
	DCW	0x5
	DCW	0x8
	DCW	0x6
	DCW	0x8
	DCW	0x7

  00000			 AREA	 |.rdata|, DATA, READONLY
|?c_i32DefaultSize@?$dynamicArray@PAVMaterial@pvrengine@@@@2HB| DCD 0x8 ; dynamicArray<pvrengine::Material *>::c_i32DefaultSize

  00000			 AREA	 |.rdata|, DATA, READONLY
|?c_i32DefaultSize@?$dynamicArray@PAVLight@pvrengine@@@@2HB| DCD 0x8 ; dynamicArray<pvrengine::Light *>::c_i32DefaultSize

  00000			 AREA	 |.rdata|, DATA, READONLY
|?c_i32DefaultSize@?$dynamicArray@VCPVRTString@@@@2HB| DCD 0x8 ; dynamicArray<CPVRTString>::c_i32DefaultSize

  00000			 AREA	 |.rdata|, DATA, READONLY
|?c_i32DefaultSize@?$dynamicArray@USPVRTContext@@@@2HB| DCD 0x8 ; dynamicArray<SPVRTContext>::c_i32DefaultSize

  00000			 AREA	 |.rdata|, DATA, READONLY
|?c_i32DefaultSize@?$dynamicArray@USPVRTPFXUniform@@@@2HB| DCD 0x8 ; dynamicArray<SPVRTPFXUniform>::c_i32DefaultSize

  00000			 AREA	 |.rdata|, DATA, READONLY
|?c_i32DefaultSize@?$dynamicArray@VUniform@pvrengine@@@@2HB| DCD 0x8 ; dynamicArray<pvrengine::Uniform>::c_i32DefaultSize
	EXPORT	|??0PVRTVec3@@QAA@XZ|			; PVRTVec3::PVRTVec3
; File c:\wince600\public\powervr-sdk\ogles2\tools\pvrtvector.h

  00000			 AREA	 |.pdata|, PDATA
|$T37616| DCD	|$LN5@PVRTVec3|
	DCD	0x40000100
; Function compile flags: /Ogspy

  00000			 AREA	 |.text|, CODE, ARM

  00000		 |??0PVRTVec3@@QAA@XZ| PROC		; PVRTVec3::PVRTVec3

; 330  : 	PVRTVec3(){}

  00000		 |$LN5@PVRTVec3|
  00000		 |$M37613|
  00000	e12fff1e	 bx          lr
  00004		 |$M37614|

			 ENDP  ; |??0PVRTVec3@@QAA@XZ|, PVRTVec3::PVRTVec3

	EXPORT	|??0PVRTVec4@@QAA@XZ|			; PVRTVec4::PVRTVec4

  00000			 AREA	 |.pdata|, PDATA
|$T37626| DCD	|$LN5@PVRTVec4|
	DCD	0x40000100
; Function compile flags: /Ogspy

  00000			 AREA	 |.text|, CODE, ARM

  00000		 |??0PVRTVec4@@QAA@XZ| PROC		; PVRTVec4::PVRTVec4

; 674  : 	PVRTVec4(){}

  00000		 |$LN5@PVRTVec4|
  00000		 |$M37623|
  00000	e12fff1e	 bx          lr
  00004		 |$M37624|

			 ENDP  ; |??0PVRTVec4@@QAA@XZ|, PVRTVec4::PVRTVec4

	EXPORT	|??0PVRTMat3@@QAA@XZ|			; PVRTMat3::PVRTMat3

  00000			 AREA	 |.pdata|, PDATA
|$T37636| DCD	|$LN5@PVRTMat3|
	DCD	0x40000100
; Function compile flags: /Ogspy

  00000			 AREA	 |.text|, CODE, ARM

  00000		 |??0PVRTMat3@@QAA@XZ| PROC		; PVRTMat3::PVRTMat3

; 979  : 	PVRTMat3(){}

  00000		 |$LN5@PVRTMat3|
  00000		 |$M37633|
  00000	e12fff1e	 bx          lr
  00004		 |$M37634|

			 ENDP  ; |??0PVRTMat3@@QAA@XZ|, PVRTMat3::PVRTMat3

	EXPORT	|??0PVRTMat4@@QAA@XZ|			; PVRTMat4::PVRTMat4

  00000			 AREA	 |.pdata|, PDATA
|$T37646| DCD	|$LN5@PVRTMat4|
	DCD	0x40000100
; Function compile flags: /Ogspy

  00000			 AREA	 |.text|, CODE, ARM

  00000		 |??0PVRTMat4@@QAA@XZ| PROC		; PVRTMat4::PVRTMat4

; 1377 : 	PVRTMat4(){}

  00000		 |$LN5@PVRTMat4|
  00000		 |$M37643|
  00000	e12fff1e	 bx          lr
  00004		 |$M37644|

			 ENDP  ; |??0PVRTMat4@@QAA@XZ|, PVRTMat4::PVRTMat4

	EXPORT	|??4PVRTMat4@@QAAAAU0@ABU0@@Z|		; PVRTMat4::operator=

  00000			 AREA	 |.pdata|, PDATA
|$T37659| DCD	|$LN10@operator|
	DCD	0x40000a01
; Function compile flags: /Ogspy

  00000			 AREA	 |.text|, CODE, ARM

  00000		 |??4PVRTMat4@@QAAAAU0@ABU0@@Z| PROC	; PVRTMat4::operator=

; 1601 : 	{

  00000		 |$LN10@operator|
  00000	e52de004	 str         lr, [sp, #-4]!
  00004		 |$M37656|

; 1602 : 		for (int i=0; i<16; ++i)

  00004	e041e000	 sub         lr, r1, r0
  00008	e3a01010	 mov         r1, #0x10
  0000c	e1a02000	 mov         r2, r0
  00010		 |$LL3@operator|

; 1603 : 		{
; 1604 : 			f[i] =rhs.f[i];

  00010	e79e3002	 ldr         r3, [lr, +r2]
  00014	e2511001	 subs        r1, r1, #1
  00018	e4823004	 str         r3, [r2], #4
  0001c	1afffffb	 bne         |$LL3@operator|

; 1605 : 		}
; 1606 : 		return *this;
; 1607 : 	}

  00020	e49de004	 ldr         lr, [sp], #4
  00024	e12fff1e	 bx          lr
  00028		 |$M37657|

			 ENDP  ; |??4PVRTMat4@@QAAAAU0@ABU0@@Z|, PVRTMat4::operator=

	EXPORT	|?transpose@PVRTMat4@@QBA?AU1@XZ|	; PVRTMat4::transpose

  00000			 AREA	 |.pdata|, PDATA
|$T37673| DCD	|$LN7@transpose|
	DCD	0x40002902
; Function compile flags: /Ogspy

  00000			 AREA	 |.text|, CODE, ARM

  00000		 |?transpose@PVRTMat4@@QBA?AU1@XZ| PROC	; PVRTMat4::transpose

; 1698 : 	{

  00000		 |$LN7@transpose|
  00000	e92d4ff0	 stmdb       sp!, {r4 - r11, lr}
  00004	e24dd010	 sub         sp, sp, #0x10
  00008		 |$M37670|
  00008	e58d1000	 str         r1, [sp]
  0000c	e58d000c	 str         r0, [sp, #0xC]

; 1699 : 		PVRTMat4 out;
; 1700 : 		out.f[0] = f[0];		out.f[1] = f[4];		out.f[2] = f[8];		out.f[3] = f[12];

  00010	e5902010	 ldr         r2, [r0, #0x10]
  00014	e5903000	 ldr         r3, [r0]
  00018	e590e020	 ldr         lr, [r0, #0x20]
  0001c	e58d2008	 str         r2, [sp, #8]

; 1701 : 		out.f[4] = f[1];		out.f[5] = f[5];		out.f[6] = f[9];		out.f[7] = f[13];
; 1702 : 		out.f[8] = f[2];		out.f[9] = f[6];		out.f[10] = f[10];		out.f[11] = f[14];
; 1703 : 		out.f[12] = f[3];		out.f[13] = f[7];		out.f[14] = f[11];		out.f[15] = f[15];

  00020	e59d2000	 ldr         r2, [sp]
  00024	e58d3004	 str         r3, [sp, #4]
  00028	e5904030	 ldr         r4, [r0, #0x30]
  0002c	e5823000	 str         r3, [r2]
  00030	e59d2008	 ldr         r2, [sp, #8]
  00034	e59d3000	 ldr         r3, [sp]
  00038	e5905004	 ldr         r5, [r0, #4]
  0003c	e5906014	 ldr         r6, [r0, #0x14]
  00040	e5832004	 str         r2, [r3, #4]
  00044	e59d200c	 ldr         r2, [sp, #0xC]
  00048	e5907024	 ldr         r7, [r0, #0x24]
  0004c	e5908034	 ldr         r8, [r0, #0x34]
  00050	e5909008	 ldr         r9, [r0, #8]
  00054	e590a018	 ldr         r10, [r0, #0x18]
  00058	e590b028	 ldr         r11, [r0, #0x28]
  0005c	e5901038	 ldr         r1, [r0, #0x38]
  00060	e590000c	 ldr         r0, [r0, #0xC]
  00064	e583e008	 str         lr, [r3, #8]
  00068	e1a0e003	 mov         lr, r3
  0006c	e592301c	 ldr         r3, [r2, #0x1C]
  00070	e28ec00c	 add         r12, lr, #0xC
  00074	e88c0ff0	 stmia       r12, {r4 - r11}
  00078	e28ec030	 add         r12, lr, #0x30
  0007c	e88c0009	 stmia       r12, {r0, r3}

; 1704 : 		return out;
; 1705 : 	}

  00080	e1a0000e	 mov         r0, lr
  00084	e592302c	 ldr         r3, [r2, #0x2C]
  00088	e58e102c	 str         r1, [lr, #0x2C]
  0008c	e58e3038	 str         r3, [lr, #0x38]
  00090	e592303c	 ldr         r3, [r2, #0x3C]
  00094	e58e303c	 str         r3, [lr, #0x3C]
  00098	e28dd010	 add         sp, sp, #0x10
  0009c	e8bd4ff0	 ldmia       sp!, {r4 - r11, lr}
  000a0	e12fff1e	 bx          lr
  000a4		 |$M37671|

			 ENDP  ; |?transpose@PVRTMat4@@QBA?AU1@XZ|, PVRTMat4::transpose

	EXPORT	|?ptr@PVRTMat4@@QAAPAMXZ|		; PVRTMat4::ptr

  00000			 AREA	 |.pdata|, PDATA
|$T37683| DCD	|$LN5@ptr|
	DCD	0x40000100
; Function compile flags: /Ogspy

  00000			 AREA	 |.text|, CODE, ARM

  00000		 |?ptr@PVRTMat4@@QAAPAMXZ| PROC		; PVRTMat4::ptr

; 1772 : 	VERTTYPE *ptr() { return (VERTTYPE*)&f; }

  00000		 |$LN5@ptr|
  00000		 |$M37680|
  00000	e12fff1e	 bx          lr
  00004		 |$M37681|

			 ENDP  ; |?ptr@PVRTMat4@@QAAPAMXZ|, PVRTMat4::ptr

	EXPORT	|??_H@YAXPAXIHP6APAX0@Z@Z|		; `vector constructor iterator'

  00000			 AREA	 |.pdata|, PDATA
|$T37697| DCD	|$LN9@vector|
	DCD	0x40000e01
; Function compile flags: /Ogspy

  00000			 AREA	 |.text|, CODE, ARM

  00000		 |??_H@YAXPAXIHP6APAX0@Z@Z| PROC	; `vector constructor iterator'
  00000		 |$LN9@vector|
  00000	e92d40f0	 stmdb       sp!, {r4 - r7, lr}
  00004		 |$M37694|
  00004	e1a06003	 mov         r6, r3
  00008	e1a07001	 mov         r7, r1
  0000c	e1a04000	 mov         r4, r0
  00010	e2525001	 subs        r5, r2, #1
  00014	4a000005	 bmi         |$LN1@vector|
  00018		 |$LL2@vector|
  00018	e1a00004	 mov         r0, r4
  0001c	e1a0e00f	 mov         lr, pc
  00020	e12fff16	 bx          r6
  00024	e0844007	 add         r4, r4, r7
  00028	e2555001	 subs        r5, r5, #1
  0002c	5afffff9	 bpl         |$LL2@vector|
  00030		 |$LN1@vector|
  00030	e8bd40f0	 ldmia       sp!, {r4 - r7, lr}
  00034	e12fff1e	 bx          lr
  00038		 |$M37695|

			 ENDP  ; |??_H@YAXPAXIHP6APAX0@Z@Z|, `vector constructor iterator'

	EXPORT	|?getSemantic@Uniform@pvrengine@@QBA?AW4EUniformSemantic@2@XZ| ; pvrengine::Uniform::getSemantic
; File c:\wince600\public\powervr-sdk\ogles2\extras\pvrengine\include\ogles2\uniform.h

  00000			 AREA	 |.pdata|, PDATA
|$T37707| DCD	|$LN5@getSemanti|
	DCD	0x40000200
; Function compile flags: /Ogspy

  00000			 AREA	 |.text|, CODE, ARM

  00000		 |?getSemantic@Uniform@pvrengine@@QBA?AW4EUniformSemantic@2@XZ| PROC ; pvrengine::Uniform::getSemantic

; 53   : 		EUniformSemantic getSemantic() const{return m_eSemantic;}

  00000		 |$LN5@getSemanti|
  00000		 |$M37704|
  00000	e5900004	 ldr         r0, [r0, #4]
  00004	e12fff1e	 bx          lr
  00008		 |$M37705|

			 ENDP  ; |?getSemantic@Uniform@pvrengine@@QBA?AW4EUniformSemantic@2@XZ|, pvrengine::Uniform::getSemantic

	EXPORT	|?getLocation@Uniform@pvrengine@@QBAIXZ| ; pvrengine::Uniform::getLocation

  00000			 AREA	 |.pdata|, PDATA
|$T37717| DCD	|$LN5@getLocatio|
	DCD	0x40000200
; Function compile flags: /Ogspy

  00000			 AREA	 |.text|, CODE, ARM

  00000		 |?getLocation@Uniform@pvrengine@@QBAIXZ| PROC ; pvrengine::Uniform::getLocation

; 60   : 		unsigned int getLocation() const{return m_u32Location;}

  00000		 |$LN5@getLocatio|
  00000		 |$M37714|
  00000	e5900000	 ldr         r0, [r0]
  00004	e12fff1e	 bx          lr
  00008		 |$M37715|

			 ENDP  ; |?getLocation@Uniform@pvrengine@@QBAIXZ|, pvrengine::Uniform::getLocation

	EXPORT	|?getSkinned@Material@pvrengine@@QBA_NXZ| ; pvrengine::Material::getSkinned
; File c:\wince600\public\powervr-sdk\ogles2\extras\pvrengine\include\ogles2\material.h

  00000			 AREA	 |.pdata|, PDATA
|$T37727| DCD	|$LN5@getSkinned|
	DCD	0x40000200
; Function compile flags: /Ogspy

  00000			 AREA	 |.text|, CODE, ARM

  00000		 |?getSkinned@Material@pvrengine@@QBA_NXZ| PROC ; pvrengine::Material::getSkinned

; 133  : 		bool					getSkinned() const {return m_bSkinned;}

  00000		 |$LN5@getSkinned|
  00000		 |$M37724|
  00000	e5d00006	 ldrb        r0, [r0, #6]
  00004	e12fff1e	 bx          lr
  00008		 |$M37725|

			 ENDP  ; |?getSkinned@Material@pvrengine@@QBA_NXZ|, pvrengine::Material::getSkinned

	EXPORT	|?CreateBuffer@Mesh@pvrengine@@AAAXXZ|	; pvrengine::Mesh::CreateBuffer
	IMPORT	|__imp_glGenBuffers|
	IMPORT	|__imp_glBufferData|
	IMPORT	|__imp_glBindBuffer|
; File c:\wince600\public\powervr-sdk\ogles2\extras\pvrengine\ogles2\mesh.cpp

  00000			 AREA	 |.pdata|, PDATA
|$T37735| DCD	|$LN5@CreateBuff|
	DCD	0x40003f01
; Function compile flags: /Ogspy

  00000			 AREA	 |.text|, CODE, ARM

  00000		 |?CreateBuffer@Mesh@pvrengine@@AAAXXZ| PROC ; pvrengine::Mesh::CreateBuffer

; 32   : 	{

  00000		 |$LN5@CreateBuff|
  00000	e92d40f0	 stmdb       sp!, {r4 - r7, lr}
  00004		 |$M37732|
  00004	e1a06000	 mov         r6, r0

; 33   : 		// ask for a buffer object for this mesh
; 34   : 		glGenBuffers(1,&m_gluBuffer);

  00008	e59f30e8	 ldr         r3, [pc, #0xE8]
  0000c	e1a01006	 mov         r1, r6
  00010	e3a00001	 mov         r0, #1
  00014	e5933000	 ldr         r3, [r3]
  00018	e1a0e00f	 mov         lr, pc
  0001c	e12fff13	 bx          r3

; 35   : 		// fill it with juicy data
; 36   : 		glBindBuffer(GL_ARRAY_BUFFER, m_gluBuffer);

  00020	e59f30c8	 ldr         r3, [pc, #0xC8]
  00024	e5961000	 ldr         r1, [r6]
  00028	e3a07b22	 mov         r7, #0x22, 22
  0002c	e5933000	 ldr         r3, [r3]
  00030	e3870092	 orr         r0, r7, #0x92
  00034	e1a0e00f	 mov         lr, pc
  00038	e12fff13	 bx          r3

; 37   : 		glBufferData(GL_ARRAY_BUFFER,
; 38   : 			m_psMesh->sVertex.nStride*m_psMesh->nNumVertex,
; 39   : 			m_psMesh->pInterleaved,
; 40   : 			GL_STATIC_DRAW);

  0003c	e5963010	 ldr         r3, [r6, #0x10]
  00040	e59fe0ac	 ldr         lr, [pc, #0xAC]
  00044	e3870092	 orr         r0, r7, #0x92
  00048	e593402c	 ldr         r4, [r3, #0x2C]
  0004c	e5931000	 ldr         r1, [r3]
  00050	e5932098	 ldr         r2, [r3, #0x98]
  00054	e59e5000	 ldr         r5, [lr]
  00058	e0010194	 mul         r1, r4, r1
  0005c	e38730e4	 orr         r3, r7, #0xE4
  00060	e1a0e00f	 mov         lr, pc
  00064	e12fff15	 bx          r5

; 41   : 		glBindBuffer(GL_ARRAY_BUFFER, 0);

  00068	e59f3080	 ldr         r3, [pc, #0x80]
  0006c	e3a01000	 mov         r1, #0
  00070	e3870092	 orr         r0, r7, #0x92
  00074	e5933000	 ldr         r3, [r3]
  00078	e1a0e00f	 mov         lr, pc
  0007c	e12fff13	 bx          r3

; 42   : 		// buffer for centre point
; 43   : 		// buffer for bounding box
; 44   : 		// ask for a buffer object 
; 45   : 		glGenBuffers(1,&m_gluBoundsBuffer);

  00080	e59f3070	 ldr         r3, [pc, #0x70]
  00084	e2861004	 add         r1, r6, #4
  00088	e3a00001	 mov         r0, #1
  0008c	e5933000	 ldr         r3, [r3]
  00090	e1a0e00f	 mov         lr, pc
  00094	e12fff13	 bx          r3

; 46   : 		// fill it with juicy data
; 47   : 		glBindBuffer(GL_ARRAY_BUFFER, m_gluBoundsBuffer);

  00098	e59f3050	 ldr         r3, [pc, #0x50]
  0009c	e5961004	 ldr         r1, [r6, #4]
  000a0	e3870092	 orr         r0, r7, #0x92
  000a4	e5933000	 ldr         r3, [r3]
  000a8	e1a0e00f	 mov         lr, pc
  000ac	e12fff13	 bx          r3

; 48   : 		glBufferData(GL_ARRAY_BUFFER,
; 49   : 			sizeof(float)*40,
; 50   : 			m_pfBoundingBuffer,
; 51   : 			GL_STATIC_DRAW);

  000b0	e59f103c	 ldr         r1, [pc, #0x3C]
  000b4	e38730e4	 orr         r3, r7, #0xE4
  000b8	e28620b8	 add         r2, r6, #0xB8
  000bc	e5914000	 ldr         r4, [r1]
  000c0	e3a010a0	 mov         r1, #0xA0
  000c4	e3870092	 orr         r0, r7, #0x92
  000c8	e1a0e00f	 mov         lr, pc
  000cc	e12fff14	 bx          r4

; 52   : 		glBindBuffer(GL_ARRAY_BUFFER, 0);

  000d0	e59f3018	 ldr         r3, [pc, #0x18]
  000d4	e3a01000	 mov         r1, #0
  000d8	e3870092	 orr         r0, r7, #0x92
  000dc	e5933000	 ldr         r3, [r3]
  000e0	e1a0e00f	 mov         lr, pc
  000e4	e12fff13	 bx          r3

; 53   : 	}

  000e8	e8bd40f0	 ldmia       sp!, {r4 - r7, lr}
  000ec	e12fff1e	 bx          lr
  000f0		 |$LN6@CreateBuff|
  000f0		 |$LN7@CreateBuff|
  000f0	00000000	 DCD         |__imp_glBindBuffer|
  000f4		 |$LN8@CreateBuff|
  000f4	00000000	 DCD         |__imp_glBufferData|
  000f8		 |$LN9@CreateBuff|
  000f8	00000000	 DCD         |__imp_glGenBuffers|
  000fc		 |$M37733|

			 ENDP  ; |?CreateBuffer@Mesh@pvrengine@@AAAXXZ|, pvrengine::Mesh::CreateBuffer

	EXPORT	|?DrawMesh@Mesh@pvrengine@@AAAXXZ|	; pvrengine::Mesh::DrawMesh
	IMPORT	|__imp_glDrawArrays|
	IMPORT	|__imp_glDrawElements|

  00000			 AREA	 |.pdata|, PDATA
|$T37755| DCD	|$LN21@DrawMesh|
	DCD	0x40005701
; Function compile flags: /Ogspy

  00000			 AREA	 |.text|, CODE, ARM

  00000		 |?DrawMesh@Mesh@pvrengine@@AAAXXZ| PROC ; pvrengine::Mesh::DrawMesh

; 259  : 	{

  00000		 |$LN21@DrawMesh|
  00000	e92d47f0	 stmdb       sp!, {r4 - r10, lr}
  00004		 |$M37752|
  00004	e1a06000	 mov         r6, r0

; 260  : 		{
; 261  : 			/*
; 262  : 			Now we give the vertex and texture coordinates data to OpenGL ES.
; 263  : 			The pMesh has been exported with the "Interleave Vectors" check box on,
; 264  : 			so all the data starts at the address pMesh->pInterleaved but with a different offset.
; 265  : 			Interleaved data makes better use of the cache and thus is faster on embedded devices.
; 266  : 			*/
; 267  : 
; 268  : 			/*
; 269  : 			The geometry can be exported in 4 ways:
; 270  : 			- Non-Indexed Triangle list
; 271  : 			- Indexed Triangle list
; 272  : 			- Non-Indexed Triangle strips
; 273  : 			- Indexed Triangle strips
; 274  : 			*/
; 275  : 			if(!m_psMesh->nNumStrips)

  00008	e5962010	 ldr         r2, [r6, #0x10]
  0000c	e5923020	 ldr         r3, [r2, #0x20]
  00010	e1b01003	 movs        r1, r3

; 276  : 			{
; 277  : 				if(m_psMesh->sFaces.pData)

  00014	e5923018	 ldr         r3, [r2, #0x18]
  00018	1a000018	 bne         |$LN12@DrawMesh|
  0001c	e3530000	 cmp         r3, #0
  00020	0a00000c	 beq         |$LN11@DrawMesh|

; 278  : 				{
; 279  : 					// Indexed Triangle list
; 280  : 					glDrawElements(GL_TRIANGLES, m_psMesh->nNumFaces*3,
; 281  : 						GL_UNSIGNED_SHORT, m_psMesh->sFaces.pData);

  00024	e59f112c	 ldr         r1, [pc, #0x12C]
  00028	e1a03002	 mov         r3, r2
  0002c	e5932004	 ldr         r2, [r3, #4]
  00030	e5914000	 ldr         r4, [r1]
  00034	e3a00b05	 mov         r0, #5, 22
  00038	e0821082	 add         r1, r2, r2, lsl #1
  0003c	e5933018	 ldr         r3, [r3, #0x18]
  00040	e3802003	 orr         r2, r0, #3
  00044	e3a00004	 mov         r0, #4
  00048	e1a0e00f	 mov         lr, pc
  0004c	e12fff14	 bx          r4

; 310  : 					}
; 311  : 				}
; 312  : 			}
; 313  : 		}
; 314  : 	}

  00050	e8bd47f0	 ldmia       sp!, {r4 - r10, lr}
  00054	e12fff1e	 bx          lr
  00058		 |$LN11@DrawMesh|

; 282  : 				}
; 283  : 				else
; 284  : 				{
; 285  : 					// Non-Indexed Triangle list
; 286  : 					glDrawArrays(GL_TRIANGLES, 0, m_psMesh->nNumFaces*3);

  00058	e59f30f4	 ldr         r3, [pc, #0xF4]
  0005c	e5922004	 ldr         r2, [r2, #4]
  00060	e3a01000	 mov         r1, #0
  00064	e5933000	 ldr         r3, [r3]
  00068	e0822082	 add         r2, r2, r2, lsl #1
  0006c	e3a00004	 mov         r0, #4
  00070	e1a0e00f	 mov         lr, pc
  00074	e12fff13	 bx          r3

; 310  : 					}
; 311  : 				}
; 312  : 			}
; 313  : 		}
; 314  : 	}

  00078	e8bd47f0	 ldmia       sp!, {r4 - r10, lr}
  0007c	e12fff1e	 bx          lr
  00080		 |$LN12@DrawMesh|

; 287  : 				}
; 288  : 			}
; 289  : 			else
; 290  : 			{
; 291  : 				if(m_psMesh->sFaces.pData)

  00080	e3530000	 cmp         r3, #0

; 292  : 				{
; 293  : 					// Indexed Triangle strips
; 294  : 					int offset = 0;
; 295  : 					for(int i = 0; i < (int)m_psMesh->nNumStrips; i++)

  00084	e3a07000	 mov         r7, #0
  00088	0a00001a	 beq         |$LN8@DrawMesh|
  0008c	e3a08000	 mov         r8, #0
  00090	e3510000	 cmp         r1, #0
  00094	da00002c	 ble         |$LN1@DrawMesh|
  00098	e59f90b8	 ldr         r9, [pc, #0xB8]
  0009c	e3a0ab05	 mov         r10, #5, 22
  000a0		 |$LL7@DrawMesh|

; 296  : 					{
; 297  : 						glDrawElements(GL_TRIANGLE_STRIP, m_psMesh->pnStripLength[i]+2,
; 298  : 							GL_UNSIGNED_SHORT, m_psMesh->sFaces.pData + offset*2);

  000a0	e5961010	 ldr         r1, [r6, #0x10]
  000a4	e5995000	 ldr         r5, [r9]
  000a8	e38a2003	 orr         r2, r10, #3
  000ac	e591301c	 ldr         r3, [r1, #0x1C]
  000b0	e5911018	 ldr         r1, [r1, #0x18]
  000b4	e3a00005	 mov         r0, #5
  000b8	e7934107	 ldr         r4, [r3, +r7, lsl #2]
  000bc	e0813088	 add         r3, r1, r8, lsl #1
  000c0	e2841002	 add         r1, r4, #2
  000c4	e1a0e00f	 mov         lr, pc
  000c8	e12fff15	 bx          r5

; 299  : 						offset += m_psMesh->pnStripLength[i]+2;

  000cc	e5963010	 ldr         r3, [r6, #0x10]
  000d0	e593201c	 ldr         r2, [r3, #0x1C]
  000d4	e5933020	 ldr         r3, [r3, #0x20]
  000d8	e7922107	 ldr         r2, [r2, +r7, lsl #2]
  000dc	e2877001	 add         r7, r7, #1
  000e0	e1570003	 cmp         r7, r3
  000e4	e0823008	 add         r3, r2, r8
  000e8	e2838002	 add         r8, r3, #2
  000ec	baffffeb	 blt         |$LL7@DrawMesh|

; 310  : 					}
; 311  : 				}
; 312  : 			}
; 313  : 		}
; 314  : 	}

  000f0	e8bd47f0	 ldmia       sp!, {r4 - r10, lr}
  000f4	e12fff1e	 bx          lr
  000f8		 |$LN8@DrawMesh|

; 300  : 					}
; 301  : 				}
; 302  : 				else
; 303  : 				{
; 304  : 					// Non-Indexed Triangle strips
; 305  : 					int offset = 0;
; 306  : 					for(int i = 0; i < (int)m_psMesh->nNumStrips; i++)

  000f8	e3a05000	 mov         r5, #0
  000fc	e3510000	 cmp         r1, #0
  00100	da000011	 ble         |$LN1@DrawMesh|
  00104	e592101c	 ldr         r1, [r2, #0x1C]
  00108	e59f8044	 ldr         r8, [pc, #0x44]
  0010c		 |$LL3@DrawMesh|

; 307  : 					{
; 308  : 						glDrawArrays(GL_TRIANGLE_STRIP, offset, m_psMesh->pnStripLength[i]+2);

  0010c	e7913105	 ldr         r3, [r1, +r5, lsl #2]
  00110	e5984000	 ldr         r4, [r8]
  00114	e1a01007	 mov         r1, r7
  00118	e2832002	 add         r2, r3, #2
  0011c	e3a00005	 mov         r0, #5
  00120	e1a0e00f	 mov         lr, pc
  00124	e12fff14	 bx          r4

; 309  : 						offset += m_psMesh->pnStripLength[i]+2;

  00128	e5963010	 ldr         r3, [r6, #0x10]
  0012c	e593101c	 ldr         r1, [r3, #0x1C]
  00130	e5933020	 ldr         r3, [r3, #0x20]
  00134	e7912105	 ldr         r2, [r1, +r5, lsl #2]
  00138	e2855001	 add         r5, r5, #1
  0013c	e1550003	 cmp         r5, r3
  00140	e0823007	 add         r3, r2, r7
  00144	e2837002	 add         r7, r3, #2
  00148	baffffef	 blt         |$LL3@DrawMesh|
  0014c		 |$LN1@DrawMesh|

; 310  : 					}
; 311  : 				}
; 312  : 			}
; 313  : 		}
; 314  : 	}

  0014c	e8bd47f0	 ldmia       sp!, {r4 - r10, lr}
  00150	e12fff1e	 bx          lr
  00154		 |$LN22@DrawMesh|
  00154		 |$LN23@DrawMesh|
  00154	00000000	 DCD         |__imp_glDrawArrays|
  00158		 |$LN24@DrawMesh|
  00158	00000000	 DCD         |__imp_glDrawElements|
  0015c		 |$M37753|

			 ENDP  ; |?DrawMesh@Mesh@pvrengine@@AAAXXZ|, pvrengine::Mesh::DrawMesh

	EXPORT	|?DrawWireframeMesh@Mesh@pvrengine@@AAAXXZ| ; pvrengine::Mesh::DrawWireframeMesh

  00000			 AREA	 |.pdata|, PDATA
|$T37766| DCD	|$LN5@DrawWirefr|
	DCD	0x40001001
; Function compile flags: /Ogspy

  00000			 AREA	 |.text|, CODE, ARM

  00000		 |?DrawWireframeMesh@Mesh@pvrengine@@AAAXXZ| PROC ; pvrengine::Mesh::DrawWireframeMesh

; 319  : 	{

  00000		 |$LN5@DrawWirefr|
  00000	e92d4010	 stmdb       sp!, {r4, lr}
  00004		 |$M37763|

; 320  : 		{
; 321  : 			/*
; 322  : 			Now we give the vertex and texture coordinates data to OpenGL ES.
; 323  : 			The pMesh has been exported with the "Interleave Vectors" check box on,
; 324  : 			so all the data starts at the address pMesh->pInterleaved but with a different offset.
; 325  : 			Interleaved data makes better use of the cache and thus is faster on embedded devices.
; 326  : 			*/
; 327  : 
; 328  : 			/*
; 329  : 			The geometry can be exported in 4 ways:
; 330  : 			- Non-Indexed Triangle list
; 331  : 			- Indexed Triangle list
; 332  : 			- Non-Indexed Triangle strips
; 333  : 			- Indexed Triangle strips
; 334  : 			*/
; 335  : 			// Indexed Triangle list
; 336  : 			glDrawElements(GL_LINES, m_psMesh->nNumFaces*6,
; 337  : 				GL_UNSIGNED_SHORT, m_psMesh->sFaces.pData);

  00004	e5903010	 ldr         r3, [r0, #0x10]
  00008	e59f102c	 ldr         r1, [pc, #0x2C]
  0000c	e3a00b05	 mov         r0, #5, 22
  00010	e5932004	 ldr         r2, [r3, #4]
  00014	e5914000	 ldr         r4, [r1]
  00018	e5933018	 ldr         r3, [r3, #0x18]
  0001c	e0822082	 add         r2, r2, r2, lsl #1
  00020	e1a01082	 mov         r1, r2, lsl #1
  00024	e3802003	 orr         r2, r0, #3
  00028	e3a00001	 mov         r0, #1
  0002c	e1a0e00f	 mov         lr, pc
  00030	e12fff14	 bx          r4

; 338  : 		}
; 339  : 	}

  00034	e8bd4010	 ldmia       sp!, {r4, lr}
  00038	e12fff1e	 bx          lr
  0003c		 |$LN6@DrawWirefr|
  0003c		 |$LN7@DrawWirefr|
  0003c	00000000	 DCD         |__imp_glDrawElements|
  00040		 |$M37764|

			 ENDP  ; |?DrawWireframeMesh@Mesh@pvrengine@@AAAXXZ|, pvrengine::Mesh::DrawWireframeMesh

	EXPORT	|?DrawSkinned@Mesh@pvrengine@@AAAXXZ|	; pvrengine::Mesh::DrawSkinned
	IMPORT	|??0PVRTMat3@@QAA@ABUPVRTMat4@@@Z|	; PVRTMat3::PVRTMat3
	IMPORT	|?inverse@PVRTMat4@@QBA?AU1@XZ|		; PVRTMat4::inverse
	IMPORT	|?GetBoneWorldMatrix@CPVRTModelPOD@@QAA?AUPVRTMat4@@ABUSPODNode@@0@Z| ; CPVRTModelPOD::GetBoneWorldMatrix
	IMPORT	|__imp_glUniformMatrix4fv|
	IMPORT	|__imp_glUniformMatrix3fv|
	IMPORT	|__imp_glUniform1i|
	IMPORT	|memcpy|
; File c:\wince600\public\powervr-sdk\ogles2\tools\pvrtvector.h

  00000			 AREA	 |.pdata|, PDATA
|$T37832| DCD	|$LN45@DrawSkinne|
	DCD	0x40008602
; Function compile flags: /Ogspy
; File c:\wince600\public\powervr-sdk\ogles2\extras\pvrengine\ogles2\mesh.cpp

  00000			 AREA	 |.text|, CODE, ARM

  00000		 |?DrawSkinned@Mesh@pvrengine@@AAAXXZ| PROC ; pvrengine::Mesh::DrawSkinned

; 344  : 	{

  00000		 |$LN45@DrawSkinne|
  00000	e92d4ff0	 stmdb       sp!, {r4 - r11, lr}
  00004	e24dde3e	 sub         sp, sp, #0x3E, 28
  00008		 |$M37829|
  00008	e1a06000	 mov         r6, r0

; 345  : 		/*
; 346  : 		There is a limit to the number of bone matrices that you can pass to the shader so we have
; 347  : 		chosen to limit the number of bone matrices that affect a mesh to 8. However, this does
; 348  : 		not mean our character can only have a skeleton consisting of 8 bones. We can get around
; 349  : 		this by using bone batching where the character is split up into sub-meshes that are only
; 350  : 		affected by a sub set of the overal skeleton. This is why we have this for loop that
; 351  : 		iterates through the bone batches contained within the SPODMesh.
; 352  : 		*/
; 353  : 
; 354  : 
; 355  : 		for (int i32Batch = 0; i32Batch <m_psMesh->sBoneBatches.nBatchCnt; ++i32Batch)

  0000c	e5962010	 ldr         r2, [r6, #0x10]
  00010	e3a07000	 mov         r7, #0
  00014	e59230ac	 ldr         r3, [r2, #0xAC]
  00018	e3530000	 cmp         r3, #0
  0001c	da000076	 ble         |$LN8@DrawSkinne|
  00020	e59fe1e4	 ldr         lr, [pc, #0x1E4]
  00024	e59f41dc	 ldr         r4, [pc, #0x1DC]
  00028	e3a09b05	 mov         r9, #5, 22
  0002c	e1a0b00e	 mov         r11, lr
  00030		 |$LL10@DrawSkinne|

; 356  : 		{
; 357  : 			/*
; 358  : 			If the current mesh has bone index and weight data then we need to
; 359  : 			set up some additional variables in the shaders.
; 360  : 			*/
; 361  : 			if(m_psMesh->sBoneIdx.pData && m_psMesh->sBoneWeight.pData)

  00030	e5923084	 ldr         r3, [r2, #0x84]
  00034	e3530000	 cmp         r3, #0
  00038	0a000049	 beq         |$LN7@DrawSkinne|
  0003c	e5923094	 ldr         r3, [r2, #0x94]
  00040	e3530000	 cmp         r3, #0
  00044	0a000046	 beq         |$LN7@DrawSkinne|

; 362  : 			{
; 363  : 				// Set the number of bones that will influence each vertex in the mesh
; 364  : 				glUniform1i(m_gliSkinningLocations[eBoneCount], m_psMesh->sBoneIdx.n);

  00048	e592107c	 ldr         r1, [r2, #0x7C]
  0004c	e59601d0	 ldr         r0, [r6, #0x1D0]
  00050	e59e3000	 ldr         r3, [lr]
  00054	e1a0e00f	 mov         lr, pc
  00058	e12fff13	 bx          r3

; 365  : 
; 366  : 				// Go through the bones for the current bone batch
; 367  : 				PVRTMat4 amBoneWorld[8];
; 368  : 				PVRTMat3 amBoneWorldIT[8];
; 369  : 				for(int i = 0; i < m_psMesh->sBoneBatches.pnBatchBoneCnt[i32Batch]; i++)

  0005c	e5963010	 ldr         r3, [r6, #0x10]
  00060	e3a0a000	 mov         r10, #0
  00064	e59330a0	 ldr         r3, [r3, #0xA0]
  00068	e7933107	 ldr         r3, [r3, +r7, lsl #2]
  0006c	e3530000	 cmp         r3, #0
  00070	da000029	 ble         |$LN4@DrawSkinne|
  00074	e28d90c0	 add         r9, sp, #0xC0
  00078	e28d8e1e	 add         r8, sp, #0x1E, 28
  0007c		 |$LL6@DrawSkinne|

; 370  : 				{
; 371  : 					// Get the Node of the bone
; 372  : 					int i32NodeID = m_psMesh->sBoneBatches.pnBatches[i32Batch * m_psMesh->sBoneBatches.nBatchBoneMax + i];

  0007c	e5962010	 ldr         r2, [r6, #0x10]

; 373  : 
; 374  : 					// Get the World transformation matrix for this bone
; 375  : 					amBoneWorld[i] = m_psScene->GetBoneWorldMatrix(*m_psNode, m_psScene->pNode[i32NodeID]);

  00080	e5960008	 ldr         r0, [r6, #8]
  00084	e28d1000	 add         r1, sp, #0
  00088	e59230a8	 ldr         r3, [r2, #0xA8]
  0008c	e592409c	 ldr         r4, [r2, #0x9C]
  00090	e5905038	 ldr         r5, [r0, #0x38]
  00094	e02ea793	 mla         lr, r3, r7, r10
  00098	e596200c	 ldr         r2, [r6, #0xC]
  0009c	e794310e	 ldr         r3, [r4, +lr, lsl #2]
  000a0	e0833183	 add         r3, r3, r3, lsl #3
  000a4	e0853103	 add         r3, r5, r3, lsl #2
  000a8	eb000000	 bl          |?GetBoneWorldMatrix@CPVRTModelPOD@@QAA?AUPVRTMat4@@ABUSPODNode@@0@Z|
  000ac	e0400008	 sub         r0, r0, r8
  000b0	e1a02008	 mov         r2, r8
  000b4	e3a01010	 mov         r1, #0x10
  000b8		 |$LL27@DrawSkinne|
  000b8	e7903002	 ldr         r3, [r0, +r2]
  000bc	e2511001	 subs        r1, r1, #1
  000c0	e4823004	 str         r3, [r2], #4
  000c4	1afffffb	 bne         |$LL27@DrawSkinne|

; 376  : 
; 377  : 					// Calculate the inverse transpose of the 3x3 rotation/scale part for correct lighting
; 378  : 					amBoneWorldIT[i] = PVRTMat3(amBoneWorld[i].inverse().transpose());

  000c8	e28d1080	 add         r1, sp, #0x80
  000cc	e1a00008	 mov         r0, r8
  000d0	eb000000	 bl          |?inverse@PVRTMat4@@QBA?AU1@XZ|
  000d4	e28d1040	 add         r1, sp, #0x40
  000d8	eb000000	 bl          |?transpose@PVRTMat4@@QBA?AU1@XZ|
  000dc	e1a01000	 mov         r1, r0
  000e0	e28d0000	 add         r0, sp, #0
  000e4	eb000000	 bl          |??0PVRTMat3@@QAA@ABUPVRTMat4@@@Z|
  000e8	e1a01000	 mov         r1, r0
  000ec	e1a00009	 mov         r0, r9
  000f0	e3a02024	 mov         r2, #0x24
  000f4	eb000000	 bl          memcpy
  000f8	e5963010	 ldr         r3, [r6, #0x10]
  000fc	e28aa001	 add         r10, r10, #1
  00100	e2888040	 add         r8, r8, #0x40
  00104	e59330a0	 ldr         r3, [r3, #0xA0]
  00108	e2899024	 add         r9, r9, #0x24
  0010c	e7933107	 ldr         r3, [r3, +r7, lsl #2]
  00110	e15a0003	 cmp         r10, r3
  00114	baffffd8	 blt         |$LL6@DrawSkinne|
  00118	e3a09b05	 mov         r9, #5, 22
  0011c		 |$LN4@DrawSkinne|

; 379  : 				}
; 380  : 
; 381  : 				glUniformMatrix4fv(m_gliSkinningLocations[eBoneMatrices], 8, GL_FALSE, amBoneWorld[0].ptr());

  0011c	e59f30f0	 ldr         r3, [pc, #0xF0]
  00120	e59601d4	 ldr         r0, [r6, #0x1D4]
  00124	e3a02000	 mov         r2, #0
  00128	e5934000	 ldr         r4, [r3]
  0012c	e28d3e1e	 add         r3, sp, #0x1E, 28
  00130	e3a01008	 mov         r1, #8
  00134	e1a0e00f	 mov         lr, pc
  00138	e12fff14	 bx          r4

; 382  : 				glUniformMatrix3fv(m_gliSkinningLocations[eBoneMatricesIT], 8, GL_FALSE, amBoneWorldIT[0].f);

  0013c	e59f30cc	 ldr         r3, [pc, #0xCC]
  00140	e59601dc	 ldr         r0, [r6, #0x1DC]
  00144	e3a02000	 mov         r2, #0
  00148	e5934000	 ldr         r4, [r3]
  0014c	e28d30c0	 add         r3, sp, #0xC0
  00150	e3a01008	 mov         r1, #8
  00154	e1a0e00f	 mov         lr, pc
  00158	e12fff14	 bx          r4

; 383  : 			}
; 384  : 			else

  0015c	e59f40a4	 ldr         r4, [pc, #0xA4]
  00160	ea000004	 b           |$LN3@DrawSkinne|
  00164		 |$LN7@DrawSkinne|

; 385  : 			{
; 386  : 				glUniform1i(m_gliSkinningLocations[eBoneCount], 0);

  00164	e59601d0	 ldr         r0, [r6, #0x1D0]
  00168	e59b3000	 ldr         r3, [r11]
  0016c	e3a01000	 mov         r1, #0
  00170	e1a0e00f	 mov         lr, pc
  00174	e12fff13	 bx          r3
  00178		 |$LN3@DrawSkinne|

; 387  : 			}
; 388  : 			/*
; 389  : 			As we are using bone batching we don't want to draw all the faces contained within pMesh, we only want
; 390  : 			to draw the ones that are in the current batch. To do this we pass to the drawMesh function the offset
; 391  : 			to the start of the current batch of triangles (Mesh.sBoneBatches.pnBatchOffset[i32Batch]) and the
; 392  : 			total number of triangles to draw (i32Tris)
; 393  : 			*/
; 394  : 			int i32Tris;
; 395  : 			if(i32Batch+1 < m_psMesh->sBoneBatches.nBatchCnt)

  00178	e5963010	 ldr         r3, [r6, #0x10]
  0017c	e2878001	 add         r8, r7, #1

; 396  : 				i32Tris = m_psMesh->sBoneBatches.pnBatchOffset[i32Batch+1] - m_psMesh->sBoneBatches.pnBatchOffset[i32Batch];
; 397  : 			else
; 398  : 				i32Tris = m_psMesh->nNumFaces - m_psMesh->sBoneBatches.pnBatchOffset[i32Batch];
; 399  : 
; 400  : 			glDrawElements(GL_TRIANGLES, i32Tris*3,
; 401  : 				GL_UNSIGNED_SHORT,
; 402  : 				&((unsigned short*)m_psMesh->sFaces.pData)[3*m_psMesh->sBoneBatches.pnBatchOffset[i32Batch]]);

  00180	e5945000	 ldr         r5, [r4]
  00184	e59330ac	 ldr         r3, [r3, #0xAC]
  00188	e1580003	 cmp         r8, r3
  0018c	b5963010	 ldrlt       r3, [r6, #0x10]
  00190	b59310a4	 ldrlt       r1, [r3, #0xA4]
  00194	b0813107	 addlt       r3, r1, r7, lsl #2
  00198	b5932004	 ldrlt       r2, [r3, #4]
  0019c	a5962010	 ldrge       r2, [r6, #0x10]
  001a0	b7913107	 ldrlt       r3, [r1, +r7, lsl #2]
  001a4	e5961010	 ldr         r1, [r6, #0x10]
  001a8	a59230a4	 ldrge       r3, [r2, #0xA4]
  001ac	a5922004	 ldrge       r2, [r2, #4]
  001b0	e5914018	 ldr         r4, [r1, #0x18]
  001b4	a7933107	 ldrge       r3, [r3, +r7, lsl #2]
  001b8	e0420003	 sub         r0, r2, r3
  001bc	e59130a4	 ldr         r3, [r1, #0xA4]
  001c0	e0801080	 add         r1, r0, r0, lsl #1
  001c4	e3892003	 orr         r2, r9, #3
  001c8	e7933107	 ldr         r3, [r3, +r7, lsl #2]
  001cc	e3a00004	 mov         r0, #4
  001d0	e0833083	 add         r3, r3, r3, lsl #1
  001d4	e0843083	 add         r3, r4, r3, lsl #1
  001d8	e1a0e00f	 mov         lr, pc
  001dc	e12fff15	 bx          r5
  001e0	e5962010	 ldr         r2, [r6, #0x10]
  001e4	e59fe020	 ldr         lr, [pc, #0x20]
  001e8	e59f4018	 ldr         r4, [pc, #0x18]
  001ec	e59230ac	 ldr         r3, [r2, #0xAC]
  001f0	e1a07008	 mov         r7, r8
  001f4	e1580003	 cmp         r8, r3
  001f8	baffff8c	 blt         |$LL10@DrawSkinne|
  001fc		 |$LN8@DrawSkinne|

; 403  : 		}
; 404  : 	}

  001fc	e28dde3e	 add         sp, sp, #0x3E, 28
  00200	e8bd4ff0	 ldmia       sp!, {r4 - r11, lr}
  00204	e12fff1e	 bx          lr
  00208		 |$LN46@DrawSkinne|
  00208		 |$LN47@DrawSkinne|
  00208	00000000	 DCD         |__imp_glDrawElements|
  0020c		 |$LN48@DrawSkinne|
  0020c	00000000	 DCD         |__imp_glUniform1i|
  00210		 |$LN49@DrawSkinne|
  00210	00000000	 DCD         |__imp_glUniformMatrix3fv|
  00214		 |$LN50@DrawSkinne|
  00214	00000000	 DCD         |__imp_glUniformMatrix4fv|
  00218		 |$M37830|

			 ENDP  ; |?DrawSkinned@Mesh@pvrengine@@AAAXXZ|, pvrengine::Mesh::DrawSkinned

	EXPORT	|?DrawBounds@Mesh@pvrengine@@AAAXXZ|	; pvrengine::Mesh::DrawBounds

  00000			 AREA	 |.pdata|, PDATA
|$T37844| DCD	|$LN5@DrawBounds|
	DCD	0x40000e01
; Function compile flags: /Ogspy

  00000			 AREA	 |.text|, CODE, ARM

  00000		 |?DrawBounds@Mesh@pvrengine@@AAAXXZ| PROC ; pvrengine::Mesh::DrawBounds

; 415  : 	{

  00000		 |$LN5@DrawBounds|
  00000	e92d4010	 stmdb       sp!, {r4, lr}
  00004		 |$M37841|

; 416  : 		// Indexed Triangle list
; 417  : 		glDrawElements(GL_LINES,40,GL_UNSIGNED_SHORT,pBoundingBoxIndices);

  00004	e59f2028	 ldr         r2, [pc, #0x28]
  00008	e3a01b05	 mov         r1, #5, 22
  0000c	e59f301c	 ldr         r3, [pc, #0x1C]
  00010	e5924000	 ldr         r4, [r2]
  00014	e3812003	 orr         r2, r1, #3
  00018	e3a01028	 mov         r1, #0x28
  0001c	e3a00001	 mov         r0, #1
  00020	e1a0e00f	 mov         lr, pc
  00024	e12fff14	 bx          r4

; 418  : 	}

  00028	e8bd4010	 ldmia       sp!, {r4, lr}
  0002c	e12fff1e	 bx          lr
  00030		 |$LN6@DrawBounds|
  00030		 |$LN7@DrawBounds|
  00030	00000000	 DCD         |pBoundingBoxIndices|
  00034		 |$LN8@DrawBounds|
  00034	00000000	 DCD         |__imp_glDrawElements|
  00038		 |$M37842|

			 ENDP  ; |?DrawBounds@Mesh@pvrengine@@AAAXXZ|, pvrengine::Mesh::DrawBounds

	EXPORT	|??A?$dynamicArray@VUniform@pvrengine@@@@QAAAAVUniform@pvrengine@@H@Z| ; dynamicArray<pvrengine::Uniform>::operator[]
; File c:\wince600\public\powervr-sdk\ogles2\extras\pvrengine\include\dynamicarray.h

  00000			 AREA	 |.pdata|, PDATA
|$T37858| DCD	|$LN5@operator@2|
	DCD	0x40000400
; Function compile flags: /Ogspy

  00000			 AREA	 |.text|, CODE, ARM

  00000		 |??A?$dynamicArray@VUniform@pvrengine@@@@QAAAAVUniform@pvrengine@@H@Z| PROC ; dynamicArray<pvrengine::Uniform>::operator[]

; 216  : 	{

  00000		 |$LN5@operator@2|
  00000		 |$M37855|

; 217  : 		_ASSERT(i32Index<m_i32Capacity);
; 218  : 		return m_pArray[i32Index];

  00000	e5902008	 ldr         r2, [r0, #8]
  00004	e0813081	 add         r3, r1, r1, lsl #1
  00008	e0820103	 add         r0, r2, r3, lsl #2

; 219  : 	}

  0000c	e12fff1e	 bx          lr
  00010		 |$M37856|

			 ENDP  ; |??A?$dynamicArray@VUniform@pvrengine@@@@QAAAAVUniform@pvrengine@@H@Z|, dynamicArray<pvrengine::Uniform>::operator[]

	EXPORT	|?getSize@?$dynamicArray@VUniform@pvrengine@@@@QBAIXZ| ; dynamicArray<pvrengine::Uniform>::getSize

  00000			 AREA	 |.pdata|, PDATA
|$T37868| DCD	|$LN5@getSize|
	DCD	0x40000200
; Function compile flags: /Ogspy

  00000			 AREA	 |.text|, CODE, ARM

  00000		 |?getSize@?$dynamicArray@VUniform@pvrengine@@@@QBAIXZ| PROC ; dynamicArray<pvrengine::Uniform>::getSize

; 240  : 	{

  00000		 |$LN5@getSize|
  00000		 |$M37865|

; 241  : 		return m_i32Size;

  00000	e5900000	 ldr         r0, [r0]

; 242  : 	}

  00004	e12fff1e	 bx          lr
  00008		 |$M37866|

			 ENDP  ; |?getSize@?$dynamicArray@VUniform@pvrengine@@@@QBAIXZ|, dynamicArray<pvrengine::Uniform>::getSize

	EXPORT	|??1?$dynamicArray@USPVRTPFXUniform@@@@QAA@XZ| ; dynamicArray<SPVRTPFXUniform>::~dynamicArray<SPVRTPFXUniform>
	IMPORT	|??3@YAXPAX@Z|				; operator delete

  00000			 AREA	 |.pdata|, PDATA
|$T37877| DCD	|$LN6@dynamicArr|
	DCD	0x40000701
; Function compile flags: /Ogspy

  00000			 AREA	 |.text|, CODE, ARM

  00000		 |??1?$dynamicArray@USPVRTPFXUniform@@@@QAA@XZ| PROC ; dynamicArray<SPVRTPFXUniform>::~dynamicArray<SPVRTPFXUniform>

; 113  : 	{

  00000		 |$LN6@dynamicArr|
  00000	e52de004	 str         lr, [sp, #-4]!
  00004		 |$M37874|

; 114  : 		if(m_pArray)

  00004	e5903008	 ldr         r3, [r0, #8]
  00008	e3530000	 cmp         r3, #0

; 115  : 			delete[](m_pArray);

  0000c	11a00003	 movne       r0, r3
  00010	1b000000	 blne        |??3@YAXPAX@Z|

; 116  : 	}

  00014	e49de004	 ldr         lr, [sp], #4
  00018	e12fff1e	 bx          lr
  0001c		 |$M37875|

			 ENDP  ; |??1?$dynamicArray@USPVRTPFXUniform@@@@QAA@XZ|, dynamicArray<SPVRTPFXUniform>::~dynamicArray<SPVRTPFXUniform>

	EXPORT	|??0?$CPVRTSingleton@VUniformHandler@pvrengine@@@@IAA@XZ| ; CPVRTSingleton<pvrengine::UniformHandler>::CPVRTSingleton<pvrengine::UniformHandler>
	EXPORT	|??_7?$CPVRTSingleton@VUniformHandler@pvrengine@@@@6B@| [ DATA ] ; CPVRTSingleton<pvrengine::UniformHandler>::`vftable'
	IMPORT	|??_E?$CPVRTSingleton@VUniformHandler@pvrengine@@@@MAAPAXI@Z|, WEAK |??_G?$CPVRTSingleton@VUniformHandler@pvrengine@@@@MAAPAXI@Z| ; CPVRTSingleton<pvrengine::UniformHandler>::`vector deleting destructor', CPVRTSingleton<pvrengine::UniformHandler>::`scalar deleting destructor'
; File c:\wince600\public\powervr-sdk\ogles2\tools\pvrtsingleton.h

  00000			 AREA	 |.pdata|, PDATA
|$T37887| DCD	|$LN5@CPVRTSingl|
	DCD	0x40000500

  00000			 AREA	 |.rdata|, DATA, READONLY
|??_7?$CPVRTSingleton@VUniformHandler@pvrengine@@@@6B@| DCD |??_E?$CPVRTSingleton@VUniformHandler@pvrengine@@@@MAAPAXI@Z| ; CPVRTSingleton<pvrengine::UniformHandler>::`vftable'
; Function compile flags: /Ogspy

  00000			 AREA	 |.text|, CODE, ARM

  00000		 |??0?$CPVRTSingleton@VUniformHandler@pvrengine@@@@IAA@XZ| PROC ; CPVRTSingleton<pvrengine::UniformHandler>::CPVRTSingleton<pvrengine::UniformHandler>

; 37   : 	CPVRTSingleton() {};

  00000		 |$LN5@CPVRTSingl|
  00000		 |$M37884|
  00000	e1a02000	 mov         r2, r0
  00004	e59f3004	 ldr         r3, [pc, #4]
  00008	e5823000	 str         r3, [r2]
  0000c	e12fff1e	 bx          lr
  00010		 |$LN6@CPVRTSingl|
  00010		 |$LN7@CPVRTSingl|
  00010	00000000	 DCD         |??_7?$CPVRTSingleton@VUniformHandler@pvrengine@@@@6B@|
  00014		 |$M37885|

			 ENDP  ; |??0?$CPVRTSingleton@VUniformHandler@pvrengine@@@@IAA@XZ|, CPVRTSingleton<pvrengine::UniformHandler>::CPVRTSingleton<pvrengine::UniformHandler>

	EXPORT	|??1?$CPVRTSingleton@VUniformHandler@pvrengine@@@@MAA@XZ| ; CPVRTSingleton<pvrengine::UniformHandler>::~CPVRTSingleton<pvrengine::UniformHandler>

  00000			 AREA	 |.pdata|, PDATA
|$T37897| DCD	|$LN5@CPVRTSingl@2|
	DCD	0x40000400
; Function compile flags: /Ogspy

  00000			 AREA	 |.text|, CODE, ARM

  00000		 |??1?$CPVRTSingleton@VUniformHandler@pvrengine@@@@MAA@XZ| PROC ; CPVRTSingleton<pvrengine::UniformHandler>::~CPVRTSingleton<pvrengine::UniformHandler>

; 38   : 	virtual ~CPVRTSingleton() {};

  00000		 |$LN5@CPVRTSingl@2|
  00000		 |$M37894|
  00000	e59f3004	 ldr         r3, [pc, #4]
  00004	e5803000	 str         r3, [r0]
  00008	e12fff1e	 bx          lr
  0000c		 |$LN6@CPVRTSingl@2|
  0000c		 |$LN7@CPVRTSingl@2|
  0000c	00000000	 DCD         |??_7?$CPVRTSingleton@VUniformHandler@pvrengine@@@@6B@|
  00010		 |$M37895|

			 ENDP  ; |??1?$CPVRTSingleton@VUniformHandler@pvrengine@@@@MAA@XZ|, CPVRTSingleton<pvrengine::UniformHandler>::~CPVRTSingleton<pvrengine::UniformHandler>


  00000			 AREA	 |.pdata|, PDATA
|$T37913| DCD	|$LN8@scalar|
	DCD	0x40000a01
; Function compile flags: /Ogspy

  00000			 AREA	 |.text|, CODE, ARM

  00000		 |??_G?$CPVRTSingleton@VUniformHandler@pvrengine@@@@MAAPAXI@Z| PROC ; CPVRTSingleton<pvrengine::UniformHandler>::`scalar deleting destructor'
  00000		 |$LN8@scalar|
  00000	e92d4010	 stmdb       sp!, {r4, lr}
  00004		 |$M37910|
  00004	e1a04000	 mov         r4, r0
  00008	e59f3014	 ldr         r3, [pc, #0x14]
  0000c	e3110001	 tst         r1, #1
  00010	e5843000	 str         r3, [r4]
  00014	1b000000	 blne        |??3@YAXPAX@Z|
  00018	e1a00004	 mov         r0, r4
  0001c	e8bd4010	 ldmia       sp!, {r4, lr}
  00020	e12fff1e	 bx          lr
  00024		 |$LN9@scalar|
  00024		 |$LN10@scalar|
  00024	00000000	 DCD         |??_7?$CPVRTSingleton@VUniformHandler@pvrengine@@@@6B@|
  00028		 |$M37911|

			 ENDP  ; |??_G?$CPVRTSingleton@VUniformHandler@pvrengine@@@@MAAPAXI@Z|, CPVRTSingleton<pvrengine::UniformHandler>::`scalar deleting destructor'

	EXPORT	|??0UniformHandler@pvrengine@@QAA@XZ|	; pvrengine::UniformHandler::UniformHandler
	EXPORT	|??_7UniformHandler@pvrengine@@6B@| [ DATA ] ; pvrengine::UniformHandler::`vftable'
	IMPORT	|?ResetFrameUniforms@UniformHandler@pvrengine@@QAAXXZ| ; pvrengine::UniformHandler::ResetFrameUniforms
	IMPORT	|??_EUniformHandler@pvrengine@@UAAPAXI@Z|, WEAK |??_GUniformHandler@pvrengine@@UAAPAXI@Z| ; pvrengine::UniformHandler::`vector deleting destructor', pvrengine::UniformHandler::`scalar deleting destructor'
; File c:\wince600\public\powervr-sdk\ogles2\tools\pvrtvector.h

  00000			 AREA	 |.pdata|, PDATA
|$T38032| DCD	|$LN71@UniformHan|
	DCD	0x40000901

  00000			 AREA	 |.rdata|, DATA, READONLY
|??_7UniformHandler@pvrengine@@6B@| DCD |??_EUniformHandler@pvrengine@@UAAPAXI@Z| ; pvrengine::UniformHandler::`vftable'
; Function compile flags: /Ogspy
; File c:\wince600\public\powervr-sdk\ogles2\extras\pvrengine\include\ogles2\uniformhandler.h

  00000			 AREA	 |.text|, CODE, ARM

  00000		 |??0UniformHandler@pvrengine@@QAA@XZ| PROC ; pvrengine::UniformHandler::UniformHandler

; 48   : 		UniformHandler()	{ResetFrameUniforms();}

  00000		 |$LN71@UniformHan|
  00000	e92d4010	 stmdb       sp!, {r4, lr}
  00004		 |$M38029|
  00004	e1a04000	 mov         r4, r0
  00008	e59f3010	 ldr         r3, [pc, #0x10]
  0000c	e5843000	 str         r3, [r4]
  00010	eb000000	 bl          |?ResetFrameUniforms@UniformHandler@pvrengine@@QAAXXZ|
  00014	e1a00004	 mov         r0, r4
  00018	e8bd4010	 ldmia       sp!, {r4, lr}
  0001c	e12fff1e	 bx          lr
  00020		 |$LN72@UniformHan|
  00020		 |$LN73@UniformHan|
  00020	00000000	 DCD         |??_7UniformHandler@pvrengine@@6B@|
  00024		 |$M38030|

			 ENDP  ; |??0UniformHandler@pvrengine@@QAA@XZ|, pvrengine::UniformHandler::UniformHandler

	EXPORT	|??1UniformHandler@pvrengine@@UAA@XZ|	; pvrengine::UniformHandler::~UniformHandler
; File c:\wince600\public\powervr-sdk\ogles2\tools\pvrtsingleton.h

  00000			 AREA	 |.pdata|, PDATA
|$T38045| DCD	|$LN7@UniformHan@2|
	DCD	0x40000400
; Function compile flags: /Ogspy
; File c:\wince600\public\powervr-sdk\ogles2\extras\pvrengine\include\ogles2\uniformhandler.h

  00000			 AREA	 |.text|, CODE, ARM

  00000		 |??1UniformHandler@pvrengine@@UAA@XZ| PROC ; pvrengine::UniformHandler::~UniformHandler

; 54   : 		~UniformHandler(){}

  00000		 |$LN7@UniformHan@2|
  00000		 |$M38042|
  00000	e59f3004	 ldr         r3, [pc, #4]
  00004	e5803000	 str         r3, [r0]
  00008	e12fff1e	 bx          lr
  0000c		 |$LN8@UniformHan@2|
  0000c		 |$LN9@UniformHan@2|
  0000c	00000000	 DCD         |??_7?$CPVRTSingleton@VUniformHandler@pvrengine@@@@6B@|
  00010		 |$M38043|

			 ENDP  ; |??1UniformHandler@pvrengine@@UAA@XZ|, pvrengine::UniformHandler::~UniformHandler


  00000			 AREA	 |.pdata|, PDATA
|$T38066| DCD	|$LN10@scalar@2|
	DCD	0x40000a01
; Function compile flags: /Ogspy

  00000			 AREA	 |.text|, CODE, ARM

  00000		 |??_GUniformHandler@pvrengine@@UAAPAXI@Z| PROC ; pvrengine::UniformHandler::`scalar deleting destructor'
  00000		 |$LN10@scalar@2|
  00000	e92d4010	 stmdb       sp!, {r4, lr}
  00004		 |$M38063|
  00004	e1a04000	 mov         r4, r0
  00008	e59f3014	 ldr         r3, [pc, #0x14]
  0000c	e3110001	 tst         r1, #1
  00010	e5843000	 str         r3, [r4]
  00014	1b000000	 blne        |??3@YAXPAX@Z|
  00018	e1a00004	 mov         r0, r4
  0001c	e8bd4010	 ldmia       sp!, {r4, lr}
  00020	e12fff1e	 bx          lr
  00024		 |$LN11@scalar@2|
  00024		 |$LN12@scalar@2|
  00024	00000000	 DCD         |??_7?$CPVRTSingleton@VUniformHandler@pvrengine@@@@6B@|
  00028		 |$M38064|

			 ENDP  ; |??_GUniformHandler@pvrengine@@UAAPAXI@Z|, pvrengine::UniformHandler::`scalar deleting destructor'

	EXPORT	|??1Mesh@pvrengine@@QAA@XZ|		; pvrengine::Mesh::~Mesh
	IMPORT	|__imp_glDeleteBuffers|
; File c:\wince600\public\powervr-sdk\ogles2\extras\pvrengine\include\dynamicarray.h

  00000			 AREA	 |.pdata|, PDATA
|$T38084| DCD	|$LN8@Mesh|
	DCD	0x40000f01
; Function compile flags: /Ogspy
; File c:\wince600\public\powervr-sdk\ogles2\extras\pvrengine\ogles2\mesh.cpp

  00000			 AREA	 |.text|, CODE, ARM

  00000		 |??1Mesh@pvrengine@@QAA@XZ| PROC	; pvrengine::Mesh::~Mesh

; 25   : 	{

  00000		 |$LN8@Mesh|
  00000	e92d4010	 stmdb       sp!, {r4, lr}
  00004		 |$M38081|
  00004	e1a04000	 mov         r4, r0

; 26   : 		glDeleteBuffers(1,&m_gluBuffer);

  00008	e59f3028	 ldr         r3, [pc, #0x28]
  0000c	e1a01004	 mov         r1, r4
  00010	e3a00001	 mov         r0, #1
  00014	e5933000	 ldr         r3, [r3]
  00018	e1a0e00f	 mov         lr, pc
  0001c	e12fff13	 bx          r3

; 27   : 	}

  00020	e59431e8	 ldr         r3, [r4, #0x1E8]
  00024	e3530000	 cmp         r3, #0
  00028	11a00003	 movne       r0, r3
  0002c	1b000000	 blne        |??3@YAXPAX@Z|
  00030	e8bd4010	 ldmia       sp!, {r4, lr}
  00034	e12fff1e	 bx          lr
  00038		 |$LN9@Mesh|
  00038		 |$LN10@Mesh|
  00038	00000000	 DCD         |__imp_glDeleteBuffers|
  0003c		 |$M38082|

			 ENDP  ; |??1Mesh@pvrengine@@QAA@XZ|, pvrengine::Mesh::~Mesh

	EXPORT	|??__Fobject@?1??inst@?$CPVRTSingleton@VConsoleLog@pvrengine@@@@SAAAVConsoleLog@pvrengine@@XZ@YAXXZ| ; `CPVRTSingleton<pvrengine::ConsoleLog>::inst'::`2'::`dynamic atexit destructor for 'object''
	EXPORT	|??_B?1??inst@?$CPVRTSingleton@VConsoleLog@pvrengine@@@@SAAAVConsoleLog@pvrengine@@XZ@51| [ DATA ] ; `CPVRTSingleton<pvrengine::ConsoleLog>::inst'::`2'::`local static guard'
	EXPORT	|?inst@?$CPVRTSingleton@VConsoleLog@pvrengine@@@@SAAAVConsoleLog@pvrengine@@XZ| ; CPVRTSingleton<pvrengine::ConsoleLog>::inst
	EXPORT	|?object@?1??inst@?$CPVRTSingleton@VConsoleLog@pvrengine@@@@SAAAVConsoleLog@pvrengine@@XZ@4V34@A| [ DATA ] ; `CPVRTSingleton<pvrengine::ConsoleLog>::inst'::`2'::object
	IMPORT	|atexit|
	IMPORT	|??0ConsoleLog@pvrengine@@QAA@XZ|	; pvrengine::ConsoleLog::ConsoleLog
; File c:\wince600\public\powervr-sdk\ogles2\tools\pvrtsingleton.h

  00000			 AREA	 |.bss|, NOINIT
|??_B?1??inst@?$CPVRTSingleton@VConsoleLog@pvrengine@@@@SAAAVConsoleLog@pvrengine@@XZ@51| % 0x4 ; `CPVRTSingleton<pvrengine::ConsoleLog>::inst'::`2'::`local static guard'

  00000			 AREA	 |.bss|, NOINIT
|?object@?1??inst@?$CPVRTSingleton@VConsoleLog@pvrengine@@@@SAAAVConsoleLog@pvrengine@@XZ@4V34@A| % 0x28 ; `CPVRTSingleton<pvrengine::ConsoleLog>::inst'::`2'::object

  00000			 AREA	 |.pdata|, PDATA
|$T38095| DCD	|$LN6@inst|
	DCD	0x40001101
; Function compile flags: /Ogspy

  00000			 AREA	 |.text|, CODE, ARM

  00000		 |?inst@?$CPVRTSingleton@VConsoleLog@pvrengine@@@@SAAAVConsoleLog@pvrengine@@XZ| PROC ; CPVRTSingleton<pvrengine::ConsoleLog>::inst

; 26   : 	{

  00000		 |$LN6@inst|
  00000	e52de004	 str         lr, [sp, #-4]!
  00004		 |$M38092|

; 27   : 		static T object;

  00004	e59f2034	 ldr         r2, [pc, #0x34]
  00008	e5923000	 ldr         r3, [r2]
  0000c	e3130001	 tst         r3, #1
  00010	1a000005	 bne         |$LN1@inst|
  00014	e59f001c	 ldr         r0, [pc, #0x1C]
  00018	e3833001	 orr         r3, r3, #1
  0001c	e5823000	 str         r3, [r2]
  00020	eb000000	 bl          |??0ConsoleLog@pvrengine@@QAA@XZ|
  00024	e59f0010	 ldr         r0, [pc, #0x10]
  00028	eb000000	 bl          atexit
  0002c		 |$LN1@inst|

; 28   : 		return object;
; 29   : 	}

  0002c	e59f0004	 ldr         r0, [pc, #4]
  00030	e49de004	 ldr         lr, [sp], #4
  00034	e12fff1e	 bx          lr
  00038		 |$LN7@inst|
  00038		 |$LN8@inst|
  00038	00000000	 DCD         |?object@?1??inst@?$CPVRTSingleton@VConsoleLog@pvrengine@@@@SAAAVConsoleLog@pvrengine@@XZ@4V34@A|
  0003c		 |$LN9@inst|
  0003c	00000000	 DCD         |??__Fobject@?1??inst@?$CPVRTSingleton@VConsoleLog@pvrengine@@@@SAAAVConsoleLog@pvrengine@@XZ@YAXXZ|
  00040		 |$LN10@inst|
  00040	00000000	 DCD         |??_B?1??inst@?$CPVRTSingleton@VConsoleLog@pvrengine@@@@SAAAVConsoleLog@pvrengine@@XZ@51|
  00044		 |$M38093|

			 ENDP  ; |?inst@?$CPVRTSingleton@VConsoleLog@pvrengine@@@@SAAAVConsoleLog@pvrengine@@XZ|, CPVRTSingleton<pvrengine::ConsoleLog>::inst

	EXPORT	|??__Fobject@?1??inst@?$CPVRTSingleton@VMaterialManager@pvrengine@@@@SAAAVMaterialManager@pvrengine@@XZ@YAXXZ| ; `CPVRTSingleton<pvrengine::MaterialManager>::inst'::`2'::`dynamic atexit destructor for 'object''
	EXPORT	|??_B?1??inst@?$CPVRTSingleton@VMaterialManager@pvrengine@@@@SAAAVMaterialManager@pvrengine@@XZ@51| [ DATA ] ; `CPVRTSingleton<pvrengine::MaterialManager>::inst'::`2'::`local static guard'
	EXPORT	|?inst@?$CPVRTSingleton@VMaterialManager@pvrengine@@@@SAAAVMaterialManager@pvrengine@@XZ| ; CPVRTSingleton<pvrengine::MaterialManager>::inst
	EXPORT	|?object@?1??inst@?$CPVRTSingleton@VMaterialManager@pvrengine@@@@SAAAVMaterialManager@pvrengine@@XZ@4V34@A| [ DATA ] ; `CPVRTSingleton<pvrengine::MaterialManager>::inst'::`2'::object
	IMPORT	|??0MaterialManager@pvrengine@@QAA@XZ|	; pvrengine::MaterialManager::MaterialManager

  00000			 AREA	 |.bss|, NOINIT
|??_B?1??inst@?$CPVRTSingleton@VMaterialManager@pvrengine@@@@SAAAVMaterialManager@pvrengine@@XZ@51| % 0x4 ; `CPVRTSingleton<pvrengine::MaterialManager>::inst'::`2'::`local static guard'

  00000			 AREA	 |.bss|, NOINIT
|?object@?1??inst@?$CPVRTSingleton@VMaterialManager@pvrengine@@@@SAAAVMaterialManager@pvrengine@@XZ@4V34@A| % 0x18 ; `CPVRTSingleton<pvrengine::MaterialManager>::inst'::`2'::object

  00000			 AREA	 |.pdata|, PDATA
|$T38108| DCD	|$LN6@inst@2|
	DCD	0x40001101
; Function compile flags: /Ogspy

  00000			 AREA	 |.text|, CODE, ARM

  00000		 |?inst@?$CPVRTSingleton@VMaterialManager@pvrengine@@@@SAAAVMaterialManager@pvrengine@@XZ| PROC ; CPVRTSingleton<pvrengine::MaterialManager>::inst

; 26   : 	{

  00000		 |$LN6@inst@2|
  00000	e52de004	 str         lr, [sp, #-4]!
  00004		 |$M38105|

; 27   : 		static T object;

  00004	e59f2034	 ldr         r2, [pc, #0x34]
  00008	e5923000	 ldr         r3, [r2]
  0000c	e3130001	 tst         r3, #1
  00010	1a000005	 bne         |$LN1@inst@2|
  00014	e59f001c	 ldr         r0, [pc, #0x1C]
  00018	e3833001	 orr         r3, r3, #1
  0001c	e5823000	 str         r3, [r2]
  00020	eb000000	 bl          |??0MaterialManager@pvrengine@@QAA@XZ|
  00024	e59f0010	 ldr         r0, [pc, #0x10]
  00028	eb000000	 bl          atexit
  0002c		 |$LN1@inst@2|

; 28   : 		return object;
; 29   : 	}

  0002c	e59f0004	 ldr         r0, [pc, #4]
  00030	e49de004	 ldr         lr, [sp], #4
  00034	e12fff1e	 bx          lr
  00038		 |$LN7@inst@2|
  00038		 |$LN8@inst@2|
  00038	00000000	 DCD         |?object@?1??inst@?$CPVRTSingleton@VMaterialManager@pvrengine@@@@SAAAVMaterialManager@pvrengine@@XZ@4V34@A|
  0003c		 |$LN9@inst@2|
  0003c	00000000	 DCD         |??__Fobject@?1??inst@?$CPVRTSingleton@VMaterialManager@pvrengine@@@@SAAAVMaterialManager@pvrengine@@XZ@YAXXZ|
  00040		 |$LN10@inst@2|
  00040	00000000	 DCD         |??_B?1??inst@?$CPVRTSingleton@VMaterialManager@pvrengine@@@@SAAAVMaterialManager@pvrengine@@XZ@51|
  00044		 |$M38106|

			 ENDP  ; |?inst@?$CPVRTSingleton@VMaterialManager@pvrengine@@@@SAAAVMaterialManager@pvrengine@@XZ|, CPVRTSingleton<pvrengine::MaterialManager>::inst

	EXPORT	|?prepareSkinning@Mesh@pvrengine@@AAAXXZ| ; pvrengine::Mesh::prepareSkinning
	EXPORT	|??_C@_0CA@FEEOIGFG@Unknown?5skinning?5semantic?5found?$AA@| [ DATA ] ; `string'
	IMPORT	|?log@ConsoleLog@pvrengine@@QAAXPBDZZ|	; pvrengine::ConsoleLog::log
	IMPORT	|?getSkinningUniforms@Material@pvrengine@@QAAPAV?$dynamicArray@VUniform@pvrengine@@@@XZ| ; pvrengine::Material::getSkinningUniforms
; File c:\wince600\public\powervr-sdk\ogles2\extras\pvrengine\include\ogles2\uniform.h

  00000			 AREA	 |.pdata|, PDATA
|$T38168| DCD	|$LN39@prepareSki|
	DCD	0x40002c01

  00000			 AREA	 |.rdata|, DATA, READONLY
|??_C@_0CA@FEEOIGFG@Unknown?5skinning?5semantic?5found?$AA@| DCB "Unknown"
	DCB	" skinning semantic found", 0x0		; `string'
; Function compile flags: /Ogspy
; File c:\wince600\public\powervr-sdk\ogles2\extras\pvrengine\ogles2\mesh.cpp

  00000			 AREA	 |.text|, CODE, ARM

  00000		 |?prepareSkinning@Mesh@pvrengine@@AAAXXZ| PROC ; pvrengine::Mesh::prepareSkinning

; 58   : 	{

  00000		 |$LN39@prepareSki|
  00000	e92d40f0	 stmdb       sp!, {r4 - r7, lr}
  00004		 |$M38165|
  00004	e1a04000	 mov         r4, r0

; 59   : 		dynamicArray<Uniform> *pdaSkinningUniforms = m_pMaterial->getSkinningUniforms();

  00008	e5940014	 ldr         r0, [r4, #0x14]
  0000c	eb000000	 bl          |?getSkinningUniforms@Material@pvrengine@@QAAPAV?$dynamicArray@VUniform@pvrengine@@@@XZ|
  00010	e1a07000	 mov         r7, r0

; 60   : 		for(unsigned int i=0;i<pdaSkinningUniforms->getSize();i++)

  00014	e5973000	 ldr         r3, [r7]
  00018	e3a06000	 mov         r6, #0
  0001c	e3530000	 cmp         r3, #0
  00020	0a00001f	 beq         |$LN8@prepareSki|
  00024	e3a05000	 mov         r5, #0
  00028		 |$LL10@prepareSki|
  00028	e5973008	 ldr         r3, [r7, #8]
  0002c	e0833005	 add         r3, r3, r5

; 61   : 		{
; 62   : 			switch ((*pdaSkinningUniforms)[i].getSemantic())

  00030	e5932004	 ldr         r2, [r3, #4]
  00034	e352001d	 cmp         r2, #0x1D
  00038	0a000012	 beq         |$LN5@prepareSki|
  0003c	e352001e	 cmp         r2, #0x1E
  00040	0a00000d	 beq         |$LN4@prepareSki|
  00044	e352001f	 cmp         r2, #0x1F
  00048	0a000008	 beq         |$LN3@prepareSki|
  0004c	e3520020	 cmp         r2, #0x20
  00050	0a000003	 beq         |$LN2@prepareSki|

; 76   : 			default:
; 77   : 				ConsoleLog::inst().log("Unknown skinning semantic found");

  00054	eb000000	 bl          |?inst@?$CPVRTSingleton@VConsoleLog@pvrengine@@@@SAAAVConsoleLog@pvrengine@@XZ|
  00058	e59f104c	 ldr         r1, [pc, #0x4C]
  0005c	eb000000	 bl          |?log@ConsoleLog@pvrengine@@QAAXPBDZZ|
  00060	ea00000a	 b           |$LN9@prepareSki|
  00064		 |$LN2@prepareSki|

; 73   : 			case eUsBONEMATRIXARRAYIT:
; 74   : 				m_gliSkinningLocations[eBoneMatricesIT] = (*pdaSkinningUniforms)[i].getLocation();

  00064	e5933000	 ldr         r3, [r3]
  00068	e58431dc	 str         r3, [r4, #0x1DC]

; 75   : 				break;

  0006c	ea000007	 b           |$LN9@prepareSki|
  00070		 |$LN3@prepareSki|

; 70   : 			case eUsBONEMATRIXARRAYI:
; 71   : 				m_gliSkinningLocations[eBoneMatricesI] = (*pdaSkinningUniforms)[i].getLocation();

  00070	e5933000	 ldr         r3, [r3]
  00074	e58431d8	 str         r3, [r4, #0x1D8]

; 72   : 				break;

  00078	ea000004	 b           |$LN9@prepareSki|
  0007c		 |$LN4@prepareSki|

; 66   : 				break;
; 67   : 			case eUsBONEMATRIXARRAY:
; 68   : 				m_gliSkinningLocations[eBoneMatrices] = (*pdaSkinningUniforms)[i].getLocation();

  0007c	e5933000	 ldr         r3, [r3]
  00080	e58431d4	 str         r3, [r4, #0x1D4]

; 69   : 				break;

  00084	ea000001	 b           |$LN9@prepareSki|
  00088		 |$LN5@prepareSki|

; 63   : 			{
; 64   : 			case eUsBONECOUNT:
; 65   : 				m_gliSkinningLocations[eBoneCount] = (*pdaSkinningUniforms)[i].getLocation();

  00088	e5933000	 ldr         r3, [r3]
  0008c	e58431d0	 str         r3, [r4, #0x1D0]
  00090		 |$LN9@prepareSki|
  00090	e5973000	 ldr         r3, [r7]
  00094	e2866001	 add         r6, r6, #1
  00098	e285500c	 add         r5, r5, #0xC
  0009c	e1560003	 cmp         r6, r3
  000a0	3affffe0	 bcc         |$LL10@prepareSki|
  000a4		 |$LN8@prepareSki|

; 78   : 			}
; 79   : 		}
; 80   : 	}

  000a4	e8bd40f0	 ldmia       sp!, {r4 - r7, lr}
  000a8	e12fff1e	 bx          lr
  000ac		 |$LN40@prepareSki|
  000ac		 |$LN41@prepareSki|
  000ac	00000000	 DCD         |??_C@_0CA@FEEOIGFG@Unknown?5skinning?5semantic?5found?$AA@|
  000b0		 |$M38166|

			 ENDP  ; |?prepareSkinning@Mesh@pvrengine@@AAAXXZ|, pvrengine::Mesh::prepareSkinning

	EXPORT	|??__Fobject@?1??inst@?$CPVRTSingleton@VUniformHandler@pvrengine@@@@SAAAVUniformHandler@pvrengine@@XZ@YAXXZ| ; `CPVRTSingleton<pvrengine::UniformHandler>::inst'::`2'::`dynamic atexit destructor for 'object''
	EXPORT	|??_B?1??inst@?$CPVRTSingleton@VUniformHandler@pvrengine@@@@SAAAVUniformHandler@pvrengine@@XZ@51| [ DATA ] ; `CPVRTSingleton<pvrengine::UniformHandler>::inst'::`2'::`local static guard'
	EXPORT	|?inst@?$CPVRTSingleton@VUniformHandler@pvrengine@@@@SAAAVUniformHandler@pvrengine@@XZ| ; CPVRTSingleton<pvrengine::UniformHandler>::inst
	EXPORT	|?object@?1??inst@?$CPVRTSingleton@VUniformHandler@pvrengine@@@@SAAAVUniformHandler@pvrengine@@XZ@4V34@A| [ DATA ] ; `CPVRTSingleton<pvrengine::UniformHandler>::inst'::`2'::object
; File c:\wince600\public\powervr-sdk\ogles2\tools\pvrtvector.h

  00000			 AREA	 |.bss|, NOINIT
|??_B?1??inst@?$CPVRTSingleton@VUniformHandler@pvrengine@@@@SAAAVUniformHandler@pvrengine@@XZ@51| % 0x4 ; `CPVRTSingleton<pvrengine::UniformHandler>::inst'::`2'::`local static guard'

  00000			 AREA	 |.bss|, NOINIT
|?object@?1??inst@?$CPVRTSingleton@VUniformHandler@pvrengine@@@@SAAAVUniformHandler@pvrengine@@XZ@4V34@A| % 0xd04 ; `CPVRTSingleton<pvrengine::UniformHandler>::inst'::`2'::object

  00000			 AREA	 |.pdata|, PDATA
|$T38347| DCD	|$LN74@inst@3|
	DCD	0x40001501
; Function compile flags: /Ogspy
; File c:\wince600\public\powervr-sdk\ogles2\tools\pvrtsingleton.h

  00000			 AREA	 |.text|, CODE, ARM

  00000		 |?inst@?$CPVRTSingleton@VUniformHandler@pvrengine@@@@SAAAVUniformHandler@pvrengine@@XZ| PROC ; CPVRTSingleton<pvrengine::UniformHandler>::inst

; 26   : 	{

  00000		 |$LN74@inst@3|
  00000	e92d4010	 stmdb       sp!, {r4, lr}
  00004		 |$M38344|

; 27   : 		static T object;

  00004	e59f1044	 ldr         r1, [pc, #0x44]
  00008	e59f403c	 ldr         r4, [pc, #0x3C]
  0000c	e5912000	 ldr         r2, [r1]
  00010	e3120001	 tst         r2, #1
  00014	1a000007	 bne         |$LN1@inst@3|
  00018	e59f3028	 ldr         r3, [pc, #0x28]
  0001c	e3822001	 orr         r2, r2, #1
  00020	e1a00004	 mov         r0, r4
  00024	e5843000	 str         r3, [r4]
  00028	e5812000	 str         r2, [r1]
  0002c	eb000000	 bl          |?ResetFrameUniforms@UniformHandler@pvrengine@@QAAXXZ|
  00030	e59f000c	 ldr         r0, [pc, #0xC]
  00034	eb000000	 bl          atexit
  00038		 |$LN1@inst@3|

; 28   : 		return object;
; 29   : 	}

  00038	e1a00004	 mov         r0, r4
  0003c	e8bd4010	 ldmia       sp!, {r4, lr}
  00040	e12fff1e	 bx          lr
  00044		 |$LN75@inst@3|
  00044		 |$LN76@inst@3|
  00044	00000000	 DCD         |??__Fobject@?1??inst@?$CPVRTSingleton@VUniformHandler@pvrengine@@@@SAAAVUniformHandler@pvrengine@@XZ@YAXXZ|
  00048		 |$LN77@inst@3|
  00048	00000000	 DCD         |??_7UniformHandler@pvrengine@@6B@|
  0004c		 |$LN78@inst@3|
  0004c	00000000	 DCD         |?object@?1??inst@?$CPVRTSingleton@VUniformHandler@pvrengine@@@@SAAAVUniformHandler@pvrengine@@XZ@4V34@A|
  00050		 |$LN79@inst@3|
  00050	00000000	 DCD         |??_B?1??inst@?$CPVRTSingleton@VUniformHandler@pvrengine@@@@SAAAVUniformHandler@pvrengine@@XZ@51|
  00054		 |$M38345|

			 ENDP  ; |?inst@?$CPVRTSingleton@VUniformHandler@pvrengine@@@@SAAAVUniformHandler@pvrengine@@XZ|, CPVRTSingleton<pvrengine::UniformHandler>::inst

	EXPORT	|?draw@Mesh@pvrengine@@QAAXXZ|		; pvrengine::Mesh::draw
	EXPORT	|??_C@_0BP@GFHOAM@Material?5?$CFs?5failed?5to?5activate?$AA@| [ DATA ] ; `string'
	IMPORT	|?CalculateMeshUniform@UniformHandler@pvrengine@@QAAXABVUniform@2@PAUSPODMesh@@PAUSPODNode@@@Z| ; pvrengine::UniformHandler::CalculateMeshUniform
	IMPORT	|?getMeshUniforms@Material@pvrengine@@QAAPAV?$dynamicArray@VUniform@pvrengine@@@@XZ| ; pvrengine::Material::getMeshUniforms
	IMPORT	|??1CPVRTString@@UAA@XZ|		; CPVRTString::~CPVRTString
	IMPORT	|?c_str@CPVRTString@@QBAPBDXZ|		; CPVRTString::c_str
	IMPORT	|?getName@Material@pvrengine@@QBA?AVCPVRTString@@XZ| ; pvrengine::Material::getName
	IMPORT	|?Activate@Material@pvrengine@@QAA_NXZ|	; pvrengine::Material::Activate
	IMPORT	|?getFlatMaterial@MaterialManager@pvrengine@@QAAPAVMaterial@2@XZ| ; pvrengine::MaterialManager::getFlatMaterial
	IMPORT	|__imp_glDisableVertexAttribArray|
	IMPORT	|__imp_glVertexAttribPointer|
	IMPORT	|__imp_glEnableVertexAttribArray|
; File c:\wince600\public\powervr-sdk\ogles2\extras\pvrengine\include\ogles2\uniform.h

  00000			 AREA	 |.pdata|, PDATA
|$T38550| DCD	|$LN162@draw|
	DCD	0x40017b02

  00000			 AREA	 |.rdata|, DATA, READONLY
|??_C@_0BP@GFHOAM@Material?5?$CFs?5failed?5to?5activate?$AA@| DCB "Materi"
	DCB	"al %s failed to activate", 0x0		; `string'
; Function compile flags: /Ogspy
; File c:\wince600\public\powervr-sdk\ogles2\extras\pvrengine\ogles2\mesh.cpp

  00000			 AREA	 |.text|, CODE, ARM

  00000		 |?draw@Mesh@pvrengine@@QAAXXZ| PROC	; pvrengine::Mesh::draw

; 85   : 	{

  00000		 |$LN162@draw|
  00000	e92d4ff0	 stmdb       sp!, {r4 - r11, lr}
  00004	e24dd064	 sub         sp, sp, #0x64
  00008		 |$M38547|
  00008	e1a05000	 mov         r5, r0

; 86   : 
; 87   : 		UniformHandler& sUniformHandler = UniformHandler::inst();

  0000c	eb000000	 bl          |?inst@?$CPVRTSingleton@VUniformHandler@pvrengine@@@@SAAAVUniformHandler@pvrengine@@XZ|

; 88   : 
; 89   : 
; 90   : 		switch(m_eDrawMode)

  00010	e59531c8	 ldr         r3, [r5, #0x1C8]
  00014	e1a09000	 mov         r9, r0
  00018	e3530000	 cmp         r3, #0
  0001c	0a000125	 beq         |$LN57@draw|
  00020	e3530001	 cmp         r3, #1
  00024	0a0000e2	 beq         |$LN22@draw|
  00028	e3530002	 cmp         r3, #2
  0002c	0a0000a0	 beq         |$LN44@draw|
  00030	e3530003	 cmp         r3, #3
  00034	0a00005d	 beq         |$LN33@draw|
  00038	e3530004	 cmp         r3, #4
  0003c	1a000162	 bne         |$LN48@draw|

; 215  : 		case eBounds:	// always uses flat material so I can hardwire stuff
; 216  : 			{	
; 217  : 				glBindBuffer(GL_ARRAY_BUFFER, m_gluBoundsBuffer);

  00040	e59f3598	 ldr         r3, [pc, #0x598]
  00044	e5951004	 ldr         r1, [r5, #4]
  00048	e3a02b22	 mov         r2, #0x22, 22
  0004c	e5933000	 ldr         r3, [r3]
  00050	e3820092	 orr         r0, r2, #0x92
  00054	e1a0e00f	 mov         lr, pc
  00058	e12fff13	 bx          r3

; 218  : 				// activates all frame and material uniforms required for mesh
; 219  : 				Material *pMaterial = MaterialManager::inst().getFlatMaterial();

  0005c	eb000000	 bl          |?inst@?$CPVRTSingleton@VMaterialManager@pvrengine@@@@SAAAVMaterialManager@pvrengine@@XZ|
  00060	eb000000	 bl          |?getFlatMaterial@MaterialManager@pvrengine@@QAAPAVMaterial@2@XZ|
  00064	e1a06000	 mov         r6, r0

; 220  : 				if(!pMaterial->Activate())

  00068	eb000000	 bl          |?Activate@Material@pvrengine@@QAA_NXZ|
  0006c	e3500000	 cmp         r0, #0
  00070	1a00000a	 bne         |$LN10@draw|

; 221  : 					ConsoleLog::inst().log("Material %s failed to activate",m_pMaterial->getName().c_str());

  00074	e5950014	 ldr         r0, [r5, #0x14]
  00078	e28d1014	 add         r1, sp, #0x14
  0007c	eb000000	 bl          |?getName@Material@pvrengine@@QBA?AVCPVRTString@@XZ|
  00080	eb000000	 bl          |?c_str@CPVRTString@@QBAPBDXZ|
  00084	e1a04000	 mov         r4, r0
  00088	eb000000	 bl          |?inst@?$CPVRTSingleton@VConsoleLog@pvrengine@@@@SAAAVConsoleLog@pvrengine@@XZ|
  0008c	e59f1548	 ldr         r1, [pc, #0x548]
  00090	e1a02004	 mov         r2, r4
  00094	eb000000	 bl          |?log@ConsoleLog@pvrengine@@QAAXPBDZZ|
  00098	e28d0014	 add         r0, sp, #0x14
  0009c	eb000000	 bl          |??1CPVRTString@@UAA@XZ|
  000a0		 |$LN10@draw|

; 222  : 				dynamicArray<Uniform> *pdaMeshUniforms = pMaterial->getMeshUniforms();

  000a0	e1a00006	 mov         r0, r6
  000a4	eb000000	 bl          |?getMeshUniforms@Material@pvrengine@@QAAPAV?$dynamicArray@VUniform@pvrengine@@@@XZ|
  000a8	e1a06000	 mov         r6, r0

; 223  : 				for(unsigned int i=0;i<pdaMeshUniforms->getSize();i++)

  000ac	e5963000	 ldr         r3, [r6]
  000b0	e3a07000	 mov         r7, #0
  000b4	e3530000	 cmp         r3, #0
  000b8	0a000026	 beq         |$LN7@draw|
  000bc	e59fa524	 ldr         r10, [pc, #0x524]
  000c0	e59fb51c	 ldr         r11, [pc, #0x51C]
  000c4	e3a08000	 mov         r8, #0
  000c8	e3a01b05	 mov         r1, #5, 22
  000cc		 |$LL9@draw|

; 224  : 				{
; 225  : 					//(*pdaMeshUniforms)[i].Calculate();
; 226  : 					//(*pdaMeshUniforms)[i].Load();
; 227  : 					Uniform sUniform = (*pdaMeshUniforms)[i];

  000cc	e5963008	 ldr         r3, [r6, #8]
  000d0	e7b30008	 ldr         r0, [r3, +r8]!
  000d4	e58d0008	 str         r0, [sp, #8]
  000d8	e5932004	 ldr         r2, [r3, #4]
  000dc	e58d200c	 str         r2, [sp, #0xC]
  000e0	e5933008	 ldr         r3, [r3, #8]

; 228  : 					if(sUniform.getSemantic()!=eUsPosition)

  000e4	e3520001	 cmp         r2, #1
  000e8	e58d3010	 str         r3, [sp, #0x10]
  000ec	0a000005	 beq         |$LN6@draw|

; 229  : 					{
; 230  : 						sUniformHandler.CalculateMeshUniform(sUniform,m_psMesh);

  000f0	e5952010	 ldr         r2, [r5, #0x10]
  000f4	e3a03000	 mov         r3, #0
  000f8	e28d1008	 add         r1, sp, #8
  000fc	e1a00009	 mov         r0, r9
  00100	eb000000	 bl          |?CalculateMeshUniform@UniformHandler@pvrengine@@QAAXABVUniform@2@PAUSPODMesh@@PAUSPODNode@@@Z|

; 231  : 					}
; 232  : 					else

  00104	ea00000d	 b           |$LN8@draw|
  00108		 |$LN6@draw|

; 233  : 					{
; 234  : 						glVertexAttribPointer(sUniform.getLocation(), 3, GL_FLOAT, GL_FALSE, 0, NULL);

  00108	e3a0b000	 mov         r11, #0
  0010c	e59a4000	 ldr         r4, [r10]
  00110	e3812006	 orr         r2, r1, #6
  00114	e58db004	 str         r11, [sp, #4]
  00118	e58db000	 str         r11, [sp]
  0011c	e3a03000	 mov         r3, #0
  00120	e3a01003	 mov         r1, #3
  00124	e1a0e00f	 mov         lr, pc
  00128	e12fff14	 bx          r4

; 235  : 						glEnableVertexAttribArray(sUniform.getLocation());

  0012c	e59fb4b0	 ldr         r11, [pc, #0x4B0]
  00130	e59d0008	 ldr         r0, [sp, #8]
  00134	e59b3000	 ldr         r3, [r11]
  00138	e1a0e00f	 mov         lr, pc
  0013c	e12fff13	 bx          r3
  00140		 |$LN8@draw|
  00140	e5963000	 ldr         r3, [r6]
  00144	e2877001	 add         r7, r7, #1
  00148	e288800c	 add         r8, r8, #0xC
  0014c	e1570003	 cmp         r7, r3
  00150	e3a01b05	 mov         r1, #5, 22
  00154	3affffdc	 bcc         |$LL9@draw|
  00158		 |$LN7@draw|

; 236  : 					}
; 237  : 				}
; 238  : 
; 239  : 
; 240  : 				DrawBounds();

  00158	e1a00005	 mov         r0, r5
  0015c	eb000000	 bl          |?DrawBounds@Mesh@pvrengine@@AAAXXZ|

; 241  : 				for(unsigned int j = 0; j < pdaMeshUniforms->getSize(); ++j)

  00160	e5963000	 ldr         r3, [r6]
  00164	e3a05000	 mov         r5, #0
  00168	e3530000	 cmp         r3, #0
  0016c	0a000116	 beq         |$LN48@draw|
  00170	e59f7460	 ldr         r7, [pc, #0x460]
  00174	e3a04000	 mov         r4, #0
  00178		 |$LL4@draw|
  00178	e5963008	 ldr         r3, [r6, #8]
  0017c	e0842003	 add         r2, r4, r3

; 242  : 				{
; 243  : 					if((*pdaMeshUniforms)[j].getSemantic()==eUsPosition)

  00180	e5923004	 ldr         r3, [r2, #4]
  00184	e3530001	 cmp         r3, #1

; 244  : 					{
; 245  : 						glDisableVertexAttribArray((*pdaMeshUniforms)[j].getLocation());

  00188	05920000	 ldreq       r0, [r2]
  0018c	05973000	 ldreq       r3, [r7]
  00190	01a0e00f	 moveq       lr, pc
  00194	012fff13	 bxeq        r3
  00198	e5963000	 ldr         r3, [r6]
  0019c	e2855001	 add         r5, r5, #1
  001a0	e284400c	 add         r4, r4, #0xC
  001a4	e1550003	 cmp         r5, r3
  001a8	3afffff2	 bcc         |$LL4@draw|

; 246  : 					}
; 247  : 				}
; 248  : 
; 249  : 
; 250  : 			}
; 251  : 			break;

  001ac	ea000106	 b           |$LN48@draw|
  001b0		 |$LN33@draw|

; 159  : 		case eWireframeNoFX:
; 160  : 			{
; 161  : 				glBindBuffer(GL_ARRAY_BUFFER, m_gluBuffer);

  001b0	e59f3428	 ldr         r3, [pc, #0x428]
  001b4	e5951000	 ldr         r1, [r5]
  001b8	e3a02b22	 mov         r2, #0x22, 22
  001bc	e5933000	 ldr         r3, [r3]
  001c0	e3820092	 orr         r0, r2, #0x92
  001c4	e1a0e00f	 mov         lr, pc
  001c8	e12fff13	 bx          r3

; 162  : 				// activates all frame and material uniforms required for mesh
; 163  : 				Material *pMaterial = MaterialManager::inst().getFlatMaterial();

  001cc	eb000000	 bl          |?inst@?$CPVRTSingleton@VMaterialManager@pvrengine@@@@SAAAVMaterialManager@pvrengine@@XZ|
  001d0	eb000000	 bl          |?getFlatMaterial@MaterialManager@pvrengine@@QAAPAVMaterial@2@XZ|
  001d4	e1a06000	 mov         r6, r0

; 164  : 				if(!pMaterial->Activate())

  001d8	eb000000	 bl          |?Activate@Material@pvrengine@@QAA_NXZ|
  001dc	e3500000	 cmp         r0, #0
  001e0	1a00000a	 bne         |$LN32@draw|

; 165  : 					ConsoleLog::inst().log("Material %s failed to activate",m_pMaterial->getName().c_str());

  001e4	e5950014	 ldr         r0, [r5, #0x14]
  001e8	e28d1024	 add         r1, sp, #0x24
  001ec	eb000000	 bl          |?getName@Material@pvrengine@@QBA?AVCPVRTString@@XZ|
  001f0	eb000000	 bl          |?c_str@CPVRTString@@QBAPBDXZ|
  001f4	e1a04000	 mov         r4, r0
  001f8	eb000000	 bl          |?inst@?$CPVRTSingleton@VConsoleLog@pvrengine@@@@SAAAVConsoleLog@pvrengine@@XZ|
  001fc	e59f13d8	 ldr         r1, [pc, #0x3D8]
  00200	e1a02004	 mov         r2, r4
  00204	eb000000	 bl          |?log@ConsoleLog@pvrengine@@QAAXPBDZZ|
  00208	e28d0024	 add         r0, sp, #0x24
  0020c	eb000000	 bl          |??1CPVRTString@@UAA@XZ|
  00210		 |$LN32@draw|

; 166  : 
; 167  : 				dynamicArray<Uniform> *pdaMeshUniforms = pMaterial->getMeshUniforms();

  00210	e1a00006	 mov         r0, r6
  00214	eb000000	 bl          |?getMeshUniforms@Material@pvrengine@@QAAPAV?$dynamicArray@VUniform@pvrengine@@@@XZ|
  00218	e1a04000	 mov         r4, r0

; 168  : 				for(unsigned int i=0;i<pdaMeshUniforms->getSize();i++)

  0021c	e5943000	 ldr         r3, [r4]
  00220	e3a07000	 mov         r7, #0
  00224	e3530000	 cmp         r3, #0
  00228	0a00000b	 beq         |$LN29@draw|

; 166  : 
; 167  : 				dynamicArray<Uniform> *pdaMeshUniforms = pMaterial->getMeshUniforms();

  0022c	e3a06000	 mov         r6, #0
  00230		 |$LL31@draw|

; 169  : 				{
; 170  : 					//(*pdaMeshUniforms)[i].Calculate();
; 171  : 					//(*pdaMeshUniforms)[i].Load();
; 172  : 					sUniformHandler.CalculateMeshUniform((*pdaMeshUniforms)[i],m_psMesh);

  00230	e5941008	 ldr         r1, [r4, #8]
  00234	e5952010	 ldr         r2, [r5, #0x10]
  00238	e3a03000	 mov         r3, #0
  0023c	e0861001	 add         r1, r6, r1
  00240	e1a00009	 mov         r0, r9
  00244	eb000000	 bl          |?CalculateMeshUniform@UniformHandler@pvrengine@@QAAXABVUniform@2@PAUSPODMesh@@PAUSPODNode@@@Z|
  00248	e5943000	 ldr         r3, [r4]
  0024c	e2877001	 add         r7, r7, #1
  00250	e286600c	 add         r6, r6, #0xC
  00254	e1570003	 cmp         r7, r3
  00258	3afffff4	 bcc         |$LL31@draw|
  0025c		 |$LN29@draw|

; 173  : 				}
; 174  : 				DrawWireframeMesh();

  0025c	e1a00005	 mov         r0, r5
  00260	eb000000	 bl          |?DrawWireframeMesh@Mesh@pvrengine@@AAAXXZ|

; 175  : 				for(unsigned int j = 0; j < pdaMeshUniforms->getSize(); ++j)

  00264	e5943000	 ldr         r3, [r4]
  00268	e3a06000	 mov         r6, #0
  0026c	e3530000	 cmp         r3, #0
  00270	0a0000d5	 beq         |$LN48@draw|
  00274	e59f735c	 ldr         r7, [pc, #0x35C]
  00278	e3a05000	 mov         r5, #0
  0027c		 |$LL28@draw|
  0027c	e5943008	 ldr         r3, [r4, #8]
  00280	e0852003	 add         r2, r5, r3

; 176  : 				{
; 177  : 					switch((*pdaMeshUniforms)[j].getSemantic())

  00284	e5923004	 ldr         r3, [r2, #4]
  00288	e3530001	 cmp         r3, #1

; 178  : 					{
; 179  : 					case eUsPosition:
; 180  : 						{
; 181  : 							glDisableVertexAttribArray((*pdaMeshUniforms)[j].getLocation());

  0028c	05920000	 ldreq       r0, [r2]
  00290	05973000	 ldreq       r3, [r7]
  00294	01a0e00f	 moveq       lr, pc
  00298	012fff13	 bxeq        r3
  0029c	e5943000	 ldr         r3, [r4]
  002a0	e2866001	 add         r6, r6, #1
  002a4	e285500c	 add         r5, r5, #0xC
  002a8	e1560003	 cmp         r6, r3
  002ac	3afffff2	 bcc         |$LL28@draw|

; 182  : 						}
; 183  : 					}
; 184  : 				}
; 185  : 			}
; 186  : 			break;

  002b0	ea0000c5	 b           |$LN48@draw|
  002b4		 |$LN44@draw|

; 122  : 						}
; 123  : 					}
; 124  : 				}
; 125  : 			}
; 126  : 			break;
; 127  : 		case eWireframe:
; 128  : 			{
; 129  : 				glBindBuffer(GL_ARRAY_BUFFER, m_gluBuffer);

  002b4	e59f3324	 ldr         r3, [pc, #0x324]
  002b8	e5951000	 ldr         r1, [r5]
  002bc	e3a02b22	 mov         r2, #0x22, 22
  002c0	e5933000	 ldr         r3, [r3]
  002c4	e3820092	 orr         r0, r2, #0x92
  002c8	e1a0e00f	 mov         lr, pc
  002cc	e12fff13	 bx          r3

; 130  : 				// activates all frame and material uniforms required for mesh
; 131  : 				if(!m_pMaterial->Activate())

  002d0	e5950014	 ldr         r0, [r5, #0x14]
  002d4	eb000000	 bl          |?Activate@Material@pvrengine@@QAA_NXZ|
  002d8	e3500000	 cmp         r0, #0
  002dc	1a00000a	 bne         |$LN43@draw|

; 132  : 					ConsoleLog::inst().log("Material %s failed to activate",m_pMaterial->getName().c_str());

  002e0	e5950014	 ldr         r0, [r5, #0x14]
  002e4	e28d1034	 add         r1, sp, #0x34
  002e8	eb000000	 bl          |?getName@Material@pvrengine@@QBA?AVCPVRTString@@XZ|
  002ec	eb000000	 bl          |?c_str@CPVRTString@@QBAPBDXZ|
  002f0	e1a04000	 mov         r4, r0
  002f4	eb000000	 bl          |?inst@?$CPVRTSingleton@VConsoleLog@pvrengine@@@@SAAAVConsoleLog@pvrengine@@XZ|
  002f8	e59f12dc	 ldr         r1, [pc, #0x2DC]
  002fc	e1a02004	 mov         r2, r4
  00300	eb000000	 bl          |?log@ConsoleLog@pvrengine@@QAAXPBDZZ|
  00304	e28d0034	 add         r0, sp, #0x34
  00308	eb000000	 bl          |??1CPVRTString@@UAA@XZ|
  0030c		 |$LN43@draw|

; 133  : 
; 134  : 				dynamicArray<Uniform> *pdaMeshUniforms = m_pMaterial->getMeshUniforms();

  0030c	e5950014	 ldr         r0, [r5, #0x14]
  00310	eb000000	 bl          |?getMeshUniforms@Material@pvrengine@@QAAPAV?$dynamicArray@VUniform@pvrengine@@@@XZ|
  00314	e1a04000	 mov         r4, r0

; 135  : 				for(unsigned int i=0;i<pdaMeshUniforms->getSize();i++)

  00318	e5943000	 ldr         r3, [r4]
  0031c	e3a07000	 mov         r7, #0
  00320	e3530000	 cmp         r3, #0
  00324	0a00000b	 beq         |$LN40@draw|

; 133  : 
; 134  : 				dynamicArray<Uniform> *pdaMeshUniforms = m_pMaterial->getMeshUniforms();

  00328	e3a06000	 mov         r6, #0
  0032c		 |$LL42@draw|

; 136  : 				{
; 137  : 					//(*pdaMeshUniforms)[i].Calculate();
; 138  : 					//(*pdaMeshUniforms)[i].Load();
; 139  : 					sUniformHandler.CalculateMeshUniform((*pdaMeshUniforms)[i],m_psMesh);

  0032c	e5941008	 ldr         r1, [r4, #8]
  00330	e5952010	 ldr         r2, [r5, #0x10]
  00334	e3a03000	 mov         r3, #0
  00338	e0861001	 add         r1, r6, r1
  0033c	e1a00009	 mov         r0, r9
  00340	eb000000	 bl          |?CalculateMeshUniform@UniformHandler@pvrengine@@QAAXABVUniform@2@PAUSPODMesh@@PAUSPODNode@@@Z|
  00344	e5943000	 ldr         r3, [r4]
  00348	e2877001	 add         r7, r7, #1
  0034c	e286600c	 add         r6, r6, #0xC
  00350	e1570003	 cmp         r7, r3
  00354	3afffff4	 bcc         |$LL42@draw|
  00358		 |$LN40@draw|

; 140  : 				}
; 141  : 				DrawWireframeMesh();

  00358	e1a00005	 mov         r0, r5
  0035c	eb000000	 bl          |?DrawWireframeMesh@Mesh@pvrengine@@AAAXXZ|

; 142  : 				for(unsigned int j = 0; j < pdaMeshUniforms->getSize(); ++j)

  00360	e5943000	 ldr         r3, [r4]
  00364	e3a06000	 mov         r6, #0
  00368	e3530000	 cmp         r3, #0
  0036c	0a000096	 beq         |$LN48@draw|
  00370	e59f7260	 ldr         r7, [pc, #0x260]
  00374	e3a05000	 mov         r5, #0
  00378		 |$LL39@draw|
  00378	e5943008	 ldr         r3, [r4, #8]
  0037c	e0852003	 add         r2, r5, r3

; 143  : 				{
; 144  : 					switch((*pdaMeshUniforms)[j].getSemantic())

  00380	e5923004	 ldr         r3, [r2, #4]
  00384	e2433001	 sub         r3, r3, #1
  00388	e3530004	 cmp         r3, #4

; 145  : 					{
; 146  : 					case eUsPosition:
; 147  : 					case eUsNormal:
; 148  : 					case eUsUV:
; 149  : 					case eUsTangent:
; 150  : 					case eUsBinormal:
; 151  : 						{
; 152  : 							glDisableVertexAttribArray((*pdaMeshUniforms)[j].getLocation());

  0038c	95920000	 ldrls       r0, [r2]
  00390	95973000	 ldrls       r3, [r7]
  00394	91a0e00f	 movls       lr, pc
  00398	912fff13	 bxls        r3
  0039c	e5943000	 ldr         r3, [r4]
  003a0	e2866001	 add         r6, r6, #1
  003a4	e285500c	 add         r5, r5, #0xC
  003a8	e1560003	 cmp         r6, r3
  003ac	3afffff1	 bcc         |$LL39@draw|

; 153  : 						}
; 154  : 					}
; 155  : 				}
; 156  : 
; 157  : 			}
; 158  : 			break;

  003b0	ea000085	 b           |$LN48@draw|
  003b4		 |$LN22@draw|

; 187  : 		case eNoFX:
; 188  : 			{
; 189  : 				glBindBuffer(GL_ARRAY_BUFFER, m_gluBuffer);

  003b4	e59f3224	 ldr         r3, [pc, #0x224]
  003b8	e5951000	 ldr         r1, [r5]
  003bc	e3a02b22	 mov         r2, #0x22, 22
  003c0	e5933000	 ldr         r3, [r3]
  003c4	e3820092	 orr         r0, r2, #0x92
  003c8	e1a0e00f	 mov         lr, pc
  003cc	e12fff13	 bx          r3

; 190  : 				// activates all frame and material uniforms required for mesh
; 191  : 				Material *pMaterial = MaterialManager::inst().getFlatMaterial();

  003d0	eb000000	 bl          |?inst@?$CPVRTSingleton@VMaterialManager@pvrengine@@@@SAAAVMaterialManager@pvrengine@@XZ|
  003d4	eb000000	 bl          |?getFlatMaterial@MaterialManager@pvrengine@@QAAPAVMaterial@2@XZ|
  003d8	e1a06000	 mov         r6, r0

; 192  : 				if(!pMaterial->Activate())

  003dc	eb000000	 bl          |?Activate@Material@pvrengine@@QAA_NXZ|
  003e0	e3500000	 cmp         r0, #0
  003e4	1a00000a	 bne         |$LN21@draw|

; 193  : 					ConsoleLog::inst().log("Material %s failed to activate",m_pMaterial->getName().c_str());

  003e8	e5950014	 ldr         r0, [r5, #0x14]
  003ec	e28d1044	 add         r1, sp, #0x44
  003f0	eb000000	 bl          |?getName@Material@pvrengine@@QBA?AVCPVRTString@@XZ|
  003f4	eb000000	 bl          |?c_str@CPVRTString@@QBAPBDXZ|
  003f8	e1a04000	 mov         r4, r0
  003fc	eb000000	 bl          |?inst@?$CPVRTSingleton@VConsoleLog@pvrengine@@@@SAAAVConsoleLog@pvrengine@@XZ|
  00400	e59f11d4	 ldr         r1, [pc, #0x1D4]
  00404	e1a02004	 mov         r2, r4
  00408	eb000000	 bl          |?log@ConsoleLog@pvrengine@@QAAXPBDZZ|
  0040c	e28d0044	 add         r0, sp, #0x44
  00410	eb000000	 bl          |??1CPVRTString@@UAA@XZ|
  00414		 |$LN21@draw|

; 194  : 
; 195  : 				dynamicArray<Uniform> *pdaMeshUniforms = pMaterial->getMeshUniforms();

  00414	e1a00006	 mov         r0, r6
  00418	eb000000	 bl          |?getMeshUniforms@Material@pvrengine@@QAAPAV?$dynamicArray@VUniform@pvrengine@@@@XZ|
  0041c	e1a04000	 mov         r4, r0

; 196  : 				for(unsigned int i=0;i<pdaMeshUniforms->getSize();i++)

  00420	e5943000	 ldr         r3, [r4]
  00424	e3a07000	 mov         r7, #0
  00428	e3530000	 cmp         r3, #0
  0042c	0a00000b	 beq         |$LN18@draw|

; 194  : 
; 195  : 				dynamicArray<Uniform> *pdaMeshUniforms = pMaterial->getMeshUniforms();

  00430	e3a06000	 mov         r6, #0
  00434		 |$LL20@draw|

; 197  : 				{
; 198  : 					//(*pdaMeshUniforms)[i].Calculate();
; 199  : 					//(*pdaMeshUniforms)[i].Load();
; 200  : 					sUniformHandler.CalculateMeshUniform((*pdaMeshUniforms)[i],m_psMesh);

  00434	e5941008	 ldr         r1, [r4, #8]
  00438	e5952010	 ldr         r2, [r5, #0x10]
  0043c	e3a03000	 mov         r3, #0
  00440	e0861001	 add         r1, r6, r1
  00444	e1a00009	 mov         r0, r9
  00448	eb000000	 bl          |?CalculateMeshUniform@UniformHandler@pvrengine@@QAAXABVUniform@2@PAUSPODMesh@@PAUSPODNode@@@Z|
  0044c	e5943000	 ldr         r3, [r4]
  00450	e2877001	 add         r7, r7, #1
  00454	e286600c	 add         r6, r6, #0xC
  00458	e1570003	 cmp         r7, r3
  0045c	3afffff4	 bcc         |$LL20@draw|
  00460		 |$LN18@draw|

; 201  : 				}
; 202  : 				DrawMesh();

  00460	e1a00005	 mov         r0, r5
  00464	eb000000	 bl          |?DrawMesh@Mesh@pvrengine@@AAAXXZ|

; 203  : 				for(unsigned int j = 0; j < pdaMeshUniforms->getSize(); ++j)

  00468	e5943000	 ldr         r3, [r4]
  0046c	e3a06000	 mov         r6, #0
  00470	e3530000	 cmp         r3, #0
  00474	0a000054	 beq         |$LN48@draw|
  00478	e59f7158	 ldr         r7, [pc, #0x158]
  0047c	e3a05000	 mov         r5, #0
  00480		 |$LL17@draw|
  00480	e5943008	 ldr         r3, [r4, #8]
  00484	e0852003	 add         r2, r5, r3

; 204  : 				{
; 205  : 					switch((*pdaMeshUniforms)[j].getSemantic())

  00488	e5923004	 ldr         r3, [r2, #4]
  0048c	e3530001	 cmp         r3, #1

; 206  : 					{
; 207  : 					case eUsPosition:
; 208  : 						{
; 209  : 							glDisableVertexAttribArray((*pdaMeshUniforms)[j].getLocation());

  00490	05920000	 ldreq       r0, [r2]
  00494	05973000	 ldreq       r3, [r7]
  00498	01a0e00f	 moveq       lr, pc
  0049c	012fff13	 bxeq        r3
  004a0	e5943000	 ldr         r3, [r4]
  004a4	e2866001	 add         r6, r6, #1
  004a8	e285500c	 add         r5, r5, #0xC
  004ac	e1560003	 cmp         r6, r3
  004b0	3afffff2	 bcc         |$LL17@draw|

; 210  : 						}
; 211  : 					}
; 212  : 				}
; 213  : 			}
; 214  : 			break;

  004b4	ea000044	 b           |$LN48@draw|
  004b8		 |$LN57@draw|

; 91   : 		{
; 92   : 		case eNormal:
; 93   : 			{
; 94   : 				glBindBuffer(GL_ARRAY_BUFFER, m_gluBuffer);

  004b8	e59f3120	 ldr         r3, [pc, #0x120]
  004bc	e5951000	 ldr         r1, [r5]
  004c0	e3a02b22	 mov         r2, #0x22, 22
  004c4	e5933000	 ldr         r3, [r3]
  004c8	e3820092	 orr         r0, r2, #0x92
  004cc	e1a0e00f	 mov         lr, pc
  004d0	e12fff13	 bx          r3

; 95   : 				// activates all frame and material uniforms required for mesh
; 96   : 				if(!m_pMaterial->Activate())

  004d4	e5950014	 ldr         r0, [r5, #0x14]
  004d8	eb000000	 bl          |?Activate@Material@pvrengine@@QAA_NXZ|
  004dc	e3500000	 cmp         r0, #0
  004e0	1a00000a	 bne         |$LN56@draw|

; 97   : 					ConsoleLog::inst().log("Material %s failed to activate",m_pMaterial->getName().c_str());

  004e4	e5950014	 ldr         r0, [r5, #0x14]
  004e8	e28d1054	 add         r1, sp, #0x54
  004ec	eb000000	 bl          |?getName@Material@pvrengine@@QBA?AVCPVRTString@@XZ|
  004f0	eb000000	 bl          |?c_str@CPVRTString@@QBAPBDXZ|
  004f4	e1a04000	 mov         r4, r0
  004f8	eb000000	 bl          |?inst@?$CPVRTSingleton@VConsoleLog@pvrengine@@@@SAAAVConsoleLog@pvrengine@@XZ|
  004fc	e59f10d8	 ldr         r1, [pc, #0xD8]
  00500	e1a02004	 mov         r2, r4
  00504	eb000000	 bl          |?log@ConsoleLog@pvrengine@@QAAXPBDZZ|
  00508	e28d0054	 add         r0, sp, #0x54
  0050c	eb000000	 bl          |??1CPVRTString@@UAA@XZ|
  00510		 |$LN56@draw|

; 98   : 
; 99   : 				dynamicArray<Uniform> *pdaMeshUniforms = m_pMaterial->getMeshUniforms();

  00510	e5950014	 ldr         r0, [r5, #0x14]
  00514	eb000000	 bl          |?getMeshUniforms@Material@pvrengine@@QAAPAV?$dynamicArray@VUniform@pvrengine@@@@XZ|
  00518	e1a04000	 mov         r4, r0

; 100  : 				for(unsigned int i=0;i<pdaMeshUniforms->getSize();i++)

  0051c	e5943000	 ldr         r3, [r4]
  00520	e3a07000	 mov         r7, #0
  00524	e3530000	 cmp         r3, #0
  00528	0a00000b	 beq         |$LN53@draw|

; 98   : 
; 99   : 				dynamicArray<Uniform> *pdaMeshUniforms = m_pMaterial->getMeshUniforms();

  0052c	e3a06000	 mov         r6, #0
  00530		 |$LL55@draw|

; 101  : 				{
; 102  : 					sUniformHandler.CalculateMeshUniform((*pdaMeshUniforms)[i],m_psMesh, m_psNode);

  00530	e5941008	 ldr         r1, [r4, #8]
  00534	e595300c	 ldr         r3, [r5, #0xC]
  00538	e5952010	 ldr         r2, [r5, #0x10]
  0053c	e0861001	 add         r1, r6, r1
  00540	e1a00009	 mov         r0, r9
  00544	eb000000	 bl          |?CalculateMeshUniform@UniformHandler@pvrengine@@QAAXABVUniform@2@PAUSPODMesh@@PAUSPODNode@@@Z|
  00548	e5943000	 ldr         r3, [r4]
  0054c	e2877001	 add         r7, r7, #1
  00550	e286600c	 add         r6, r6, #0xC
  00554	e1570003	 cmp         r7, r3
  00558	3afffff4	 bcc         |$LL55@draw|
  0055c		 |$LN53@draw|

; 103  : 				}
; 104  : 				if(m_pMaterial->getSkinned())

  0055c	e5953014	 ldr         r3, [r5, #0x14]

; 105  : 					DrawSkinned();

  00560	e1a00005	 mov         r0, r5
  00564	e5d33006	 ldrb        r3, [r3, #6]
  00568	e3530000	 cmp         r3, #0
  0056c	0a000001	 beq         |$LN52@draw|
  00570	eb000000	 bl          |?DrawSkinned@Mesh@pvrengine@@AAAXXZ|

; 106  : 				else

  00574	ea000000	 b           |$LN51@draw|
  00578		 |$LN52@draw|

; 107  : 					DrawMesh();

  00578	eb000000	 bl          |?DrawMesh@Mesh@pvrengine@@AAAXXZ|
  0057c		 |$LN51@draw|

; 108  : 
; 109  : 				for(unsigned int j = 0; j < pdaMeshUniforms->getSize(); ++j)

  0057c	e5943000	 ldr         r3, [r4]
  00580	e3a05000	 mov         r5, #0
  00584	e3530000	 cmp         r3, #0
  00588	0a00000f	 beq         |$LN48@draw|
  0058c	e59f7044	 ldr         r7, [pc, #0x44]
  00590	e3a06000	 mov         r6, #0
  00594		 |$LL50@draw|
  00594	e5943008	 ldr         r3, [r4, #8]
  00598	e0862003	 add         r2, r6, r3

; 110  : 				{
; 111  : 					switch((*pdaMeshUniforms)[j].getSemantic())

  0059c	e5923004	 ldr         r3, [r2, #4]
  005a0	e2433001	 sub         r3, r3, #1
  005a4	e3530006	 cmp         r3, #6

; 112  : 					{
; 113  : 					case eUsPosition:
; 114  : 					case eUsNormal:
; 115  : 					case eUsUV:
; 116  : 					case eUsTangent:
; 117  : 					case eUsBinormal:
; 118  : 					case eUsBoneIndex:
; 119  : 					case eUsBoneWeight:
; 120  : 						{
; 121  : 							glDisableVertexAttribArray((*pdaMeshUniforms)[j].getLocation());

  005a8	95920000	 ldrls       r0, [r2]
  005ac	95973000	 ldrls       r3, [r7]
  005b0	91a0e00f	 movls       lr, pc
  005b4	912fff13	 bxls        r3
  005b8	e5943000	 ldr         r3, [r4]
  005bc	e2855001	 add         r5, r5, #1
  005c0	e286600c	 add         r6, r6, #0xC
  005c4	e1550003	 cmp         r5, r3
  005c8	3afffff1	 bcc         |$LL50@draw|
  005cc		 |$LN48@draw|

; 252  : 		}
; 253  : 
; 254  : 	}

  005cc	e28dd064	 add         sp, sp, #0x64
  005d0	e8bd4ff0	 ldmia       sp!, {r4 - r11, lr}
  005d4	e12fff1e	 bx          lr
  005d8		 |$LN163@draw|
  005d8		 |$LN164@draw|
  005d8	00000000	 DCD         |__imp_glDisableVertexAttribArray|
  005dc		 |$LN165@draw|
  005dc	00000000	 DCD         |??_C@_0BP@GFHOAM@Material?5?$CFs?5failed?5to?5activate?$AA@|
  005e0		 |$LN166@draw|
  005e0	00000000	 DCD         |__imp_glBindBuffer|
  005e4		 |$LN167@draw|
  005e4	00000000	 DCD         |__imp_glEnableVertexAttribArray|
  005e8		 |$LN168@draw|
  005e8	00000000	 DCD         |__imp_glVertexAttribPointer|
  005ec		 |$M38548|

			 ENDP  ; |?draw@Mesh@pvrengine@@QAAXXZ|, pvrengine::Mesh::draw

	IMPORT	|??1MaterialManager@pvrengine@@UAA@XZ|	; pvrengine::MaterialManager::~MaterialManager

  00000			 AREA	 |.pdata|, PDATA
|$T38563| DCD	|$LN5@dynamic|
	DCD	0x40000601
; Function compile flags: /Ogspy

  00000			 AREA	 |.text$yd|, CODE, ARM

  00000		 |??__Fobject@?1??inst@?$CPVRTSingleton@VMaterialManager@pvrengine@@@@SAAAVMaterialManager@pvrengine@@XZ@YAXXZ| PROC ; `CPVRTSingleton<pvrengine::MaterialManager>::inst'::`2'::`dynamic atexit destructor for 'object''
  00000		 |$LN5@dynamic|
  00000	e52de004	 str         lr, [sp, #-4]!
  00004		 |$M38560|
  00004	e59f0008	 ldr         r0, [pc, #8]
  00008	eb000000	 bl          |??1MaterialManager@pvrengine@@UAA@XZ|
  0000c	e49de004	 ldr         lr, [sp], #4
  00010	e12fff1e	 bx          lr
  00014		 |$LN6@dynamic|
  00014		 |$LN7@dynamic|
  00014	00000000	 DCD         |?object@?1??inst@?$CPVRTSingleton@VMaterialManager@pvrengine@@@@SAAAVMaterialManager@pvrengine@@XZ@4V34@A|
  00018		 |$M38561|

			 ENDP  ; |??__Fobject@?1??inst@?$CPVRTSingleton@VMaterialManager@pvrengine@@@@SAAAVMaterialManager@pvrengine@@XZ@YAXXZ|, `CPVRTSingleton<pvrengine::MaterialManager>::inst'::`2'::`dynamic atexit destructor for 'object''

	IMPORT	|??1ConsoleLog@pvrengine@@UAA@XZ|	; pvrengine::ConsoleLog::~ConsoleLog

  00000			 AREA	 |.pdata|, PDATA
|$T38572| DCD	|$LN5@dynamic@2|
	DCD	0x40000601
; Function compile flags: /Ogspy

  00000			 AREA	 |.text$yd|, CODE, ARM

  00000		 |??__Fobject@?1??inst@?$CPVRTSingleton@VConsoleLog@pvrengine@@@@SAAAVConsoleLog@pvrengine@@XZ@YAXXZ| PROC ; `CPVRTSingleton<pvrengine::ConsoleLog>::inst'::`2'::`dynamic atexit destructor for 'object''
  00000		 |$LN5@dynamic@2|
  00000	e52de004	 str         lr, [sp, #-4]!
  00004		 |$M38569|
  00004	e59f0008	 ldr         r0, [pc, #8]
  00008	eb000000	 bl          |??1ConsoleLog@pvrengine@@UAA@XZ|
  0000c	e49de004	 ldr         lr, [sp], #4
  00010	e12fff1e	 bx          lr
  00014		 |$LN6@dynamic@2|
  00014		 |$LN7@dynamic@2|
  00014	00000000	 DCD         |?object@?1??inst@?$CPVRTSingleton@VConsoleLog@pvrengine@@@@SAAAVConsoleLog@pvrengine@@XZ@4V34@A|
  00018		 |$M38570|

			 ENDP  ; |??__Fobject@?1??inst@?$CPVRTSingleton@VConsoleLog@pvrengine@@@@SAAAVConsoleLog@pvrengine@@XZ@YAXXZ|, `CPVRTSingleton<pvrengine::ConsoleLog>::inst'::`2'::`dynamic atexit destructor for 'object''


  00000			 AREA	 |.pdata|, PDATA
|$T38589| DCD	|$LN9@dynamic@3|
	DCD	0x40000600
; Function compile flags: /Ogspy

  00000			 AREA	 |.text$yd|, CODE, ARM

  00000		 |??__Fobject@?1??inst@?$CPVRTSingleton@VUniformHandler@pvrengine@@@@SAAAVUniformHandler@pvrengine@@XZ@YAXXZ| PROC ; `CPVRTSingleton<pvrengine::UniformHandler>::inst'::`2'::`dynamic atexit destructor for 'object''
  00000		 |$LN9@dynamic@3|
  00000		 |$M38586|
  00000	e59f200c	 ldr         r2, [pc, #0xC]
  00004	e59f3004	 ldr         r3, [pc, #4]
  00008	e5832000	 str         r2, [r3]
  0000c	e12fff1e	 bx          lr
  00010		 |$LN10@dynamic@3|
  00010		 |$LN11@dynamic@3|
  00010	00000000	 DCD         |?object@?1??inst@?$CPVRTSingleton@VUniformHandler@pvrengine@@@@SAAAVUniformHandler@pvrengine@@XZ@4V34@A|
  00014		 |$LN12@dynamic@3|
  00014	00000000	 DCD         |??_7?$CPVRTSingleton@VUniformHandler@pvrengine@@@@6B@|
  00018		 |$M38587|

			 ENDP  ; |??__Fobject@?1??inst@?$CPVRTSingleton@VUniformHandler@pvrengine@@@@SAAAVUniformHandler@pvrengine@@XZ@YAXXZ|, `CPVRTSingleton<pvrengine::UniformHandler>::inst'::`2'::`dynamic atexit destructor for 'object''

	END
