; Listing generated by Microsoft (R) Optimizing Compiler Version 14.01.60511.01 

	TTL	C:\WINCE600\PUBLIC\PowerVR-SDK\OGLES2\Extras\PVREngine\MeshManager.cpp
	CODE32

  00000			 AREA	 |.drectve|, DRECTVE
	DCB	"-defaultlib:LIBCMT "
	DCB	"-defaultlib:OLDNAMES "

	EXPORT	|?c_i32DefaultSize@?$dynamicArray@VUniform@pvrengine@@@@2HB| [ DATA ] ; dynamicArray<pvrengine::Uniform>::c_i32DefaultSize
	EXPORT	|?c_i32DefaultSize@?$dynamicArray@USPVRTPFXUniform@@@@2HB| [ DATA ] ; dynamicArray<SPVRTPFXUniform>::c_i32DefaultSize
	EXPORT	|?c_i32DefaultSize@?$dynamicArray@PAVMesh@pvrengine@@@@2HB| [ DATA ] ; dynamicArray<pvrengine::Mesh *>::c_i32DefaultSize

  00000			 AREA	 |.rdata|, DATA, READONLY
|?c_i32DefaultSize@?$dynamicArray@PAVMesh@pvrengine@@@@2HB| DCD 0x8 ; dynamicArray<pvrengine::Mesh *>::c_i32DefaultSize

  00000			 AREA	 |.rdata|, DATA, READONLY
|?c_i32DefaultSize@?$dynamicArray@USPVRTPFXUniform@@@@2HB| DCD 0x8 ; dynamicArray<SPVRTPFXUniform>::c_i32DefaultSize

  00000			 AREA	 |.rdata|, DATA, READONLY
|?c_i32DefaultSize@?$dynamicArray@VUniform@pvrengine@@@@2HB| DCD 0x8 ; dynamicArray<pvrengine::Uniform>::c_i32DefaultSize
	EXPORT	|??_H@YAXPAXIHP6APAX0@Z@Z|		; `vector constructor iterator'

  00000			 AREA	 |.pdata|, PDATA
|$T36926| DCD	|$LN9@vector|
	DCD	0x40000e01
; Function compile flags: /Ogspy

  00000			 AREA	 |.text|, CODE, ARM

  00000		 |??_H@YAXPAXIHP6APAX0@Z@Z| PROC	; `vector constructor iterator'
  00000		 |$LN9@vector|
  00000	e92d40f0	 stmdb       sp!, {r4 - r7, lr}
  00004		 |$M36923|
  00004	e1a06003	 mov         r6, r3
  00008	e1a07001	 mov         r7, r1
  0000c	e1a04000	 mov         r4, r0
  00010	e2525001	 subs        r5, r2, #1
  00014	4a000005	 bmi         |$LN1@vector|
  00018		 |$LL2@vector|
  00018	e1a00004	 mov         r0, r4
  0001c	e1a0e00f	 mov         lr, pc
  00020	e12fff16	 bx          r6
  00024	e0844007	 add         r4, r4, r7
  00028	e2555001	 subs        r5, r5, #1
  0002c	5afffff9	 bpl         |$LL2@vector|
  00030		 |$LN1@vector|
  00030	e8bd40f0	 ldmia       sp!, {r4 - r7, lr}
  00034	e12fff1e	 bx          lr
  00038		 |$M36924|

			 ENDP  ; |??_H@YAXPAXIHP6APAX0@Z@Z|, `vector constructor iterator'

	EXPORT	|?getDrawMode@Mesh@pvrengine@@QBA?AW4DrawMode@12@XZ| ; pvrengine::Mesh::getDrawMode
; File c:\wince600\public\powervr-sdk\ogles2\extras\pvrengine\include\ogles2\mesh.h

  00000			 AREA	 |.pdata|, PDATA
|$T36936| DCD	|$LN5@getDrawMod|
	DCD	0x40000200
; Function compile flags: /Ogspy

  00000			 AREA	 |.text|, CODE, ARM

  00000		 |?getDrawMode@Mesh@pvrengine@@QBA?AW4DrawMode@12@XZ| PROC ; pvrengine::Mesh::getDrawMode

; 112  : 		DrawMode getDrawMode() const	{return m_eDrawMode;}

  00000		 |$LN5@getDrawMod|
  00000		 |$M36933|
  00000	e59001c8	 ldr         r0, [r0, #0x1C8]
  00004	e12fff1e	 bx          lr
  00008		 |$M36934|

			 ENDP  ; |?getDrawMode@Mesh@pvrengine@@QBA?AW4DrawMode@12@XZ|, pvrengine::Mesh::getDrawMode

	EXPORT	|??Opvrengine@@YA_NABVMesh@0@0@Z|	; pvrengine::operator>

  00000			 AREA	 |.pdata|, PDATA
|$T36949| DCD	|$LN7@operator|
	DCD	0x40000800
; Function compile flags: /Ogspy

  00000			 AREA	 |.text|, CODE, ARM

  00000		 |??Opvrengine@@YA_NABVMesh@0@0@Z| PROC	; pvrengine::operator>

; 219  : 		{

  00000		 |$LN7@operator|
  00000		 |$M36946|

; 220  : 			return A.m_pMaterial>B.m_pMaterial;	// just compare material pointers

  00000	e5902014	 ldr         r2, [r0, #0x14]
  00004	e5913014	 ldr         r3, [r1, #0x14]
  00008	e1520003	 cmp         r2, r3
  0000c	83a03001	 movhi       r3, #1
  00010	820300ff	 andhi       r0, r3, #0xFF
  00014	93a03000	 movls       r3, #0
  00018	920300ff	 andls       r0, r3, #0xFF

; 221  : 		}

  0001c	e12fff1e	 bx          lr
  00020		 |$M36947|

			 ENDP  ; |??Opvrengine@@YA_NABVMesh@0@0@Z|, pvrengine::operator>

	EXPORT	|?getDrawModeName@MeshManager@pvrengine@@QBA?AVCPVRTString@@W4DrawMode@Mesh@2@@Z| ; pvrengine::MeshManager::getDrawModeName
	IMPORT	|??0CPVRTString@@QAA@ABV0@II@Z|		; CPVRTString::CPVRTString
	IMPORT	|?npos@CPVRTString@@2IB|		; CPVRTString::npos
	IMPORT	|?g_strDrawModeNames@Mesh@pvrengine@@2QBVCPVRTString@@B| ; pvrengine::Mesh::g_strDrawModeNames
; File c:\wince600\public\powervr-sdk\ogles2\extras\pvrengine\meshmanager.cpp

  00000			 AREA	 |.pdata|, PDATA
|$T36960| DCD	|$LN5@getDrawMod@2|
	DCD	0x40000f01
; Function compile flags: /Ogspy

  00000			 AREA	 |.text|, CODE, ARM

  00000		 |?getDrawModeName@MeshManager@pvrengine@@QBA?AVCPVRTString@@W4DrawMode@Mesh@2@@Z| PROC ; pvrengine::MeshManager::getDrawModeName

; 54   : 	{

  00000		 |$LN5@getDrawMod@2|
  00000	e92d4010	 stmdb       sp!, {r4, lr}
  00004		 |$M36957|
  00004	e1a0e002	 mov         lr, r2
  00008	e1a04001	 mov         r4, r1

; 55   : 		return Mesh::g_strDrawModeNames[eDrawMode];

  0000c	e59f3024	 ldr         r3, [pc, #0x24]
  00010	e59f001c	 ldr         r0, [pc, #0x1C]
  00014	e3a02000	 mov         r2, #0
  00018	e5933000	 ldr         r3, [r3]
  0001c	e080120e	 add         r1, r0, lr, lsl #4
  00020	e1a00004	 mov         r0, r4
  00024	eb000000	 bl          |??0CPVRTString@@QAA@ABV0@II@Z|

; 56   : 	}

  00028	e1a00004	 mov         r0, r4
  0002c	e8bd4010	 ldmia       sp!, {r4, lr}
  00030	e12fff1e	 bx          lr
  00034		 |$LN6@getDrawMod@2|
  00034		 |$LN7@getDrawMod@2|
  00034	00000000	 DCD         |?g_strDrawModeNames@Mesh@pvrengine@@2QBVCPVRTString@@B|
  00038		 |$LN8@getDrawMod@2|
  00038	00000000	 DCD         |?npos@CPVRTString@@2IB|
  0003c		 |$M36958|

			 ENDP  ; |?getDrawModeName@MeshManager@pvrengine@@QBA?AVCPVRTString@@W4DrawMode@Mesh@2@@Z|, pvrengine::MeshManager::getDrawModeName

	EXPORT	|?getMeshes@MeshManager@pvrengine@@QAAPAV?$dynamicArray@PAVMesh@pvrengine@@@@XZ| ; pvrengine::MeshManager::getMeshes

  00000			 AREA	 |.pdata|, PDATA
|$T36973| DCD	|$LN5@getMeshes|
	DCD	0x40000100
; Function compile flags: /Ogspy

  00000			 AREA	 |.text|, CODE, ARM

  00000		 |?getMeshes@MeshManager@pvrengine@@QAAPAV?$dynamicArray@PAVMesh@pvrengine@@@@XZ| PROC ; pvrengine::MeshManager::getMeshes

; 61   : 	{

  00000		 |$LN5@getMeshes|
  00000		 |$M36970|

; 62   : 		return &m_daMeshes;
; 63   : 	}

  00000	e12fff1e	 bx          lr
  00004		 |$M36971|

			 ENDP  ; |?getMeshes@MeshManager@pvrengine@@QAAPAV?$dynamicArray@PAVMesh@pvrengine@@@@XZ|, pvrengine::MeshManager::getMeshes

	EXPORT	|??_GMesh@pvrengine@@QAAPAXI@Z|		; pvrengine::Mesh::`scalar deleting destructor'
	IMPORT	|??3@YAXPAX@Z|				; operator delete
	IMPORT	|??1Mesh@pvrengine@@QAA@XZ|		; pvrengine::Mesh::~Mesh

  00000			 AREA	 |.pdata|, PDATA
|$T36984| DCD	|$LN6@scalar|
	DCD	0x40000a01
; Function compile flags: /Ogspy

  00000			 AREA	 |.text|, CODE, ARM

  00000		 |??_GMesh@pvrengine@@QAAPAXI@Z| PROC	; pvrengine::Mesh::`scalar deleting destructor'
  00000		 |$LN6@scalar|
  00000	e92d4030	 stmdb       sp!, {r4, r5, lr}
  00004		 |$M36981|
  00004	e1a04001	 mov         r4, r1
  00008	e1a05000	 mov         r5, r0
  0000c	eb000000	 bl          |??1Mesh@pvrengine@@QAA@XZ|
  00010	e3140001	 tst         r4, #1
  00014	11a00005	 movne       r0, r5
  00018	1b000000	 blne        |??3@YAXPAX@Z|
  0001c	e1a00005	 mov         r0, r5
  00020	e8bd4030	 ldmia       sp!, {r4, r5, lr}
  00024	e12fff1e	 bx          lr
  00028		 |$M36982|

			 ENDP  ; |??_GMesh@pvrengine@@QAAPAXI@Z|, pvrengine::Mesh::`scalar deleting destructor'

	EXPORT	|?Init@MeshManager@pvrengine@@AAAXXZ|	; pvrengine::MeshManager::Init

  00000			 AREA	 |.pdata|, PDATA
|$T36991| DCD	|$LN5@Init|
	DCD	0x40000100
; Function compile flags: /Ogspy

  00000			 AREA	 |.text|, CODE, ARM

  00000		 |?Init@MeshManager@pvrengine@@AAAXXZ| PROC ; pvrengine::MeshManager::Init

; 78   : 	{

  00000		 |$LN5@Init|
  00000		 |$M36988|

; 79   : 	}

  00000	e12fff1e	 bx          lr
  00004		 |$M36989|

			 ENDP  ; |?Init@MeshManager@pvrengine@@AAAXXZ|, pvrengine::MeshManager::Init

	EXPORT	|??0?$dynamicArray@PAVMesh@pvrengine@@@@QAA@XZ| ; dynamicArray<pvrengine::Mesh *>::dynamicArray<pvrengine::Mesh *>
	IMPORT	|??2@YAPAXI@Z|				; operator new
; File c:\wince600\public\powervr-sdk\ogles2\extras\pvrengine\include\dynamicarray.h

  00000			 AREA	 |.pdata|, PDATA
|$T37002| DCD	|$LN5@dynamicArr|
	DCD	0x40000c01
; Function compile flags: /Ogspy

  00000			 AREA	 |.text|, CODE, ARM

  00000		 |??0?$dynamicArray@PAVMesh@pvrengine@@@@QAA@XZ| PROC ; dynamicArray<pvrengine::Mesh *>::dynamicArray<pvrengine::Mesh *>

; 57   : 	{

  00000		 |$LN5@dynamicArr|
  00000	e92d4010	 stmdb       sp!, {r4, lr}
  00004		 |$M36999|
  00004	e1a04000	 mov         r4, r0
  00008	e3a03000	 mov         r3, #0
  0000c	e3a02008	 mov         r2, #8

; 58   : 		m_pArray = new T[c_i32DefaultSize];

  00010	e3a00020	 mov         r0, #0x20
  00014	e5843000	 str         r3, [r4]
  00018	e5842004	 str         r2, [r4, #4]
  0001c	eb000000	 bl          |??2@YAPAXI@Z|
  00020	e5840008	 str         r0, [r4, #8]

; 59   : 	}

  00024	e1a00004	 mov         r0, r4
  00028	e8bd4010	 ldmia       sp!, {r4, lr}
  0002c	e12fff1e	 bx          lr
  00030		 |$M37000|

			 ENDP  ; |??0?$dynamicArray@PAVMesh@pvrengine@@@@QAA@XZ|, dynamicArray<pvrengine::Mesh *>::dynamicArray<pvrengine::Mesh *>

	EXPORT	|??1?$dynamicArray@PAVMesh@pvrengine@@@@QAA@XZ| ; dynamicArray<pvrengine::Mesh *>::~dynamicArray<pvrengine::Mesh *>

  00000			 AREA	 |.pdata|, PDATA
|$T37011| DCD	|$LN6@dynamicArr@2|
	DCD	0x40000701
; Function compile flags: /Ogspy

  00000			 AREA	 |.text|, CODE, ARM

  00000		 |??1?$dynamicArray@PAVMesh@pvrengine@@@@QAA@XZ| PROC ; dynamicArray<pvrengine::Mesh *>::~dynamicArray<pvrengine::Mesh *>

; 113  : 	{

  00000		 |$LN6@dynamicArr@2|
  00000	e52de004	 str         lr, [sp, #-4]!
  00004		 |$M37008|

; 114  : 		if(m_pArray)

  00004	e5903008	 ldr         r3, [r0, #8]
  00008	e3530000	 cmp         r3, #0

; 115  : 			delete[](m_pArray);

  0000c	11a00003	 movne       r0, r3
  00010	1b000000	 blne        |??3@YAXPAX@Z|

; 116  : 	}

  00014	e49de004	 ldr         lr, [sp], #4
  00018	e12fff1e	 bx          lr
  0001c		 |$M37009|

			 ENDP  ; |??1?$dynamicArray@PAVMesh@pvrengine@@@@QAA@XZ|, dynamicArray<pvrengine::Mesh *>::~dynamicArray<pvrengine::Mesh *>

	EXPORT	|?append@?$dynamicArray@PAVMesh@pvrengine@@@@QAAXPAVMesh@pvrengine@@@Z| ; dynamicArray<pvrengine::Mesh *>::append

  00000			 AREA	 |.pdata|, PDATA
|$T37029| DCD	|$LN13@append|
	DCD	0x40002401
; Function compile flags: /Ogspy

  00000			 AREA	 |.text|, CODE, ARM

  00000		 |?append@?$dynamicArray@PAVMesh@pvrengine@@@@QAAXPAVMesh@pvrengine@@@Z| PROC ; dynamicArray<pvrengine::Mesh *>::append

; 126  : 	{

  00000		 |$LN13@append|
  00000	e92d4030	 stmdb       sp!, {r4, r5, lr}
  00004		 |$M37026|
  00004	e1a05001	 mov         r5, r1
  00008	e1a04000	 mov         r4, r0

; 127  : 		if(m_i32Size==m_i32Capacity)		// should never be >

  0000c	e5942004	 ldr         r2, [r4, #4]
  00010	e5943000	 ldr         r3, [r4]
  00014	e1530002	 cmp         r3, r2
  00018	1a000014	 bne         |$LN4@append|

; 128  : 		{	// expand array: expensive
; 129  : 
; 130  : 			m_i32Capacity*=2;	// array doubles in size for each expansion

  0001c	e1a03082	 mov         r3, r2, lsl #1

; 131  : 			T *pDeadArray,*pNewArray = new T[m_i32Capacity]; // make new array

  00020	e3730107	 cmn         r3, #7, 2
  00024	91a00103	 movls       r0, r3, lsl #2
  00028	83e00000	 mvnhi       r0, #0
  0002c	e5843004	 str         r3, [r4, #4]
  00030	eb000000	 bl          |??2@YAPAXI@Z|

; 132  : 
; 133  : 			// copy old values to new array
; 134  : 			for(int i=0;i<m_i32Size;i++)

  00034	e5943000	 ldr         r3, [r4]
  00038	e1a01000	 mov         r1, r0
  0003c	e3a02000	 mov         r2, #0
  00040	e3530000	 cmp         r3, #0
  00044	da000006	 ble         |$LN1@append|
  00048		 |$LL3@append|

; 135  : 			{
; 136  : 				pNewArray[i]=m_pArray[i];

  00048	e5943008	 ldr         r3, [r4, #8]
  0004c	e7933102	 ldr         r3, [r3, +r2, lsl #2]
  00050	e7813102	 str         r3, [r1, +r2, lsl #2]
  00054	e5943000	 ldr         r3, [r4]
  00058	e2822001	 add         r2, r2, #1
  0005c	e1520003	 cmp         r2, r3
  00060	bafffff8	 blt         |$LL3@append|
  00064		 |$LN1@append|

; 137  : 			}
; 138  : 
; 139  : 
; 140  : 			pDeadArray = m_pArray;

  00064	e5940008	 ldr         r0, [r4, #8]

; 141  : 			m_pArray = pNewArray;

  00068	e5841008	 str         r1, [r4, #8]

; 142  : 			delete[](pDeadArray);

  0006c	eb000000	 bl          |??3@YAXPAX@Z|
  00070		 |$LN4@append|

; 143  : 		}
; 144  : 		// add new element to end of array
; 145  : 
; 146  : 		m_pArray[m_i32Size] = addT;

  00070	e5942000	 ldr         r2, [r4]
  00074	e5943008	 ldr         r3, [r4, #8]
  00078	e7835102	 str         r5, [r3, +r2, lsl #2]

; 147  : 		m_i32Size++;

  0007c	e5943000	 ldr         r3, [r4]
  00080	e2833001	 add         r3, r3, #1
  00084	e5843000	 str         r3, [r4]

; 148  : 	}

  00088	e8bd4030	 ldmia       sp!, {r4, r5, lr}
  0008c	e12fff1e	 bx          lr
  00090		 |$M37027|

			 ENDP  ; |?append@?$dynamicArray@PAVMesh@pvrengine@@@@QAAXPAVMesh@pvrengine@@@Z|, dynamicArray<pvrengine::Mesh *>::append

	EXPORT	|??A?$dynamicArray@PAVMesh@pvrengine@@@@QAAAAPAVMesh@pvrengine@@H@Z| ; dynamicArray<pvrengine::Mesh *>::operator[]

  00000			 AREA	 |.pdata|, PDATA
|$T37040| DCD	|$LN5@operator@2|
	DCD	0x40000300
; Function compile flags: /Ogspy

  00000			 AREA	 |.text|, CODE, ARM

  00000		 |??A?$dynamicArray@PAVMesh@pvrengine@@@@QAAAAPAVMesh@pvrengine@@H@Z| PROC ; dynamicArray<pvrengine::Mesh *>::operator[]

; 216  : 	{

  00000		 |$LN5@operator@2|
  00000		 |$M37037|

; 217  : 		_ASSERT(i32Index<m_i32Capacity);
; 218  : 		return m_pArray[i32Index];

  00000	e5903008	 ldr         r3, [r0, #8]
  00004	e0830101	 add         r0, r3, r1, lsl #2

; 219  : 	}

  00008	e12fff1e	 bx          lr
  0000c		 |$M37038|

			 ENDP  ; |??A?$dynamicArray@PAVMesh@pvrengine@@@@QAAAAPAVMesh@pvrengine@@H@Z|, dynamicArray<pvrengine::Mesh *>::operator[]

	EXPORT	|??A?$dynamicArray@PAVMesh@pvrengine@@@@QBAABQAVMesh@pvrengine@@H@Z| ; dynamicArray<pvrengine::Mesh *>::operator[]

  00000			 AREA	 |.pdata|, PDATA
|$T37051| DCD	|$LN5@operator@3|
	DCD	0x40000300
; Function compile flags: /Ogspy

  00000			 AREA	 |.text|, CODE, ARM

  00000		 |??A?$dynamicArray@PAVMesh@pvrengine@@@@QBAABQAVMesh@pvrengine@@H@Z| PROC ; dynamicArray<pvrengine::Mesh *>::operator[]

; 229  : 	{

  00000		 |$LN5@operator@3|
  00000		 |$M37048|

; 230  : 		_ASSERT(i32Index<m_i32Capacity);
; 231  : 		return m_pArray[i32Index];

  00000	e5903008	 ldr         r3, [r0, #8]
  00004	e0830101	 add         r0, r3, r1, lsl #2

; 232  : 	}

  00008	e12fff1e	 bx          lr
  0000c		 |$M37049|

			 ENDP  ; |??A?$dynamicArray@PAVMesh@pvrengine@@@@QBAABQAVMesh@pvrengine@@H@Z|, dynamicArray<pvrengine::Mesh *>::operator[]

	EXPORT	|?getSize@?$dynamicArray@PAVMesh@pvrengine@@@@QBAIXZ| ; dynamicArray<pvrengine::Mesh *>::getSize

  00000			 AREA	 |.pdata|, PDATA
|$T37061| DCD	|$LN5@getSize|
	DCD	0x40000200
; Function compile flags: /Ogspy

  00000			 AREA	 |.text|, CODE, ARM

  00000		 |?getSize@?$dynamicArray@PAVMesh@pvrengine@@@@QBAIXZ| PROC ; dynamicArray<pvrengine::Mesh *>::getSize

; 240  : 	{

  00000		 |$LN5@getSize|
  00000		 |$M37058|

; 241  : 		return m_i32Size;

  00000	e5900000	 ldr         r0, [r0]

; 242  : 	}

  00004	e12fff1e	 bx          lr
  00008		 |$M37059|

			 ENDP  ; |?getSize@?$dynamicArray@PAVMesh@pvrengine@@@@QBAIXZ|, dynamicArray<pvrengine::Mesh *>::getSize

	EXPORT	|??$PVRTswap@PAVMesh@pvrengine@@@@YAXAAPAVMesh@pvrengine@@0@Z| ; PVRTswap<pvrengine::Mesh *>
; File c:\wince600\public\powervr-sdk\ogles2\tools\pvrtglobal.h

  00000			 AREA	 |.pdata|, PDATA
|$T37071| DCD	|$LN5@PVRTswap|
	DCD	0x40000500
; Function compile flags: /Ogspy

  00000			 AREA	 |.text|, CODE, ARM

  00000		 |??$PVRTswap@PAVMesh@pvrengine@@@@YAXAAPAVMesh@pvrengine@@0@Z| PROC ; PVRTswap<pvrengine::Mesh *>

; 152  : {

  00000		 |$LN5@PVRTswap|
  00000		 |$M37068|

; 153  : 	T temp = a;
; 154  : 	a = b;

  00000	e5913000	 ldr         r3, [r1]
  00004	e5902000	 ldr         r2, [r0]
  00008	e5803000	 str         r3, [r0]

; 155  : 	b = temp;

  0000c	e5812000	 str         r2, [r1]

; 156  : }

  00010	e12fff1e	 bx          lr
  00014		 |$M37069|

			 ENDP  ; |??$PVRTswap@PAVMesh@pvrengine@@@@YAXAAPAVMesh@pvrengine@@0@Z|, PVRTswap<pvrengine::Mesh *>

	EXPORT	|??0MeshManager@pvrengine@@QAA@XZ|	; pvrengine::MeshManager::MeshManager
; File c:\wince600\public\powervr-sdk\ogles2\extras\pvrengine\meshmanager.cpp

  00000			 AREA	 |.pdata|, PDATA
|$T37089| DCD	|$LN9@MeshManage|
	DCD	0x40000c01
; Function compile flags: /Ogspy

  00000			 AREA	 |.text|, CODE, ARM

  00000		 |??0MeshManager@pvrengine@@QAA@XZ| PROC ; pvrengine::MeshManager::MeshManager

; 22   : 	{

  00000		 |$LN9@MeshManage|
  00000	e92d4010	 stmdb       sp!, {r4, lr}
  00004		 |$M37086|
  00004	e1a04000	 mov         r4, r0
  00008	e3a03000	 mov         r3, #0
  0000c	e3a02008	 mov         r2, #8
  00010	e3a00020	 mov         r0, #0x20
  00014	e5843000	 str         r3, [r4]
  00018	e5842004	 str         r2, [r4, #4]
  0001c	eb000000	 bl          |??2@YAPAXI@Z|
  00020	e5840008	 str         r0, [r4, #8]

; 23   : 		Init();
; 24   : 	}

  00024	e1a00004	 mov         r0, r4
  00028	e8bd4010	 ldmia       sp!, {r4, lr}
  0002c	e12fff1e	 bx          lr
  00030		 |$M37087|

			 ENDP  ; |??0MeshManager@pvrengine@@QAA@XZ|, pvrengine::MeshManager::MeshManager

	EXPORT	|?addMesh@MeshManager@pvrengine@@QAAXAAVCPVRTModelPOD@@PAUSPODNode@@PAUSPODMesh@@@Z| ; pvrengine::MeshManager::addMesh
	IMPORT	|??0Mesh@pvrengine@@QAA@PAVCPVRTModelPOD@@PAUSPODNode@@PAUSPODMesh@@@Z| ; pvrengine::Mesh::Mesh

  00000			 AREA	 |.pdata|, PDATA
|$T37104| DCD	|$LN7@addMesh|
	DCD	0x40001401
; Function compile flags: /Ogspy

  00000			 AREA	 |.text|, CODE, ARM

  00000		 |?addMesh@MeshManager@pvrengine@@QAAXAAVCPVRTModelPOD@@PAUSPODNode@@PAUSPODMesh@@@Z| PROC ; pvrengine::MeshManager::addMesh

; 29   : 	{

  00000		 |$LN7@addMesh|
  00000	e92d40f0	 stmdb       sp!, {r4 - r7, lr}
  00004		 |$M37101|
  00004	e1a05003	 mov         r5, r3
  00008	e1a06002	 mov         r6, r2
  0000c	e1a07001	 mov         r7, r1
  00010	e1a04000	 mov         r4, r0

; 30   : 		m_daMeshes.append(new Mesh(&sScene, pNode, pMesh));

  00014	e3a00f7b	 mov         r0, #0x7B, 30
  00018	eb000000	 bl          |??2@YAPAXI@Z|
  0001c	e3500000	 cmp         r0, #0
  00020	0a000004	 beq         |$LN3@addMesh|
  00024	e1a03005	 mov         r3, r5
  00028	e1a02006	 mov         r2, r6
  0002c	e1a01007	 mov         r1, r7
  00030	eb000000	 bl          |??0Mesh@pvrengine@@QAA@PAVCPVRTModelPOD@@PAUSPODNode@@PAUSPODMesh@@@Z|
  00034	ea000000	 b           |$LN4@addMesh|
  00038		 |$LN3@addMesh|
  00038	e3a00000	 mov         r0, #0
  0003c		 |$LN4@addMesh|
  0003c	e1a01000	 mov         r1, r0
  00040	e1a00004	 mov         r0, r4
  00044	eb000000	 bl          |?append@?$dynamicArray@PAVMesh@pvrengine@@@@QAAXPAVMesh@pvrengine@@@Z|

; 31   : 	}

  00048	e8bd40f0	 ldmia       sp!, {r4 - r7, lr}
  0004c	e12fff1e	 bx          lr
  00050		 |$M37102|

			 ENDP  ; |?addMesh@MeshManager@pvrengine@@QAAXAAVCPVRTModelPOD@@PAUSPODNode@@PAUSPODMesh@@@Z|, pvrengine::MeshManager::addMesh

	EXPORT	|?setDrawMode@MeshManager@pvrengine@@QAAXW4DrawMode@Mesh@2@@Z| ; pvrengine::MeshManager::setDrawMode
	IMPORT	|?setDrawMode@Mesh@pvrengine@@QAA_NW4DrawMode@12@@Z| ; pvrengine::Mesh::setDrawMode
; File c:\wince600\public\powervr-sdk\ogles2\extras\pvrengine\include\dynamicarray.h

  00000			 AREA	 |.pdata|, PDATA
|$T37130| DCD	|$LN19@setDrawMod|
	DCD	0x40001301
; Function compile flags: /Ogspy
; File c:\wince600\public\powervr-sdk\ogles2\extras\pvrengine\meshmanager.cpp

  00000			 AREA	 |.text|, CODE, ARM

  00000		 |?setDrawMode@MeshManager@pvrengine@@QAAXW4DrawMode@Mesh@2@@Z| PROC ; pvrengine::MeshManager::setDrawMode

; 36   : 	{

  00000		 |$LN19@setDrawMod|
  00000	e92d4070	 stmdb       sp!, {r4 - r6, lr}
  00004		 |$M37127|
  00004	e1a06001	 mov         r6, r1
  00008	e1a05000	 mov         r5, r0

; 37   : 		for(unsigned int i=0;i<m_daMeshes.getSize();i++)

  0000c	e5953000	 ldr         r3, [r5]
  00010	e3a04000	 mov         r4, #0
  00014	e3530000	 cmp         r3, #0
  00018	0a000009	 beq         |$LN2@setDrawMod|
  0001c		 |$LL4@setDrawMod|

; 38   : 		{
; 39   : 			if(m_daMeshes[i]->getDrawMode()!=eDrawMode)

  0001c	e5953008	 ldr         r3, [r5, #8]
  00020	e7930104	 ldr         r0, [r3, +r4, lsl #2]
  00024	e59031c8	 ldr         r3, [r0, #0x1C8]
  00028	e1530006	 cmp         r3, r6

; 40   : 				m_daMeshes[i]->setDrawMode(eDrawMode);

  0002c	11a01006	 movne       r1, r6
  00030	1b000000	 blne        |?setDrawMode@Mesh@pvrengine@@QAA_NW4DrawMode@12@@Z|
  00034	e5953000	 ldr         r3, [r5]
  00038	e2844001	 add         r4, r4, #1
  0003c	e1540003	 cmp         r4, r3
  00040	3afffff5	 bcc         |$LL4@setDrawMod|
  00044		 |$LN2@setDrawMod|

; 41   : 		}
; 42   : 	}

  00044	e8bd4070	 ldmia       sp!, {r4 - r6, lr}
  00048	e12fff1e	 bx          lr
  0004c		 |$M37128|

			 ENDP  ; |?setDrawMode@MeshManager@pvrengine@@QAAXW4DrawMode@Mesh@2@@Z|, pvrengine::MeshManager::setDrawMode

	EXPORT	|?getDrawMode@MeshManager@pvrengine@@QBA?AW4DrawMode@Mesh@2@I@Z| ; pvrengine::MeshManager::getDrawMode
; File c:\wince600\public\powervr-sdk\ogles2\extras\pvrengine\include\ogles2\mesh.h

  00000			 AREA	 |.pdata|, PDATA
|$T37148| DCD	|$LN9@getDrawMod@3|
	DCD	0x40000400
; Function compile flags: /Ogspy
; File c:\wince600\public\powervr-sdk\ogles2\extras\pvrengine\meshmanager.cpp

  00000			 AREA	 |.text|, CODE, ARM

  00000		 |?getDrawMode@MeshManager@pvrengine@@QBA?AW4DrawMode@Mesh@2@I@Z| PROC ; pvrengine::MeshManager::getDrawMode

; 47   : 	{

  00000		 |$LN9@getDrawMod@3|
  00000		 |$M37145|

; 48   : 		return m_daMeshes[i32MeshNum]->getDrawMode();

  00000	e5903008	 ldr         r3, [r0, #8]
  00004	e7933101	 ldr         r3, [r3, +r1, lsl #2]
  00008	e59301c8	 ldr         r0, [r3, #0x1C8]

; 49   : 	}

  0000c	e12fff1e	 bx          lr
  00010		 |$M37146|

			 ENDP  ; |?getDrawMode@MeshManager@pvrengine@@QBA?AW4DrawMode@Mesh@2@I@Z|, pvrengine::MeshManager::getDrawMode

	EXPORT	|??1MeshManager@pvrengine@@QAA@XZ|	; pvrengine::MeshManager::~MeshManager
; File c:\wince600\public\powervr-sdk\ogles2\extras\pvrengine\include\dynamicarray.h

  00000			 AREA	 |.pdata|, PDATA
|$T37187| DCD	|$LN27@MeshManage@2|
	DCD	0x40002001
; Function compile flags: /Ogspy
; File c:\wince600\public\powervr-sdk\ogles2\extras\pvrengine\meshmanager.cpp

  00000			 AREA	 |.text|, CODE, ARM

  00000		 |??1MeshManager@pvrengine@@QAA@XZ| PROC ; pvrengine::MeshManager::~MeshManager

; 68   : 	{

  00000		 |$LN27@MeshManage@2|
  00000	e92d41f0	 stmdb       sp!, {r4 - r8, lr}
  00004		 |$M37184|
  00004	e1a04000	 mov         r4, r0

; 69   : 		for(unsigned int i=0;i<m_daMeshes.getSize();++i)

  00008	e5943000	 ldr         r3, [r4]
  0000c	e3a05000	 mov         r5, #0
  00010	e3530000	 cmp         r3, #0
  00014	0a000013	 beq         |$LN2@MeshManage@2|
  00018	e3a08000	 mov         r8, #0
  0001c		 |$LL4@MeshManage@2|
  0001c	e5943008	 ldr         r3, [r4, #8]
  00020	e1a07105	 mov         r7, r5, lsl #2
  00024	e1a02007	 mov         r2, r7

; 70   : 		{
; 71   : 			PVRDELETE(m_daMeshes[i]);

  00028	e7b23003	 ldr         r3, [r2, +r3]!
  0002c	e3530000	 cmp         r3, #0
  00030	0a000006	 beq         |$LN7@MeshManage@2|
  00034	e5923000	 ldr         r3, [r2]
  00038	e1b06003	 movs        r6, r3
  0003c	0a000003	 beq         |$LN7@MeshManage@2|
  00040	e1a00006	 mov         r0, r6
  00044	eb000000	 bl          |??1Mesh@pvrengine@@QAA@XZ|
  00048	e1a00006	 mov         r0, r6
  0004c	eb000000	 bl          |??3@YAXPAX@Z|
  00050		 |$LN7@MeshManage@2|
  00050	e5943008	 ldr         r3, [r4, #8]
  00054	e2855001	 add         r5, r5, #1
  00058	e7878003	 str         r8, [r7, +r3]
  0005c	e5943000	 ldr         r3, [r4]
  00060	e1550003	 cmp         r5, r3
  00064	3affffec	 bcc         |$LL4@MeshManage@2|
  00068		 |$LN2@MeshManage@2|

; 72   : 		}
; 73   : 	}

  00068	e5943008	 ldr         r3, [r4, #8]
  0006c	e3530000	 cmp         r3, #0
  00070	11a00003	 movne       r0, r3
  00074	1b000000	 blne        |??3@YAXPAX@Z|
  00078	e8bd41f0	 ldmia       sp!, {r4 - r8, lr}
  0007c	e12fff1e	 bx          lr
  00080		 |$M37185|

			 ENDP  ; |??1MeshManager@pvrengine@@QAA@XZ|, pvrengine::MeshManager::~MeshManager

	EXPORT	|?bubbleSortPointers@?$dynamicArray@PAVMesh@pvrengine@@@@QAAXXZ| ; dynamicArray<pvrengine::Mesh *>::bubbleSortPointers
; File c:\wince600\public\powervr-sdk\ogles2\tools\pvrtglobal.h

  00000			 AREA	 |.pdata|, PDATA
|$T37220| DCD	|$LN25@bubbleSort|
	DCD	0x40002a01
; Function compile flags: /Ogspy
; File c:\wince600\public\powervr-sdk\ogles2\extras\pvrengine\include\dynamicarray.h

  00000			 AREA	 |.text|, CODE, ARM

  00000		 |?bubbleSortPointers@?$dynamicArray@PAVMesh@pvrengine@@@@QAAXXZ| PROC ; dynamicArray<pvrengine::Mesh *>::bubbleSortPointers

; 313  : 	{

  00000		 |$LN25@bubbleSort|
  00000	e92d4070	 stmdb       sp!, {r4 - r6, lr}
  00004		 |$M37217|
  00004	e1a0e000	 mov         lr, r0

; 314  : 		bool bSwap;
; 315  : 		for(int i=0;i<m_i32Size;++i)

  00008	e59e3000	 ldr         r3, [lr]
  0000c	e3a04000	 mov         r4, #0
  00010	e3530000	 cmp         r3, #0
  00014	da000021	 ble         |$LN22@bubbleSort|
  00018		 |$LL8@bubbleSort|

; 316  : 		{
; 317  : 			bSwap=false;
; 318  : 			for(int j=0;j<m_i32Size-1;++j)

  00018	e2433001	 sub         r3, r3, #1
  0001c	e3530000	 cmp         r3, #0
  00020	e3a06000	 mov         r6, #0
  00024	e3a05000	 mov         r5, #0
  00028	da000016	 ble         |$LN3@bubbleSort|
  0002c		 |$LL5@bubbleSort|
  0002c	e59e2008	 ldr         r2, [lr, #8]
  00030	e0823105	 add         r3, r2, r5, lsl #2

; 319  : 			{
; 320  : 				if((*m_pArray[j])>(*m_pArray[j+1]))

  00034	e5933004	 ldr         r3, [r3, #4]
  00038	e7922105	 ldr         r2, [r2, +r5, lsl #2]
  0003c	e5931014	 ldr         r1, [r3, #0x14]
  00040	e5923014	 ldr         r3, [r2, #0x14]
  00044	e1530001	 cmp         r3, r1
  00048	83a03001	 movhi       r3, #1
  0004c	93a03000	 movls       r3, #0
  00050	e21330ff	 ands        r3, r3, #0xFF
  00054	159e3008	 ldrne       r3, [lr, #8]

; 321  : 				{
; 322  : 					PVRTswap(m_pArray[j],m_pArray[j+1]);
; 323  : 					bSwap = true;

  00058	13a06001	 movne       r6, #1
  0005c	10831105	 addne       r1, r3, r5, lsl #2
  00060	11a00001	 movne       r0, r1
  00064	15b03004	 ldrne       r3, [r0, #4]!
  00068	15912000	 ldrne       r2, [r1]
  0006c	e2855001	 add         r5, r5, #1
  00070	15813000	 strne       r3, [r1]
  00074	15802000	 strne       r2, [r0]
  00078	e59e3000	 ldr         r3, [lr]
  0007c	e2433001	 sub         r3, r3, #1
  00080	e1550003	 cmp         r5, r3
  00084	baffffe8	 blt         |$LL5@bubbleSort|
  00088		 |$LN3@bubbleSort|

; 324  : 				}
; 325  : 			}
; 326  : 			if(!bSwap)

  00088	e3560000	 cmp         r6, #0
  0008c	0a000003	 beq         |$LN22@bubbleSort|
  00090	e59e3000	 ldr         r3, [lr]
  00094	e2844001	 add         r4, r4, #1
  00098	e1540003	 cmp         r4, r3
  0009c	baffffdd	 blt         |$LL8@bubbleSort|
  000a0		 |$LN22@bubbleSort|

; 327  : 				return;
; 328  : 		}
; 329  : 	}

  000a0	e8bd4070	 ldmia       sp!, {r4 - r6, lr}
  000a4	e12fff1e	 bx          lr
  000a8		 |$M37218|

			 ENDP  ; |?bubbleSortPointers@?$dynamicArray@PAVMesh@pvrengine@@@@QAAXXZ|, dynamicArray<pvrengine::Mesh *>::bubbleSortPointers

	EXPORT	|?sort@MeshManager@pvrengine@@QAAXXZ|	; pvrengine::MeshManager::sort
; File c:\wince600\public\powervr-sdk\ogles2\extras\pvrengine\meshmanager.cpp

  00000			 AREA	 |.pdata|, PDATA
|$T37228| DCD	|$LN5@sort|
	DCD	0x40000401
; Function compile flags: /Ogspy

  00000			 AREA	 |.text|, CODE, ARM

  00000		 |?sort@MeshManager@pvrengine@@QAAXXZ| PROC ; pvrengine::MeshManager::sort

; 85   : 	{

  00000		 |$LN5@sort|
  00000	e52de004	 str         lr, [sp, #-4]!
  00004		 |$M37225|

; 86   : 		m_daMeshes.bubbleSortPointers();

  00004	eb000000	 bl          |?bubbleSortPointers@?$dynamicArray@PAVMesh@pvrengine@@@@QAAXXZ|

; 87   : 	}

  00008	e49de004	 ldr         lr, [sp], #4
  0000c	e12fff1e	 bx          lr
  00010		 |$M37226|

			 ENDP  ; |?sort@MeshManager@pvrengine@@QAAXXZ|, pvrengine::MeshManager::sort

	END
