; Listing generated by Microsoft (R) Optimizing Compiler Version 14.01.60511.01 

	TTL	C:\WINCE600\PUBLIC\PowerVR-SDK\OGLES2\Extras\PVREngine\Option.cpp
	CODE32

  00000			 AREA	 |.drectve|, DRECTVE
	DCB	"-defaultlib:LIBCMT "
	DCB	"-defaultlib:OLDNAMES "

	EXPORT	|??0Option@pvrengine@@QAA@ABVCPVRTString@@@Z| ; pvrengine::Option::Option
	EXPORT	|??_7Option@pvrengine@@6B@| [ DATA ]	; pvrengine::Option::`vftable'
	EXPORT	|?nextValue@Option@pvrengine@@UAAXXZ|	; pvrengine::Option::nextValue
	EXPORT	|?prevValue@Option@pvrengine@@UAAXXZ|	; pvrengine::Option::prevValue
	EXPORT	|?getDisplayValue@Option@pvrengine@@UAA?AVCPVRTString@@XZ| ; pvrengine::Option::getDisplayValue
	IMPORT	|??0CPVRTString@@QAA@ABV0@II@Z|		; CPVRTString::CPVRTString
	IMPORT	|?npos@CPVRTString@@2IB|		; CPVRTString::npos
	IMPORT	|??_EOption@pvrengine@@UAAPAXI@Z|, WEAK |??_GOption@pvrengine@@UAAPAXI@Z| ; pvrengine::Option::`vector deleting destructor', pvrengine::Option::`scalar deleting destructor'
; File c:\wince600\public\powervr-sdk\ogles2\extras\pvrengine\include\option.h

  00000			 AREA	 |.pdata|, PDATA
|$T36464| DCD	|$LN5@Option|
	DCD	0x40000d01

  00000			 AREA	 |.rdata|, DATA, READONLY
|??_7Option@pvrengine@@6B@| DCD |??_EOption@pvrengine@@UAAPAXI@Z| ; pvrengine::Option::`vftable'
	DCD	|?nextValue@Option@pvrengine@@UAAXXZ|
	DCD	|?prevValue@Option@pvrengine@@UAAXXZ|
	DCD	|?getDisplayValue@Option@pvrengine@@UAA?AVCPVRTString@@XZ|
; Function compile flags: /Ogspy

  00000			 AREA	 |.text|, CODE, ARM

  00000		 |??0Option@pvrengine@@QAA@ABVCPVRTString@@@Z| PROC ; pvrengine::Option::Option

; 53   : 		Option(const CPVRTString& strOption):m_strOption(strOption){}

  00000		 |$LN5@Option|
  00000	e92d4010	 stmdb       sp!, {r4, lr}
  00004		 |$M36461|
  00004	e1a04000	 mov         r4, r0
  00008	e59f3020	 ldr         r3, [pc, #0x20]
  0000c	e59f2018	 ldr         r2, [pc, #0x18]
  00010	e4803004	 str         r3, [r0], #4
  00014	e5923000	 ldr         r3, [r2]
  00018	e3a02000	 mov         r2, #0
  0001c	eb000000	 bl          |??0CPVRTString@@QAA@ABV0@II@Z|
  00020	e1a00004	 mov         r0, r4
  00024	e8bd4010	 ldmia       sp!, {r4, lr}
  00028	e12fff1e	 bx          lr
  0002c		 |$LN6@Option|
  0002c		 |$LN7@Option|
  0002c	00000000	 DCD         |?npos@CPVRTString@@2IB|
  00030		 |$LN8@Option|
  00030	00000000	 DCD         |??_7Option@pvrengine@@6B@|
  00034		 |$M36462|

			 ENDP  ; |??0Option@pvrengine@@QAA@ABVCPVRTString@@@Z|, pvrengine::Option::Option

	EXPORT	|??1Option@pvrengine@@UAA@XZ|		; pvrengine::Option::~Option
	IMPORT	|??1CPVRTString@@UAA@XZ|		; CPVRTString::~CPVRTString

  00000			 AREA	 |.pdata|, PDATA
|$T36475| DCD	|$LN5@Option@2|
	DCD	0x40000701
; Function compile flags: /Ogspy

  00000			 AREA	 |.text|, CODE, ARM

  00000		 |??1Option@pvrengine@@UAA@XZ| PROC	; pvrengine::Option::~Option

; 59   : 		virtual ~Option(){}

  00000		 |$LN5@Option@2|
  00000	e52de004	 str         lr, [sp, #-4]!
  00004		 |$M36472|
  00004	e59f300c	 ldr         r3, [pc, #0xC]
  00008	e4803004	 str         r3, [r0], #4
  0000c	eb000000	 bl          |??1CPVRTString@@UAA@XZ|
  00010	e49de004	 ldr         lr, [sp], #4
  00014	e12fff1e	 bx          lr
  00018		 |$LN6@Option@2|
  00018		 |$LN7@Option@2|
  00018	00000000	 DCD         |??_7Option@pvrengine@@6B@|
  0001c		 |$M36473|

			 ENDP  ; |??1Option@pvrengine@@UAA@XZ|, pvrengine::Option::~Option


  00000			 AREA	 |.pdata|, PDATA
|$T36484| DCD	|$LN5@nextValue|
	DCD	0x40000100
; Function compile flags: /Ogspy

  00000			 AREA	 |.text|, CODE, ARM

  00000		 |?nextValue@Option@pvrengine@@UAAXXZ| PROC ; pvrengine::Option::nextValue

; 65   : 		virtual void nextValue(){}

  00000		 |$LN5@nextValue|
  00000		 |$M36481|
  00000	e12fff1e	 bx          lr
  00004		 |$M36482|

			 ENDP  ; |?nextValue@Option@pvrengine@@UAAXXZ|, pvrengine::Option::nextValue


  00000			 AREA	 |.pdata|, PDATA
|$T36491| DCD	|$LN5@prevValue|
	DCD	0x40000100
; Function compile flags: /Ogspy

  00000			 AREA	 |.text|, CODE, ARM

  00000		 |?prevValue@Option@pvrengine@@UAAXXZ| PROC ; pvrengine::Option::prevValue

; 71   : 		virtual void prevValue(){}

  00000		 |$LN5@prevValue|
  00000		 |$M36488|
  00000	e12fff1e	 bx          lr
  00004		 |$M36489|

			 ENDP  ; |?prevValue@Option@pvrengine@@UAAXXZ|, pvrengine::Option::prevValue

	EXPORT	|??_C@_05MBDEGLCK@ERROR?$AA@| [ DATA ]	; `string'
	IMPORT	|??0CPVRTString@@QAA@PBDI@Z|		; CPVRTString::CPVRTString

  00000			 AREA	 |.pdata|, PDATA
|$T36501| DCD	|$LN5@getDisplay|
	DCD	0x40001502

  00000			 AREA	 |.rdata|, DATA, READONLY
|??_C@_05MBDEGLCK@ERROR?$AA@| DCB "ERROR", 0x0		; `string'
; Function compile flags: /Ogspy

  00000			 AREA	 |.text|, CODE, ARM

  00000		 |?getDisplayValue@Option@pvrengine@@UAA?AVCPVRTString@@XZ| PROC ; pvrengine::Option::getDisplayValue

; 78   : 		virtual CPVRTString	getDisplayValue(){ return CPVRTString("ERROR");}

  00000		 |$LN5@getDisplay|
  00000	e92d4030	 stmdb       sp!, {r4, r5, lr}
  00004	e24dd010	 sub         sp, sp, #0x10
  00008		 |$M36498|
  00008	e1a05001	 mov         r5, r1
  0000c	e59f403c	 ldr         r4, [pc, #0x3C]
  00010	e59f1034	 ldr         r1, [pc, #0x34]
  00014	e28d0000	 add         r0, sp, #0
  00018	e5942000	 ldr         r2, [r4]
  0001c	eb000000	 bl          |??0CPVRTString@@QAA@PBDI@Z|
  00020	e5943000	 ldr         r3, [r4]
  00024	e1a01000	 mov         r1, r0
  00028	e1a00005	 mov         r0, r5
  0002c	e3a02000	 mov         r2, #0
  00030	eb000000	 bl          |??0CPVRTString@@QAA@ABV0@II@Z|
  00034	e28d0000	 add         r0, sp, #0
  00038	eb000000	 bl          |??1CPVRTString@@UAA@XZ|
  0003c	e1a00005	 mov         r0, r5
  00040	e28dd010	 add         sp, sp, #0x10
  00044	e8bd4030	 ldmia       sp!, {r4, r5, lr}
  00048	e12fff1e	 bx          lr
  0004c		 |$LN6@getDisplay|
  0004c		 |$LN7@getDisplay|
  0004c	00000000	 DCD         |??_C@_05MBDEGLCK@ERROR?$AA@|
  00050		 |$LN8@getDisplay|
  00050	00000000	 DCD         |?npos@CPVRTString@@2IB|
  00054		 |$M36499|

			 ENDP  ; |?getDisplayValue@Option@pvrengine@@UAA?AVCPVRTString@@XZ|, pvrengine::Option::getDisplayValue

	IMPORT	|??3@YAXPAX@Z|				; operator delete

  00000			 AREA	 |.pdata|, PDATA
|$T36518| DCD	|$LN8@scalar|
	DCD	0x40000d01
; Function compile flags: /Ogspy

  00000			 AREA	 |.text|, CODE, ARM

  00000		 |??_GOption@pvrengine@@UAAPAXI@Z| PROC	; pvrengine::Option::`scalar deleting destructor'
  00000		 |$LN8@scalar|
  00000	e92d4030	 stmdb       sp!, {r4, r5, lr}
  00004		 |$M36515|
  00004	e1a04001	 mov         r4, r1
  00008	e1a05000	 mov         r5, r0
  0000c	e59f301c	 ldr         r3, [pc, #0x1C]
  00010	e4803004	 str         r3, [r0], #4
  00014	eb000000	 bl          |??1CPVRTString@@UAA@XZ|
  00018	e3140001	 tst         r4, #1
  0001c	11a00005	 movne       r0, r5
  00020	1b000000	 blne        |??3@YAXPAX@Z|
  00024	e1a00005	 mov         r0, r5
  00028	e8bd4030	 ldmia       sp!, {r4, r5, lr}
  0002c	e12fff1e	 bx          lr
  00030		 |$LN9@scalar|
  00030		 |$LN10@scalar|
  00030	00000000	 DCD         |??_7Option@pvrengine@@6B@|
  00034		 |$M36516|

			 ENDP  ; |??_GOption@pvrengine@@UAAPAXI@Z|, pvrengine::Option::`scalar deleting destructor'

	EXPORT	|??_I@YAXPAXIHP6AX0@Z@Z|		; `vector destructor iterator'

  00000			 AREA	 |.pdata|, PDATA
|$T36535| DCD	|$LN9@vector|
	DCD	0x40000e01
; Function compile flags: /Ogspy

  00000			 AREA	 |.text|, CODE, ARM

  00000		 |??_I@YAXPAXIHP6AX0@Z@Z| PROC		; `vector destructor iterator'
  00000		 |$LN9@vector|
  00000	e92d40f0	 stmdb       sp!, {r4 - r7, lr}
  00004		 |$M36532|
  00004	e1a07003	 mov         r7, r3
  00008	e1a06001	 mov         r6, r1
  0000c	e0240296	 mla         r4, r6, r2, r0
  00010	e2525001	 subs        r5, r2, #1
  00014	4a000005	 bmi         |$LN1@vector|
  00018		 |$LL2@vector|
  00018	e0444006	 sub         r4, r4, r6
  0001c	e1a00004	 mov         r0, r4
  00020	e1a0e00f	 mov         lr, pc
  00024	e12fff17	 bx          r7
  00028	e2555001	 subs        r5, r5, #1
  0002c	5afffff9	 bpl         |$LL2@vector|
  00030		 |$LN1@vector|
  00030	e8bd40f0	 ldmia       sp!, {r4 - r7, lr}
  00034	e12fff1e	 bx          lr
  00038		 |$M36533|

			 ENDP  ; |??_I@YAXPAXIHP6AX0@Z@Z|, `vector destructor iterator'

	EXPORT	|??0OptionEnum@pvrengine@@QAA@ABVCPVRTString@@PBV2@HH@Z| ; pvrengine::OptionEnum::OptionEnum
	EXPORT	|??_7OptionEnum@pvrengine@@6B@| [ DATA ] ; pvrengine::OptionEnum::`vftable'
	EXPORT	|?nextValue@OptionEnum@pvrengine@@UAAXXZ| ; pvrengine::OptionEnum::nextValue
	EXPORT	|?prevValue@OptionEnum@pvrengine@@UAAXXZ| ; pvrengine::OptionEnum::prevValue
	EXPORT	|?getDisplayValue@OptionEnum@pvrengine@@UAA?AVCPVRTString@@XZ| ; pvrengine::OptionEnum::getDisplayValue
	IMPORT	|??_EOptionEnum@pvrengine@@UAAPAXI@Z|, WEAK |??_GOptionEnum@pvrengine@@UAAPAXI@Z| ; pvrengine::OptionEnum::`vector deleting destructor', pvrengine::OptionEnum::`scalar deleting destructor'

  00000			 AREA	 |.pdata|, PDATA
|$T36551| DCD	|$LN7@OptionEnum|
	DCD	0x40001601

  00000			 AREA	 |.rdata|, DATA, READONLY
|??_7OptionEnum@pvrengine@@6B@| DCD |??_EOptionEnum@pvrengine@@UAAPAXI@Z| ; pvrengine::OptionEnum::`vftable'
	DCD	|?nextValue@OptionEnum@pvrengine@@UAAXXZ|
	DCD	|?prevValue@OptionEnum@pvrengine@@UAAXXZ|
	DCD	|?getDisplayValue@OptionEnum@pvrengine@@UAA?AVCPVRTString@@XZ|
; Function compile flags: /Ogspy
; File c:\wince600\public\powervr-sdk\ogles2\extras\pvrengine\option.cpp

  00000			 AREA	 |.text|, CODE, ARM

  00000		 |??0OptionEnum@pvrengine@@QAA@ABVCPVRTString@@PBV2@HH@Z| PROC ; pvrengine::OptionEnum::OptionEnum

; 28   : 	{}

  00000		 |$LN7@OptionEnum|
  00000	e92d40f0	 stmdb       sp!, {r4 - r7, lr}
  00004		 |$M36548|
  00004	e1a07003	 mov         r7, r3
  00008	e1a05002	 mov         r5, r2
  0000c	e1a06000	 mov         r6, r0
  00010	e59fe03c	 ldr         lr, [pc, #0x3C]
  00014	e59f4034	 ldr         r4, [pc, #0x34]
  00018	e3a02000	 mov         r2, #0
  0001c	e480e004	 str         lr, [r0], #4
  00020	e5943000	 ldr         r3, [r4]
  00024	eb000000	 bl          |??0CPVRTString@@QAA@ABV0@II@Z|
  00028	e59de014	 ldr         lr, [sp, #0x14]
  0002c	e59f1018	 ldr         r1, [pc, #0x18]
  00030	e5865014	 str         r5, [r6, #0x14]
  00034	e586e01c	 str         lr, [r6, #0x1C]
  00038	e5861000	 str         r1, [r6]
  0003c	e5867018	 str         r7, [r6, #0x18]
  00040	e1a00006	 mov         r0, r6
  00044	e8bd40f0	 ldmia       sp!, {r4 - r7, lr}
  00048	e12fff1e	 bx          lr
  0004c		 |$LN8@OptionEnum|
  0004c		 |$LN9@OptionEnum|
  0004c	00000000	 DCD         |??_7OptionEnum@pvrengine@@6B@|
  00050		 |$LN10@OptionEnum|
  00050	00000000	 DCD         |?npos@CPVRTString@@2IB|
  00054		 |$LN11@OptionEnum|
  00054	00000000	 DCD         |??_7Option@pvrengine@@6B@|
  00058		 |$M36549|

			 ENDP  ; |??0OptionEnum@pvrengine@@QAA@ABVCPVRTString@@PBV2@HH@Z|, pvrengine::OptionEnum::OptionEnum

	EXPORT	|??1OptionEnum@pvrengine@@UAA@XZ|	; pvrengine::OptionEnum::~OptionEnum

  00000			 AREA	 |.pdata|, PDATA
|$T36566| DCD	|$LN7@OptionEnum@2|
	DCD	0x40000701
; Function compile flags: /Ogspy

  00000			 AREA	 |.text|, CODE, ARM

  00000		 |??1OptionEnum@pvrengine@@UAA@XZ| PROC	; pvrengine::OptionEnum::~OptionEnum
  00000		 |$LN7@OptionEnum@2|
  00000	e52de004	 str         lr, [sp, #-4]!
  00004		 |$M36563|
  00004	e59f300c	 ldr         r3, [pc, #0xC]
  00008	e4803004	 str         r3, [r0], #4
  0000c	eb000000	 bl          |??1CPVRTString@@UAA@XZ|
  00010	e49de004	 ldr         lr, [sp], #4
  00014	e12fff1e	 bx          lr
  00018		 |$LN8@OptionEnum@2|
  00018		 |$LN9@OptionEnum@2|
  00018	00000000	 DCD         |??_7Option@pvrengine@@6B@|
  0001c		 |$M36564|

			 ENDP  ; |??1OptionEnum@pvrengine@@UAA@XZ|, pvrengine::OptionEnum::~OptionEnum


  00000			 AREA	 |.pdata|, PDATA
|$T36576| DCD	|$LN6@nextValue@2|
	DCD	0x40000800
; Function compile flags: /Ogspy

  00000			 AREA	 |.text|, CODE, ARM

  00000		 |?nextValue@OptionEnum@pvrengine@@UAAXXZ| PROC ; pvrengine::OptionEnum::nextValue

; 33   : 	{

  00000		 |$LN6@nextValue@2|
  00000		 |$M36573|

; 34   : 		m_i32CurrentValue++;

  00000	e590301c	 ldr         r3, [r0, #0x1C]

; 35   : 		if(m_i32CurrentValue>=m_i32NumValues)

  00004	e5902018	 ldr         r2, [r0, #0x18]
  00008	e2833001	 add         r3, r3, #1
  0000c	e1530002	 cmp         r3, r2
  00010	e580301c	 str         r3, [r0, #0x1C]

; 36   : 			m_i32CurrentValue=0;

  00014	a3a03000	 movge       r3, #0
  00018	a580301c	 strge       r3, [r0, #0x1C]

; 37   : 	}

  0001c	e12fff1e	 bx          lr
  00020		 |$M36574|

			 ENDP  ; |?nextValue@OptionEnum@pvrengine@@UAAXXZ|, pvrengine::OptionEnum::nextValue


  00000			 AREA	 |.pdata|, PDATA
|$T36584| DCD	|$LN6@prevValue@2|
	DCD	0x40000700
; Function compile flags: /Ogspy

  00000			 AREA	 |.text|, CODE, ARM

  00000		 |?prevValue@OptionEnum@pvrengine@@UAAXXZ| PROC ; pvrengine::OptionEnum::prevValue

; 42   : 	{

  00000		 |$LN6@prevValue@2|
  00000		 |$M36581|

; 43   : 		m_i32CurrentValue--;

  00000	e590301c	 ldr         r3, [r0, #0x1C]
  00004	e2533001	 subs        r3, r3, #1
  00008	e580301c	 str         r3, [r0, #0x1C]

; 44   : 		if(m_i32CurrentValue<0)
; 45   : 			m_i32CurrentValue=m_i32NumValues-1;

  0000c	45903018	 ldrmi       r3, [r0, #0x18]
  00010	42433001	 submi       r3, r3, #1
  00014	4580301c	 strmi       r3, [r0, #0x1C]

; 46   : 	}

  00018	e12fff1e	 bx          lr
  0001c		 |$M36582|

			 ENDP  ; |?prevValue@OptionEnum@pvrengine@@UAAXXZ|, pvrengine::OptionEnum::prevValue


  00000			 AREA	 |.pdata|, PDATA
|$T36595| DCD	|$LN5@getDisplay@2|
	DCD	0x40000e01
; Function compile flags: /Ogspy

  00000			 AREA	 |.text|, CODE, ARM

  00000		 |?getDisplayValue@OptionEnum@pvrengine@@UAA?AVCPVRTString@@XZ| PROC ; pvrengine::OptionEnum::getDisplayValue

; 51   : 	{

  00000		 |$LN5@getDisplay@2|
  00000	e92d4010	 stmdb       sp!, {r4, lr}
  00004		 |$M36592|
  00004	e1a04001	 mov         r4, r1

; 52   : 		return m_pstrValues[m_i32CurrentValue];

  00008	e59f3024	 ldr         r3, [pc, #0x24]
  0000c	e590e01c	 ldr         lr, [r0, #0x1C]
  00010	e5900014	 ldr         r0, [r0, #0x14]
  00014	e5933000	 ldr         r3, [r3]
  00018	e3a02000	 mov         r2, #0
  0001c	e080120e	 add         r1, r0, lr, lsl #4
  00020	e1a00004	 mov         r0, r4
  00024	eb000000	 bl          |??0CPVRTString@@QAA@ABV0@II@Z|

; 53   : 	}

  00028	e1a00004	 mov         r0, r4
  0002c	e8bd4010	 ldmia       sp!, {r4, lr}
  00030	e12fff1e	 bx          lr
  00034		 |$LN6@getDisplay@2|
  00034		 |$LN7@getDisplay@2|
  00034	00000000	 DCD         |?npos@CPVRTString@@2IB|
  00038		 |$M36593|

			 ENDP  ; |?getDisplayValue@OptionEnum@pvrengine@@UAA?AVCPVRTString@@XZ|, pvrengine::OptionEnum::getDisplayValue

	EXPORT	|??0OptionInt@pvrengine@@QAA@ABVCPVRTString@@HHHH@Z| ; pvrengine::OptionInt::OptionInt
	EXPORT	|??_7OptionInt@pvrengine@@6B@| [ DATA ]	; pvrengine::OptionInt::`vftable'
	EXPORT	|?nextValue@OptionInt@pvrengine@@UAAXXZ| ; pvrengine::OptionInt::nextValue
	EXPORT	|?prevValue@OptionInt@pvrengine@@UAAXXZ| ; pvrengine::OptionInt::prevValue
	EXPORT	|?getDisplayValue@OptionInt@pvrengine@@UAA?AVCPVRTString@@XZ| ; pvrengine::OptionInt::getDisplayValue
	IMPORT	|??_EOptionInt@pvrengine@@UAAPAXI@Z|, WEAK |??_GOptionInt@pvrengine@@UAAPAXI@Z| ; pvrengine::OptionInt::`vector deleting destructor', pvrengine::OptionInt::`scalar deleting destructor'
; File c:\wince600\public\powervr-sdk\ogles2\extras\pvrengine\include\option.h

  00000			 AREA	 |.pdata|, PDATA
|$T36613| DCD	|$LN7@OptionInt|
	DCD	0x40001801

  00000			 AREA	 |.rdata|, DATA, READONLY
|??_7OptionInt@pvrengine@@6B@| DCD |??_EOptionInt@pvrengine@@UAAPAXI@Z| ; pvrengine::OptionInt::`vftable'
	DCD	|?nextValue@OptionInt@pvrengine@@UAAXXZ|
	DCD	|?prevValue@OptionInt@pvrengine@@UAAXXZ|
	DCD	|?getDisplayValue@OptionInt@pvrengine@@UAA?AVCPVRTString@@XZ|
; Function compile flags: /Ogspy
; File c:\wince600\public\powervr-sdk\ogles2\extras\pvrengine\option.cpp

  00000			 AREA	 |.text|, CODE, ARM

  00000		 |??0OptionInt@pvrengine@@QAA@ABVCPVRTString@@HHHH@Z| PROC ; pvrengine::OptionInt::OptionInt

; 65   : 	{

  00000		 |$LN7@OptionInt|
  00000	e92d40f0	 stmdb       sp!, {r4 - r7, lr}
  00004		 |$M36610|
  00004	e1a07003	 mov         r7, r3
  00008	e1a05002	 mov         r5, r2
  0000c	e1a06000	 mov         r6, r0
  00010	e59fe044	 ldr         lr, [pc, #0x44]
  00014	e59f403c	 ldr         r4, [pc, #0x3C]
  00018	e3a02000	 mov         r2, #0
  0001c	e480e004	 str         lr, [r0], #4
  00020	e5943000	 ldr         r3, [r4]
  00024	eb000000	 bl          |??0CPVRTString@@QAA@ABV0@II@Z|
  00028	e59de014	 ldr         lr, [sp, #0x14]
  0002c	e59f1020	 ldr         r1, [pc, #0x20]
  00030	e59d4018	 ldr         r4, [sp, #0x18]
  00034	e586e01c	 str         lr, [r6, #0x1C]
  00038	e5861000	 str         r1, [r6]
  0003c	e5864020	 str         r4, [r6, #0x20]
  00040	e5865014	 str         r5, [r6, #0x14]
  00044	e5867018	 str         r7, [r6, #0x18]

; 66   : 	}

  00048	e1a00006	 mov         r0, r6
  0004c	e8bd40f0	 ldmia       sp!, {r4 - r7, lr}
  00050	e12fff1e	 bx          lr
  00054		 |$LN8@OptionInt|
  00054		 |$LN9@OptionInt|
  00054	00000000	 DCD         |??_7OptionInt@pvrengine@@6B@|
  00058		 |$LN10@OptionInt|
  00058	00000000	 DCD         |?npos@CPVRTString@@2IB|
  0005c		 |$LN11@OptionInt|
  0005c	00000000	 DCD         |??_7Option@pvrengine@@6B@|
  00060		 |$M36611|

			 ENDP  ; |??0OptionInt@pvrengine@@QAA@ABVCPVRTString@@HHHH@Z|, pvrengine::OptionInt::OptionInt

	EXPORT	|??1OptionInt@pvrengine@@UAA@XZ|	; pvrengine::OptionInt::~OptionInt

  00000			 AREA	 |.pdata|, PDATA
|$T36628| DCD	|$LN7@OptionInt@2|
	DCD	0x40000701
; Function compile flags: /Ogspy

  00000			 AREA	 |.text|, CODE, ARM

  00000		 |??1OptionInt@pvrengine@@UAA@XZ| PROC	; pvrengine::OptionInt::~OptionInt
  00000		 |$LN7@OptionInt@2|
  00000	e52de004	 str         lr, [sp, #-4]!
  00004		 |$M36625|
  00004	e59f300c	 ldr         r3, [pc, #0xC]
  00008	e4803004	 str         r3, [r0], #4
  0000c	eb000000	 bl          |??1CPVRTString@@UAA@XZ|
  00010	e49de004	 ldr         lr, [sp], #4
  00014	e12fff1e	 bx          lr
  00018		 |$LN8@OptionInt@2|
  00018		 |$LN9@OptionInt@2|
  00018	00000000	 DCD         |??_7Option@pvrengine@@6B@|
  0001c		 |$M36626|

			 ENDP  ; |??1OptionInt@pvrengine@@UAA@XZ|, pvrengine::OptionInt::~OptionInt


  00000			 AREA	 |.pdata|, PDATA
|$T36638| DCD	|$LN6@nextValue@3|
	DCD	0x40000800
; Function compile flags: /Ogspy

  00000			 AREA	 |.text|, CODE, ARM

  00000		 |?nextValue@OptionInt@pvrengine@@UAAXXZ| PROC ; pvrengine::OptionInt::nextValue

; 71   : 	{

  00000		 |$LN6@nextValue@3|
  00000		 |$M36635|

; 72   : 		m_i32CurrentValue+=m_i32Add;

  00000	e5902020	 ldr         r2, [r0, #0x20]
  00004	e590301c	 ldr         r3, [r0, #0x1C]

; 73   : 		if(m_i32CurrentValue>m_i32High)

  00008	e5901018	 ldr         r1, [r0, #0x18]
  0000c	e0823003	 add         r3, r2, r3
  00010	e1530001	 cmp         r3, r1
  00014	e5803020	 str         r3, [r0, #0x20]

; 74   : 		{
; 75   : 			m_i32CurrentValue = m_i32High;

  00018	c5801020	 strgt       r1, [r0, #0x20]

; 76   : 		}
; 77   : 	}

  0001c	e12fff1e	 bx          lr
  00020		 |$M36636|

			 ENDP  ; |?nextValue@OptionInt@pvrengine@@UAAXXZ|, pvrengine::OptionInt::nextValue


  00000			 AREA	 |.pdata|, PDATA
|$T36646| DCD	|$LN6@prevValue@3|
	DCD	0x40000800
; Function compile flags: /Ogspy

  00000			 AREA	 |.text|, CODE, ARM

  00000		 |?prevValue@OptionInt@pvrengine@@UAAXXZ| PROC ; pvrengine::OptionInt::prevValue

; 82   : 	{

  00000		 |$LN6@prevValue@3|
  00000		 |$M36643|

; 83   : 		m_i32CurrentValue-=m_i32Add;

  00000	e5902020	 ldr         r2, [r0, #0x20]
  00004	e590301c	 ldr         r3, [r0, #0x1C]

; 84   : 		if(m_i32CurrentValue<m_i32Low)

  00008	e5901014	 ldr         r1, [r0, #0x14]
  0000c	e0423003	 sub         r3, r2, r3
  00010	e1530001	 cmp         r3, r1
  00014	e5803020	 str         r3, [r0, #0x20]

; 85   : 		{
; 86   : 			m_i32CurrentValue = m_i32Low;

  00018	b5801020	 strlt       r1, [r0, #0x20]

; 87   : 		}
; 88   : 	}

  0001c	e12fff1e	 bx          lr
  00020		 |$M36644|

			 ENDP  ; |?prevValue@OptionInt@pvrengine@@UAAXXZ|, pvrengine::OptionInt::prevValue

	EXPORT	|__$ArrayPad$| [ DATA ]
	EXPORT	|??_C@_02DPKJAMEF@?$CFd?$AA@| [ DATA ]	; `string'
	IMPORT	|sprintf|
	IMPORT	|__GSHandlerCheck|
	IMPORT	|__security_cookie|
	IMPORT	|__security_check_cookie|

  00000			 AREA	 |.pdata|, PDATA
|$T36666| DCD	|$LN5@getDisplay@3|
	DCD	0xc0001f02

  00000			 AREA	 |.xdata|, DATA
|$T36662| DCD	0xfffffff0

  00000			 AREA	 |.rdata|, DATA, READONLY
|??_C@_02DPKJAMEF@?$CFd?$AA@| DCB "%d", 0x0		; `string'
; Function compile flags: /Ogspy

  00000			 AREA	 |.text|, CODE, ARM

  00000	00000000	 DCD         |__GSHandlerCheck|
  00004	00000000	 DCD         |$T36662|

  00008		 |?getDisplayValue@OptionInt@pvrengine@@UAA?AVCPVRTString@@XZ| PROC ; pvrengine::OptionInt::getDisplayValue

; 93   : 	{

  00008		 |$LN5@getDisplay@3|
  00008	e92d4030	 stmdb       sp!, {r4, r5, lr}
  0000c	e24dd028	 sub         sp, sp, #0x28
  00010		 |$M36663|
  00010	e1a05001	 mov         r5, r1
  00014	e59f3064	 ldr         r3, [pc, #0x64]
  00018	e5933000	 ldr         r3, [r3]
  0001c	e58d3024	 str         r3, [sp, #0x24]

; 94   : 		char pszInt[20];
; 95   : 		sprintf(pszInt,"%d",m_i32CurrentValue);

  00020	e5902020	 ldr         r2, [r0, #0x20]
  00024	e59f1050	 ldr         r1, [pc, #0x50]
  00028	e28d0010	 add         r0, sp, #0x10
  0002c	eb000000	 bl          sprintf

; 96   : 		return CPVRTString(pszInt);

  00030	e59f4040	 ldr         r4, [pc, #0x40]
  00034	e28d1010	 add         r1, sp, #0x10
  00038	e28d0000	 add         r0, sp, #0
  0003c	e5942000	 ldr         r2, [r4]
  00040	eb000000	 bl          |??0CPVRTString@@QAA@PBDI@Z|
  00044	e5943000	 ldr         r3, [r4]
  00048	e1a01000	 mov         r1, r0
  0004c	e1a00005	 mov         r0, r5
  00050	e3a02000	 mov         r2, #0
  00054	eb000000	 bl          |??0CPVRTString@@QAA@ABV0@II@Z|
  00058	e28d0000	 add         r0, sp, #0
  0005c	eb000000	 bl          |??1CPVRTString@@UAA@XZ|
  00060	e59d0024	 ldr         r0, [sp, #0x24]
  00064	eb000000	 bl          __security_check_cookie

; 97   : 	}

  00068	e1a00005	 mov         r0, r5
  0006c	e28dd028	 add         sp, sp, #0x28
  00070	e8bd4030	 ldmia       sp!, {r4, r5, lr}
  00074	e12fff1e	 bx          lr
  00078		 |$LN6@getDisplay@3|
  00078		 |$LN7@getDisplay@3|
  00078	00000000	 DCD         |?npos@CPVRTString@@2IB|
  0007c		 |$LN8@getDisplay@3|
  0007c	00000000	 DCD         |??_C@_02DPKJAMEF@?$CFd?$AA@|
  00080		 |$LN9@getDisplay@3|
  00080	00000000	 DCD         |__security_cookie|
  00084		 |$M36664|

			 ENDP  ; |?getDisplayValue@OptionInt@pvrengine@@UAA?AVCPVRTString@@XZ|, pvrengine::OptionInt::getDisplayValue

	EXPORT	|??0OptionFloat@pvrengine@@QAA@ABVCPVRTString@@MMMM@Z| ; pvrengine::OptionFloat::OptionFloat
	EXPORT	|??_7OptionFloat@pvrengine@@6B@| [ DATA ] ; pvrengine::OptionFloat::`vftable'
	EXPORT	|?nextValue@OptionFloat@pvrengine@@UAAXXZ| ; pvrengine::OptionFloat::nextValue
	EXPORT	|?prevValue@OptionFloat@pvrengine@@UAAXXZ| ; pvrengine::OptionFloat::prevValue
	EXPORT	|?getDisplayValue@OptionFloat@pvrengine@@UAA?AVCPVRTString@@XZ| ; pvrengine::OptionFloat::getDisplayValue
	IMPORT	|??_EOptionFloat@pvrengine@@UAAPAXI@Z|, WEAK |??_GOptionFloat@pvrengine@@UAAPAXI@Z| ; pvrengine::OptionFloat::`vector deleting destructor', pvrengine::OptionFloat::`scalar deleting destructor'
; File c:\wince600\public\powervr-sdk\ogles2\extras\pvrengine\include\option.h

  00000			 AREA	 |.pdata|, PDATA
|$T36687| DCD	|$LN7@OptionFloa|
	DCD	0x40001801

  00000			 AREA	 |.rdata|, DATA, READONLY
|??_7OptionFloat@pvrengine@@6B@| DCD |??_EOptionFloat@pvrengine@@UAAPAXI@Z| ; pvrengine::OptionFloat::`vftable'
	DCD	|?nextValue@OptionFloat@pvrengine@@UAAXXZ|
	DCD	|?prevValue@OptionFloat@pvrengine@@UAAXXZ|
	DCD	|?getDisplayValue@OptionFloat@pvrengine@@UAA?AVCPVRTString@@XZ|
; Function compile flags: /Ogspy
; File c:\wince600\public\powervr-sdk\ogles2\extras\pvrengine\option.cpp

  00000			 AREA	 |.text|, CODE, ARM

  00000		 |??0OptionFloat@pvrengine@@QAA@ABVCPVRTString@@MMMM@Z| PROC ; pvrengine::OptionFloat::OptionFloat

; 110  : 	{

  00000		 |$LN7@OptionFloa|
  00000	e92d40f0	 stmdb       sp!, {r4 - r7, lr}
  00004		 |$M36684|
  00004	e1a07003	 mov         r7, r3
  00008	e1a05002	 mov         r5, r2
  0000c	e1a06000	 mov         r6, r0
  00010	e59fe044	 ldr         lr, [pc, #0x44]
  00014	e59f403c	 ldr         r4, [pc, #0x3C]
  00018	e3a02000	 mov         r2, #0
  0001c	e480e004	 str         lr, [r0], #4
  00020	e5943000	 ldr         r3, [r4]
  00024	eb000000	 bl          |??0CPVRTString@@QAA@ABV0@II@Z|
  00028	e59de014	 ldr         lr, [sp, #0x14]
  0002c	e59f1020	 ldr         r1, [pc, #0x20]
  00030	e59d4018	 ldr         r4, [sp, #0x18]
  00034	e586e01c	 str         lr, [r6, #0x1C]
  00038	e5861000	 str         r1, [r6]
  0003c	e5864020	 str         r4, [r6, #0x20]
  00040	e5865014	 str         r5, [r6, #0x14]
  00044	e5867018	 str         r7, [r6, #0x18]

; 111  : 	}

  00048	e1a00006	 mov         r0, r6
  0004c	e8bd40f0	 ldmia       sp!, {r4 - r7, lr}
  00050	e12fff1e	 bx          lr
  00054		 |$LN8@OptionFloa|
  00054		 |$LN9@OptionFloa|
  00054	00000000	 DCD         |??_7OptionFloat@pvrengine@@6B@|
  00058		 |$LN10@OptionFloa|
  00058	00000000	 DCD         |?npos@CPVRTString@@2IB|
  0005c		 |$LN11@OptionFloa|
  0005c	00000000	 DCD         |??_7Option@pvrengine@@6B@|
  00060		 |$M36685|

			 ENDP  ; |??0OptionFloat@pvrengine@@QAA@ABVCPVRTString@@MMMM@Z|, pvrengine::OptionFloat::OptionFloat

	EXPORT	|??1OptionFloat@pvrengine@@UAA@XZ|	; pvrengine::OptionFloat::~OptionFloat

  00000			 AREA	 |.pdata|, PDATA
|$T36702| DCD	|$LN7@OptionFloa@2|
	DCD	0x40000701
; Function compile flags: /Ogspy

  00000			 AREA	 |.text|, CODE, ARM

  00000		 |??1OptionFloat@pvrengine@@UAA@XZ| PROC ; pvrengine::OptionFloat::~OptionFloat
  00000		 |$LN7@OptionFloa@2|
  00000	e52de004	 str         lr, [sp, #-4]!
  00004		 |$M36699|
  00004	e59f300c	 ldr         r3, [pc, #0xC]
  00008	e4803004	 str         r3, [r0], #4
  0000c	eb000000	 bl          |??1CPVRTString@@UAA@XZ|
  00010	e49de004	 ldr         lr, [sp], #4
  00014	e12fff1e	 bx          lr
  00018		 |$LN8@OptionFloa@2|
  00018		 |$LN9@OptionFloa@2|
  00018	00000000	 DCD         |??_7Option@pvrengine@@6B@|
  0001c		 |$M36700|

			 ENDP  ; |??1OptionFloat@pvrengine@@UAA@XZ|, pvrengine::OptionFloat::~OptionFloat

	IMPORT	|__imp___adds|
	IMPORT	|__imp___gts|

  00000			 AREA	 |.pdata|, PDATA
|$T36716| DCD	|$LN6@nextValue@4|
	DCD	0x40001601
; Function compile flags: /Ogspy

  00000			 AREA	 |.text|, CODE, ARM

  00000		 |?nextValue@OptionFloat@pvrengine@@UAAXXZ| PROC ; pvrengine::OptionFloat::nextValue

; 116  : 	{

  00000		 |$LN6@nextValue@4|
  00000	e92d4030	 stmdb       sp!, {r4, r5, lr}
  00004		 |$M36713|
  00004	e1a04000	 mov         r4, r0

; 117  : 		m_fCurrentValue+=m_fAdd;

  00008	e59f3044	 ldr         r3, [pc, #0x44]
  0000c	e5940020	 ldr         r0, [r4, #0x20]
  00010	e594101c	 ldr         r1, [r4, #0x1C]
  00014	e5933000	 ldr         r3, [r3]
  00018	e1a0e00f	 mov         lr, pc
  0001c	e12fff13	 bx          r3

; 118  : 		if(m_fCurrentValue>m_fHigh)

  00020	e59f3028	 ldr         r3, [pc, #0x28]
  00024	e5945018	 ldr         r5, [r4, #0x18]
  00028	e1a02000	 mov         r2, r0
  0002c	e5933000	 ldr         r3, [r3]
  00030	e1a01005	 mov         r1, r5
  00034	e5842020	 str         r2, [r4, #0x20]
  00038	e1a0e00f	 mov         lr, pc
  0003c	e12fff13	 bx          r3
  00040	e3500000	 cmp         r0, #0

; 119  : 		{
; 120  : 			m_fCurrentValue = m_fHigh;

  00044	15845020	 strne       r5, [r4, #0x20]

; 121  : 		}
; 122  : 	}

  00048	e8bd4030	 ldmia       sp!, {r4, r5, lr}
  0004c	e12fff1e	 bx          lr
  00050		 |$LN7@nextValue@4|
  00050		 |$LN8@nextValue@4|
  00050	00000000	 DCD         |__imp___gts|
  00054		 |$LN9@nextValue@4|
  00054	00000000	 DCD         |__imp___adds|
  00058		 |$M36714|

			 ENDP  ; |?nextValue@OptionFloat@pvrengine@@UAAXXZ|, pvrengine::OptionFloat::nextValue

	IMPORT	|__imp___subs|
	IMPORT	|__imp___lts|

  00000			 AREA	 |.pdata|, PDATA
|$T36731| DCD	|$LN6@prevValue@4|
	DCD	0x40001601
; Function compile flags: /Ogspy

  00000			 AREA	 |.text|, CODE, ARM

  00000		 |?prevValue@OptionFloat@pvrengine@@UAAXXZ| PROC ; pvrengine::OptionFloat::prevValue

; 127  : 	{

  00000		 |$LN6@prevValue@4|
  00000	e92d4030	 stmdb       sp!, {r4, r5, lr}
  00004		 |$M36728|
  00004	e1a04000	 mov         r4, r0

; 128  : 		m_fCurrentValue-=m_fAdd;

  00008	e59f3044	 ldr         r3, [pc, #0x44]
  0000c	e5940020	 ldr         r0, [r4, #0x20]
  00010	e594101c	 ldr         r1, [r4, #0x1C]
  00014	e5933000	 ldr         r3, [r3]
  00018	e1a0e00f	 mov         lr, pc
  0001c	e12fff13	 bx          r3

; 129  : 		if(m_fCurrentValue<m_fLow)

  00020	e59f3028	 ldr         r3, [pc, #0x28]
  00024	e5945014	 ldr         r5, [r4, #0x14]
  00028	e1a02000	 mov         r2, r0
  0002c	e5933000	 ldr         r3, [r3]
  00030	e1a01005	 mov         r1, r5
  00034	e5842020	 str         r2, [r4, #0x20]
  00038	e1a0e00f	 mov         lr, pc
  0003c	e12fff13	 bx          r3
  00040	e3500000	 cmp         r0, #0

; 130  : 		{
; 131  : 			m_fCurrentValue = m_fLow;

  00044	15845020	 strne       r5, [r4, #0x20]

; 132  : 		}
; 133  : 	}

  00048	e8bd4030	 ldmia       sp!, {r4, r5, lr}
  0004c	e12fff1e	 bx          lr
  00050		 |$LN7@prevValue@4|
  00050		 |$LN8@prevValue@4|
  00050	00000000	 DCD         |__imp___lts|
  00054		 |$LN9@prevValue@4|
  00054	00000000	 DCD         |__imp___subs|
  00058		 |$M36729|

			 ENDP  ; |?prevValue@OptionFloat@pvrengine@@UAAXXZ|, pvrengine::OptionFloat::prevValue

	EXPORT	|__$ArrayPad$| [ DATA ]
	EXPORT	|??_C@_04GEFJINEE@?$CF?42f?$AA@| [ DATA ] ; `string'
	IMPORT	|__imp___stod|

  00000			 AREA	 |.pdata|, PDATA
|$T36753| DCD	|$LN5@getDisplay@4|
	DCD	0xc0002602

  00000			 AREA	 |.xdata|, DATA
|$T36749| DCD	0xfffffff0

  00000			 AREA	 |.rdata|, DATA, READONLY
|??_C@_04GEFJINEE@?$CF?42f?$AA@| DCB "%.2f", 0x0	; `string'
; Function compile flags: /Ogspy

  00000			 AREA	 |.text|, CODE, ARM

  00000	00000000	 DCD         |__GSHandlerCheck|
  00004	00000000	 DCD         |$T36749|

  00008		 |?getDisplayValue@OptionFloat@pvrengine@@UAA?AVCPVRTString@@XZ| PROC ; pvrengine::OptionFloat::getDisplayValue

; 138  : 	{

  00008		 |$LN5@getDisplay@4|
  00008	e92d4030	 stmdb       sp!, {r4, r5, lr}
  0000c	e24dd028	 sub         sp, sp, #0x28
  00010		 |$M36750|
  00010	e1a05001	 mov         r5, r1
  00014	e59f3080	 ldr         r3, [pc, #0x80]
  00018	e5933000	 ldr         r3, [r3]
  0001c	e58d3024	 str         r3, [sp, #0x24]

; 139  : 		char pszFloat[20];
; 140  : 		sprintf(pszFloat,"%.2f",m_fCurrentValue);

  00020	e59f3070	 ldr         r3, [pc, #0x70]
  00024	e5900020	 ldr         r0, [r0, #0x20]
  00028	e5933000	 ldr         r3, [r3]
  0002c	e1a0e00f	 mov         lr, pc
  00030	e12fff13	 bx          r3
  00034	e1a03001	 mov         r3, r1
  00038	e59f1054	 ldr         r1, [pc, #0x54]
  0003c	e1a02000	 mov         r2, r0
  00040	e28d0010	 add         r0, sp, #0x10
  00044	eb000000	 bl          sprintf

; 141  : 		return CPVRTString(pszFloat);

  00048	e59f4040	 ldr         r4, [pc, #0x40]
  0004c	e28d1010	 add         r1, sp, #0x10
  00050	e28d0000	 add         r0, sp, #0
  00054	e5942000	 ldr         r2, [r4]
  00058	eb000000	 bl          |??0CPVRTString@@QAA@PBDI@Z|
  0005c	e5943000	 ldr         r3, [r4]
  00060	e1a01000	 mov         r1, r0
  00064	e1a00005	 mov         r0, r5
  00068	e3a02000	 mov         r2, #0
  0006c	eb000000	 bl          |??0CPVRTString@@QAA@ABV0@II@Z|
  00070	e28d0000	 add         r0, sp, #0
  00074	eb000000	 bl          |??1CPVRTString@@UAA@XZ|
  00078	e59d0024	 ldr         r0, [sp, #0x24]
  0007c	eb000000	 bl          __security_check_cookie

; 142  : 	}

  00080	e1a00005	 mov         r0, r5
  00084	e28dd028	 add         sp, sp, #0x28
  00088	e8bd4030	 ldmia       sp!, {r4, r5, lr}
  0008c	e12fff1e	 bx          lr
  00090		 |$LN6@getDisplay@4|
  00090		 |$LN7@getDisplay@4|
  00090	00000000	 DCD         |?npos@CPVRTString@@2IB|
  00094		 |$LN8@getDisplay@4|
  00094	00000000	 DCD         |??_C@_04GEFJINEE@?$CF?42f?$AA@|
  00098		 |$LN9@getDisplay@4|
  00098	00000000	 DCD         |__imp___stod|
  0009c		 |$LN10@getDisplay@4|
  0009c	00000000	 DCD         |__security_cookie|
  000a0		 |$M36751|

			 ENDP  ; |?getDisplayValue@OptionFloat@pvrengine@@UAA?AVCPVRTString@@XZ|, pvrengine::OptionFloat::getDisplayValue


  00000			 AREA	 |.pdata|, PDATA
|$T36778| DCD	|$LN10@scalar@2|
	DCD	0x40000d01
; Function compile flags: /Ogspy

  00000			 AREA	 |.text|, CODE, ARM

  00000		 |??_GOptionEnum@pvrengine@@UAAPAXI@Z| PROC ; pvrengine::OptionEnum::`scalar deleting destructor'
  00000		 |$LN10@scalar@2|
  00000	e92d4030	 stmdb       sp!, {r4, r5, lr}
  00004		 |$M36775|
  00004	e1a04001	 mov         r4, r1
  00008	e1a05000	 mov         r5, r0
  0000c	e59f301c	 ldr         r3, [pc, #0x1C]
  00010	e4803004	 str         r3, [r0], #4
  00014	eb000000	 bl          |??1CPVRTString@@UAA@XZ|
  00018	e3140001	 tst         r4, #1
  0001c	11a00005	 movne       r0, r5
  00020	1b000000	 blne        |??3@YAXPAX@Z|
  00024	e1a00005	 mov         r0, r5
  00028	e8bd4030	 ldmia       sp!, {r4, r5, lr}
  0002c	e12fff1e	 bx          lr
  00030		 |$LN11@scalar@2|
  00030		 |$LN12@scalar@2|
  00030	00000000	 DCD         |??_7Option@pvrengine@@6B@|
  00034		 |$M36776|

			 ENDP  ; |??_GOptionEnum@pvrengine@@UAAPAXI@Z|, pvrengine::OptionEnum::`scalar deleting destructor'


  00000			 AREA	 |.pdata|, PDATA
|$T36799| DCD	|$LN10@scalar@3|
	DCD	0x40000d01
; Function compile flags: /Ogspy

  00000			 AREA	 |.text|, CODE, ARM

  00000		 |??_GOptionInt@pvrengine@@UAAPAXI@Z| PROC ; pvrengine::OptionInt::`scalar deleting destructor'
  00000		 |$LN10@scalar@3|
  00000	e92d4030	 stmdb       sp!, {r4, r5, lr}
  00004		 |$M36796|
  00004	e1a04001	 mov         r4, r1
  00008	e1a05000	 mov         r5, r0
  0000c	e59f301c	 ldr         r3, [pc, #0x1C]
  00010	e4803004	 str         r3, [r0], #4
  00014	eb000000	 bl          |??1CPVRTString@@UAA@XZ|
  00018	e3140001	 tst         r4, #1
  0001c	11a00005	 movne       r0, r5
  00020	1b000000	 blne        |??3@YAXPAX@Z|
  00024	e1a00005	 mov         r0, r5
  00028	e8bd4030	 ldmia       sp!, {r4, r5, lr}
  0002c	e12fff1e	 bx          lr
  00030		 |$LN11@scalar@3|
  00030		 |$LN12@scalar@3|
  00030	00000000	 DCD         |??_7Option@pvrengine@@6B@|
  00034		 |$M36797|

			 ENDP  ; |??_GOptionInt@pvrengine@@UAAPAXI@Z|, pvrengine::OptionInt::`scalar deleting destructor'


  00000			 AREA	 |.pdata|, PDATA
|$T36820| DCD	|$LN10@scalar@4|
	DCD	0x40000d01
; Function compile flags: /Ogspy

  00000			 AREA	 |.text|, CODE, ARM

  00000		 |??_GOptionFloat@pvrengine@@UAAPAXI@Z| PROC ; pvrengine::OptionFloat::`scalar deleting destructor'
  00000		 |$LN10@scalar@4|
  00000	e92d4030	 stmdb       sp!, {r4, r5, lr}
  00004		 |$M36817|
  00004	e1a04001	 mov         r4, r1
  00008	e1a05000	 mov         r5, r0
  0000c	e59f301c	 ldr         r3, [pc, #0x1C]
  00010	e4803004	 str         r3, [r0], #4
  00014	eb000000	 bl          |??1CPVRTString@@UAA@XZ|
  00018	e3140001	 tst         r4, #1
  0001c	11a00005	 movne       r0, r5
  00020	1b000000	 blne        |??3@YAXPAX@Z|
  00024	e1a00005	 mov         r0, r5
  00028	e8bd4030	 ldmia       sp!, {r4, r5, lr}
  0002c	e12fff1e	 bx          lr
  00030		 |$LN11@scalar@4|
  00030		 |$LN12@scalar@4|
  00030	00000000	 DCD         |??_7Option@pvrengine@@6B@|
  00034		 |$M36818|

			 ENDP  ; |??_GOptionFloat@pvrengine@@UAAPAXI@Z|, pvrengine::OptionFloat::`scalar deleting destructor'

	EXPORT	|??_C@_03GCDBBDDL@Off?$AA@| [ DATA ]	; `string'
	EXPORT	|??_C@_02IAAGKKDJ@On?$AA@| [ DATA ]	; `string'
	IMPORT	|atexit|
; File c:\wince600\public\powervr-sdk\ogles2\extras\pvrengine\include\option.h

  00000			 AREA	 |.pdata|, PDATA
|$T36829| DCD	|$LN5@dynamic|
	DCD	0x40001401

  00000			 AREA	 |.rdata|, DATA, READONLY
|??_C@_03GCDBBDDL@Off?$AA@| DCB "Off", 0x0		; `string'

  00000			 AREA	 |.rdata|, DATA, READONLY
|??_C@_02IAAGKKDJ@On?$AA@| DCB "On", 0x0		; `string'
; Function compile flags: /Ogspy

  00000			 AREA	 |.text$yc|, CODE, ARM

  00000		 |??__EstrOnOff@pvrengine@@YAXXZ| PROC	; pvrengine::`dynamic initializer for 'strOnOff''

; 230  : 	{

  00000		 |$LN5@dynamic|
  00000	e92d4030	 stmdb       sp!, {r4, r5, lr}
  00004		 |$M36826|

; 231  : 		"Off","On"

  00004	e59f4040	 ldr         r4, [pc, #0x40]
  00008	e59f5038	 ldr         r5, [pc, #0x38]
  0000c	e59f1030	 ldr         r1, [pc, #0x30]
  00010	e5942000	 ldr         r2, [r4]
  00014	e1a00005	 mov         r0, r5
  00018	eb000000	 bl          |??0CPVRTString@@QAA@PBDI@Z|

; 232  : 	};

  0001c	e5942000	 ldr         r2, [r4]
  00020	e59f1018	 ldr         r1, [pc, #0x18]
  00024	e2850010	 add         r0, r5, #0x10
  00028	eb000000	 bl          |??0CPVRTString@@QAA@PBDI@Z|
  0002c	e59f0008	 ldr         r0, [pc, #8]
  00030	eb000000	 bl          atexit
  00034	e8bd4030	 ldmia       sp!, {r4, r5, lr}
  00038	e12fff1e	 bx          lr
  0003c		 |$LN6@dynamic|
  0003c		 |$LN7@dynamic|
  0003c	00000000	 DCD         |??__FstrOnOff@pvrengine@@YAXXZ|
  00040		 |$LN8@dynamic|
  00040	00000000	 DCD         |??_C@_02IAAGKKDJ@On?$AA@|
  00044		 |$LN9@dynamic|
  00044	00000000	 DCD         |??_C@_03GCDBBDDL@Off?$AA@|
  00048		 |$LN10@dynamic|
  00048	00000000	 DCD         |strOnOff|
  0004c		 |$LN11@dynamic|
  0004c	00000000	 DCD         |?npos@CPVRTString@@2IB|
  00050		 |$M36827|

			 ENDP  ; |??__EstrOnOff@pvrengine@@YAXXZ|, pvrengine::`dynamic initializer for 'strOnOff''

	EXPORT	|??_C@_04HPMIDMKH@True?$AA@| [ DATA ]	; `string'
	EXPORT	|??_C@_05MKDOIIA@False?$AA@| [ DATA ]	; `string'

  00000			 AREA	 |.pdata|, PDATA
|$T36842| DCD	|$LN5@dynamic@2|
	DCD	0x40001401

  00000			 AREA	 |.rdata|, DATA, READONLY
|??_C@_04HPMIDMKH@True?$AA@| DCB "True", 0x0		; `string'

  00000			 AREA	 |.rdata|, DATA, READONLY
|??_C@_05MKDOIIA@False?$AA@| DCB "False", 0x0		; `string'
; Function compile flags: /Ogspy

  00000			 AREA	 |.text$yc|, CODE, ARM

  00000		 |??__EstrTrueFalse@pvrengine@@YAXXZ| PROC ; pvrengine::`dynamic initializer for 'strTrueFalse''

; 235  : 	{

  00000		 |$LN5@dynamic@2|
  00000	e92d4030	 stmdb       sp!, {r4, r5, lr}
  00004		 |$M36839|

; 236  : 		"True","False"

  00004	e59f4040	 ldr         r4, [pc, #0x40]
  00008	e59f5038	 ldr         r5, [pc, #0x38]
  0000c	e59f1030	 ldr         r1, [pc, #0x30]
  00010	e5942000	 ldr         r2, [r4]
  00014	e1a00005	 mov         r0, r5
  00018	eb000000	 bl          |??0CPVRTString@@QAA@PBDI@Z|

; 237  : 	};

  0001c	e5942000	 ldr         r2, [r4]
  00020	e59f1018	 ldr         r1, [pc, #0x18]
  00024	e2850010	 add         r0, r5, #0x10
  00028	eb000000	 bl          |??0CPVRTString@@QAA@PBDI@Z|
  0002c	e59f0008	 ldr         r0, [pc, #8]
  00030	eb000000	 bl          atexit
  00034	e8bd4030	 ldmia       sp!, {r4, r5, lr}
  00038	e12fff1e	 bx          lr
  0003c		 |$LN6@dynamic@2|
  0003c		 |$LN7@dynamic@2|
  0003c	00000000	 DCD         |??__FstrTrueFalse@pvrengine@@YAXXZ|
  00040		 |$LN8@dynamic@2|
  00040	00000000	 DCD         |??_C@_05MKDOIIA@False?$AA@|
  00044		 |$LN9@dynamic@2|
  00044	00000000	 DCD         |??_C@_04HPMIDMKH@True?$AA@|
  00048		 |$LN10@dynamic@2|
  00048	00000000	 DCD         |strTrueFalse|
  0004c		 |$LN11@dynamic@2|
  0004c	00000000	 DCD         |?npos@CPVRTString@@2IB|
  00050		 |$M36840|

			 ENDP  ; |??__EstrTrueFalse@pvrengine@@YAXXZ|, pvrengine::`dynamic initializer for 'strTrueFalse''


  00000			 AREA	 |.pdata|, PDATA
|$T36866| DCD	|$LN11@dynamic@3|
	DCD	0x40000c01
; Function compile flags: /Ogspy

  00000			 AREA	 |.text$yd|, CODE, ARM

  00000		 |??__FstrOnOff@pvrengine@@YAXXZ| PROC	; pvrengine::`dynamic atexit destructor for 'strOnOff''
  00000		 |$LN11@dynamic@3|
  00000	e92d4030	 stmdb       sp!, {r4, r5, lr}
  00004		 |$M36863|
  00004	e59f3020	 ldr         r3, [pc, #0x20]
  00008	e3a05001	 mov         r5, #1
  0000c	e2834020	 add         r4, r3, #0x20
  00010		 |$LL4@dynamic@3|
  00010	e2444010	 sub         r4, r4, #0x10
  00014	e1a00004	 mov         r0, r4
  00018	eb000000	 bl          |??1CPVRTString@@UAA@XZ|
  0001c	e2555001	 subs        r5, r5, #1
  00020	5afffffa	 bpl         |$LL4@dynamic@3|
  00024	e8bd4030	 ldmia       sp!, {r4, r5, lr}
  00028	e12fff1e	 bx          lr
  0002c		 |$LN12@dynamic@3|
  0002c		 |$LN13@dynamic@3|
  0002c	00000000	 DCD         |strOnOff|
  00030		 |$M36864|

			 ENDP  ; |??__FstrOnOff@pvrengine@@YAXXZ|, pvrengine::`dynamic atexit destructor for 'strOnOff''


  00000			 AREA	 |.pdata|, PDATA
|$T36886| DCD	|$LN11@dynamic@4|
	DCD	0x40000c01
; Function compile flags: /Ogspy

  00000			 AREA	 |.text$yd|, CODE, ARM

  00000		 |??__FstrTrueFalse@pvrengine@@YAXXZ| PROC ; pvrengine::`dynamic atexit destructor for 'strTrueFalse''
  00000		 |$LN11@dynamic@4|
  00000	e92d4030	 stmdb       sp!, {r4, r5, lr}
  00004		 |$M36883|
  00004	e59f3020	 ldr         r3, [pc, #0x20]
  00008	e3a05001	 mov         r5, #1
  0000c	e2834020	 add         r4, r3, #0x20
  00010		 |$LL4@dynamic@4|
  00010	e2444010	 sub         r4, r4, #0x10
  00014	e1a00004	 mov         r0, r4
  00018	eb000000	 bl          |??1CPVRTString@@UAA@XZ|
  0001c	e2555001	 subs        r5, r5, #1
  00020	5afffffa	 bpl         |$LL4@dynamic@4|
  00024	e8bd4030	 ldmia       sp!, {r4, r5, lr}
  00028	e12fff1e	 bx          lr
  0002c		 |$LN12@dynamic@4|
  0002c		 |$LN13@dynamic@4|
  0002c	00000000	 DCD         |strTrueFalse|
  00030		 |$M36884|

			 ENDP  ; |??__FstrTrueFalse@pvrengine@@YAXXZ|, pvrengine::`dynamic atexit destructor for 'strTrueFalse''


  00000			 AREA	 |.bss|, NOINIT
|strOnOff| %	0x20
|strTrueFalse| % 0x20

  00000			 AREA	 |.CRT$XCU|, DATA
|strOnOff$initializer$| DCD |??__EstrOnOff@pvrengine@@YAXXZ|
|strTrueFalse$initializer$| DCD |??__EstrTrueFalse@pvrengine@@YAXXZ|
	END
