; Listing generated by Microsoft (R) Optimizing Compiler Version 14.01.60511.01 

	TTL	C:\WINCE600\PUBLIC\PowerVR-SDK\OGLES2\Extras\PVREngine\OptionsMenu.cpp
	CODE32

  00000			 AREA	 |.drectve|, DRECTVE
	DCB	"-defaultlib:LIBCMT "
	DCB	"-defaultlib:OLDNAMES "

	EXPORT	|?c_i32DefaultSize@?$dynamicArray@PAVOption@pvrengine@@@@2HB| [ DATA ] ; dynamicArray<pvrengine::Option *>::c_i32DefaultSize

  00000			 AREA	 |.rdata|, DATA, READONLY
|cBrightnessRise| DCD 0x41000000			; 8
|cBrightnessFall| DCD 0xc1a00000			; -20

  00000			 AREA	 |.rdata|, DATA, READONLY
|?c_i32DefaultSize@?$dynamicArray@PAVOption@pvrengine@@@@2HB| DCD 0x8 ; dynamicArray<pvrengine::Option *>::c_i32DefaultSize
	EXPORT	|?getValue@OptionEnum@pvrengine@@QAAHXZ| ; pvrengine::OptionEnum::getValue
; File c:\wince600\public\powervr-sdk\ogles2\extras\pvrengine\include\option.h

  00000			 AREA	 |.pdata|, PDATA
|$T36703| DCD	|$LN5@getValue|
	DCD	0x40000200
; Function compile flags: /Ogspy

  00000			 AREA	 |.text|, CODE, ARM

  00000		 |?getValue@OptionEnum@pvrengine@@QAAHXZ| PROC ; pvrengine::OptionEnum::getValue

; 119  : 		int getValue(){ return m_i32CurrentValue;}

  00000		 |$LN5@getValue|
  00000		 |$M36700|
  00000	e590001c	 ldr         r0, [r0, #0x1C]
  00004	e12fff1e	 bx          lr
  00008		 |$M36701|

			 ENDP  ; |?getValue@OptionEnum@pvrengine@@QAAHXZ|, pvrengine::OptionEnum::getValue

	EXPORT	|?getValue@OptionInt@pvrengine@@QAAHXZ|	; pvrengine::OptionInt::getValue

  00000			 AREA	 |.pdata|, PDATA
|$T36713| DCD	|$LN5@getValue@2|
	DCD	0x40000200
; Function compile flags: /Ogspy

  00000			 AREA	 |.text|, CODE, ARM

  00000		 |?getValue@OptionInt@pvrengine@@QAAHXZ| PROC ; pvrengine::OptionInt::getValue

; 166  : 		int getValue(){ return m_i32CurrentValue;}

  00000		 |$LN5@getValue@2|
  00000		 |$M36710|
  00000	e5900020	 ldr         r0, [r0, #0x20]
  00004	e12fff1e	 bx          lr
  00008		 |$M36711|

			 ENDP  ; |?getValue@OptionInt@pvrengine@@QAAHXZ|, pvrengine::OptionInt::getValue

	EXPORT	|?getValue@OptionFloat@pvrengine@@QAAMXZ| ; pvrengine::OptionFloat::getValue

  00000			 AREA	 |.pdata|, PDATA
|$T36723| DCD	|$LN5@getValue@3|
	DCD	0x40000200
; Function compile flags: /Ogspy

  00000			 AREA	 |.text|, CODE, ARM

  00000		 |?getValue@OptionFloat@pvrengine@@QAAMXZ| PROC ; pvrengine::OptionFloat::getValue

; 212  : 		float getValue(){ return m_fCurrentValue;}

  00000		 |$LN5@getValue@3|
  00000		 |$M36720|
  00000	e5900020	 ldr         r0, [r0, #0x20]
  00004	e12fff1e	 bx          lr
  00008		 |$M36721|

			 ENDP  ; |?getValue@OptionFloat@pvrengine@@QAAMXZ|, pvrengine::OptionFloat::getValue

	EXPORT	|??_I@YAXPAXIHP6AX0@Z@Z|		; `vector destructor iterator'

  00000			 AREA	 |.pdata|, PDATA
|$T36738| DCD	|$LN9@vector|
	DCD	0x40000e01
; Function compile flags: /Ogspy

  00000			 AREA	 |.text|, CODE, ARM

  00000		 |??_I@YAXPAXIHP6AX0@Z@Z| PROC		; `vector destructor iterator'
  00000		 |$LN9@vector|
  00000	e92d40f0	 stmdb       sp!, {r4 - r7, lr}
  00004		 |$M36735|
  00004	e1a07003	 mov         r7, r3
  00008	e1a06001	 mov         r6, r1
  0000c	e0240296	 mla         r4, r6, r2, r0
  00010	e2525001	 subs        r5, r2, #1
  00014	4a000005	 bmi         |$LN1@vector|
  00018		 |$LL2@vector|
  00018	e0444006	 sub         r4, r4, r6
  0001c	e1a00004	 mov         r0, r4
  00020	e1a0e00f	 mov         lr, pc
  00024	e12fff17	 bx          r7
  00028	e2555001	 subs        r5, r5, #1
  0002c	5afffff9	 bpl         |$LL2@vector|
  00030		 |$LN1@vector|
  00030	e8bd40f0	 ldmia       sp!, {r4 - r7, lr}
  00034	e12fff1e	 bx          lr
  00038		 |$M36736|

			 ENDP  ; |??_I@YAXPAXIHP6AX0@Z@Z|, `vector destructor iterator'

	EXPORT	|?getDeltaTime@TimeController@pvrengine@@QAAMXZ| ; pvrengine::TimeController::getDeltaTime
; File c:\wince600\public\powervr-sdk\ogles2\extras\pvrengine\include\timecontroller.h

  00000			 AREA	 |.pdata|, PDATA
|$T36748| DCD	|$LN5@getDeltaTi|
	DCD	0x40000200
; Function compile flags: /Ogspy

  00000			 AREA	 |.text|, CODE, ARM

  00000		 |?getDeltaTime@TimeController@pvrengine@@QAAMXZ| PROC ; pvrengine::TimeController::getDeltaTime

; 102  : 		float	getDeltaTime(){return m_fDeltaTime;}

  00000		 |$LN5@getDeltaTi|
  00000		 |$M36745|
  00000	e590000c	 ldr         r0, [r0, #0xC]
  00004	e12fff1e	 bx          lr
  00008		 |$M36746|

			 ENDP  ; |?getDeltaTime@TimeController@pvrengine@@QAAMXZ|, pvrengine::TimeController::getDeltaTime

	EXPORT	|??0?$dynamicArray@PAVOption@pvrengine@@@@QAA@XZ| ; dynamicArray<pvrengine::Option *>::dynamicArray<pvrengine::Option *>
	IMPORT	|??2@YAPAXI@Z|				; operator new
; File c:\wince600\public\powervr-sdk\ogles2\extras\pvrengine\include\dynamicarray.h

  00000			 AREA	 |.pdata|, PDATA
|$T36759| DCD	|$LN5@dynamicArr|
	DCD	0x40000c01
; Function compile flags: /Ogspy

  00000			 AREA	 |.text|, CODE, ARM

  00000		 |??0?$dynamicArray@PAVOption@pvrengine@@@@QAA@XZ| PROC ; dynamicArray<pvrengine::Option *>::dynamicArray<pvrengine::Option *>

; 57   : 	{

  00000		 |$LN5@dynamicArr|
  00000	e92d4010	 stmdb       sp!, {r4, lr}
  00004		 |$M36756|
  00004	e1a04000	 mov         r4, r0
  00008	e3a03000	 mov         r3, #0
  0000c	e3a02008	 mov         r2, #8

; 58   : 		m_pArray = new T[c_i32DefaultSize];

  00010	e3a00020	 mov         r0, #0x20
  00014	e5843000	 str         r3, [r4]
  00018	e5842004	 str         r2, [r4, #4]
  0001c	eb000000	 bl          |??2@YAPAXI@Z|
  00020	e5840008	 str         r0, [r4, #8]

; 59   : 	}

  00024	e1a00004	 mov         r0, r4
  00028	e8bd4010	 ldmia       sp!, {r4, lr}
  0002c	e12fff1e	 bx          lr
  00030		 |$M36757|

			 ENDP  ; |??0?$dynamicArray@PAVOption@pvrengine@@@@QAA@XZ|, dynamicArray<pvrengine::Option *>::dynamicArray<pvrengine::Option *>

	EXPORT	|??1?$dynamicArray@PAVOption@pvrengine@@@@QAA@XZ| ; dynamicArray<pvrengine::Option *>::~dynamicArray<pvrengine::Option *>
	IMPORT	|??3@YAXPAX@Z|				; operator delete

  00000			 AREA	 |.pdata|, PDATA
|$T36768| DCD	|$LN6@dynamicArr@2|
	DCD	0x40000701
; Function compile flags: /Ogspy

  00000			 AREA	 |.text|, CODE, ARM

  00000		 |??1?$dynamicArray@PAVOption@pvrengine@@@@QAA@XZ| PROC ; dynamicArray<pvrengine::Option *>::~dynamicArray<pvrengine::Option *>

; 113  : 	{

  00000		 |$LN6@dynamicArr@2|
  00000	e52de004	 str         lr, [sp, #-4]!
  00004		 |$M36765|

; 114  : 		if(m_pArray)

  00004	e5903008	 ldr         r3, [r0, #8]
  00008	e3530000	 cmp         r3, #0

; 115  : 			delete[](m_pArray);

  0000c	11a00003	 movne       r0, r3
  00010	1b000000	 blne        |??3@YAXPAX@Z|

; 116  : 	}

  00014	e49de004	 ldr         lr, [sp], #4
  00018	e12fff1e	 bx          lr
  0001c		 |$M36766|

			 ENDP  ; |??1?$dynamicArray@PAVOption@pvrengine@@@@QAA@XZ|, dynamicArray<pvrengine::Option *>::~dynamicArray<pvrengine::Option *>

	EXPORT	|?append@?$dynamicArray@PAVOption@pvrengine@@@@QAAXPAVOption@pvrengine@@@Z| ; dynamicArray<pvrengine::Option *>::append

  00000			 AREA	 |.pdata|, PDATA
|$T36786| DCD	|$LN13@append|
	DCD	0x40002401
; Function compile flags: /Ogspy

  00000			 AREA	 |.text|, CODE, ARM

  00000		 |?append@?$dynamicArray@PAVOption@pvrengine@@@@QAAXPAVOption@pvrengine@@@Z| PROC ; dynamicArray<pvrengine::Option *>::append

; 126  : 	{

  00000		 |$LN13@append|
  00000	e92d4030	 stmdb       sp!, {r4, r5, lr}
  00004		 |$M36783|
  00004	e1a05001	 mov         r5, r1
  00008	e1a04000	 mov         r4, r0

; 127  : 		if(m_i32Size==m_i32Capacity)		// should never be >

  0000c	e5942004	 ldr         r2, [r4, #4]
  00010	e5943000	 ldr         r3, [r4]
  00014	e1530002	 cmp         r3, r2
  00018	1a000014	 bne         |$LN4@append|

; 128  : 		{	// expand array: expensive
; 129  : 
; 130  : 			m_i32Capacity*=2;	// array doubles in size for each expansion

  0001c	e1a03082	 mov         r3, r2, lsl #1

; 131  : 			T *pDeadArray,*pNewArray = new T[m_i32Capacity]; // make new array

  00020	e3730107	 cmn         r3, #7, 2
  00024	91a00103	 movls       r0, r3, lsl #2
  00028	83e00000	 mvnhi       r0, #0
  0002c	e5843004	 str         r3, [r4, #4]
  00030	eb000000	 bl          |??2@YAPAXI@Z|

; 132  : 
; 133  : 			// copy old values to new array
; 134  : 			for(int i=0;i<m_i32Size;i++)

  00034	e5943000	 ldr         r3, [r4]
  00038	e1a01000	 mov         r1, r0
  0003c	e3a02000	 mov         r2, #0
  00040	e3530000	 cmp         r3, #0
  00044	da000006	 ble         |$LN1@append|
  00048		 |$LL3@append|

; 135  : 			{
; 136  : 				pNewArray[i]=m_pArray[i];

  00048	e5943008	 ldr         r3, [r4, #8]
  0004c	e7933102	 ldr         r3, [r3, +r2, lsl #2]
  00050	e7813102	 str         r3, [r1, +r2, lsl #2]
  00054	e5943000	 ldr         r3, [r4]
  00058	e2822001	 add         r2, r2, #1
  0005c	e1520003	 cmp         r2, r3
  00060	bafffff8	 blt         |$LL3@append|
  00064		 |$LN1@append|

; 137  : 			}
; 138  : 
; 139  : 
; 140  : 			pDeadArray = m_pArray;

  00064	e5940008	 ldr         r0, [r4, #8]

; 141  : 			m_pArray = pNewArray;

  00068	e5841008	 str         r1, [r4, #8]

; 142  : 			delete[](pDeadArray);

  0006c	eb000000	 bl          |??3@YAXPAX@Z|
  00070		 |$LN4@append|

; 143  : 		}
; 144  : 		// add new element to end of array
; 145  : 
; 146  : 		m_pArray[m_i32Size] = addT;

  00070	e5942000	 ldr         r2, [r4]
  00074	e5943008	 ldr         r3, [r4, #8]
  00078	e7835102	 str         r5, [r3, +r2, lsl #2]

; 147  : 		m_i32Size++;

  0007c	e5943000	 ldr         r3, [r4]
  00080	e2833001	 add         r3, r3, #1
  00084	e5843000	 str         r3, [r4]

; 148  : 	}

  00088	e8bd4030	 ldmia       sp!, {r4, r5, lr}
  0008c	e12fff1e	 bx          lr
  00090		 |$M36784|

			 ENDP  ; |?append@?$dynamicArray@PAVOption@pvrengine@@@@QAAXPAVOption@pvrengine@@@Z|, dynamicArray<pvrengine::Option *>::append

	EXPORT	|??A?$dynamicArray@PAVOption@pvrengine@@@@QAAAAPAVOption@pvrengine@@H@Z| ; dynamicArray<pvrengine::Option *>::operator[]

  00000			 AREA	 |.pdata|, PDATA
|$T36797| DCD	|$LN5@operator|
	DCD	0x40000300
; Function compile flags: /Ogspy

  00000			 AREA	 |.text|, CODE, ARM

  00000		 |??A?$dynamicArray@PAVOption@pvrengine@@@@QAAAAPAVOption@pvrengine@@H@Z| PROC ; dynamicArray<pvrengine::Option *>::operator[]

; 216  : 	{

  00000		 |$LN5@operator|
  00000		 |$M36794|

; 217  : 		_ASSERT(i32Index<m_i32Capacity);
; 218  : 		return m_pArray[i32Index];

  00000	e5903008	 ldr         r3, [r0, #8]
  00004	e0830101	 add         r0, r3, r1, lsl #2

; 219  : 	}

  00008	e12fff1e	 bx          lr
  0000c		 |$M36795|

			 ENDP  ; |??A?$dynamicArray@PAVOption@pvrengine@@@@QAAAAPAVOption@pvrengine@@H@Z|, dynamicArray<pvrengine::Option *>::operator[]

	EXPORT	|?getSize@?$dynamicArray@PAVOption@pvrengine@@@@QBAIXZ| ; dynamicArray<pvrengine::Option *>::getSize

  00000			 AREA	 |.pdata|, PDATA
|$T36807| DCD	|$LN5@getSize|
	DCD	0x40000200
; Function compile flags: /Ogspy

  00000			 AREA	 |.text|, CODE, ARM

  00000		 |?getSize@?$dynamicArray@PAVOption@pvrengine@@@@QBAIXZ| PROC ; dynamicArray<pvrengine::Option *>::getSize

; 240  : 	{

  00000		 |$LN5@getSize|
  00000		 |$M36804|

; 241  : 		return m_i32Size;

  00000	e5900000	 ldr         r0, [r0]

; 242  : 	}

  00004	e12fff1e	 bx          lr
  00008		 |$M36805|

			 ENDP  ; |?getSize@?$dynamicArray@PAVOption@pvrengine@@@@QBAIXZ|, dynamicArray<pvrengine::Option *>::getSize

	EXPORT	|??1?$CPVRTSingleton@VTimeController@pvrengine@@@@MAA@XZ| ; CPVRTSingleton<pvrengine::TimeController>::~CPVRTSingleton<pvrengine::TimeController>
	EXPORT	|??_7?$CPVRTSingleton@VTimeController@pvrengine@@@@6B@| [ DATA ] ; CPVRTSingleton<pvrengine::TimeController>::`vftable'
	IMPORT	|??_E?$CPVRTSingleton@VTimeController@pvrengine@@@@MAAPAXI@Z|, WEAK |??_G?$CPVRTSingleton@VTimeController@pvrengine@@@@MAAPAXI@Z| ; CPVRTSingleton<pvrengine::TimeController>::`vector deleting destructor', CPVRTSingleton<pvrengine::TimeController>::`scalar deleting destructor'
; File c:\wince600\public\powervr-sdk\ogles2\tools\pvrtsingleton.h

  00000			 AREA	 |.pdata|, PDATA
|$T36815| DCD	|$LN5@CPVRTSingl|
	DCD	0x40000400

  00000			 AREA	 |.rdata|, DATA, READONLY
|??_7?$CPVRTSingleton@VTimeController@pvrengine@@@@6B@| DCD |??_E?$CPVRTSingleton@VTimeController@pvrengine@@@@MAAPAXI@Z| ; CPVRTSingleton<pvrengine::TimeController>::`vftable'
; Function compile flags: /Ogspy

  00000			 AREA	 |.text|, CODE, ARM

  00000		 |??1?$CPVRTSingleton@VTimeController@pvrengine@@@@MAA@XZ| PROC ; CPVRTSingleton<pvrengine::TimeController>::~CPVRTSingleton<pvrengine::TimeController>

; 38   : 	virtual ~CPVRTSingleton() {};

  00000		 |$LN5@CPVRTSingl|
  00000		 |$M36812|
  00000	e59f3004	 ldr         r3, [pc, #4]
  00004	e5803000	 str         r3, [r0]
  00008	e12fff1e	 bx          lr
  0000c		 |$LN6@CPVRTSingl|
  0000c		 |$LN7@CPVRTSingl|
  0000c	00000000	 DCD         |??_7?$CPVRTSingleton@VTimeController@pvrengine@@@@6B@|
  00010		 |$M36813|

			 ENDP  ; |??1?$CPVRTSingleton@VTimeController@pvrengine@@@@MAA@XZ|, CPVRTSingleton<pvrengine::TimeController>::~CPVRTSingleton<pvrengine::TimeController>

	EXPORT	|??1TimeController@pvrengine@@UAA@XZ|	; pvrengine::TimeController::~TimeController

  00000			 AREA	 |.pdata|, PDATA
|$T36828| DCD	|$LN7@TimeContro|
	DCD	0x40000400
; Function compile flags: /Ogspy

  00000			 AREA	 |.text|, CODE, ARM

  00000		 |??1TimeController@pvrengine@@UAA@XZ| PROC ; pvrengine::TimeController::~TimeController
  00000		 |$LN7@TimeContro|
  00000		 |$M36825|
  00000	e59f3004	 ldr         r3, [pc, #4]
  00004	e5803000	 str         r3, [r0]
  00008	e12fff1e	 bx          lr
  0000c		 |$LN8@TimeContro|
  0000c		 |$LN9@TimeContro|
  0000c	00000000	 DCD         |??_7?$CPVRTSingleton@VTimeController@pvrengine@@@@6B@|
  00010		 |$M36826|

			 ENDP  ; |??1TimeController@pvrengine@@UAA@XZ|, pvrengine::TimeController::~TimeController


  00000			 AREA	 |.pdata|, PDATA
|$T36844| DCD	|$LN8@scalar|
	DCD	0x40000a01
; Function compile flags: /Ogspy

  00000			 AREA	 |.text|, CODE, ARM

  00000		 |??_G?$CPVRTSingleton@VTimeController@pvrengine@@@@MAAPAXI@Z| PROC ; CPVRTSingleton<pvrengine::TimeController>::`scalar deleting destructor'
  00000		 |$LN8@scalar|
  00000	e92d4010	 stmdb       sp!, {r4, lr}
  00004		 |$M36841|
  00004	e1a04000	 mov         r4, r0
  00008	e59f3014	 ldr         r3, [pc, #0x14]
  0000c	e3110001	 tst         r1, #1
  00010	e5843000	 str         r3, [r4]
  00014	1b000000	 blne        |??3@YAXPAX@Z|
  00018	e1a00004	 mov         r0, r4
  0001c	e8bd4010	 ldmia       sp!, {r4, lr}
  00020	e12fff1e	 bx          lr
  00024		 |$LN9@scalar|
  00024		 |$LN10@scalar|
  00024	00000000	 DCD         |??_7?$CPVRTSingleton@VTimeController@pvrengine@@@@6B@|
  00028		 |$M36842|

			 ENDP  ; |??_G?$CPVRTSingleton@VTimeController@pvrengine@@@@MAAPAXI@Z|, CPVRTSingleton<pvrengine::TimeController>::`scalar deleting destructor'

	EXPORT	|??0OptionsMenu@pvrengine@@QAA@PAVCPVRTPrint3D@@@Z| ; pvrengine::OptionsMenu::OptionsMenu
; File c:\wince600\public\powervr-sdk\ogles2\extras\pvrengine\include\dynamicarray.h

  00000			 AREA	 |.pdata|, PDATA
|$T36864| DCD	|$LN7@OptionsMen|
	DCD	0x40001501
; Function compile flags: /Ogspy
; File c:\wince600\public\powervr-sdk\ogles2\extras\pvrengine\optionsmenu.cpp

  00000			 AREA	 |.text|, CODE, ARM

  00000		 |??0OptionsMenu@pvrengine@@QAA@PAVCPVRTPrint3D@@@Z| PROC ; pvrengine::OptionsMenu::OptionsMenu

; 26   : 	{

  00000		 |$LN7@OptionsMen|
  00000	e92d40f0	 stmdb       sp!, {r4 - r7, lr}
  00004		 |$M36861|
  00004	e1a05001	 mov         r5, r1
  00008	e1a06000	 mov         r6, r0
  0000c	e1a04006	 mov         r4, r6
  00010	e3a07000	 mov         r7, #0
  00014	e5a47004	 str         r7, [r4, #4]!
  00018	e3a03008	 mov         r3, #8
  0001c	e3a00020	 mov         r0, #0x20
  00020	e5843004	 str         r3, [r4, #4]
  00024	eb000000	 bl          |??2@YAPAXI@Z|
  00028	e3a03443	 mov         r3, #0x43, 8

; 27   : 		m_pPrint3D = pPrint3D;
; 28   : 		m_i32CurrentOption = 0;
; 29   : 
; 30   : 		m_f32BrightnessMod=0x99;

  0002c	e3833819	 orr         r3, r3, #0x19, 16

; 31   : 		m_f32BrightnessModDirection =cBrightnessRise;

  00030	e3a02441	 mov         r2, #0x41, 8
  00034	e5840008	 str         r0, [r4, #8]
  00038	e5863014	 str         r3, [r6, #0x14]
  0003c	e5865000	 str         r5, [r6]
  00040	e5867010	 str         r7, [r6, #0x10]
  00044	e5862018	 str         r2, [r6, #0x18]

; 32   : 	}

  00048	e1a00006	 mov         r0, r6
  0004c	e8bd40f0	 ldmia       sp!, {r4 - r7, lr}
  00050	e12fff1e	 bx          lr
  00054		 |$M36862|

			 ENDP  ; |??0OptionsMenu@pvrengine@@QAA@PAVCPVRTPrint3D@@@Z|, pvrengine::OptionsMenu::OptionsMenu

	EXPORT	|??1OptionsMenu@pvrengine@@QAA@XZ|	; pvrengine::OptionsMenu::~OptionsMenu
; File c:\wince600\public\powervr-sdk\ogles2\extras\pvrengine\include\dynamicarray.h

  00000			 AREA	 |.pdata|, PDATA
|$T36901| DCD	|$LN24@OptionsMen@2|
	DCD	0x40001f01
; Function compile flags: /Ogspy
; File c:\wince600\public\powervr-sdk\ogles2\extras\pvrengine\optionsmenu.cpp

  00000			 AREA	 |.text|, CODE, ARM

  00000		 |??1OptionsMenu@pvrengine@@QAA@XZ| PROC ; pvrengine::OptionsMenu::~OptionsMenu

; 37   : 	{

  00000		 |$LN24@OptionsMen@2|
  00000	e92d40f0	 stmdb       sp!, {r4 - r7, lr}
  00004		 |$M36898|
  00004	e1a04000	 mov         r4, r0

; 38   : 		for(unsigned int i=0;i<m_daOptions.getSize();i++)

  00008	e5943004	 ldr         r3, [r4, #4]
  0000c	e3a05000	 mov         r5, #0
  00010	e3530000	 cmp         r3, #0
  00014	0a000012	 beq         |$LN2@OptionsMen@2|
  00018	e3a07000	 mov         r7, #0
  0001c		 |$LL4@OptionsMen@2|
  0001c	e594300c	 ldr         r3, [r4, #0xC]
  00020	e1a06105	 mov         r6, r5, lsl #2
  00024	e1a02006	 mov         r2, r6

; 39   : 		{
; 40   : 			PVRDELETE(m_daOptions[i]);

  00028	e7b23003	 ldr         r3, [r2, +r3]!
  0002c	e3530000	 cmp         r3, #0
  00030	15923000	 ldrne       r3, [r2]
  00034	11b00003	 movnes      r0, r3
  00038	15903000	 ldrne       r3, [r0]
  0003c	13a01001	 movne       r1, #1
  00040	15933000	 ldrne       r3, [r3]
  00044	11a0e00f	 movne       lr, pc
  00048	112fff13	 bxne        r3
  0004c	e594300c	 ldr         r3, [r4, #0xC]
  00050	e2855001	 add         r5, r5, #1
  00054	e7867003	 str         r7, [r6, +r3]
  00058	e5943004	 ldr         r3, [r4, #4]
  0005c	e1550003	 cmp         r5, r3
  00060	3affffed	 bcc         |$LL4@OptionsMen@2|
  00064		 |$LN2@OptionsMen@2|

; 41   : 		}
; 42   : 	}

  00064	e594300c	 ldr         r3, [r4, #0xC]
  00068	e3530000	 cmp         r3, #0
  0006c	11a00003	 movne       r0, r3
  00070	1b000000	 blne        |??3@YAXPAX@Z|
  00074	e8bd40f0	 ldmia       sp!, {r4 - r7, lr}
  00078	e12fff1e	 bx          lr
  0007c		 |$M36899|

			 ENDP  ; |??1OptionsMenu@pvrengine@@QAA@XZ|, pvrengine::OptionsMenu::~OptionsMenu

	EXPORT	|?addOption@OptionsMenu@pvrengine@@QAAXPAVOption@2@@Z| ; pvrengine::OptionsMenu::addOption

  00000			 AREA	 |.pdata|, PDATA
|$T36910| DCD	|$LN5@addOption|
	DCD	0x40000501
; Function compile flags: /Ogspy

  00000			 AREA	 |.text|, CODE, ARM

  00000		 |?addOption@OptionsMenu@pvrengine@@QAAXPAVOption@2@@Z| PROC ; pvrengine::OptionsMenu::addOption

; 47   : 	{

  00000		 |$LN5@addOption|
  00000	e52de004	 str         lr, [sp, #-4]!
  00004		 |$M36907|

; 48   : 		m_daOptions.append(pOption);

  00004	e2800004	 add         r0, r0, #4
  00008	eb000000	 bl          |?append@?$dynamicArray@PAVOption@pvrengine@@@@QAAXPAVOption@pvrengine@@@Z|

; 49   : 	}

  0000c	e49de004	 ldr         lr, [sp], #4
  00010	e12fff1e	 bx          lr
  00014		 |$M36908|

			 ENDP  ; |?addOption@OptionsMenu@pvrengine@@QAAXPAVOption@2@@Z|, pvrengine::OptionsMenu::addOption

	EXPORT	|?nextValue@OptionsMenu@pvrengine@@QAAXXZ| ; pvrengine::OptionsMenu::nextValue
; File c:\wince600\public\powervr-sdk\ogles2\extras\pvrengine\include\dynamicarray.h

  00000			 AREA	 |.pdata|, PDATA
|$T36921| DCD	|$LN7@nextValue|
	DCD	0x40000a01
; Function compile flags: /Ogspy
; File c:\wince600\public\powervr-sdk\ogles2\extras\pvrengine\optionsmenu.cpp

  00000			 AREA	 |.text|, CODE, ARM

  00000		 |?nextValue@OptionsMenu@pvrengine@@QAAXXZ| PROC ; pvrengine::OptionsMenu::nextValue

; 54   : 	{

  00000		 |$LN7@nextValue|
  00000	e52de004	 str         lr, [sp, #-4]!
  00004		 |$M36918|

; 55   : 		m_daOptions[m_i32CurrentOption]->nextValue();

  00004	e5902010	 ldr         r2, [r0, #0x10]
  00008	e590300c	 ldr         r3, [r0, #0xC]
  0000c	e7930102	 ldr         r0, [r3, +r2, lsl #2]
  00010	e5903000	 ldr         r3, [r0]
  00014	e5933004	 ldr         r3, [r3, #4]
  00018	e1a0e00f	 mov         lr, pc
  0001c	e12fff13	 bx          r3

; 56   : 	}

  00020	e49de004	 ldr         lr, [sp], #4
  00024	e12fff1e	 bx          lr
  00028		 |$M36919|

			 ENDP  ; |?nextValue@OptionsMenu@pvrengine@@QAAXXZ|, pvrengine::OptionsMenu::nextValue

	EXPORT	|?prevValue@OptionsMenu@pvrengine@@QAAXXZ| ; pvrengine::OptionsMenu::prevValue
; File c:\wince600\public\powervr-sdk\ogles2\extras\pvrengine\include\dynamicarray.h

  00000			 AREA	 |.pdata|, PDATA
|$T36932| DCD	|$LN7@prevValue|
	DCD	0x40000a01
; Function compile flags: /Ogspy
; File c:\wince600\public\powervr-sdk\ogles2\extras\pvrengine\optionsmenu.cpp

  00000			 AREA	 |.text|, CODE, ARM

  00000		 |?prevValue@OptionsMenu@pvrengine@@QAAXXZ| PROC ; pvrengine::OptionsMenu::prevValue

; 61   : 	{

  00000		 |$LN7@prevValue|
  00000	e52de004	 str         lr, [sp, #-4]!
  00004		 |$M36929|

; 62   : 		m_daOptions[m_i32CurrentOption]->prevValue();

  00004	e5902010	 ldr         r2, [r0, #0x10]
  00008	e590300c	 ldr         r3, [r0, #0xC]
  0000c	e7930102	 ldr         r0, [r3, +r2, lsl #2]
  00010	e5903000	 ldr         r3, [r0]
  00014	e5933008	 ldr         r3, [r3, #8]
  00018	e1a0e00f	 mov         lr, pc
  0001c	e12fff13	 bx          r3

; 63   : 	}

  00020	e49de004	 ldr         lr, [sp], #4
  00024	e12fff1e	 bx          lr
  00028		 |$M36930|

			 ENDP  ; |?prevValue@OptionsMenu@pvrengine@@QAAXXZ|, pvrengine::OptionsMenu::prevValue

	EXPORT	|?nextOption@OptionsMenu@pvrengine@@QAAXXZ| ; pvrengine::OptionsMenu::nextOption
; File c:\wince600\public\powervr-sdk\ogles2\extras\pvrengine\include\dynamicarray.h

  00000			 AREA	 |.pdata|, PDATA
|$T36944| DCD	|$LN8@nextOption|
	DCD	0x40000800
; Function compile flags: /Ogspy
; File c:\wince600\public\powervr-sdk\ogles2\extras\pvrengine\optionsmenu.cpp

  00000			 AREA	 |.text|, CODE, ARM

  00000		 |?nextOption@OptionsMenu@pvrengine@@QAAXXZ| PROC ; pvrengine::OptionsMenu::nextOption

; 68   : 	{

  00000		 |$LN8@nextOption|
  00000		 |$M36941|

; 69   : 		m_i32CurrentOption++;

  00000	e5903010	 ldr         r3, [r0, #0x10]

; 70   : 		if(m_i32CurrentOption>=(int)m_daOptions.getSize())

  00004	e5902004	 ldr         r2, [r0, #4]
  00008	e2833001	 add         r3, r3, #1
  0000c	e1530002	 cmp         r3, r2
  00010	e5803010	 str         r3, [r0, #0x10]

; 71   : 			m_i32CurrentOption=0;

  00014	a3a03000	 movge       r3, #0
  00018	a5803010	 strge       r3, [r0, #0x10]

; 72   : 	}

  0001c	e12fff1e	 bx          lr
  00020		 |$M36942|

			 ENDP  ; |?nextOption@OptionsMenu@pvrengine@@QAAXXZ|, pvrengine::OptionsMenu::nextOption

	EXPORT	|?prevOption@OptionsMenu@pvrengine@@QAAXXZ| ; pvrengine::OptionsMenu::prevOption
; File c:\wince600\public\powervr-sdk\ogles2\extras\pvrengine\include\dynamicarray.h

  00000			 AREA	 |.pdata|, PDATA
|$T36956| DCD	|$LN8@prevOption|
	DCD	0x40000700
; Function compile flags: /Ogspy
; File c:\wince600\public\powervr-sdk\ogles2\extras\pvrengine\optionsmenu.cpp

  00000			 AREA	 |.text|, CODE, ARM

  00000		 |?prevOption@OptionsMenu@pvrengine@@QAAXXZ| PROC ; pvrengine::OptionsMenu::prevOption

; 77   : 	{

  00000		 |$LN8@prevOption|
  00000		 |$M36953|

; 78   : 		m_i32CurrentOption--;

  00000	e5903010	 ldr         r3, [r0, #0x10]
  00004	e2533001	 subs        r3, r3, #1
  00008	e5803010	 str         r3, [r0, #0x10]

; 79   : 		if(m_i32CurrentOption<0)
; 80   : 			m_i32CurrentOption= m_daOptions.getSize()-1;

  0000c	45903004	 ldrmi       r3, [r0, #4]
  00010	42433001	 submi       r3, r3, #1
  00014	45803010	 strmi       r3, [r0, #0x10]

; 81   : 	}

  00018	e12fff1e	 bx          lr
  0001c		 |$M36954|

			 ENDP  ; |?prevOption@OptionsMenu@pvrengine@@QAAXXZ|, pvrengine::OptionsMenu::prevOption

	EXPORT	|?getValueBool@OptionsMenu@pvrengine@@QAA_NI@Z| ; pvrengine::OptionsMenu::getValueBool
; File c:\wince600\public\powervr-sdk\ogles2\extras\pvrengine\include\option.h

  00000			 AREA	 |.pdata|, PDATA
|$T36976| DCD	|$LN11@getValueBo|
	DCD	0x40000900
; Function compile flags: /Ogspy
; File c:\wince600\public\powervr-sdk\ogles2\extras\pvrengine\optionsmenu.cpp

  00000			 AREA	 |.text|, CODE, ARM

  00000		 |?getValueBool@OptionsMenu@pvrengine@@QAA_NI@Z| PROC ; pvrengine::OptionsMenu::getValueBool

; 86   : 	{

  00000		 |$LN11@getValueBo|
  00000		 |$M36973|

; 87   : 		return ((OptionEnum*)m_daOptions[eOption])->getValue()!=0;

  00000	e590300c	 ldr         r3, [r0, #0xC]
  00004	e7933101	 ldr         r3, [r3, +r1, lsl #2]
  00008	e593301c	 ldr         r3, [r3, #0x1C]
  0000c	e3530000	 cmp         r3, #0
  00010	13a03001	 movne       r3, #1
  00014	120300ff	 andne       r0, r3, #0xFF
  00018	03a03000	 moveq       r3, #0
  0001c	020300ff	 andeq       r0, r3, #0xFF

; 88   : 	}

  00020	e12fff1e	 bx          lr
  00024		 |$M36974|

			 ENDP  ; |?getValueBool@OptionsMenu@pvrengine@@QAA_NI@Z|, pvrengine::OptionsMenu::getValueBool

	EXPORT	|?getValueEnum@OptionsMenu@pvrengine@@QAAII@Z| ; pvrengine::OptionsMenu::getValueEnum
; File c:\wince600\public\powervr-sdk\ogles2\extras\pvrengine\include\option.h

  00000			 AREA	 |.pdata|, PDATA
|$T36994| DCD	|$LN9@getValueEn|
	DCD	0x40000400
; Function compile flags: /Ogspy
; File c:\wince600\public\powervr-sdk\ogles2\extras\pvrengine\optionsmenu.cpp

  00000			 AREA	 |.text|, CODE, ARM

  00000		 |?getValueEnum@OptionsMenu@pvrengine@@QAAII@Z| PROC ; pvrengine::OptionsMenu::getValueEnum

; 93   : 	{

  00000		 |$LN9@getValueEn|
  00000		 |$M36991|

; 94   : 		return ((OptionEnum*)m_daOptions[eOption])->getValue();

  00000	e590300c	 ldr         r3, [r0, #0xC]
  00004	e7933101	 ldr         r3, [r3, +r1, lsl #2]
  00008	e593001c	 ldr         r0, [r3, #0x1C]

; 95   : 	}

  0000c	e12fff1e	 bx          lr
  00010		 |$M36992|

			 ENDP  ; |?getValueEnum@OptionsMenu@pvrengine@@QAAII@Z|, pvrengine::OptionsMenu::getValueEnum

	EXPORT	|?getValueInt@OptionsMenu@pvrengine@@QAAHI@Z| ; pvrengine::OptionsMenu::getValueInt
; File c:\wince600\public\powervr-sdk\ogles2\extras\pvrengine\include\option.h

  00000			 AREA	 |.pdata|, PDATA
|$T37012| DCD	|$LN9@getValueIn|
	DCD	0x40000400
; Function compile flags: /Ogspy
; File c:\wince600\public\powervr-sdk\ogles2\extras\pvrengine\optionsmenu.cpp

  00000			 AREA	 |.text|, CODE, ARM

  00000		 |?getValueInt@OptionsMenu@pvrengine@@QAAHI@Z| PROC ; pvrengine::OptionsMenu::getValueInt

; 100  : 	{

  00000		 |$LN9@getValueIn|
  00000		 |$M37009|

; 101  : 		return ((OptionInt*)m_daOptions[eOption])->getValue();

  00000	e590300c	 ldr         r3, [r0, #0xC]
  00004	e7933101	 ldr         r3, [r3, +r1, lsl #2]
  00008	e5930020	 ldr         r0, [r3, #0x20]

; 102  : 	}

  0000c	e12fff1e	 bx          lr
  00010		 |$M37010|

			 ENDP  ; |?getValueInt@OptionsMenu@pvrengine@@QAAHI@Z|, pvrengine::OptionsMenu::getValueInt

	EXPORT	|?getValueFloat@OptionsMenu@pvrengine@@QAAMI@Z| ; pvrengine::OptionsMenu::getValueFloat
; File c:\wince600\public\powervr-sdk\ogles2\extras\pvrengine\include\option.h

  00000			 AREA	 |.pdata|, PDATA
|$T37030| DCD	|$LN9@getValueFl|
	DCD	0x40000400
; Function compile flags: /Ogspy
; File c:\wince600\public\powervr-sdk\ogles2\extras\pvrengine\optionsmenu.cpp

  00000			 AREA	 |.text|, CODE, ARM

  00000		 |?getValueFloat@OptionsMenu@pvrengine@@QAAMI@Z| PROC ; pvrengine::OptionsMenu::getValueFloat

; 107  : 	{

  00000		 |$LN9@getValueFl|
  00000		 |$M37027|

; 108  : 		return ((OptionFloat*)m_daOptions[eOption])->getValue();

  00000	e590300c	 ldr         r3, [r0, #0xC]
  00004	e7933101	 ldr         r3, [r3, +r1, lsl #2]
  00008	e5930020	 ldr         r0, [r3, #0x20]

; 109  : 	}

  0000c	e12fff1e	 bx          lr
  00010		 |$M37028|

			 ENDP  ; |?getValueFloat@OptionsMenu@pvrengine@@QAAMI@Z|, pvrengine::OptionsMenu::getValueFloat

	EXPORT	|??__Fobject@?1??inst@?$CPVRTSingleton@VTimeController@pvrengine@@@@SAAAVTimeController@pvrengine@@XZ@YAXXZ| ; `CPVRTSingleton<pvrengine::TimeController>::inst'::`2'::`dynamic atexit destructor for 'object''
	EXPORT	|??_B?1??inst@?$CPVRTSingleton@VTimeController@pvrengine@@@@SAAAVTimeController@pvrengine@@XZ@51| [ DATA ] ; `CPVRTSingleton<pvrengine::TimeController>::inst'::`2'::`local static guard'
	EXPORT	|?inst@?$CPVRTSingleton@VTimeController@pvrengine@@@@SAAAVTimeController@pvrengine@@XZ| ; CPVRTSingleton<pvrengine::TimeController>::inst
	EXPORT	|?object@?1??inst@?$CPVRTSingleton@VTimeController@pvrengine@@@@SAAAVTimeController@pvrengine@@XZ@4V34@A| [ DATA ] ; `CPVRTSingleton<pvrengine::TimeController>::inst'::`2'::object
	IMPORT	|atexit|
	IMPORT	|??0TimeController@pvrengine@@QAA@XZ|	; pvrengine::TimeController::TimeController
; File c:\wince600\public\powervr-sdk\ogles2\tools\pvrtsingleton.h

  00000			 AREA	 |.bss|, NOINIT
|??_B?1??inst@?$CPVRTSingleton@VTimeController@pvrengine@@@@SAAAVTimeController@pvrengine@@XZ@51| % 0x4 ; `CPVRTSingleton<pvrengine::TimeController>::inst'::`2'::`local static guard'

  00000			 AREA	 |.bss|, NOINIT
|?object@?1??inst@?$CPVRTSingleton@VTimeController@pvrengine@@@@SAAAVTimeController@pvrengine@@XZ@4V34@A| % 0x28 ; `CPVRTSingleton<pvrengine::TimeController>::inst'::`2'::object

  00000			 AREA	 |.pdata|, PDATA
|$T37039| DCD	|$LN6@inst|
	DCD	0x40001101
; Function compile flags: /Ogspy

  00000			 AREA	 |.text|, CODE, ARM

  00000		 |?inst@?$CPVRTSingleton@VTimeController@pvrengine@@@@SAAAVTimeController@pvrengine@@XZ| PROC ; CPVRTSingleton<pvrengine::TimeController>::inst

; 26   : 	{

  00000		 |$LN6@inst|
  00000	e52de004	 str         lr, [sp, #-4]!
  00004		 |$M37036|

; 27   : 		static T object;

  00004	e59f2034	 ldr         r2, [pc, #0x34]
  00008	e5923000	 ldr         r3, [r2]
  0000c	e3130001	 tst         r3, #1
  00010	1a000005	 bne         |$LN1@inst|
  00014	e59f001c	 ldr         r0, [pc, #0x1C]
  00018	e3833001	 orr         r3, r3, #1
  0001c	e5823000	 str         r3, [r2]
  00020	eb000000	 bl          |??0TimeController@pvrengine@@QAA@XZ|
  00024	e59f0010	 ldr         r0, [pc, #0x10]
  00028	eb000000	 bl          atexit
  0002c		 |$LN1@inst|

; 28   : 		return object;
; 29   : 	}

  0002c	e59f0004	 ldr         r0, [pc, #4]
  00030	e49de004	 ldr         lr, [sp], #4
  00034	e12fff1e	 bx          lr
  00038		 |$LN7@inst|
  00038		 |$LN8@inst|
  00038	00000000	 DCD         |?object@?1??inst@?$CPVRTSingleton@VTimeController@pvrengine@@@@SAAAVTimeController@pvrengine@@XZ@4V34@A|
  0003c		 |$LN9@inst|
  0003c	00000000	 DCD         |??__Fobject@?1??inst@?$CPVRTSingleton@VTimeController@pvrengine@@@@SAAAVTimeController@pvrengine@@XZ@YAXXZ|
  00040		 |$LN10@inst|
  00040	00000000	 DCD         |??_B?1??inst@?$CPVRTSingleton@VTimeController@pvrengine@@@@SAAAVTimeController@pvrengine@@XZ@51|
  00044		 |$M37037|

			 ENDP  ; |?inst@?$CPVRTSingleton@VTimeController@pvrengine@@@@SAAAVTimeController@pvrengine@@XZ|, CPVRTSingleton<pvrengine::TimeController>::inst

	EXPORT	|?render@OptionsMenu@pvrengine@@QAAXXZ|	; pvrengine::OptionsMenu::render
	EXPORT	|??_C@_02DKCKIIND@?$CFs?$AA@| [ DATA ]	; `string'
	IMPORT	|??1CPVRTString@@UAA@XZ|		; CPVRTString::~CPVRTString
	IMPORT	|?Print3D@CPVRTPrint3D@@QAA?AW4EPVRTError@@MMMIQBDZZ| ; CPVRTPrint3D::Print3D
	IMPORT	|?c_str@CPVRTString@@QBAPBDXZ|		; CPVRTString::c_str
	IMPORT	|__imp___gts|
	IMPORT	|__imp___lts|
	IMPORT	|__imp___stou|
	IMPORT	|__imp___itos|
	IMPORT	|__imp___muls|
	IMPORT	|__imp___adds|
; File c:\wince600\public\powervr-sdk\ogles2\extras\pvrengine\include\dynamicarray.h

  00000			 AREA	 |.pdata|, PDATA
|$T37100| DCD	|$LN36@render|
	DCD	0x4000da02

  00000			 AREA	 |.rdata|, DATA, READONLY
|??_C@_02DKCKIIND@?$CFs?$AA@| DCB "%s", 0x0		; `string'
; Function compile flags: /Ogspy
; File c:\wince600\public\powervr-sdk\ogles2\extras\pvrengine\optionsmenu.cpp

  00000			 AREA	 |.text|, CODE, ARM

  00000		 |?render@OptionsMenu@pvrengine@@QAAXXZ| PROC ; pvrengine::OptionsMenu::render

; 115  : 	{

  00000		 |$LN36@render|
  00000	e92d4ff0	 stmdb       sp!, {r4 - r11, lr}
  00004	e24dd030	 sub         sp, sp, #0x30
  00008		 |$M37097|
  00008	e1a07000	 mov         r7, r0

; 116  : 
; 117  : 		// do pulse
; 118  : 		m_f32BrightnessMod+=VERTTYPEMUL(m_f32BrightnessModDirection,(float)TimeController::inst().getDeltaTime());

  0000c	eb000000	 bl          |?inst@?$CPVRTSingleton@VTimeController@pvrengine@@@@SAAAVTimeController@pvrengine@@XZ|
  00010	e59f3340	 ldr         r3, [pc, #0x340]
  00014	e590000c	 ldr         r0, [r0, #0xC]
  00018	e5971018	 ldr         r1, [r7, #0x18]
  0001c	e5933000	 ldr         r3, [r3]
  00020	e1a0e00f	 mov         lr, pc
  00024	e12fff13	 bx          r3
  00028	e59f3324	 ldr         r3, [pc, #0x324]
  0002c	e5971014	 ldr         r1, [r7, #0x14]
  00030	e5933000	 ldr         r3, [r3]
  00034	e1a0e00f	 mov         lr, pc
  00038	e12fff13	 bx          r3

; 119  : 		if(m_f32BrightnessMod>0xff)

  0003c	e59f3320	 ldr         r3, [pc, #0x320]
  00040	e3a02443	 mov         r2, #0x43, 8
  00044	e382587f	 orr         r5, r2, #0x7F, 16
  00048	e5933000	 ldr         r3, [r3]
  0004c	e1a04000	 mov         r4, r0
  00050	e1a01005	 mov         r1, r5
  00054	e5874014	 str         r4, [r7, #0x14]
  00058	e1a0e00f	 mov         lr, pc
  0005c	e12fff13	 bx          r3
  00060	e3500000	 cmp         r0, #0
  00064	13a034c1	 movne       r3, #0xC1, 8

; 120  : 		{
; 121  : 			m_f32BrightnessMod = 0xff;
; 122  : 			m_f32BrightnessModDirection=(cBrightnessFall);

  00068	1383360a	 orrne       r3, r3, #0xA, 12
  0006c	1a00000a	 bne         |$LN31@render|

; 123  : 		}
; 124  : 		else if (m_f32BrightnessMod<0xbb)

  00070	e59f32e8	 ldr         r3, [pc, #0x2E8]
  00074	e3a02443	 mov         r2, #0x43, 8
  00078	e382583b	 orr         r5, r2, #0x3B, 16
  0007c	e5933000	 ldr         r3, [r3]
  00080	e1a01005	 mov         r1, r5
  00084	e1a00004	 mov         r0, r4
  00088	e1a0e00f	 mov         lr, pc
  0008c	e12fff13	 bx          r3
  00090	e3500000	 cmp         r0, #0
  00094	0a000002	 beq         |$LN10@render|

; 125  : 		{
; 126  : 			m_f32BrightnessMod = 0xbb;
; 127  : 			m_f32BrightnessModDirection=(cBrightnessRise);

  00098	e3a03441	 mov         r3, #0x41, 8
  0009c		 |$LN31@render|
  0009c	e5875014	 str         r5, [r7, #0x14]
  000a0	e5873018	 str         r3, [r7, #0x18]
  000a4		 |$LN10@render|

; 128  : 		}
; 129  : 
; 130  : 		int numOptions = (int)m_daOptions.getSize();
; 131  : 
; 132  : 		// draw menu
; 133  : 		for(int i=m_i32CurrentOption-8,j=0;j<18;i++,j++)

  000a4	e5973010	 ldr         r3, [r7, #0x10]
  000a8	e597a004	 ldr         r10, [r7, #4]
  000ac	e59f1294	 ldr         r1, [pc, #0x294]
  000b0	e59f428c	 ldr         r4, [pc, #0x28C]
  000b4	e2438008	 sub         r8, r3, #8
  000b8	e3a0b000	 mov         r11, #0
  000bc	e3a09008	 mov         r9, #8
  000c0		 |$LL9@render|

; 134  : 		{
; 135  : 			while(i<0)

  000c0	e3580000	 cmp         r8, #0
  000c4	5a000003	 bpl         |$LN32@render|
  000c8		 |$LL6@render|

; 136  : 			{
; 137  : 				i+=numOptions;

  000c8	e098800a	 adds        r8, r8, r10

; 134  : 		{
; 135  : 			while(i<0)

  000cc	4afffffd	 bmi         |$LL6@render|

; 138  : 			}
; 139  : 			while(i>=numOptions)
; 140  : 			{
; 141  : 				i-=numOptions;

  000d0	ea000000	 b           |$LN32@render|
  000d4		 |$LL4@render|
  000d4	e048800a	 sub         r8, r8, r10
  000d8		 |$LN32@render|
  000d8	e158000a	 cmp         r8, r10
  000dc	aafffffc	 bge         |$LL4@render|

; 142  : 			}
; 143  : 			Option* pCurrentOption = m_daOptions[i];

  000e0	e597300c	 ldr         r3, [r7, #0xC]

; 144  : 			if(i==m_i32CurrentOption)

  000e4	e5972010	 ldr         r2, [r7, #0x10]
  000e8	e7935108	 ldr         r5, [r3, +r8, lsl #2]
  000ec	e1580002	 cmp         r8, r2
  000f0	e58d500c	 str         r5, [sp, #0xC]
  000f4	1a000042	 bne         |$LN2@render|

; 145  : 			{
; 146  : 				unsigned int i32BrightnessMod = (unsigned int) m_f32BrightnessMod;

  000f8	e5970014	 ldr         r0, [r7, #0x14]
  000fc	e5913000	 ldr         r3, [r1]
  00100	e1a0e00f	 mov         lr, pc
  00104	e12fff13	 bx          r3
  00108	e1a06000	 mov         r6, r0

; 147  : 				m_pPrint3D->Print3D(20.0f,10.0f+5.0f*j,0.6f,0xff000000
; 148  : 					+(i32BrightnessMod<<16)
; 149  : 					+(i32BrightnessMod<<8)
; 150  : 					+i32BrightnessMod,"%s",
; 151  : 					pCurrentOption->m_strOption.c_str());

  0010c	e2850004	 add         r0, r5, #4
  00110	eb000000	 bl          |?c_str@CPVRTString@@QBAPBDXZ|
  00114	e5943000	 ldr         r3, [r4]
  00118	e1a04000	 mov         r4, r0
  0011c	e1a0000b	 mov         r0, r11
  00120	e1a0e00f	 mov         lr, pc
  00124	e12fff13	 bx          r3
  00128	e59f2228	 ldr         r2, [pc, #0x228]
  0012c	e5923000	 ldr         r3, [r2]
  00130	e3a02101	 mov         r2, #1, 2
  00134	e382160a	 orr         r1, r2, #0xA, 12
  00138	e1a0e00f	 mov         lr, pc
  0013c	e12fff13	 bx          r3
  00140	e0863406	 add         r3, r6, r6, lsl #8
  00144	e0863403	 add         r3, r6, r3, lsl #8
  00148	e2433401	 sub         r3, r3, #1, 8
  0014c	e58d3000	 str         r3, [sp]
  00150	e3a03441	 mov         r3, #0x41, 8
  00154	e59f21f8	 ldr         r2, [pc, #0x1F8]
  00158	e3831602	 orr         r1, r3, #2, 12
  0015c	e59f31e8	 ldr         r3, [pc, #0x1E8]
  00160	e5922000	 ldr         r2, [r2]
  00164	e1a05000	 mov         r5, r0
  00168	e58d3004	 str         r3, [sp, #4]
  0016c	e58d4008	 str         r4, [sp, #8]
  00170	e1a0e00f	 mov         lr, pc
  00174	e12fff12	 bx          r2
  00178	e3a03441	 mov         r3, #0x41, 8
  0017c	e383160a	 orr         r1, r3, #0xA, 12
  00180	e59f31d4	 ldr         r3, [pc, #0x1D4]
  00184	e1a02000	 mov         r2, r0
  00188	e5970000	 ldr         r0, [r7]
  0018c	eb000000	 bl          |?Print3D@CPVRTPrint3D@@QAA?AW4EPVRTError@@MMMIQBDZZ|

; 152  : 				m_pPrint3D->Print3D(60.0f,10.0f+VERTTYPEMUL(5.0f,f2vt(j)),0.6f,0xff000000+(i32BrightnessMod<<8)+i32BrightnessMod,"%s",
; 153  : 					pCurrentOption->getDisplayValue().c_str());

  00190	e59d000c	 ldr         r0, [sp, #0xC]
  00194	e28d1010	 add         r1, sp, #0x10
  00198	e5903000	 ldr         r3, [r0]
  0019c	e593300c	 ldr         r3, [r3, #0xC]
  001a0	e1a0e00f	 mov         lr, pc
  001a4	e12fff13	 bx          r3
  001a8	eb000000	 bl          |?c_str@CPVRTString@@QBAPBDXZ|
  001ac	e0863406	 add         r3, r6, r6, lsl #8
  001b0	e2433401	 sub         r3, r3, #1, 8
  001b4	e59f2198	 ldr         r2, [pc, #0x198]
  001b8	e58d3000	 str         r3, [sp]
  001bc	e3a03441	 mov         r3, #0x41, 8
  001c0	e3831602	 orr         r1, r3, #2, 12
  001c4	e59f3180	 ldr         r3, [pc, #0x180]
  001c8	e5924000	 ldr         r4, [r2]
  001cc	e1a02000	 mov         r2, r0
  001d0	e58d3004	 str         r3, [sp, #4]
  001d4	e1a00005	 mov         r0, r5
  001d8	e58d2008	 str         r2, [sp, #8]
  001dc	e1a0e00f	 mov         lr, pc
  001e0	e12fff14	 bx          r4
  001e4	e3a03442	 mov         r3, #0x42, 8
  001e8	e3831607	 orr         r1, r3, #7, 12
  001ec	e59f3168	 ldr         r3, [pc, #0x168]
  001f0	e1a02000	 mov         r2, r0
  001f4	e5970000	 ldr         r0, [r7]
  001f8	eb000000	 bl          |?Print3D@CPVRTPrint3D@@QAA?AW4EPVRTError@@MMMIQBDZZ|
  001fc	e28d0010	 add         r0, sp, #0x10

; 154  : 			}
; 155  : 			else

  00200	ea000044	 b           |$LN33@render|
  00204		 |$LN2@render|

; 156  : 			{
; 157  : 				m_pPrint3D->Print3D(20.0f,f2vt(10.0f)+VERTTYPEMUL(f2vt(5.0f),f2vt(j)),f2vt(0.5f),0x00997777|(0x15*(0x9-PVRTABS(j-8)))<<24,"%s",
; 158  : 					pCurrentOption->m_strOption.c_str());

  00204	e2850004	 add         r0, r5, #4
  00208	eb000000	 bl          |?c_str@CPVRTString@@QBAPBDXZ|
  0020c	e1a03000	 mov         r3, r0
  00210	e58d300c	 str         r3, [sp, #0xC]
  00214	e59f3128	 ldr         r3, [pc, #0x128]
  00218	e24b4008	 sub         r4, r11, #8
  0021c	e3540000	 cmp         r4, #0
  00220	e5933000	 ldr         r3, [r3]
  00224	d1a06009	 movle       r6, r9
  00228	c1a06004	 movgt       r6, r4
  0022c	e1a0000b	 mov         r0, r11
  00230	e1a0e00f	 mov         lr, pc
  00234	e12fff13	 bx          r3
  00238	e59f2118	 ldr         r2, [pc, #0x118]
  0023c	e5923000	 ldr         r3, [r2]
  00240	e3a02101	 mov         r2, #1, 2
  00244	e382160a	 orr         r1, r2, #0xA, 12
  00248	e1a0e00f	 mov         lr, pc
  0024c	e12fff13	 bx          r3
  00250	e59f20fc	 ldr         r2, [pc, #0xFC]
  00254	e5923000	 ldr         r3, [r2]
  00258	e3a02441	 mov         r2, #0x41, 8
  0025c	e3821602	 orr         r1, r2, #2, 12
  00260	e1a0e00f	 mov         lr, pc
  00264	e12fff13	 bx          r3
  00268	e2663009	 rsb         r3, r6, #9
  0026c	e3a02415	 mov         r2, #0x15, 8
  00270	e59de00c	 ldr         lr, [sp, #0xC]
  00274	e0020293	 mul         r2, r3, r2
  00278	e59f30d0	 ldr         r3, [pc, #0xD0]
  0027c	e58de008	 str         lr, [sp, #8]
  00280	e59fe0c4	 ldr         lr, [pc, #0xC4]
  00284	e1823003	 orr         r3, r2, r3
  00288	e1a06000	 mov         r6, r0
  0028c	e5970000	 ldr         r0, [r7]
  00290	e3a01441	 mov         r1, #0x41, 8
  00294	e58d3000	 str         r3, [sp]
  00298	e3a0343f	 mov         r3, #0x3F, 8
  0029c	e1a02006	 mov         r2, r6
  002a0	e381160a	 orr         r1, r1, #0xA, 12
  002a4	e58de004	 str         lr, [sp, #4]
  002a8	eb000000	 bl          |?Print3D@CPVRTPrint3D@@QAA?AW4EPVRTError@@MMMIQBDZZ|

; 159  : 				m_pPrint3D->Print3D(60.0f,f2vt(10.0f)+VERTTYPEMUL(f2vt(5.0f),f2vt(j)),f2vt(0.5f),0x00009999|(0x15*(0x9-PVRTABS(j-8)))<<24,"%s",
; 160  : 					pCurrentOption->getDisplayValue().c_str());

  002ac	e5953000	 ldr         r3, [r5]
  002b0	e28d1020	 add         r1, sp, #0x20
  002b4	e1a00005	 mov         r0, r5
  002b8	e593300c	 ldr         r3, [r3, #0xC]
  002bc	e1a0e00f	 mov         lr, pc
  002c0	e12fff13	 bx          r3
  002c4	eb000000	 bl          |?c_str@CPVRTString@@QBAPBDXZ|
  002c8	e3540000	 cmp         r4, #0
  002cc	d1a04009	 movle       r4, r9
  002d0	e2643009	 rsb         r3, r4, #9
  002d4	e3a02415	 mov         r2, #0x15, 8
  002d8	e0020293	 mul         r2, r3, r2
  002dc	e3a04c99	 mov         r4, #0x99, 24
  002e0	e1a0e000	 mov         lr, r0
  002e4	e3841099	 orr         r1, r4, #0x99
  002e8	e5970000	 ldr         r0, [r7]
  002ec	e58de008	 str         lr, [sp, #8]
  002f0	e59fe054	 ldr         lr, [pc, #0x54]
  002f4	e1822001	 orr         r2, r2, r1
  002f8	e3a01442	 mov         r1, #0x42, 8
  002fc	e58d2000	 str         r2, [sp]
  00300	e1a02006	 mov         r2, r6
  00304	e3811607	 orr         r1, r1, #7, 12
  00308	e3a0343f	 mov         r3, #0x3F, 8
  0030c	e58de004	 str         lr, [sp, #4]
  00310	eb000000	 bl          |?Print3D@CPVRTPrint3D@@QAA?AW4EPVRTError@@MMMIQBDZZ|
  00314	e28d0020	 add         r0, sp, #0x20
  00318		 |$LN33@render|
  00318	eb000000	 bl          |??1CPVRTString@@UAA@XZ|
  0031c	e2499001	 sub         r9, r9, #1
  00320	e59f1020	 ldr         r1, [pc, #0x20]
  00324	e59f4018	 ldr         r4, [pc, #0x18]
  00328	e379000a	 cmn         r9, #0xA
  0032c	e2888001	 add         r8, r8, #1
  00330	e28bb001	 add         r11, r11, #1
  00334	caffff61	 bgt         |$LL9@render|

; 161  : 			}
; 162  : 		}
; 163  : 	}

  00338	e28dd030	 add         sp, sp, #0x30
  0033c	e8bd4ff0	 ldmia       sp!, {r4 - r11, lr}
  00340	e12fff1e	 bx          lr
  00344		 |$LN37@render|
  00344		 |$LN38@render|
  00344	00000000	 DCD         |__imp___itos|
  00348		 |$LN39@render|
  00348	00000000	 DCD         |__imp___stou|
  0034c		 |$LN40@render|
  0034c	00000000	 DCD         |??_C@_02DKCKIIND@?$CFs?$AA@|
  00350		 |$LN41@render|
  00350	00997777	 DCD         0x997777
  00354		 |$LN42@render|
  00354	00000000	 DCD         |__imp___adds|
  00358		 |$LN43@render|
  00358	00000000	 DCD         |__imp___muls|
  0035c		 |$LN44@render|
  0035c	3f19999a	 DCD         0x3f19999a
  00360		 |$LN45@render|
  00360	00000000	 DCD         |__imp___lts|
  00364		 |$LN46@render|
  00364	00000000	 DCD         |__imp___gts|
  00368		 |$M37098|

			 ENDP  ; |?render@OptionsMenu@pvrengine@@QAAXXZ|, pvrengine::OptionsMenu::render

	EXPORT	|??_C@_03GCDBBDDL@Off?$AA@| [ DATA ]	; `string'
	EXPORT	|??_C@_02IAAGKKDJ@On?$AA@| [ DATA ]	; `string'
	IMPORT	|??0CPVRTString@@QAA@PBDI@Z|		; CPVRTString::CPVRTString
	IMPORT	|?npos@CPVRTString@@2IB|		; CPVRTString::npos
; File c:\wince600\public\powervr-sdk\ogles2\extras\pvrengine\include\option.h

  00000			 AREA	 |.pdata|, PDATA
|$T37117| DCD	|$LN5@dynamic|
	DCD	0x40001401

  00000			 AREA	 |.rdata|, DATA, READONLY
|??_C@_03GCDBBDDL@Off?$AA@| DCB "Off", 0x0		; `string'

  00000			 AREA	 |.rdata|, DATA, READONLY
|??_C@_02IAAGKKDJ@On?$AA@| DCB "On", 0x0		; `string'
; Function compile flags: /Ogspy

  00000			 AREA	 |.text$yc|, CODE, ARM

  00000		 |??__EstrOnOff@pvrengine@@YAXXZ| PROC	; pvrengine::`dynamic initializer for 'strOnOff''

; 230  : 	{

  00000		 |$LN5@dynamic|
  00000	e92d4030	 stmdb       sp!, {r4, r5, lr}
  00004		 |$M37114|

; 231  : 		"Off","On"

  00004	e59f4040	 ldr         r4, [pc, #0x40]
  00008	e59f5038	 ldr         r5, [pc, #0x38]
  0000c	e59f1030	 ldr         r1, [pc, #0x30]
  00010	e5942000	 ldr         r2, [r4]
  00014	e1a00005	 mov         r0, r5
  00018	eb000000	 bl          |??0CPVRTString@@QAA@PBDI@Z|

; 232  : 	};

  0001c	e5942000	 ldr         r2, [r4]
  00020	e59f1018	 ldr         r1, [pc, #0x18]
  00024	e2850010	 add         r0, r5, #0x10
  00028	eb000000	 bl          |??0CPVRTString@@QAA@PBDI@Z|
  0002c	e59f0008	 ldr         r0, [pc, #8]
  00030	eb000000	 bl          atexit
  00034	e8bd4030	 ldmia       sp!, {r4, r5, lr}
  00038	e12fff1e	 bx          lr
  0003c		 |$LN6@dynamic|
  0003c		 |$LN7@dynamic|
  0003c	00000000	 DCD         |??__FstrOnOff@pvrengine@@YAXXZ|
  00040		 |$LN8@dynamic|
  00040	00000000	 DCD         |??_C@_02IAAGKKDJ@On?$AA@|
  00044		 |$LN9@dynamic|
  00044	00000000	 DCD         |??_C@_03GCDBBDDL@Off?$AA@|
  00048		 |$LN10@dynamic|
  00048	00000000	 DCD         |strOnOff|
  0004c		 |$LN11@dynamic|
  0004c	00000000	 DCD         |?npos@CPVRTString@@2IB|
  00050		 |$M37115|

			 ENDP  ; |??__EstrOnOff@pvrengine@@YAXXZ|, pvrengine::`dynamic initializer for 'strOnOff''

	EXPORT	|??_C@_04HPMIDMKH@True?$AA@| [ DATA ]	; `string'
	EXPORT	|??_C@_05MKDOIIA@False?$AA@| [ DATA ]	; `string'

  00000			 AREA	 |.pdata|, PDATA
|$T37130| DCD	|$LN5@dynamic@2|
	DCD	0x40001401

  00000			 AREA	 |.rdata|, DATA, READONLY
|??_C@_04HPMIDMKH@True?$AA@| DCB "True", 0x0		; `string'

  00000			 AREA	 |.rdata|, DATA, READONLY
|??_C@_05MKDOIIA@False?$AA@| DCB "False", 0x0		; `string'
; Function compile flags: /Ogspy

  00000			 AREA	 |.text$yc|, CODE, ARM

  00000		 |??__EstrTrueFalse@pvrengine@@YAXXZ| PROC ; pvrengine::`dynamic initializer for 'strTrueFalse''

; 235  : 	{

  00000		 |$LN5@dynamic@2|
  00000	e92d4030	 stmdb       sp!, {r4, r5, lr}
  00004		 |$M37127|

; 236  : 		"True","False"

  00004	e59f4040	 ldr         r4, [pc, #0x40]
  00008	e59f5038	 ldr         r5, [pc, #0x38]
  0000c	e59f1030	 ldr         r1, [pc, #0x30]
  00010	e5942000	 ldr         r2, [r4]
  00014	e1a00005	 mov         r0, r5
  00018	eb000000	 bl          |??0CPVRTString@@QAA@PBDI@Z|

; 237  : 	};

  0001c	e5942000	 ldr         r2, [r4]
  00020	e59f1018	 ldr         r1, [pc, #0x18]
  00024	e2850010	 add         r0, r5, #0x10
  00028	eb000000	 bl          |??0CPVRTString@@QAA@PBDI@Z|
  0002c	e59f0008	 ldr         r0, [pc, #8]
  00030	eb000000	 bl          atexit
  00034	e8bd4030	 ldmia       sp!, {r4, r5, lr}
  00038	e12fff1e	 bx          lr
  0003c		 |$LN6@dynamic@2|
  0003c		 |$LN7@dynamic@2|
  0003c	00000000	 DCD         |??__FstrTrueFalse@pvrengine@@YAXXZ|
  00040		 |$LN8@dynamic@2|
  00040	00000000	 DCD         |??_C@_05MKDOIIA@False?$AA@|
  00044		 |$LN9@dynamic@2|
  00044	00000000	 DCD         |??_C@_04HPMIDMKH@True?$AA@|
  00048		 |$LN10@dynamic@2|
  00048	00000000	 DCD         |strTrueFalse|
  0004c		 |$LN11@dynamic@2|
  0004c	00000000	 DCD         |?npos@CPVRTString@@2IB|
  00050		 |$M37128|

			 ENDP  ; |??__EstrTrueFalse@pvrengine@@YAXXZ|, pvrengine::`dynamic initializer for 'strTrueFalse''


  00000			 AREA	 |.pdata|, PDATA
|$T37154| DCD	|$LN11@dynamic@3|
	DCD	0x40000c01
; Function compile flags: /Ogspy

  00000			 AREA	 |.text$yd|, CODE, ARM

  00000		 |??__FstrOnOff@pvrengine@@YAXXZ| PROC	; pvrengine::`dynamic atexit destructor for 'strOnOff''
  00000		 |$LN11@dynamic@3|
  00000	e92d4030	 stmdb       sp!, {r4, r5, lr}
  00004		 |$M37151|
  00004	e59f3020	 ldr         r3, [pc, #0x20]
  00008	e3a05001	 mov         r5, #1
  0000c	e2834020	 add         r4, r3, #0x20
  00010		 |$LL4@dynamic@3|
  00010	e2444010	 sub         r4, r4, #0x10
  00014	e1a00004	 mov         r0, r4
  00018	eb000000	 bl          |??1CPVRTString@@UAA@XZ|
  0001c	e2555001	 subs        r5, r5, #1
  00020	5afffffa	 bpl         |$LL4@dynamic@3|
  00024	e8bd4030	 ldmia       sp!, {r4, r5, lr}
  00028	e12fff1e	 bx          lr
  0002c		 |$LN12@dynamic@3|
  0002c		 |$LN13@dynamic@3|
  0002c	00000000	 DCD         |strOnOff|
  00030		 |$M37152|

			 ENDP  ; |??__FstrOnOff@pvrengine@@YAXXZ|, pvrengine::`dynamic atexit destructor for 'strOnOff''


  00000			 AREA	 |.pdata|, PDATA
|$T37174| DCD	|$LN11@dynamic@4|
	DCD	0x40000c01
; Function compile flags: /Ogspy

  00000			 AREA	 |.text$yd|, CODE, ARM

  00000		 |??__FstrTrueFalse@pvrengine@@YAXXZ| PROC ; pvrengine::`dynamic atexit destructor for 'strTrueFalse''
  00000		 |$LN11@dynamic@4|
  00000	e92d4030	 stmdb       sp!, {r4, r5, lr}
  00004		 |$M37171|
  00004	e59f3020	 ldr         r3, [pc, #0x20]
  00008	e3a05001	 mov         r5, #1
  0000c	e2834020	 add         r4, r3, #0x20
  00010		 |$LL4@dynamic@4|
  00010	e2444010	 sub         r4, r4, #0x10
  00014	e1a00004	 mov         r0, r4
  00018	eb000000	 bl          |??1CPVRTString@@UAA@XZ|
  0001c	e2555001	 subs        r5, r5, #1
  00020	5afffffa	 bpl         |$LL4@dynamic@4|
  00024	e8bd4030	 ldmia       sp!, {r4, r5, lr}
  00028	e12fff1e	 bx          lr
  0002c		 |$LN12@dynamic@4|
  0002c		 |$LN13@dynamic@4|
  0002c	00000000	 DCD         |strTrueFalse|
  00030		 |$M37172|

			 ENDP  ; |??__FstrTrueFalse@pvrengine@@YAXXZ|, pvrengine::`dynamic atexit destructor for 'strTrueFalse''


  00000			 AREA	 |.pdata|, PDATA
|$T37191| DCD	|$LN9@dynamic@5|
	DCD	0x40000600
; Function compile flags: /Ogspy

  00000			 AREA	 |.text$yd|, CODE, ARM

  00000		 |??__Fobject@?1??inst@?$CPVRTSingleton@VTimeController@pvrengine@@@@SAAAVTimeController@pvrengine@@XZ@YAXXZ| PROC ; `CPVRTSingleton<pvrengine::TimeController>::inst'::`2'::`dynamic atexit destructor for 'object''
  00000		 |$LN9@dynamic@5|
  00000		 |$M37188|
  00000	e59f200c	 ldr         r2, [pc, #0xC]
  00004	e59f3004	 ldr         r3, [pc, #4]
  00008	e5832000	 str         r2, [r3]
  0000c	e12fff1e	 bx          lr
  00010		 |$LN10@dynamic@5|
  00010		 |$LN11@dynamic@5|
  00010	00000000	 DCD         |?object@?1??inst@?$CPVRTSingleton@VTimeController@pvrengine@@@@SAAAVTimeController@pvrengine@@XZ@4V34@A|
  00014		 |$LN12@dynamic@5|
  00014	00000000	 DCD         |??_7?$CPVRTSingleton@VTimeController@pvrengine@@@@6B@|
  00018		 |$M37189|

			 ENDP  ; |??__Fobject@?1??inst@?$CPVRTSingleton@VTimeController@pvrengine@@@@SAAAVTimeController@pvrengine@@XZ@YAXXZ|, `CPVRTSingleton<pvrengine::TimeController>::inst'::`2'::`dynamic atexit destructor for 'object''


  00000			 AREA	 |.bss|, NOINIT
|strOnOff| %	0x20
|strTrueFalse| % 0x20

  00000			 AREA	 |.CRT$XCU|, DATA
|strOnOff$initializer$| DCD |??__EstrOnOff@pvrengine@@YAXXZ|
|strTrueFalse$initializer$| DCD |??__EstrTrueFalse@pvrengine@@YAXXZ|
	END
