; Listing generated by Microsoft (R) Optimizing Compiler Version 14.01.60511.01 

	TTL	C:\WINCE600\PUBLIC\PowerVR-SDK\OGLES2\Extras\PVREngine\Plane.cpp
	CODE32

  00000			 AREA	 |.drectve|, DRECTVE
	DCB	"-defaultlib:LIBCMT "
	DCB	"-defaultlib:OLDNAMES "

	EXPORT	|?normalize@Plane@pvrengine@@QAAXXZ|	; pvrengine::Plane::normalize
	IMPORT	|__imp___adds|
	IMPORT	|__imp___stod|
	IMPORT	|__imp_sqrt|
	IMPORT	|__imp___divd|
	IMPORT	|__imp___dtos|
	IMPORT	|__imp___muls|
; File c:\wince600\public\powervr-sdk\ogles2\extras\pvrengine\plane.cpp

  00000			 AREA	 |.pdata|, PDATA
|$T36172| DCD	|$LN5@normalize|
	DCD	0x40005e01
; Function compile flags: /Ogspy

  00000			 AREA	 |.text|, CODE, ARM

  00000		 |?normalize@Plane@pvrengine@@QAAXXZ| PROC ; pvrengine::Plane::normalize

; 42   : 	{

  00000		 |$LN5@normalize|
  00000	e92d4030	 stmdb       sp!, {r4, r5, lr}
  00004		 |$M36169|
  00004	e1a05000	 mov         r5, r0

; 43   : 		VERTTYPE fMag = VERTTYPEDIV(1.0f,f2vt(sqrt(vt2f(VERTTYPEMUL(fA,fA)+VERTTYPEMUL(fB,fB)+VERTTYPEMUL(fC,fC)))));

  00008	e59f3150	 ldr         r3, [pc, #0x150]
  0000c	e5950000	 ldr         r0, [r5]
  00010	e5933000	 ldr         r3, [r3]
  00014	e1a01000	 mov         r1, r0
  00018	e1a0e00f	 mov         lr, pc
  0001c	e12fff13	 bx          r3
  00020	e59f3138	 ldr         r3, [pc, #0x138]
  00024	e1a04000	 mov         r4, r0
  00028	e5950004	 ldr         r0, [r5, #4]
  0002c	e5933000	 ldr         r3, [r3]
  00030	e1a01000	 mov         r1, r0
  00034	e1a0e00f	 mov         lr, pc
  00038	e12fff13	 bx          r3
  0003c	e59f3130	 ldr         r3, [pc, #0x130]
  00040	e1a01000	 mov         r1, r0
  00044	e1a00004	 mov         r0, r4
  00048	e5933000	 ldr         r3, [r3]
  0004c	e1a0e00f	 mov         lr, pc
  00050	e12fff13	 bx          r3
  00054	e59f3104	 ldr         r3, [pc, #0x104]
  00058	e1a04000	 mov         r4, r0
  0005c	e5950008	 ldr         r0, [r5, #8]
  00060	e5933000	 ldr         r3, [r3]
  00064	e1a01000	 mov         r1, r0
  00068	e1a0e00f	 mov         lr, pc
  0006c	e12fff13	 bx          r3
  00070	e59f30fc	 ldr         r3, [pc, #0xFC]
  00074	e1a01000	 mov         r1, r0
  00078	e1a00004	 mov         r0, r4
  0007c	e5933000	 ldr         r3, [r3]
  00080	e1a0e00f	 mov         lr, pc
  00084	e12fff13	 bx          r3
  00088	e59f30e0	 ldr         r3, [pc, #0xE0]
  0008c	e5933000	 ldr         r3, [r3]
  00090	e1a0e00f	 mov         lr, pc
  00094	e12fff13	 bx          r3
  00098	e59f30cc	 ldr         r3, [pc, #0xCC]
  0009c	e5933000	 ldr         r3, [r3]
  000a0	e1a0e00f	 mov         lr, pc
  000a4	e12fff13	 bx          r3
  000a8	e59f20b8	 ldr         r2, [pc, #0xB8]
  000ac	e3a0e5ff	 mov         lr, #0xFF, 10
  000b0	e1a03001	 mov         r3, r1
  000b4	e5924000	 ldr         r4, [r2]
  000b8	e1a02000	 mov         r2, r0
  000bc	e3a00000	 mov         r0, #0
  000c0	e38e1603	 orr         r1, lr, #3, 12
  000c4	e1a0e00f	 mov         lr, pc
  000c8	e12fff14	 bx          r4
  000cc	e59f3090	 ldr         r3, [pc, #0x90]
  000d0	e5933000	 ldr         r3, [r3]
  000d4	e1a0e00f	 mov         lr, pc
  000d8	e12fff13	 bx          r3

; 44   : 
; 45   : 		fA = VERTTYPEMUL(fA,fMag);

  000dc	e59f307c	 ldr         r3, [pc, #0x7C]
  000e0	e1a04000	 mov         r4, r0
  000e4	e5950000	 ldr         r0, [r5]
  000e8	e5933000	 ldr         r3, [r3]
  000ec	e1a01004	 mov         r1, r4
  000f0	e1a0e00f	 mov         lr, pc
  000f4	e12fff13	 bx          r3

; 46   : 		fB = VERTTYPEMUL(fB,fMag);

  000f8	e59f3060	 ldr         r3, [pc, #0x60]
  000fc	e1a02000	 mov         r2, r0
  00100	e5950004	 ldr         r0, [r5, #4]
  00104	e5933000	 ldr         r3, [r3]
  00108	e1a01004	 mov         r1, r4
  0010c	e5852000	 str         r2, [r5]
  00110	e1a0e00f	 mov         lr, pc
  00114	e12fff13	 bx          r3

; 47   : 		fC = VERTTYPEMUL(fC,fMag);

  00118	e59f3040	 ldr         r3, [pc, #0x40]
  0011c	e1a02000	 mov         r2, r0
  00120	e5950008	 ldr         r0, [r5, #8]
  00124	e5933000	 ldr         r3, [r3]
  00128	e1a01004	 mov         r1, r4
  0012c	e5852004	 str         r2, [r5, #4]
  00130	e1a0e00f	 mov         lr, pc
  00134	e12fff13	 bx          r3

; 48   : 		fD = VERTTYPEMUL(fD,fMag);

  00138	e59f3020	 ldr         r3, [pc, #0x20]
  0013c	e5850008	 str         r0, [r5, #8]
  00140	e595000c	 ldr         r0, [r5, #0xC]
  00144	e5933000	 ldr         r3, [r3]
  00148	e1a01004	 mov         r1, r4
  0014c	e1a0e00f	 mov         lr, pc
  00150	e12fff13	 bx          r3
  00154	e585000c	 str         r0, [r5, #0xC]

; 49   : 	}

  00158	e8bd4030	 ldmia       sp!, {r4, r5, lr}
  0015c	e12fff1e	 bx          lr
  00160		 |$LN6@normalize|
  00160		 |$LN7@normalize|
  00160	00000000	 DCD         |__imp___muls|
  00164		 |$LN8@normalize|
  00164	00000000	 DCD         |__imp___dtos|
  00168		 |$LN9@normalize|
  00168	00000000	 DCD         |__imp___divd|
  0016c		 |$LN10@normalize|
  0016c	00000000	 DCD         |__imp_sqrt|
  00170		 |$LN11@normalize|
  00170	00000000	 DCD         |__imp___stod|
  00174		 |$LN12@normalize|
  00174	00000000	 DCD         |__imp___adds|
  00178		 |$M36170|

			 ENDP  ; |?normalize@Plane@pvrengine@@QAAXXZ|, pvrengine::Plane::normalize

	EXPORT	|?whichSideIs@Plane@pvrengine@@QBAMABUPVRTVec3@@@Z| ; pvrengine::Plane::whichSideIs

  00000			 AREA	 |.pdata|, PDATA
|$T36196| DCD	|$LN5@whichSideI|
	DCD	0x40002c01
; Function compile flags: /Ogspy

  00000			 AREA	 |.text|, CODE, ARM

  00000		 |?whichSideIs@Plane@pvrengine@@QBAMABUPVRTVec3@@@Z| PROC ; pvrengine::Plane::whichSideIs

; 55   : 	{

  00000		 |$LN5@whichSideI|
  00000	e92d4070	 stmdb       sp!, {r4 - r6, lr}
  00004		 |$M36193|
  00004	e1a05001	 mov         r5, r1
  00008	e1a06000	 mov         r6, r0

; 56   : 		return VERTTYPEMUL(fA,vec.x)+ VERTTYPEMUL(fB,vec.y)+VERTTYPEMUL(fC,vec.z)+fD;	// take away???

  0000c	e59f3098	 ldr         r3, [pc, #0x98]
  00010	e5950004	 ldr         r0, [r5, #4]
  00014	e5961004	 ldr         r1, [r6, #4]
  00018	e5933000	 ldr         r3, [r3]
  0001c	e1a0e00f	 mov         lr, pc
  00020	e12fff13	 bx          r3
  00024	e59f3080	 ldr         r3, [pc, #0x80]
  00028	e5961000	 ldr         r1, [r6]
  0002c	e1a04000	 mov         r4, r0
  00030	e5933000	 ldr         r3, [r3]
  00034	e5950000	 ldr         r0, [r5]
  00038	e1a0e00f	 mov         lr, pc
  0003c	e12fff13	 bx          r3
  00040	e59f3060	 ldr         r3, [pc, #0x60]
  00044	e1a01000	 mov         r1, r0
  00048	e1a00004	 mov         r0, r4
  0004c	e5933000	 ldr         r3, [r3]
  00050	e1a0e00f	 mov         lr, pc
  00054	e12fff13	 bx          r3
  00058	e59f304c	 ldr         r3, [pc, #0x4C]
  0005c	e5961008	 ldr         r1, [r6, #8]
  00060	e1a04000	 mov         r4, r0
  00064	e5933000	 ldr         r3, [r3]
  00068	e5950008	 ldr         r0, [r5, #8]
  0006c	e1a0e00f	 mov         lr, pc
  00070	e12fff13	 bx          r3
  00074	e59f302c	 ldr         r3, [pc, #0x2C]
  00078	e1a01000	 mov         r1, r0
  0007c	e1a00004	 mov         r0, r4
  00080	e5933000	 ldr         r3, [r3]
  00084	e1a0e00f	 mov         lr, pc
  00088	e12fff13	 bx          r3
  0008c	e59f3014	 ldr         r3, [pc, #0x14]
  00090	e596100c	 ldr         r1, [r6, #0xC]
  00094	e5933000	 ldr         r3, [r3]
  00098	e1a0e00f	 mov         lr, pc
  0009c	e12fff13	 bx          r3

; 57   : 	}

  000a0	e8bd4070	 ldmia       sp!, {r4 - r6, lr}
  000a4	e12fff1e	 bx          lr
  000a8		 |$LN6@whichSideI|
  000a8		 |$LN7@whichSideI|
  000a8	00000000	 DCD         |__imp___adds|
  000ac		 |$LN8@whichSideI|
  000ac	00000000	 DCD         |__imp___muls|
  000b0		 |$M36194|

			 ENDP  ; |?whichSideIs@Plane@pvrengine@@QBAMABUPVRTVec3@@@Z|, pvrengine::Plane::whichSideIs

	EXPORT	|??0Plane@pvrengine@@QAA@ABUPVRTVec3@@00@Z| ; pvrengine::Plane::Plane
	IMPORT	|__imp___subs|

  00000			 AREA	 |.pdata|, PDATA
|$T36251| DCD	|$LN5@Plane|
	DCD	0x4000f501
; Function compile flags: /Ogspy

  00000			 AREA	 |.text|, CODE, ARM

  00000		 |??0Plane@pvrengine@@QAA@ABUPVRTVec3@@00@Z| PROC ; pvrengine::Plane::Plane

; 24   : 	{

  00000		 |$LN5@Plane|
  00000	e92d43f0	 stmdb       sp!, {r4 - r9, lr}
  00004		 |$M36248|
  00004	e1a07003	 mov         r7, r3
  00008	e1a06002	 mov         r6, r2
  0000c	e1a08001	 mov         r8, r1
  00010	e1a09000	 mov         r9, r0

; 25   : 		fA = VERTTYPEMUL(A.y,(B.z-C.z)) + VERTTYPEMUL(B.y,(C.z-A.z)) + VERTTYPEMUL(C.y,(A.z-B.z));

  00014	e59fe3ac	 ldr         lr, [pc, #0x3AC]
  00018	e5960008	 ldr         r0, [r6, #8]
  0001c	e5971008	 ldr         r1, [r7, #8]
  00020	e59e4000	 ldr         r4, [lr]
  00024	e1a0e00f	 mov         lr, pc
  00028	e12fff14	 bx          r4
  0002c	e59f4398	 ldr         r4, [pc, #0x398]
  00030	e5981004	 ldr         r1, [r8, #4]
  00034	e5944000	 ldr         r4, [r4]
  00038	e1a0e00f	 mov         lr, pc
  0003c	e12fff14	 bx          r4
  00040	e59fe380	 ldr         lr, [pc, #0x380]
  00044	e5981008	 ldr         r1, [r8, #8]
  00048	e1a05000	 mov         r5, r0
  0004c	e59e4000	 ldr         r4, [lr]
  00050	e5970008	 ldr         r0, [r7, #8]
  00054	e1a0e00f	 mov         lr, pc
  00058	e12fff14	 bx          r4
  0005c	e59f3368	 ldr         r3, [pc, #0x368]
  00060	e5961004	 ldr         r1, [r6, #4]
  00064	e5933000	 ldr         r3, [r3]
  00068	e1a0e00f	 mov         lr, pc
  0006c	e12fff13	 bx          r3
  00070	e59f3358	 ldr         r3, [pc, #0x358]
  00074	e1a01000	 mov         r1, r0
  00078	e1a00005	 mov         r0, r5
  0007c	e5933000	 ldr         r3, [r3]
  00080	e1a0e00f	 mov         lr, pc
  00084	e12fff13	 bx          r3
  00088	e59f3338	 ldr         r3, [pc, #0x338]
  0008c	e5961008	 ldr         r1, [r6, #8]
  00090	e1a04000	 mov         r4, r0
  00094	e5933000	 ldr         r3, [r3]
  00098	e5980008	 ldr         r0, [r8, #8]
  0009c	e1a0e00f	 mov         lr, pc
  000a0	e12fff13	 bx          r3
  000a4	e59f3320	 ldr         r3, [pc, #0x320]
  000a8	e5971004	 ldr         r1, [r7, #4]
  000ac	e5933000	 ldr         r3, [r3]
  000b0	e1a0e00f	 mov         lr, pc
  000b4	e12fff13	 bx          r3
  000b8	e59f3310	 ldr         r3, [pc, #0x310]
  000bc	e1a01000	 mov         r1, r0
  000c0	e1a00004	 mov         r0, r4
  000c4	e5933000	 ldr         r3, [r3]
  000c8	e1a0e00f	 mov         lr, pc
  000cc	e12fff13	 bx          r3

; 26   : 		fB = VERTTYPEMUL(A.z,(B.x-C.x)) + VERTTYPEMUL(B.z,(C.x-A.x)) + VERTTYPEMUL(C.z,(A.x-B.x));

  000d0	e59f32f0	 ldr         r3, [pc, #0x2F0]
  000d4	e5890000	 str         r0, [r9]
  000d8	e5960000	 ldr         r0, [r6]
  000dc	e5933000	 ldr         r3, [r3]
  000e0	e5971000	 ldr         r1, [r7]
  000e4	e1a0e00f	 mov         lr, pc
  000e8	e12fff13	 bx          r3
  000ec	e59f32d8	 ldr         r3, [pc, #0x2D8]
  000f0	e5981008	 ldr         r1, [r8, #8]
  000f4	e5933000	 ldr         r3, [r3]
  000f8	e1a0e00f	 mov         lr, pc
  000fc	e12fff13	 bx          r3
  00100	e59f32c0	 ldr         r3, [pc, #0x2C0]
  00104	e5981000	 ldr         r1, [r8]
  00108	e1a04000	 mov         r4, r0
  0010c	e5933000	 ldr         r3, [r3]
  00110	e5970000	 ldr         r0, [r7]
  00114	e1a0e00f	 mov         lr, pc
  00118	e12fff13	 bx          r3
  0011c	e59f32a8	 ldr         r3, [pc, #0x2A8]
  00120	e5961008	 ldr         r1, [r6, #8]
  00124	e5933000	 ldr         r3, [r3]
  00128	e1a0e00f	 mov         lr, pc
  0012c	e12fff13	 bx          r3
  00130	e59f3298	 ldr         r3, [pc, #0x298]
  00134	e1a01000	 mov         r1, r0
  00138	e1a00004	 mov         r0, r4
  0013c	e5933000	 ldr         r3, [r3]
  00140	e1a0e00f	 mov         lr, pc
  00144	e12fff13	 bx          r3
  00148	e59f3278	 ldr         r3, [pc, #0x278]
  0014c	e5961000	 ldr         r1, [r6]
  00150	e1a04000	 mov         r4, r0
  00154	e5933000	 ldr         r3, [r3]
  00158	e5980000	 ldr         r0, [r8]
  0015c	e1a0e00f	 mov         lr, pc
  00160	e12fff13	 bx          r3
  00164	e59f3260	 ldr         r3, [pc, #0x260]
  00168	e5971008	 ldr         r1, [r7, #8]
  0016c	e5933000	 ldr         r3, [r3]
  00170	e1a0e00f	 mov         lr, pc
  00174	e12fff13	 bx          r3
  00178	e59f3250	 ldr         r3, [pc, #0x250]
  0017c	e1a01000	 mov         r1, r0
  00180	e1a00004	 mov         r0, r4
  00184	e5933000	 ldr         r3, [r3]
  00188	e1a0e00f	 mov         lr, pc
  0018c	e12fff13	 bx          r3

; 27   : 		fC = VERTTYPEMUL(A.x,(B.y-C.y)) + VERTTYPEMUL(B.x,(C.y-A.y)) + VERTTYPEMUL(C.x,(A.y-B.y));

  00190	e59f3230	 ldr         r3, [pc, #0x230]
  00194	e5890004	 str         r0, [r9, #4]
  00198	e5960004	 ldr         r0, [r6, #4]
  0019c	e5933000	 ldr         r3, [r3]
  001a0	e5971004	 ldr         r1, [r7, #4]
  001a4	e1a0e00f	 mov         lr, pc
  001a8	e12fff13	 bx          r3
  001ac	e59f3218	 ldr         r3, [pc, #0x218]
  001b0	e5981000	 ldr         r1, [r8]
  001b4	e5933000	 ldr         r3, [r3]
  001b8	e1a0e00f	 mov         lr, pc
  001bc	e12fff13	 bx          r3
  001c0	e59f3200	 ldr         r3, [pc, #0x200]
  001c4	e5981004	 ldr         r1, [r8, #4]
  001c8	e1a04000	 mov         r4, r0
  001cc	e5933000	 ldr         r3, [r3]
  001d0	e5970004	 ldr         r0, [r7, #4]
  001d4	e1a0e00f	 mov         lr, pc
  001d8	e12fff13	 bx          r3
  001dc	e59f31e8	 ldr         r3, [pc, #0x1E8]
  001e0	e5961000	 ldr         r1, [r6]
  001e4	e5933000	 ldr         r3, [r3]
  001e8	e1a0e00f	 mov         lr, pc
  001ec	e12fff13	 bx          r3
  001f0	e59f31d8	 ldr         r3, [pc, #0x1D8]
  001f4	e1a01000	 mov         r1, r0
  001f8	e1a00004	 mov         r0, r4
  001fc	e5933000	 ldr         r3, [r3]
  00200	e1a0e00f	 mov         lr, pc
  00204	e12fff13	 bx          r3
  00208	e59f31b8	 ldr         r3, [pc, #0x1B8]
  0020c	e5961004	 ldr         r1, [r6, #4]
  00210	e1a04000	 mov         r4, r0
  00214	e5933000	 ldr         r3, [r3]
  00218	e5980004	 ldr         r0, [r8, #4]
  0021c	e1a0e00f	 mov         lr, pc
  00220	e12fff13	 bx          r3
  00224	e59f31a0	 ldr         r3, [pc, #0x1A0]
  00228	e5971000	 ldr         r1, [r7]
  0022c	e5933000	 ldr         r3, [r3]
  00230	e1a0e00f	 mov         lr, pc
  00234	e12fff13	 bx          r3
  00238	e59f3190	 ldr         r3, [pc, #0x190]
  0023c	e1a01000	 mov         r1, r0
  00240	e1a00004	 mov         r0, r4
  00244	e5933000	 ldr         r3, [r3]
  00248	e1a0e00f	 mov         lr, pc
  0024c	e12fff13	 bx          r3

; 28   : 
; 29   : 		// calculate distance from origin aka d
; 30   : 		// d = -(|n|.A) = -nx.Ax-ny.Ay-nz.Az
; 31   : 		fD = - VERTTYPEMUL(A.x,(VERTTYPEMUL(B.y,C.z)-VERTTYPEMUL(B.z,C.y)))
; 32   : 			+ VERTTYPEMUL(A.y,(VERTTYPEMUL(B.x,C.z)-VERTTYPEMUL(B.z,C.x)))
; 33   : 			- VERTTYPEMUL(A.z,(VERTTYPEMUL(B.x,C.y)-VERTTYPEMUL(B.y,C.x)));

  00250	e59f3174	 ldr         r3, [pc, #0x174]
  00254	e5890008	 str         r0, [r9, #8]
  00258	e5960000	 ldr         r0, [r6]
  0025c	e5933000	 ldr         r3, [r3]
  00260	e5971008	 ldr         r1, [r7, #8]
  00264	e1a0e00f	 mov         lr, pc
  00268	e12fff13	 bx          r3
  0026c	e59f3158	 ldr         r3, [pc, #0x158]
  00270	e5961008	 ldr         r1, [r6, #8]
  00274	e1a04000	 mov         r4, r0
  00278	e5933000	 ldr         r3, [r3]
  0027c	e5970000	 ldr         r0, [r7]
  00280	e1a0e00f	 mov         lr, pc
  00284	e12fff13	 bx          r3
  00288	e59f3138	 ldr         r3, [pc, #0x138]
  0028c	e1a01000	 mov         r1, r0
  00290	e1a00004	 mov         r0, r4
  00294	e5933000	 ldr         r3, [r3]
  00298	e1a0e00f	 mov         lr, pc
  0029c	e12fff13	 bx          r3
  002a0	e59f3124	 ldr         r3, [pc, #0x124]
  002a4	e5981004	 ldr         r1, [r8, #4]
  002a8	e5933000	 ldr         r3, [r3]
  002ac	e1a0e00f	 mov         lr, pc
  002b0	e12fff13	 bx          r3
  002b4	e59f3110	 ldr         r3, [pc, #0x110]
  002b8	e5971008	 ldr         r1, [r7, #8]
  002bc	e1a05000	 mov         r5, r0
  002c0	e5933000	 ldr         r3, [r3]
  002c4	e5960004	 ldr         r0, [r6, #4]
  002c8	e1a0e00f	 mov         lr, pc
  002cc	e12fff13	 bx          r3
  002d0	e59f30f4	 ldr         r3, [pc, #0xF4]
  002d4	e5961008	 ldr         r1, [r6, #8]
  002d8	e1a04000	 mov         r4, r0
  002dc	e5933000	 ldr         r3, [r3]
  002e0	e5970004	 ldr         r0, [r7, #4]
  002e4	e1a0e00f	 mov         lr, pc
  002e8	e12fff13	 bx          r3
  002ec	e59f30d4	 ldr         r3, [pc, #0xD4]
  002f0	e1a01000	 mov         r1, r0
  002f4	e1a00004	 mov         r0, r4
  002f8	e5933000	 ldr         r3, [r3]
  002fc	e1a0e00f	 mov         lr, pc
  00300	e12fff13	 bx          r3
  00304	e59f30c0	 ldr         r3, [pc, #0xC0]
  00308	e5981000	 ldr         r1, [r8]
  0030c	e5933000	 ldr         r3, [r3]
  00310	e1a0e00f	 mov         lr, pc
  00314	e12fff13	 bx          r3
  00318	e59f30a8	 ldr         r3, [pc, #0xA8]
  0031c	e1a01000	 mov         r1, r0
  00320	e1a00005	 mov         r0, r5
  00324	e5933000	 ldr         r3, [r3]
  00328	e1a0e00f	 mov         lr, pc
  0032c	e12fff13	 bx          r3
  00330	e59f3094	 ldr         r3, [pc, #0x94]
  00334	e5971004	 ldr         r1, [r7, #4]
  00338	e1a05000	 mov         r5, r0
  0033c	e5933000	 ldr         r3, [r3]
  00340	e5960000	 ldr         r0, [r6]
  00344	e1a0e00f	 mov         lr, pc
  00348	e12fff13	 bx          r3
  0034c	e59f3078	 ldr         r3, [pc, #0x78]
  00350	e5961004	 ldr         r1, [r6, #4]
  00354	e1a04000	 mov         r4, r0
  00358	e5933000	 ldr         r3, [r3]
  0035c	e5970000	 ldr         r0, [r7]
  00360	e1a0e00f	 mov         lr, pc
  00364	e12fff13	 bx          r3
  00368	e59f3058	 ldr         r3, [pc, #0x58]
  0036c	e1a01000	 mov         r1, r0
  00370	e1a00004	 mov         r0, r4
  00374	e5933000	 ldr         r3, [r3]
  00378	e1a0e00f	 mov         lr, pc
  0037c	e12fff13	 bx          r3
  00380	e59f3044	 ldr         r3, [pc, #0x44]
  00384	e5981008	 ldr         r1, [r8, #8]
  00388	e5933000	 ldr         r3, [r3]
  0038c	e1a0e00f	 mov         lr, pc
  00390	e12fff13	 bx          r3
  00394	e59f302c	 ldr         r3, [pc, #0x2C]
  00398	e1a01000	 mov         r1, r0
  0039c	e1a00005	 mov         r0, r5
  003a0	e5933000	 ldr         r3, [r3]
  003a4	e1a0e00f	 mov         lr, pc
  003a8	e12fff13	 bx          r3
  003ac	e1a03000	 mov         r3, r0

; 34   : 
; 35   : 		// normalize
; 36   : 		normalize();

  003b0	e1a00009	 mov         r0, r9
  003b4	e589300c	 str         r3, [r9, #0xC]
  003b8	eb000000	 bl          |?normalize@Plane@pvrengine@@QAAXXZ|

; 37   : 	}

  003bc	e1a00009	 mov         r0, r9
  003c0	e8bd43f0	 ldmia       sp!, {r4 - r9, lr}
  003c4	e12fff1e	 bx          lr
  003c8		 |$LN6@Plane|
  003c8		 |$LN7@Plane|
  003c8	00000000	 DCD         |__imp___subs|
  003cc		 |$LN8@Plane|
  003cc	00000000	 DCD         |__imp___muls|
  003d0		 |$LN9@Plane|
  003d0	00000000	 DCD         |__imp___adds|
  003d4		 |$M36249|

			 ENDP  ; |??0Plane@pvrengine@@QAA@ABUPVRTVec3@@00@Z|, pvrengine::Plane::Plane

	END
