; Listing generated by Microsoft (R) Optimizing Compiler Version 14.01.60511.01 

	TTL	C:\WINCE600\PUBLIC\PowerVR-SDK\OGLES2\Extras\PVREngine\PVREngine.cpp
	CODE32

  00000			 AREA	 |.drectve|, DRECTVE
	DCB	"-defaultlib:LIBCMT "
	DCB	"-defaultlib:OLDNAMES "

	EXPORT	|?c_i32DefaultSize@?$dynamicArray@VCPVRTString@@@@2HB| [ DATA ] ; dynamicArray<CPVRTString>::c_i32DefaultSize
	EXPORT	|?c_i32DefaultSize@?$dynamicArray@PAVLight@pvrengine@@@@2HB| [ DATA ] ; dynamicArray<pvrengine::Light *>::c_i32DefaultSize
	EXPORT	|?c_i32DefaultSize@?$dynamicArray@PAVMaterial@pvrengine@@@@2HB| [ DATA ] ; dynamicArray<pvrengine::Material *>::c_i32DefaultSize
	EXPORT	|?c_i32DefaultSize@?$dynamicArray@VUniform@pvrengine@@@@2HB| [ DATA ] ; dynamicArray<pvrengine::Uniform>::c_i32DefaultSize
	EXPORT	|?c_i32DefaultSize@?$dynamicArray@USPVRTPFXUniform@@@@2HB| [ DATA ] ; dynamicArray<SPVRTPFXUniform>::c_i32DefaultSize
	EXPORT	|?c_i32DefaultSize@?$dynamicArray@PAVMesh@pvrengine@@@@2HB| [ DATA ] ; dynamicArray<pvrengine::Mesh *>::c_i32DefaultSize
	EXPORT	|?c_i32DefaultSize@?$dynamicArray@PAVOption@pvrengine@@@@2HB| [ DATA ] ; dynamicArray<pvrengine::Option *>::c_i32DefaultSize
	EXPORT	|?c_i32DefaultSize@?$dynamicArray@PAVTexture@pvrengine@@@@2HB| [ DATA ] ; dynamicArray<pvrengine::Texture *>::c_i32DefaultSize
	EXPORT	|?c_i32DefaultSize@?$dynamicArray@USPVRTContext@@@@2HB| [ DATA ] ; dynamicArray<SPVRTContext>::c_i32DefaultSize

  00000			 AREA	 |.rdata|, DATA, READONLY
|?c_i32DefaultSize@?$dynamicArray@USPVRTContext@@@@2HB| DCD 0x8 ; dynamicArray<SPVRTContext>::c_i32DefaultSize

  00000			 AREA	 |.rdata|, DATA, READONLY
|?c_i32DefaultSize@?$dynamicArray@PAVTexture@pvrengine@@@@2HB| DCD 0x8 ; dynamicArray<pvrengine::Texture *>::c_i32DefaultSize

  00000			 AREA	 |.rdata|, DATA, READONLY
|?c_i32DefaultSize@?$dynamicArray@PAVOption@pvrengine@@@@2HB| DCD 0x8 ; dynamicArray<pvrengine::Option *>::c_i32DefaultSize

  00000			 AREA	 |.rdata|, DATA, READONLY
|?c_i32DefaultSize@?$dynamicArray@PAVMesh@pvrengine@@@@2HB| DCD 0x8 ; dynamicArray<pvrengine::Mesh *>::c_i32DefaultSize

  00000			 AREA	 |.rdata|, DATA, READONLY
|?c_i32DefaultSize@?$dynamicArray@USPVRTPFXUniform@@@@2HB| DCD 0x8 ; dynamicArray<SPVRTPFXUniform>::c_i32DefaultSize

  00000			 AREA	 |.rdata|, DATA, READONLY
|?c_i32DefaultSize@?$dynamicArray@VUniform@pvrengine@@@@2HB| DCD 0x8 ; dynamicArray<pvrengine::Uniform>::c_i32DefaultSize

  00000			 AREA	 |.rdata|, DATA, READONLY
|?c_i32DefaultSize@?$dynamicArray@PAVMaterial@pvrengine@@@@2HB| DCD 0x8 ; dynamicArray<pvrengine::Material *>::c_i32DefaultSize

  00000			 AREA	 |.rdata|, DATA, READONLY
|?c_i32DefaultSize@?$dynamicArray@PAVLight@pvrengine@@@@2HB| DCD 0x8 ; dynamicArray<pvrengine::Light *>::c_i32DefaultSize

  00000			 AREA	 |.rdata|, DATA, READONLY
|?c_i32DefaultSize@?$dynamicArray@VCPVRTString@@@@2HB| DCD 0x8 ; dynamicArray<CPVRTString>::c_i32DefaultSize
	EXPORT	|??_H@YAXPAXIHP6APAX0@Z@Z|		; `vector constructor iterator'

  00000			 AREA	 |.pdata|, PDATA
|$T38382| DCD	|$LN9@vector|
	DCD	0x40000e01
; Function compile flags: /Ogspy

  00000			 AREA	 |.text|, CODE, ARM

  00000		 |??_H@YAXPAXIHP6APAX0@Z@Z| PROC	; `vector constructor iterator'
  00000		 |$LN9@vector|
  00000	e92d40f0	 stmdb       sp!, {r4 - r7, lr}
  00004		 |$M38379|
  00004	e1a06003	 mov         r6, r3
  00008	e1a07001	 mov         r7, r1
  0000c	e1a04000	 mov         r4, r0
  00010	e2525001	 subs        r5, r2, #1
  00014	4a000005	 bmi         |$LN1@vector|
  00018		 |$LL2@vector|
  00018	e1a00004	 mov         r0, r4
  0001c	e1a0e00f	 mov         lr, pc
  00020	e12fff16	 bx          r6
  00024	e0844007	 add         r4, r4, r7
  00028	e2555001	 subs        r5, r5, #1
  0002c	5afffff9	 bpl         |$LL2@vector|
  00030		 |$LN1@vector|
  00030	e8bd40f0	 ldmia       sp!, {r4 - r7, lr}
  00034	e12fff1e	 bx          lr
  00038		 |$M38380|

			 ENDP  ; |??_H@YAXPAXIHP6APAX0@Z@Z|, `vector constructor iterator'

	EXPORT	|??_I@YAXPAXIHP6AX0@Z@Z|		; `vector destructor iterator'

  00000			 AREA	 |.pdata|, PDATA
|$T38397| DCD	|$LN9@vector@2|
	DCD	0x40000e01
; Function compile flags: /Ogspy

  00000			 AREA	 |.text|, CODE, ARM

  00000		 |??_I@YAXPAXIHP6AX0@Z@Z| PROC		; `vector destructor iterator'
  00000		 |$LN9@vector@2|
  00000	e92d40f0	 stmdb       sp!, {r4 - r7, lr}
  00004		 |$M38394|
  00004	e1a07003	 mov         r7, r3
  00008	e1a06001	 mov         r6, r1
  0000c	e0240296	 mla         r4, r6, r2, r0
  00010	e2525001	 subs        r5, r2, #1
  00014	4a000005	 bmi         |$LN1@vector@2|
  00018		 |$LL2@vector@2|
  00018	e0444006	 sub         r4, r4, r6
  0001c	e1a00004	 mov         r0, r4
  00020	e1a0e00f	 mov         lr, pc
  00024	e12fff17	 bx          r7
  00028	e2555001	 subs        r5, r5, #1
  0002c	5afffff9	 bpl         |$LL2@vector@2|
  00030		 |$LN1@vector@2|
  00030	e8bd40f0	 ldmia       sp!, {r4 - r7, lr}
  00034	e12fff1e	 bx          lr
  00038		 |$M38395|

			 ENDP  ; |??_I@YAXPAXIHP6AX0@Z@Z|, `vector destructor iterator'

	EXPORT	|??_C@_03GCDBBDDL@Off?$AA@| [ DATA ]	; `string'
	EXPORT	|??_C@_02IAAGKKDJ@On?$AA@| [ DATA ]	; `string'
	IMPORT	|atexit|
	IMPORT	|??0CPVRTString@@QAA@PBDI@Z|		; CPVRTString::CPVRTString
	IMPORT	|?npos@CPVRTString@@2IB|		; CPVRTString::npos
; File c:\wince600\public\powervr-sdk\ogles2\extras\pvrengine\include\option.h

  00000			 AREA	 |.pdata|, PDATA
|$T38404| DCD	|$LN5@dynamic|
	DCD	0x40001401

  00000			 AREA	 |.rdata|, DATA, READONLY
|??_C@_03GCDBBDDL@Off?$AA@| DCB "Off", 0x0		; `string'

  00000			 AREA	 |.rdata|, DATA, READONLY
|??_C@_02IAAGKKDJ@On?$AA@| DCB "On", 0x0		; `string'
; Function compile flags: /Ogspy

  00000			 AREA	 |.text$yc|, CODE, ARM

  00000		 |??__EstrOnOff@pvrengine@@YAXXZ| PROC	; pvrengine::`dynamic initializer for 'strOnOff''

; 230  : 	{

  00000		 |$LN5@dynamic|
  00000	e92d4030	 stmdb       sp!, {r4, r5, lr}
  00004		 |$M38401|

; 231  : 		"Off","On"

  00004	e59f4040	 ldr         r4, [pc, #0x40]
  00008	e59f5038	 ldr         r5, [pc, #0x38]
  0000c	e59f1030	 ldr         r1, [pc, #0x30]
  00010	e5942000	 ldr         r2, [r4]
  00014	e1a00005	 mov         r0, r5
  00018	eb000000	 bl          |??0CPVRTString@@QAA@PBDI@Z|

; 232  : 	};

  0001c	e5942000	 ldr         r2, [r4]
  00020	e59f1018	 ldr         r1, [pc, #0x18]
  00024	e2850010	 add         r0, r5, #0x10
  00028	eb000000	 bl          |??0CPVRTString@@QAA@PBDI@Z|
  0002c	e59f0008	 ldr         r0, [pc, #8]
  00030	eb000000	 bl          atexit
  00034	e8bd4030	 ldmia       sp!, {r4, r5, lr}
  00038	e12fff1e	 bx          lr
  0003c		 |$LN6@dynamic|
  0003c		 |$LN7@dynamic|
  0003c	00000000	 DCD         |??__FstrOnOff@pvrengine@@YAXXZ|
  00040		 |$LN8@dynamic|
  00040	00000000	 DCD         |??_C@_02IAAGKKDJ@On?$AA@|
  00044		 |$LN9@dynamic|
  00044	00000000	 DCD         |??_C@_03GCDBBDDL@Off?$AA@|
  00048		 |$LN10@dynamic|
  00048	00000000	 DCD         |strOnOff|
  0004c		 |$LN11@dynamic|
  0004c	00000000	 DCD         |?npos@CPVRTString@@2IB|
  00050		 |$M38402|

			 ENDP  ; |??__EstrOnOff@pvrengine@@YAXXZ|, pvrengine::`dynamic initializer for 'strOnOff''

	EXPORT	|??_C@_04HPMIDMKH@True?$AA@| [ DATA ]	; `string'
	EXPORT	|??_C@_05MKDOIIA@False?$AA@| [ DATA ]	; `string'

  00000			 AREA	 |.pdata|, PDATA
|$T38417| DCD	|$LN5@dynamic@2|
	DCD	0x40001401

  00000			 AREA	 |.rdata|, DATA, READONLY
|??_C@_04HPMIDMKH@True?$AA@| DCB "True", 0x0		; `string'

  00000			 AREA	 |.rdata|, DATA, READONLY
|??_C@_05MKDOIIA@False?$AA@| DCB "False", 0x0		; `string'
; Function compile flags: /Ogspy

  00000			 AREA	 |.text$yc|, CODE, ARM

  00000		 |??__EstrTrueFalse@pvrengine@@YAXXZ| PROC ; pvrengine::`dynamic initializer for 'strTrueFalse''

; 235  : 	{

  00000		 |$LN5@dynamic@2|
  00000	e92d4030	 stmdb       sp!, {r4, r5, lr}
  00004		 |$M38414|

; 236  : 		"True","False"

  00004	e59f4040	 ldr         r4, [pc, #0x40]
  00008	e59f5038	 ldr         r5, [pc, #0x38]
  0000c	e59f1030	 ldr         r1, [pc, #0x30]
  00010	e5942000	 ldr         r2, [r4]
  00014	e1a00005	 mov         r0, r5
  00018	eb000000	 bl          |??0CPVRTString@@QAA@PBDI@Z|

; 237  : 	};

  0001c	e5942000	 ldr         r2, [r4]
  00020	e59f1018	 ldr         r1, [pc, #0x18]
  00024	e2850010	 add         r0, r5, #0x10
  00028	eb000000	 bl          |??0CPVRTString@@QAA@PBDI@Z|
  0002c	e59f0008	 ldr         r0, [pc, #8]
  00030	eb000000	 bl          atexit
  00034	e8bd4030	 ldmia       sp!, {r4, r5, lr}
  00038	e12fff1e	 bx          lr
  0003c		 |$LN6@dynamic@2|
  0003c		 |$LN7@dynamic@2|
  0003c	00000000	 DCD         |??__FstrTrueFalse@pvrengine@@YAXXZ|
  00040		 |$LN8@dynamic@2|
  00040	00000000	 DCD         |??_C@_05MKDOIIA@False?$AA@|
  00044		 |$LN9@dynamic@2|
  00044	00000000	 DCD         |??_C@_04HPMIDMKH@True?$AA@|
  00048		 |$LN10@dynamic@2|
  00048	00000000	 DCD         |strTrueFalse|
  0004c		 |$LN11@dynamic@2|
  0004c	00000000	 DCD         |?npos@CPVRTString@@2IB|
  00050		 |$M38415|

			 ENDP  ; |??__EstrTrueFalse@pvrengine@@YAXXZ|, pvrengine::`dynamic initializer for 'strTrueFalse''

	IMPORT	|??1CPVRTString@@UAA@XZ|		; CPVRTString::~CPVRTString

  00000			 AREA	 |.pdata|, PDATA
|$T38441| DCD	|$LN11@dynamic@3|
	DCD	0x40000c01
; Function compile flags: /Ogspy

  00000			 AREA	 |.text$yd|, CODE, ARM

  00000		 |??__FstrOnOff@pvrengine@@YAXXZ| PROC	; pvrengine::`dynamic atexit destructor for 'strOnOff''
  00000		 |$LN11@dynamic@3|
  00000	e92d4030	 stmdb       sp!, {r4, r5, lr}
  00004		 |$M38438|
  00004	e59f3020	 ldr         r3, [pc, #0x20]
  00008	e3a05001	 mov         r5, #1
  0000c	e2834020	 add         r4, r3, #0x20
  00010		 |$LL4@dynamic@3|
  00010	e2444010	 sub         r4, r4, #0x10
  00014	e1a00004	 mov         r0, r4
  00018	eb000000	 bl          |??1CPVRTString@@UAA@XZ|
  0001c	e2555001	 subs        r5, r5, #1
  00020	5afffffa	 bpl         |$LL4@dynamic@3|
  00024	e8bd4030	 ldmia       sp!, {r4, r5, lr}
  00028	e12fff1e	 bx          lr
  0002c		 |$LN12@dynamic@3|
  0002c		 |$LN13@dynamic@3|
  0002c	00000000	 DCD         |strOnOff|
  00030		 |$M38439|

			 ENDP  ; |??__FstrOnOff@pvrengine@@YAXXZ|, pvrengine::`dynamic atexit destructor for 'strOnOff''


  00000			 AREA	 |.pdata|, PDATA
|$T38461| DCD	|$LN11@dynamic@4|
	DCD	0x40000c01
; Function compile flags: /Ogspy

  00000			 AREA	 |.text$yd|, CODE, ARM

  00000		 |??__FstrTrueFalse@pvrengine@@YAXXZ| PROC ; pvrengine::`dynamic atexit destructor for 'strTrueFalse''
  00000		 |$LN11@dynamic@4|
  00000	e92d4030	 stmdb       sp!, {r4, r5, lr}
  00004		 |$M38458|
  00004	e59f3020	 ldr         r3, [pc, #0x20]
  00008	e3a05001	 mov         r5, #1
  0000c	e2834020	 add         r4, r3, #0x20
  00010		 |$LL4@dynamic@4|
  00010	e2444010	 sub         r4, r4, #0x10
  00014	e1a00004	 mov         r0, r4
  00018	eb000000	 bl          |??1CPVRTString@@UAA@XZ|
  0001c	e2555001	 subs        r5, r5, #1
  00020	5afffffa	 bpl         |$LL4@dynamic@4|
  00024	e8bd4030	 ldmia       sp!, {r4, r5, lr}
  00028	e12fff1e	 bx          lr
  0002c		 |$LN12@dynamic@4|
  0002c		 |$LN13@dynamic@4|
  0002c	00000000	 DCD         |strTrueFalse|
  00030		 |$M38459|

			 ENDP  ; |??__FstrTrueFalse@pvrengine@@YAXXZ|, pvrengine::`dynamic atexit destructor for 'strTrueFalse''


  00000			 AREA	 |.bss|, NOINIT
|strOnOff| %	0x20
|strTrueFalse| % 0x20

  00000			 AREA	 |.CRT$XCU|, DATA
|strOnOff$initializer$| DCD |??__EstrOnOff@pvrengine@@YAXXZ|
|strTrueFalse$initializer$| DCD |??__EstrTrueFalse@pvrengine@@YAXXZ|
	END
