; Listing generated by Microsoft (R) Optimizing Compiler Version 14.01.60511.01 

	TTL	C:\WINCE600\PUBLIC\PowerVR-SDK\OGLES2\Extras\PVREngine\OGLES2\PVRESettings.cpp
	CODE32

  00000			 AREA	 |.drectve|, DRECTVE
	DCB	"-defaultlib:LIBCMT "
	DCB	"-defaultlib:OLDNAMES "

	EXPORT	|?c_i32DefaultSize@?$dynamicArray@USPVRTContext@@@@2HB| [ DATA ] ; dynamicArray<SPVRTContext>::c_i32DefaultSize

  00000			 AREA	 |.rdata|, DATA, READONLY
|?c_i32DefaultSize@?$dynamicArray@USPVRTContext@@@@2HB| DCD 0x8 ; dynamicArray<SPVRTContext>::c_i32DefaultSize
	EXPORT	|?setBlend@PVRESettings@pvrengine@@QAAX_N@Z| ; pvrengine::PVRESettings::setBlend
	IMPORT	|__imp_glDisable|
	IMPORT	|__imp_glEnable|
; File c:\wince600\public\powervr-sdk\ogles2\extras\pvrengine\ogles2\pvresettings.cpp

  00000			 AREA	 |.pdata|, PDATA
|$T36437| DCD	|$LN7@setBlend|
	DCD	0x40001301
; Function compile flags: /Ogspy

  00000			 AREA	 |.text|, CODE, ARM

  00000		 |?setBlend@PVRESettings@pvrengine@@QAAX_N@Z| PROC ; pvrengine::PVRESettings::setBlend

; 32   : 	{

  00000		 |$LN7@setBlend|
  00000	e52de004	 str         lr, [sp, #-4]!
  00004		 |$M36434|
  00004	e3510000	 cmp         r1, #0

; 33   : 		if(bBlend)
; 34   : 			glEnable(GL_BLEND);

  00008	e3a02c0b	 mov         r2, #0xB, 24
  0000c	e38200e2	 orr         r0, r2, #0xE2
  00010	0a000005	 beq         |$LN2@setBlend|
  00014	e59f302c	 ldr         r3, [pc, #0x2C]
  00018	e5933000	 ldr         r3, [r3]
  0001c	e1a0e00f	 mov         lr, pc
  00020	e12fff13	 bx          r3

; 37   : 	}

  00024	e49de004	 ldr         lr, [sp], #4
  00028	e12fff1e	 bx          lr
  0002c		 |$LN2@setBlend|

; 35   : 		else
; 36   : 			glDisable(GL_BLEND);

  0002c	e59f3010	 ldr         r3, [pc, #0x10]
  00030	e5933000	 ldr         r3, [r3]
  00034	e1a0e00f	 mov         lr, pc
  00038	e12fff13	 bx          r3

; 37   : 	}

  0003c	e49de004	 ldr         lr, [sp], #4
  00040	e12fff1e	 bx          lr
  00044		 |$LN8@setBlend|
  00044		 |$LN9@setBlend|
  00044	00000000	 DCD         |__imp_glDisable|
  00048		 |$LN10@setBlend|
  00048	00000000	 DCD         |__imp_glEnable|
  0004c		 |$M36435|

			 ENDP  ; |?setBlend@PVRESettings@pvrengine@@QAAX_N@Z|, pvrengine::PVRESettings::setBlend

	EXPORT	|?setBackColour@PVRESettings@pvrengine@@QAAXI@Z| ; pvrengine::PVRESettings::setBackColour
	IMPORT	|__imp_glClearColor|
	IMPORT	|__imp___utos|
	IMPORT	|__imp___divs|

  00000			 AREA	 |.pdata|, PDATA
|$T36458| DCD	|$LN5@setBackCol|
	DCD	0x40003c01
; Function compile flags: /Ogspy

  00000			 AREA	 |.text|, CODE, ARM

  00000		 |?setBackColour@PVRESettings@pvrengine@@QAAXI@Z| PROC ; pvrengine::PVRESettings::setBackColour

; 42   : {

  00000		 |$LN5@setBackCol|
  00000	e92d41f0	 stmdb       sp!, {r4 - r8, lr}
  00004		 |$M36455|
  00004	e1a07001	 mov         r7, r1

; 43   : 	glClearColor((float)(cBackColour>>24&0xff)/255.0f,
; 44   : 		(float)(cBackColour>>16&0xff)/255.0f,
; 45   : 		(float)(cBackColour>>8&0xff)/255.0f,
; 46   : 		(float)(cBackColour&0xff)/255.0f);

  00008	e59f30dc	 ldr         r3, [pc, #0xDC]
  0000c	e20700ff	 and         r0, r7, #0xFF
  00010	e5933000	 ldr         r3, [r3]
  00014	e1a0e00f	 mov         lr, pc
  00018	e12fff13	 bx          r3
  0001c	e59f30c4	 ldr         r3, [pc, #0xC4]
  00020	e3a08443	 mov         r8, #0x43, 8
  00024	e388187f	 orr         r1, r8, #0x7F, 16
  00028	e5933000	 ldr         r3, [r3]
  0002c	e1a0e00f	 mov         lr, pc
  00030	e12fff13	 bx          r3
  00034	e59f30b0	 ldr         r3, [pc, #0xB0]
  00038	e1a02807	 mov         r2, r7, lsl #16
  0003c	e1a06000	 mov         r6, r0
  00040	e5933000	 ldr         r3, [r3]
  00044	e1a00c22	 mov         r0, r2, lsr #24
  00048	e1a0e00f	 mov         lr, pc
  0004c	e12fff13	 bx          r3
  00050	e59f3090	 ldr         r3, [pc, #0x90]
  00054	e388187f	 orr         r1, r8, #0x7F, 16
  00058	e5933000	 ldr         r3, [r3]
  0005c	e1a0e00f	 mov         lr, pc
  00060	e12fff13	 bx          r3
  00064	e59f3080	 ldr         r3, [pc, #0x80]
  00068	e1a02407	 mov         r2, r7, lsl #8
  0006c	e1a05000	 mov         r5, r0
  00070	e5933000	 ldr         r3, [r3]
  00074	e1a00c22	 mov         r0, r2, lsr #24
  00078	e1a0e00f	 mov         lr, pc
  0007c	e12fff13	 bx          r3
  00080	e59f3060	 ldr         r3, [pc, #0x60]
  00084	e388187f	 orr         r1, r8, #0x7F, 16
  00088	e5933000	 ldr         r3, [r3]
  0008c	e1a0e00f	 mov         lr, pc
  00090	e12fff13	 bx          r3
  00094	e59f3050	 ldr         r3, [pc, #0x50]
  00098	e1a04000	 mov         r4, r0
  0009c	e1a00c27	 mov         r0, r7, lsr #24
  000a0	e5933000	 ldr         r3, [r3]
  000a4	e1a0e00f	 mov         lr, pc
  000a8	e12fff13	 bx          r3
  000ac	e59f3034	 ldr         r3, [pc, #0x34]
  000b0	e388187f	 orr         r1, r8, #0x7F, 16
  000b4	e5933000	 ldr         r3, [r3]
  000b8	e1a0e00f	 mov         lr, pc
  000bc	e12fff13	 bx          r3
  000c0	e59f301c	 ldr         r3, [pc, #0x1C]
  000c4	e1a01004	 mov         r1, r4
  000c8	e1a02005	 mov         r2, r5
  000cc	e5934000	 ldr         r4, [r3]
  000d0	e1a03006	 mov         r3, r6
  000d4	e1a0e00f	 mov         lr, pc
  000d8	e12fff14	 bx          r4

; 47   : }

  000dc	e8bd41f0	 ldmia       sp!, {r4 - r8, lr}
  000e0	e12fff1e	 bx          lr
  000e4		 |$LN6@setBackCol|
  000e4		 |$LN7@setBackCol|
  000e4	00000000	 DCD         |__imp_glClearColor|
  000e8		 |$LN8@setBackCol|
  000e8	00000000	 DCD         |__imp___divs|
  000ec		 |$LN9@setBackCol|
  000ec	00000000	 DCD         |__imp___utos|
  000f0		 |$M36456|

			 ENDP  ; |?setBackColour@PVRESettings@pvrengine@@QAAXI@Z|, pvrengine::PVRESettings::setBackColour

	EXPORT	|?setBackColour@PVRESettings@pvrengine@@QAAXMMMM@Z| ; pvrengine::PVRESettings::setBackColour

  00000			 AREA	 |.pdata|, PDATA
|$T36472| DCD	|$LN5@setBackCol@2|
	DCD	0x40000f01
; Function compile flags: /Ogspy

  00000			 AREA	 |.text|, CODE, ARM

  00000		 |?setBackColour@PVRESettings@pvrengine@@QAAXMMMM@Z| PROC ; pvrengine::PVRESettings::setBackColour

; 52   : {

  00000		 |$LN5@setBackCol@2|
  00000	e92d4070	 stmdb       sp!, {r4 - r6, lr}
  00004		 |$M36469|
  00004	e1a0e003	 mov         lr, r3
  00008	e1a05002	 mov         r5, r2
  0000c	e1a06001	 mov         r6, r1

; 53   : 	glClearColor(fRed, fGreen, fBlue, fAlpha);

  00010	e59f0020	 ldr         r0, [pc, #0x20]
  00014	e59d3010	 ldr         r3, [sp, #0x10]
  00018	e1a0200e	 mov         r2, lr
  0001c	e5904000	 ldr         r4, [r0]
  00020	e1a00006	 mov         r0, r6
  00024	e1a01005	 mov         r1, r5
  00028	e1a0e00f	 mov         lr, pc
  0002c	e12fff14	 bx          r4

; 54   : }

  00030	e8bd4070	 ldmia       sp!, {r4 - r6, lr}
  00034	e12fff1e	 bx          lr
  00038		 |$LN6@setBackCol@2|
  00038		 |$LN7@setBackCol@2|
  00038	00000000	 DCD         |__imp_glClearColor|
  0003c		 |$M36470|

			 ENDP  ; |?setBackColour@PVRESettings@pvrengine@@QAAXMMMM@Z|, pvrengine::PVRESettings::setBackColour

	EXPORT	|?setBackColour@PVRESettings@pvrengine@@QAAXMMM@Z| ; pvrengine::PVRESettings::setBackColour

  00000			 AREA	 |.pdata|, PDATA
|$T36484| DCD	|$LN5@setBackCol@3|
	DCD	0x40000f01
; Function compile flags: /Ogspy

  00000			 AREA	 |.text|, CODE, ARM

  00000		 |?setBackColour@PVRESettings@pvrengine@@QAAXMMM@Z| PROC ; pvrengine::PVRESettings::setBackColour

; 58   : {

  00000		 |$LN5@setBackCol@3|
  00000	e92d4070	 stmdb       sp!, {r4 - r6, lr}
  00004		 |$M36481|
  00004	e1a0e003	 mov         lr, r3
  00008	e1a05002	 mov         r5, r2
  0000c	e1a06001	 mov         r6, r1

; 59   : 	glClearColor(fRed, fGreen, fBlue, 1.0f);

  00010	e59f0020	 ldr         r0, [pc, #0x20]
  00014	e3a035fe	 mov         r3, #0xFE, 10
  00018	e1a0200e	 mov         r2, lr
  0001c	e5904000	 ldr         r4, [r0]
  00020	e1a00006	 mov         r0, r6
  00024	e1a01005	 mov         r1, r5
  00028	e1a0e00f	 mov         lr, pc
  0002c	e12fff14	 bx          r4

; 60   : }

  00030	e8bd4070	 ldmia       sp!, {r4 - r6, lr}
  00034	e12fff1e	 bx          lr
  00038		 |$LN6@setBackCol@3|
  00038		 |$LN7@setBackCol@3|
  00038	00000000	 DCD         |__imp_glClearColor|
  0003c		 |$M36482|

			 ENDP  ; |?setBackColour@PVRESettings@pvrengine@@QAAXMMM@Z|, pvrengine::PVRESettings::setBackColour

	EXPORT	|?setBackColour@PVRESettings@pvrengine@@QAAXIIII@Z| ; pvrengine::PVRESettings::setBackColour

  00000			 AREA	 |.pdata|, PDATA
|$T36504| DCD	|$LN5@setBackCol@4|
	DCD	0x40003c01
; Function compile flags: /Ogspy

  00000			 AREA	 |.text|, CODE, ARM

  00000		 |?setBackColour@PVRESettings@pvrengine@@QAAXIIII@Z| PROC ; pvrengine::PVRESettings::setBackColour

; 68   : {

  00000		 |$LN5@setBackCol@4|
  00000	e92d43f0	 stmdb       sp!, {r4 - r9, lr}
  00004		 |$M36501|
  00004	e1a05003	 mov         r5, r3
  00008	e1a06002	 mov         r6, r2
  0000c	e1a08001	 mov         r8, r1

; 69   : 	glClearColor((float(u32Red))/255.0f,(float(u32Green))/255.0f,(float(u32Blue))/255.0f,(float(u32Alpha))/255.0f);

  00010	e59f40d4	 ldr         r4, [pc, #0xD4]
  00014	e59d001c	 ldr         r0, [sp, #0x1C]
  00018	e5944000	 ldr         r4, [r4]
  0001c	e1a0e00f	 mov         lr, pc
  00020	e12fff14	 bx          r4
  00024	e59fe0bc	 ldr         lr, [pc, #0xBC]
  00028	e3a09443	 mov         r9, #0x43, 8
  0002c	e389187f	 orr         r1, r9, #0x7F, 16
  00030	e59e4000	 ldr         r4, [lr]
  00034	e1a0e00f	 mov         lr, pc
  00038	e12fff14	 bx          r4
  0003c	e59fe0a8	 ldr         lr, [pc, #0xA8]
  00040	e1a07000	 mov         r7, r0
  00044	e1a00005	 mov         r0, r5
  00048	e59e3000	 ldr         r3, [lr]
  0004c	e1a0e00f	 mov         lr, pc
  00050	e12fff13	 bx          r3
  00054	e59f308c	 ldr         r3, [pc, #0x8C]
  00058	e389187f	 orr         r1, r9, #0x7F, 16
  0005c	e5933000	 ldr         r3, [r3]
  00060	e1a0e00f	 mov         lr, pc
  00064	e12fff13	 bx          r3
  00068	e59f307c	 ldr         r3, [pc, #0x7C]
  0006c	e1a05000	 mov         r5, r0
  00070	e1a00006	 mov         r0, r6
  00074	e5933000	 ldr         r3, [r3]
  00078	e1a0e00f	 mov         lr, pc
  0007c	e12fff13	 bx          r3
  00080	e59f3060	 ldr         r3, [pc, #0x60]
  00084	e389187f	 orr         r1, r9, #0x7F, 16
  00088	e5933000	 ldr         r3, [r3]
  0008c	e1a0e00f	 mov         lr, pc
  00090	e12fff13	 bx          r3
  00094	e59f3050	 ldr         r3, [pc, #0x50]
  00098	e1a04000	 mov         r4, r0
  0009c	e1a00008	 mov         r0, r8
  000a0	e5933000	 ldr         r3, [r3]
  000a4	e1a0e00f	 mov         lr, pc
  000a8	e12fff13	 bx          r3
  000ac	e59f3034	 ldr         r3, [pc, #0x34]
  000b0	e389187f	 orr         r1, r9, #0x7F, 16
  000b4	e5933000	 ldr         r3, [r3]
  000b8	e1a0e00f	 mov         lr, pc
  000bc	e12fff13	 bx          r3
  000c0	e59f301c	 ldr         r3, [pc, #0x1C]
  000c4	e1a01004	 mov         r1, r4
  000c8	e1a02005	 mov         r2, r5
  000cc	e5934000	 ldr         r4, [r3]
  000d0	e1a03007	 mov         r3, r7
  000d4	e1a0e00f	 mov         lr, pc
  000d8	e12fff14	 bx          r4

; 70   : }

  000dc	e8bd43f0	 ldmia       sp!, {r4 - r9, lr}
  000e0	e12fff1e	 bx          lr
  000e4		 |$LN6@setBackCol@4|
  000e4		 |$LN7@setBackCol@4|
  000e4	00000000	 DCD         |__imp_glClearColor|
  000e8		 |$LN8@setBackCol@4|
  000e8	00000000	 DCD         |__imp___divs|
  000ec		 |$LN9@setBackCol@4|
  000ec	00000000	 DCD         |__imp___utos|
  000f0		 |$M36502|

			 ENDP  ; |?setBackColour@PVRESettings@pvrengine@@QAAXIIII@Z|, pvrengine::PVRESettings::setBackColour

	EXPORT	|?setBackColour@PVRESettings@pvrengine@@QAAXIII@Z| ; pvrengine::PVRESettings::setBackColour

  00000			 AREA	 |.pdata|, PDATA
|$T36524| DCD	|$LN5@setBackCol@5|
	DCD	0x40003001
; Function compile flags: /Ogspy

  00000			 AREA	 |.text|, CODE, ARM

  00000		 |?setBackColour@PVRESettings@pvrengine@@QAAXIII@Z| PROC ; pvrengine::PVRESettings::setBackColour

; 77   : {

  00000		 |$LN5@setBackCol@5|
  00000	e92d41f0	 stmdb       sp!, {r4 - r8, lr}
  00004		 |$M36521|
  00004	e1a05002	 mov         r5, r2
  00008	e1a07001	 mov         r7, r1

; 78   : 	glClearColor((float(u32Red))/255.0f,(float(u32Green))/255.0f,(float(u32Blue))/255.0f,1.0f);

  0000c	e59f40a8	 ldr         r4, [pc, #0xA8]
  00010	e1a00003	 mov         r0, r3
  00014	e5943000	 ldr         r3, [r4]
  00018	e1a0e00f	 mov         lr, pc
  0001c	e12fff13	 bx          r3
  00020	e59f3090	 ldr         r3, [pc, #0x90]
  00024	e3a08443	 mov         r8, #0x43, 8
  00028	e388187f	 orr         r1, r8, #0x7F, 16
  0002c	e5933000	 ldr         r3, [r3]
  00030	e1a0e00f	 mov         lr, pc
  00034	e12fff13	 bx          r3
  00038	e1a0e004	 mov         lr, r4
  0003c	e59e2000	 ldr         r2, [lr]
  00040	e1a06000	 mov         r6, r0
  00044	e1a00005	 mov         r0, r5
  00048	e1a0e00f	 mov         lr, pc
  0004c	e12fff12	 bx          r2
  00050	e59f2060	 ldr         r2, [pc, #0x60]
  00054	e388187f	 orr         r1, r8, #0x7F, 16
  00058	e5922000	 ldr         r2, [r2]
  0005c	e1a0e00f	 mov         lr, pc
  00060	e12fff12	 bx          r2
  00064	e1a02004	 mov         r2, r4
  00068	e5922000	 ldr         r2, [r2]
  0006c	e1a04000	 mov         r4, r0
  00070	e1a00007	 mov         r0, r7
  00074	e1a0e00f	 mov         lr, pc
  00078	e12fff12	 bx          r2
  0007c	e59f2034	 ldr         r2, [pc, #0x34]
  00080	e388187f	 orr         r1, r8, #0x7F, 16
  00084	e5922000	 ldr         r2, [r2]
  00088	e1a0e00f	 mov         lr, pc
  0008c	e12fff12	 bx          r2
  00090	e59fe01c	 ldr         lr, [pc, #0x1C]
  00094	e1a01004	 mov         r1, r4
  00098	e1a02006	 mov         r2, r6
  0009c	e59e4000	 ldr         r4, [lr]
  000a0	e3a035fe	 mov         r3, #0xFE, 10
  000a4	e1a0e00f	 mov         lr, pc
  000a8	e12fff14	 bx          r4

; 79   : }

  000ac	e8bd41f0	 ldmia       sp!, {r4 - r8, lr}
  000b0	e12fff1e	 bx          lr
  000b4		 |$LN6@setBackCol@5|
  000b4		 |$LN7@setBackCol@5|
  000b4	00000000	 DCD         |__imp_glClearColor|
  000b8		 |$LN8@setBackCol@5|
  000b8	00000000	 DCD         |__imp___divs|
  000bc		 |$LN9@setBackCol@5|
  000bc	00000000	 DCD         |__imp___utos|
  000c0		 |$M36522|

			 ENDP  ; |?setBackColour@PVRESettings@pvrengine@@QAAXIII@Z|, pvrengine::PVRESettings::setBackColour

	EXPORT	|?setClearFlags@PVRESettings@pvrengine@@QAAXI@Z| ; pvrengine::PVRESettings::setClearFlags

  00000			 AREA	 |.pdata|, PDATA
|$T36537| DCD	|$LN5@setClearFl|
	DCD	0x40000200
; Function compile flags: /Ogspy

  00000			 AREA	 |.text|, CODE, ARM

  00000		 |?setClearFlags@PVRESettings@pvrengine@@QAAXI@Z| PROC ; pvrengine::PVRESettings::setClearFlags

; 84   : {

  00000		 |$LN5@setClearFl|
  00000		 |$M36534|

; 85   : 	m_u32ClearFlags = u32ClearFlags;

  00000	e5801000	 str         r1, [r0]

; 86   : }

  00004	e12fff1e	 bx          lr
  00008		 |$M36535|

			 ENDP  ; |?setClearFlags@PVRESettings@pvrengine@@QAAXI@Z|, pvrengine::PVRESettings::setClearFlags

	EXPORT	|?getClearFlags@PVRESettings@pvrengine@@QAAIXZ| ; pvrengine::PVRESettings::getClearFlags

  00000			 AREA	 |.pdata|, PDATA
|$T36547| DCD	|$LN5@getClearFl|
	DCD	0x40000200
; Function compile flags: /Ogspy

  00000			 AREA	 |.text|, CODE, ARM

  00000		 |?getClearFlags@PVRESettings@pvrengine@@QAAIXZ| PROC ; pvrengine::PVRESettings::getClearFlags

; 91   : {

  00000		 |$LN5@getClearFl|
  00000		 |$M36544|

; 92   : 	return m_u32ClearFlags;

  00000	e5900000	 ldr         r0, [r0]

; 93   : }

  00004	e12fff1e	 bx          lr
  00008		 |$M36545|

			 ENDP  ; |?getClearFlags@PVRESettings@pvrengine@@QAAIXZ|, pvrengine::PVRESettings::getClearFlags

	EXPORT	|?Clear@PVRESettings@pvrengine@@QAAXXZ|	; pvrengine::PVRESettings::Clear
	IMPORT	|__imp_glClear|

  00000			 AREA	 |.pdata|, PDATA
|$T36555| DCD	|$LN5@Clear|
	DCD	0x40000901
; Function compile flags: /Ogspy

  00000			 AREA	 |.text|, CODE, ARM

  00000		 |?Clear@PVRESettings@pvrengine@@QAAXXZ| PROC ; pvrengine::PVRESettings::Clear

; 98   : {

  00000		 |$LN5@Clear|
  00000	e52de004	 str         lr, [sp, #-4]!
  00004		 |$M36552|

; 99   : 	glClear(m_u32ClearFlags);

  00004	e59f3014	 ldr         r3, [pc, #0x14]
  00008	e5900000	 ldr         r0, [r0]
  0000c	e5933000	 ldr         r3, [r3]
  00010	e1a0e00f	 mov         lr, pc
  00014	e12fff13	 bx          r3

; 100  : }

  00018	e49de004	 ldr         lr, [sp], #4
  0001c	e12fff1e	 bx          lr
  00020		 |$LN6@Clear|
  00020		 |$LN7@Clear|
  00020	00000000	 DCD         |__imp_glClear|
  00024		 |$M36553|

			 ENDP  ; |?Clear@PVRESettings@pvrengine@@QAAXXZ|, pvrengine::PVRESettings::Clear

	EXPORT	|?setDepthTest@PVRESettings@pvrengine@@QAAX_N@Z| ; pvrengine::PVRESettings::setDepthTest

  00000			 AREA	 |.pdata|, PDATA
|$T36565| DCD	|$LN7@setDepthTe|
	DCD	0x40001301
; Function compile flags: /Ogspy

  00000			 AREA	 |.text|, CODE, ARM

  00000		 |?setDepthTest@PVRESettings@pvrengine@@QAAX_N@Z| PROC ; pvrengine::PVRESettings::setDepthTest

; 105  : {

  00000		 |$LN7@setDepthTe|
  00000	e52de004	 str         lr, [sp, #-4]!
  00004		 |$M36562|
  00004	e3510000	 cmp         r1, #0

; 106  : 	if(bDepth)// Enables depth test using the z-buffer
; 107  : 		glEnable(GL_DEPTH_TEST);

  00008	e3a02c0b	 mov         r2, #0xB, 24
  0000c	e3820071	 orr         r0, r2, #0x71
  00010	0a000005	 beq         |$LN2@setDepthTe|
  00014	e59f302c	 ldr         r3, [pc, #0x2C]
  00018	e5933000	 ldr         r3, [r3]
  0001c	e1a0e00f	 mov         lr, pc
  00020	e12fff13	 bx          r3

; 110  : }

  00024	e49de004	 ldr         lr, [sp], #4
  00028	e12fff1e	 bx          lr
  0002c		 |$LN2@setDepthTe|

; 108  : 	else
; 109  : 		glDisable(GL_DEPTH_TEST);

  0002c	e59f3010	 ldr         r3, [pc, #0x10]
  00030	e5933000	 ldr         r3, [r3]
  00034	e1a0e00f	 mov         lr, pc
  00038	e12fff13	 bx          r3

; 110  : }

  0003c	e49de004	 ldr         lr, [sp], #4
  00040	e12fff1e	 bx          lr
  00044		 |$LN8@setDepthTe|
  00044		 |$LN9@setDepthTe|
  00044	00000000	 DCD         |__imp_glDisable|
  00048		 |$LN10@setDepthTe|
  00048	00000000	 DCD         |__imp_glEnable|
  0004c		 |$M36563|

			 ENDP  ; |?setDepthTest@PVRESettings@pvrengine@@QAAX_N@Z|, pvrengine::PVRESettings::setDepthTest

	EXPORT	|?setDepthWrite@PVRESettings@pvrengine@@QAAX_N@Z| ; pvrengine::PVRESettings::setDepthWrite
	IMPORT	|__imp_glDepthMask|

  00000			 AREA	 |.pdata|, PDATA
|$T36576| DCD	|$LN5@setDepthWr|
	DCD	0x40000901
; Function compile flags: /Ogspy

  00000			 AREA	 |.text|, CODE, ARM

  00000		 |?setDepthWrite@PVRESettings@pvrengine@@QAAX_N@Z| PROC ; pvrengine::PVRESettings::setDepthWrite

; 115  : {

  00000		 |$LN5@setDepthWr|
  00000	e52de004	 str         lr, [sp, #-4]!
  00004		 |$M36573|

; 116  : 	glDepthMask(bDepthWrite);

  00004	e59f3014	 ldr         r3, [pc, #0x14]
  00008	e1a00001	 mov         r0, r1
  0000c	e5933000	 ldr         r3, [r3]
  00010	e1a0e00f	 mov         lr, pc
  00014	e12fff13	 bx          r3

; 117  : }

  00018	e49de004	 ldr         lr, [sp], #4
  0001c	e12fff1e	 bx          lr
  00020		 |$LN6@setDepthWr|
  00020		 |$LN7@setDepthWr|
  00020	00000000	 DCD         |__imp_glDepthMask|
  00024		 |$M36574|

			 ENDP  ; |?setDepthWrite@PVRESettings@pvrengine@@QAAX_N@Z|, pvrengine::PVRESettings::setDepthWrite

	EXPORT	|?setCull@PVRESettings@pvrengine@@QAAX_N@Z| ; pvrengine::PVRESettings::setCull

  00000			 AREA	 |.pdata|, PDATA
|$T36586| DCD	|$LN7@setCull|
	DCD	0x40001301
; Function compile flags: /Ogspy

  00000			 AREA	 |.text|, CODE, ARM

  00000		 |?setCull@PVRESettings@pvrengine@@QAAX_N@Z| PROC ; pvrengine::PVRESettings::setCull

; 122  : {

  00000		 |$LN7@setCull|
  00000	e52de004	 str         lr, [sp, #-4]!
  00004		 |$M36583|
  00004	e3510000	 cmp         r1, #0

; 123  : 	if(bCull)
; 124  : 		glEnable(GL_CULL_FACE);

  00008	e3a02c0b	 mov         r2, #0xB, 24
  0000c	e3820044	 orr         r0, r2, #0x44
  00010	0a000005	 beq         |$LN2@setCull|
  00014	e59f302c	 ldr         r3, [pc, #0x2C]
  00018	e5933000	 ldr         r3, [r3]
  0001c	e1a0e00f	 mov         lr, pc
  00020	e12fff13	 bx          r3

; 127  : }

  00024	e49de004	 ldr         lr, [sp], #4
  00028	e12fff1e	 bx          lr
  0002c		 |$LN2@setCull|

; 125  : 	else
; 126  : 		glDisable(GL_CULL_FACE);

  0002c	e59f3010	 ldr         r3, [pc, #0x10]
  00030	e5933000	 ldr         r3, [r3]
  00034	e1a0e00f	 mov         lr, pc
  00038	e12fff13	 bx          r3

; 127  : }

  0003c	e49de004	 ldr         lr, [sp], #4
  00040	e12fff1e	 bx          lr
  00044		 |$LN8@setCull|
  00044		 |$LN9@setCull|
  00044	00000000	 DCD         |__imp_glDisable|
  00048		 |$LN10@setCull|
  00048	00000000	 DCD         |__imp_glEnable|
  0004c		 |$M36584|

			 ENDP  ; |?setCull@PVRESettings@pvrengine@@QAAX_N@Z|, pvrengine::PVRESettings::setCull

	EXPORT	|?setCullMode@PVRESettings@pvrengine@@QAAXI@Z| ; pvrengine::PVRESettings::setCullMode
	IMPORT	|__imp_glCullFace|

  00000			 AREA	 |.pdata|, PDATA
|$T36597| DCD	|$LN5@setCullMod|
	DCD	0x40000901
; Function compile flags: /Ogspy

  00000			 AREA	 |.text|, CODE, ARM

  00000		 |?setCullMode@PVRESettings@pvrengine@@QAAXI@Z| PROC ; pvrengine::PVRESettings::setCullMode

; 132  : {

  00000		 |$LN5@setCullMod|
  00000	e52de004	 str         lr, [sp, #-4]!
  00004		 |$M36594|

; 133  : 	glCullFace(eMode);

  00004	e59f3014	 ldr         r3, [pc, #0x14]
  00008	e1a00001	 mov         r0, r1
  0000c	e5933000	 ldr         r3, [r3]
  00010	e1a0e00f	 mov         lr, pc
  00014	e12fff13	 bx          r3

; 134  : }

  00018	e49de004	 ldr         lr, [sp], #4
  0001c	e12fff1e	 bx          lr
  00020		 |$LN6@setCullMod|
  00020		 |$LN7@setCullMod|
  00020	00000000	 DCD         |__imp_glCullFace|
  00024		 |$M36595|

			 ENDP  ; |?setCullMode@PVRESettings@pvrengine@@QAAXI@Z|, pvrengine::PVRESettings::setCullMode

	EXPORT	|?getAPIName@PVRESettings@pvrengine@@QAA?AVCPVRTString@@XZ| ; pvrengine::PVRESettings::getAPIName
	EXPORT	|??_C@_0L@BOEALAHJ@OpenGL?$HMES2?$AA@| [ DATA ] ; `string'
	IMPORT	|??1CPVRTString@@UAA@XZ|		; CPVRTString::~CPVRTString
	IMPORT	|??0CPVRTString@@QAA@ABV0@II@Z|		; CPVRTString::CPVRTString
	IMPORT	|??0CPVRTString@@QAA@PBDI@Z|		; CPVRTString::CPVRTString
	IMPORT	|?npos@CPVRTString@@2IB|		; CPVRTString::npos

  00000			 AREA	 |.pdata|, PDATA
|$T36609| DCD	|$LN5@getAPIName|
	DCD	0x40001502

  00000			 AREA	 |.rdata|, DATA, READONLY
|??_C@_0L@BOEALAHJ@OpenGL?$HMES2?$AA@| DCB "OpenGL|ES2", 0x0 ; `string'
; Function compile flags: /Ogspy

  00000			 AREA	 |.text|, CODE, ARM

  00000		 |?getAPIName@PVRESettings@pvrengine@@QAA?AVCPVRTString@@XZ| PROC ; pvrengine::PVRESettings::getAPIName

; 139  : {

  00000		 |$LN5@getAPIName|
  00000	e92d4030	 stmdb       sp!, {r4, r5, lr}
  00004	e24dd010	 sub         sp, sp, #0x10
  00008		 |$M36606|
  00008	e1a05001	 mov         r5, r1

; 140  : 	return CPVRTString("OpenGL|ES2");	// yes i know

  0000c	e59f403c	 ldr         r4, [pc, #0x3C]
  00010	e59f1034	 ldr         r1, [pc, #0x34]
  00014	e28d0000	 add         r0, sp, #0
  00018	e5942000	 ldr         r2, [r4]
  0001c	eb000000	 bl          |??0CPVRTString@@QAA@PBDI@Z|
  00020	e5943000	 ldr         r3, [r4]
  00024	e1a01000	 mov         r1, r0
  00028	e1a00005	 mov         r0, r5
  0002c	e3a02000	 mov         r2, #0
  00030	eb000000	 bl          |??0CPVRTString@@QAA@ABV0@II@Z|
  00034	e28d0000	 add         r0, sp, #0
  00038	eb000000	 bl          |??1CPVRTString@@UAA@XZ|

; 141  : }

  0003c	e1a00005	 mov         r0, r5
  00040	e28dd010	 add         sp, sp, #0x10
  00044	e8bd4030	 ldmia       sp!, {r4, r5, lr}
  00048	e12fff1e	 bx          lr
  0004c		 |$LN6@getAPIName|
  0004c		 |$LN7@getAPIName|
  0004c	00000000	 DCD         |??_C@_0L@BOEALAHJ@OpenGL?$HMES2?$AA@|
  00050		 |$LN8@getAPIName|
  00050	00000000	 DCD         |?npos@CPVRTString@@2IB|
  00054		 |$M36607|

			 ENDP  ; |?getAPIName@PVRESettings@pvrengine@@QAA?AVCPVRTString@@XZ|, pvrengine::PVRESettings::getAPIName

	EXPORT	|??1?$CPVRTSingleton@VContextManager@pvrengine@@@@MAA@XZ| ; CPVRTSingleton<pvrengine::ContextManager>::~CPVRTSingleton<pvrengine::ContextManager>
	EXPORT	|??_7?$CPVRTSingleton@VContextManager@pvrengine@@@@6B@| [ DATA ] ; CPVRTSingleton<pvrengine::ContextManager>::`vftable'
	IMPORT	|??_E?$CPVRTSingleton@VContextManager@pvrengine@@@@MAAPAXI@Z|, WEAK |??_G?$CPVRTSingleton@VContextManager@pvrengine@@@@MAAPAXI@Z| ; CPVRTSingleton<pvrengine::ContextManager>::`vector deleting destructor', CPVRTSingleton<pvrengine::ContextManager>::`scalar deleting destructor'
; File c:\wince600\public\powervr-sdk\ogles2\tools\pvrtsingleton.h

  00000			 AREA	 |.pdata|, PDATA
|$T36620| DCD	|$LN5@CPVRTSingl|
	DCD	0x40000400

  00000			 AREA	 |.rdata|, DATA, READONLY
|??_7?$CPVRTSingleton@VContextManager@pvrengine@@@@6B@| DCD |??_E?$CPVRTSingleton@VContextManager@pvrengine@@@@MAAPAXI@Z| ; CPVRTSingleton<pvrengine::ContextManager>::`vftable'
; Function compile flags: /Ogspy

  00000			 AREA	 |.text|, CODE, ARM

  00000		 |??1?$CPVRTSingleton@VContextManager@pvrengine@@@@MAA@XZ| PROC ; CPVRTSingleton<pvrengine::ContextManager>::~CPVRTSingleton<pvrengine::ContextManager>

; 38   : 	virtual ~CPVRTSingleton() {};

  00000		 |$LN5@CPVRTSingl|
  00000		 |$M36617|
  00000	e59f3004	 ldr         r3, [pc, #4]
  00004	e5803000	 str         r3, [r0]
  00008	e12fff1e	 bx          lr
  0000c		 |$LN6@CPVRTSingl|
  0000c		 |$LN7@CPVRTSingl|
  0000c	00000000	 DCD         |??_7?$CPVRTSingleton@VContextManager@pvrengine@@@@6B@|
  00010		 |$M36618|

			 ENDP  ; |??1?$CPVRTSingleton@VContextManager@pvrengine@@@@MAA@XZ|, CPVRTSingleton<pvrengine::ContextManager>::~CPVRTSingleton<pvrengine::ContextManager>

	EXPORT	|??1?$dynamicArray@USPVRTContext@@@@QAA@XZ| ; dynamicArray<SPVRTContext>::~dynamicArray<SPVRTContext>
	IMPORT	|??3@YAXPAX@Z|				; operator delete
; File c:\wince600\public\powervr-sdk\ogles2\extras\pvrengine\include\dynamicarray.h

  00000			 AREA	 |.pdata|, PDATA
|$T36631| DCD	|$LN6@dynamicArr|
	DCD	0x40000701
; Function compile flags: /Ogspy

  00000			 AREA	 |.text|, CODE, ARM

  00000		 |??1?$dynamicArray@USPVRTContext@@@@QAA@XZ| PROC ; dynamicArray<SPVRTContext>::~dynamicArray<SPVRTContext>

; 113  : 	{

  00000		 |$LN6@dynamicArr|
  00000	e52de004	 str         lr, [sp, #-4]!
  00004		 |$M36628|

; 114  : 		if(m_pArray)

  00004	e5903008	 ldr         r3, [r0, #8]
  00008	e3530000	 cmp         r3, #0

; 115  : 			delete[](m_pArray);

  0000c	11a00003	 movne       r0, r3
  00010	1b000000	 blne        |??3@YAXPAX@Z|

; 116  : 	}

  00014	e49de004	 ldr         lr, [sp], #4
  00018	e12fff1e	 bx          lr
  0001c		 |$M36629|

			 ENDP  ; |??1?$dynamicArray@USPVRTContext@@@@QAA@XZ|, dynamicArray<SPVRTContext>::~dynamicArray<SPVRTContext>


  00000			 AREA	 |.pdata|, PDATA
|$T36645| DCD	|$LN8@scalar|
	DCD	0x40000a01
; Function compile flags: /Ogspy

  00000			 AREA	 |.text|, CODE, ARM

  00000		 |??_G?$CPVRTSingleton@VContextManager@pvrengine@@@@MAAPAXI@Z| PROC ; CPVRTSingleton<pvrengine::ContextManager>::`scalar deleting destructor'
  00000		 |$LN8@scalar|
  00000	e92d4010	 stmdb       sp!, {r4, lr}
  00004		 |$M36642|
  00004	e1a04000	 mov         r4, r0
  00008	e59f3014	 ldr         r3, [pc, #0x14]
  0000c	e3110001	 tst         r1, #1
  00010	e5843000	 str         r3, [r4]
  00014	1b000000	 blne        |??3@YAXPAX@Z|
  00018	e1a00004	 mov         r0, r4
  0001c	e8bd4010	 ldmia       sp!, {r4, lr}
  00020	e12fff1e	 bx          lr
  00024		 |$LN9@scalar|
  00024		 |$LN10@scalar|
  00024	00000000	 DCD         |??_7?$CPVRTSingleton@VContextManager@pvrengine@@@@6B@|
  00028		 |$M36643|

			 ENDP  ; |??_G?$CPVRTSingleton@VContextManager@pvrengine@@@@MAAPAXI@Z|, CPVRTSingleton<pvrengine::ContextManager>::`scalar deleting destructor'

	EXPORT	|??1ContextManager@pvrengine@@UAA@XZ|	; pvrengine::ContextManager::~ContextManager
	EXPORT	|??_7ContextManager@pvrengine@@6B@| [ DATA ] ; pvrengine::ContextManager::`vftable'
	IMPORT	|??_EContextManager@pvrengine@@UAAPAXI@Z|, WEAK |??_GContextManager@pvrengine@@UAAPAXI@Z| ; pvrengine::ContextManager::`vector deleting destructor', pvrengine::ContextManager::`scalar deleting destructor'
; File c:\wince600\public\powervr-sdk\ogles2\tools\pvrtsingleton.h

  00000			 AREA	 |.pdata|, PDATA
|$T36666| DCD	|$LN10@ContextMan|
	DCD	0x40000f01

  00000			 AREA	 |.rdata|, DATA, READONLY
|??_7ContextManager@pvrengine@@6B@| DCD |??_EContextManager@pvrengine@@UAAPAXI@Z| ; pvrengine::ContextManager::`vftable'
; Function compile flags: /Ogspy
; File c:\wince600\public\powervr-sdk\ogles2\extras\pvrengine\include\ogles2\contextmanager.h

  00000			 AREA	 |.text|, CODE, ARM

  00000		 |??1ContextManager@pvrengine@@UAA@XZ| PROC ; pvrengine::ContextManager::~ContextManager

; 57   : 		~ContextManager(){}

  00000		 |$LN10@ContextMan|
  00000	e92d4010	 stmdb       sp!, {r4, lr}
  00004		 |$M36663|
  00004	e1a04000	 mov         r4, r0
  00008	e59f3028	 ldr         r3, [pc, #0x28]
  0000c	e1a02004	 mov         r2, r4
  00010	e4823004	 str         r3, [r2], #4
  00014	e5923008	 ldr         r3, [r2, #8]
  00018	e3530000	 cmp         r3, #0
  0001c	11a00003	 movne       r0, r3
  00020	1b000000	 blne        |??3@YAXPAX@Z|
  00024	e59f3008	 ldr         r3, [pc, #8]
  00028	e5843000	 str         r3, [r4]
  0002c	e8bd4010	 ldmia       sp!, {r4, lr}
  00030	e12fff1e	 bx          lr
  00034		 |$LN11@ContextMan|
  00034		 |$LN12@ContextMan|
  00034	00000000	 DCD         |??_7?$CPVRTSingleton@VContextManager@pvrengine@@@@6B@|
  00038		 |$LN13@ContextMan|
  00038	00000000	 DCD         |??_7ContextManager@pvrengine@@6B@|
  0003c		 |$M36664|

			 ENDP  ; |??1ContextManager@pvrengine@@UAA@XZ|, pvrengine::ContextManager::~ContextManager


  00000			 AREA	 |.pdata|, PDATA
|$T36680| DCD	|$LN6@scalar@2|
	DCD	0x40000a01
; Function compile flags: /Ogspy

  00000			 AREA	 |.text|, CODE, ARM

  00000		 |??_GContextManager@pvrengine@@UAAPAXI@Z| PROC ; pvrengine::ContextManager::`scalar deleting destructor'
  00000		 |$LN6@scalar@2|
  00000	e92d4030	 stmdb       sp!, {r4, r5, lr}
  00004		 |$M36677|
  00004	e1a04001	 mov         r4, r1
  00008	e1a05000	 mov         r5, r0
  0000c	eb000000	 bl          |??1ContextManager@pvrengine@@UAA@XZ|
  00010	e3140001	 tst         r4, #1
  00014	11a00005	 movne       r0, r5
  00018	1b000000	 blne        |??3@YAXPAX@Z|
  0001c	e1a00005	 mov         r0, r5
  00020	e8bd4030	 ldmia       sp!, {r4, r5, lr}
  00024	e12fff1e	 bx          lr
  00028		 |$M36678|

			 ENDP  ; |??_GContextManager@pvrengine@@UAAPAXI@Z|, pvrengine::ContextManager::`scalar deleting destructor'

	EXPORT	|??__Fobject@?1??inst@?$CPVRTSingleton@VContextManager@pvrengine@@@@SAAAVContextManager@pvrengine@@XZ@YAXXZ| ; `CPVRTSingleton<pvrengine::ContextManager>::inst'::`2'::`dynamic atexit destructor for 'object''
	EXPORT	|??_B?1??inst@?$CPVRTSingleton@VContextManager@pvrengine@@@@SAAAVContextManager@pvrengine@@XZ@51| [ DATA ] ; `CPVRTSingleton<pvrengine::ContextManager>::inst'::`2'::`local static guard'
	EXPORT	|?inst@?$CPVRTSingleton@VContextManager@pvrengine@@@@SAAAVContextManager@pvrengine@@XZ| ; CPVRTSingleton<pvrengine::ContextManager>::inst
	EXPORT	|?object@?1??inst@?$CPVRTSingleton@VContextManager@pvrengine@@@@SAAAVContextManager@pvrengine@@XZ@4V34@A| [ DATA ] ; `CPVRTSingleton<pvrengine::ContextManager>::inst'::`2'::object
	IMPORT	|atexit|
	IMPORT	|??0ContextManager@pvrengine@@QAA@XZ|	; pvrengine::ContextManager::ContextManager
; File c:\wince600\public\powervr-sdk\ogles2\tools\pvrtsingleton.h

  00000			 AREA	 |.bss|, NOINIT
|??_B?1??inst@?$CPVRTSingleton@VContextManager@pvrengine@@@@SAAAVContextManager@pvrengine@@XZ@51| % 0x4 ; `CPVRTSingleton<pvrengine::ContextManager>::inst'::`2'::`local static guard'

  00000			 AREA	 |.bss|, NOINIT
|?object@?1??inst@?$CPVRTSingleton@VContextManager@pvrengine@@@@SAAAVContextManager@pvrengine@@XZ@4V34@A| % 0x14 ; `CPVRTSingleton<pvrengine::ContextManager>::inst'::`2'::object

  00000			 AREA	 |.pdata|, PDATA
|$T36689| DCD	|$LN6@inst|
	DCD	0x40001101
; Function compile flags: /Ogspy

  00000			 AREA	 |.text|, CODE, ARM

  00000		 |?inst@?$CPVRTSingleton@VContextManager@pvrengine@@@@SAAAVContextManager@pvrengine@@XZ| PROC ; CPVRTSingleton<pvrengine::ContextManager>::inst

; 26   : 	{

  00000		 |$LN6@inst|
  00000	e52de004	 str         lr, [sp, #-4]!
  00004		 |$M36686|

; 27   : 		static T object;

  00004	e59f2034	 ldr         r2, [pc, #0x34]
  00008	e5923000	 ldr         r3, [r2]
  0000c	e3130001	 tst         r3, #1
  00010	1a000005	 bne         |$LN1@inst|
  00014	e59f001c	 ldr         r0, [pc, #0x1C]
  00018	e3833001	 orr         r3, r3, #1
  0001c	e5823000	 str         r3, [r2]
  00020	eb000000	 bl          |??0ContextManager@pvrengine@@QAA@XZ|
  00024	e59f0010	 ldr         r0, [pc, #0x10]
  00028	eb000000	 bl          atexit
  0002c		 |$LN1@inst|

; 28   : 		return object;
; 29   : 	}

  0002c	e59f0004	 ldr         r0, [pc, #4]
  00030	e49de004	 ldr         lr, [sp], #4
  00034	e12fff1e	 bx          lr
  00038		 |$LN7@inst|
  00038		 |$LN8@inst|
  00038	00000000	 DCD         |?object@?1??inst@?$CPVRTSingleton@VContextManager@pvrengine@@@@SAAAVContextManager@pvrengine@@XZ@4V34@A|
  0003c		 |$LN9@inst|
  0003c	00000000	 DCD         |??__Fobject@?1??inst@?$CPVRTSingleton@VContextManager@pvrengine@@@@SAAAVContextManager@pvrengine@@XZ@YAXXZ|
  00040		 |$LN10@inst|
  00040	00000000	 DCD         |??_B?1??inst@?$CPVRTSingleton@VContextManager@pvrengine@@@@SAAAVContextManager@pvrengine@@XZ@51|
  00044		 |$M36687|

			 ENDP  ; |?inst@?$CPVRTSingleton@VContextManager@pvrengine@@@@SAAAVContextManager@pvrengine@@XZ|, CPVRTSingleton<pvrengine::ContextManager>::inst

	EXPORT	|?Init@PVRESettings@pvrengine@@QAAXXZ|	; pvrengine::PVRESettings::Init
	IMPORT	|?initContext@ContextManager@pvrengine@@QAAXXZ| ; pvrengine::ContextManager::initContext
	IMPORT	|__imp_glBlendFunc|
; File c:\wince600\public\powervr-sdk\ogles2\extras\pvrengine\ogles2\pvresettings.cpp

  00000			 AREA	 |.pdata|, PDATA
|$T36700| DCD	|$LN5@Init|
	DCD	0x40000d01
; Function compile flags: /Ogspy

  00000			 AREA	 |.text|, CODE, ARM

  00000		 |?Init@PVRESettings@pvrengine@@QAAXXZ| PROC ; pvrengine::PVRESettings::Init

; 22   : 	{

  00000		 |$LN5@Init|
  00000	e52de004	 str         lr, [sp, #-4]!
  00004		 |$M36697|

; 23   : 		ContextManager::inst().initContext();

  00004	eb000000	 bl          |?inst@?$CPVRTSingleton@VContextManager@pvrengine@@@@SAAAVContextManager@pvrengine@@XZ|
  00008	eb000000	 bl          |?initContext@ContextManager@pvrengine@@QAAXXZ|

; 24   : 		glBlendFunc(GL_SRC_ALPHA,GL_ONE_MINUS_SRC_ALPHA);

  0000c	e59f301c	 ldr         r3, [pc, #0x1C]
  00010	e3a02c03	 mov         r2, #3, 24
  00014	e3821003	 orr         r1, r2, #3
  00018	e5933000	 ldr         r3, [r3]
  0001c	e3820002	 orr         r0, r2, #2
  00020	e1a0e00f	 mov         lr, pc
  00024	e12fff13	 bx          r3

; 25   : 		//glDepthFunc(GL_GEQUAL);
; 26   : 		//glClearDepth(0);
; 27   : 	}

  00028	e49de004	 ldr         lr, [sp], #4
  0002c	e12fff1e	 bx          lr
  00030		 |$LN6@Init|
  00030		 |$LN7@Init|
  00030	00000000	 DCD         |__imp_glBlendFunc|
  00034		 |$M36698|

			 ENDP  ; |?Init@PVRESettings@pvrengine@@QAAXXZ|, pvrengine::PVRESettings::Init


  00000			 AREA	 |.pdata|, PDATA
|$T36709| DCD	|$LN5@dynamic|
	DCD	0x40000601
; Function compile flags: /Ogspy

  00000			 AREA	 |.text$yd|, CODE, ARM

  00000		 |??__Fobject@?1??inst@?$CPVRTSingleton@VContextManager@pvrengine@@@@SAAAVContextManager@pvrengine@@XZ@YAXXZ| PROC ; `CPVRTSingleton<pvrengine::ContextManager>::inst'::`2'::`dynamic atexit destructor for 'object''
  00000		 |$LN5@dynamic|
  00000	e52de004	 str         lr, [sp, #-4]!
  00004		 |$M36706|
  00004	e59f0008	 ldr         r0, [pc, #8]
  00008	eb000000	 bl          |??1ContextManager@pvrengine@@UAA@XZ|
  0000c	e49de004	 ldr         lr, [sp], #4
  00010	e12fff1e	 bx          lr
  00014		 |$LN6@dynamic|
  00014		 |$LN7@dynamic|
  00014	00000000	 DCD         |?object@?1??inst@?$CPVRTSingleton@VContextManager@pvrengine@@@@SAAAVContextManager@pvrengine@@XZ@4V34@A|
  00018		 |$M36707|

			 ENDP  ; |??__Fobject@?1??inst@?$CPVRTSingleton@VContextManager@pvrengine@@@@SAAAVContextManager@pvrengine@@XZ@YAXXZ|, `CPVRTSingleton<pvrengine::ContextManager>::inst'::`2'::`dynamic atexit destructor for 'object''

	END
