; Listing generated by Microsoft (R) Optimizing Compiler Version 14.01.60511.01 

	TTL	C:\WINCE600\PUBLIC\PowerVR-SDK\OGLES2\Extras\PVREngine\PVRESettingsBase.cpp
	CODE32

  00000			 AREA	 |.drectve|, DRECTVE
	DCB	"-defaultlib:LIBCMT "
	DCB	"-defaultlib:OLDNAMES "

	EXPORT	|?c_i32DefaultSize@?$dynamicArray@USPVRTContext@@@@2HB| [ DATA ] ; dynamicArray<SPVRTContext>::c_i32DefaultSize

  00000			 AREA	 |.rdata|, DATA, READONLY
|?c_i32DefaultSize@?$dynamicArray@USPVRTContext@@@@2HB| DCD 0x8 ; dynamicArray<SPVRTContext>::c_i32DefaultSize
	EXPORT	|??0PVRESettings@pvrengine@@QAA@XZ|	; pvrengine::PVRESettings::PVRESettings
; File c:\wince600\public\powervr-sdk\ogles2\extras\pvrengine\pvresettingsbase.cpp

  00000			 AREA	 |.pdata|, PDATA
|$T36329| DCD	|$LN5@PVRESettin|
	DCD	0x40000100
; Function compile flags: /Ogspy

  00000			 AREA	 |.text|, CODE, ARM

  00000		 |??0PVRESettings@pvrengine@@QAA@XZ| PROC ; pvrengine::PVRESettings::PVRESettings

; 25   : 	{

  00000		 |$LN5@PVRESettin|
  00000		 |$M36326|

; 26   : 	}

  00000	e12fff1e	 bx          lr
  00004		 |$M36327|

			 ENDP  ; |??0PVRESettings@pvrengine@@QAA@XZ|, pvrengine::PVRESettings::PVRESettings

	EXPORT	|??1PVRESettings@pvrengine@@QAA@XZ|	; pvrengine::PVRESettings::~PVRESettings

  00000			 AREA	 |.pdata|, PDATA
|$T36336| DCD	|$LN5@PVRESettin@2|
	DCD	0x40000100
; Function compile flags: /Ogspy

  00000			 AREA	 |.text|, CODE, ARM

  00000		 |??1PVRESettings@pvrengine@@QAA@XZ| PROC ; pvrengine::PVRESettings::~PVRESettings

; 31   : 	{

  00000		 |$LN5@PVRESettin@2|
  00000		 |$M36333|

; 32   : 	}

  00000	e12fff1e	 bx          lr
  00004		 |$M36334|

			 ENDP  ; |??1PVRESettings@pvrengine@@QAA@XZ|, pvrengine::PVRESettings::~PVRESettings

	EXPORT	|??1?$CPVRTSingleton@VContextManager@pvrengine@@@@MAA@XZ| ; CPVRTSingleton<pvrengine::ContextManager>::~CPVRTSingleton<pvrengine::ContextManager>
	EXPORT	|??_7?$CPVRTSingleton@VContextManager@pvrengine@@@@6B@| [ DATA ] ; CPVRTSingleton<pvrengine::ContextManager>::`vftable'
	IMPORT	|??_E?$CPVRTSingleton@VContextManager@pvrengine@@@@MAAPAXI@Z|, WEAK |??_G?$CPVRTSingleton@VContextManager@pvrengine@@@@MAAPAXI@Z| ; CPVRTSingleton<pvrengine::ContextManager>::`vector deleting destructor', CPVRTSingleton<pvrengine::ContextManager>::`scalar deleting destructor'
; File c:\wince600\public\powervr-sdk\ogles2\tools\pvrtsingleton.h

  00000			 AREA	 |.pdata|, PDATA
|$T36344| DCD	|$LN5@CPVRTSingl|
	DCD	0x40000400

  00000			 AREA	 |.rdata|, DATA, READONLY
|??_7?$CPVRTSingleton@VContextManager@pvrengine@@@@6B@| DCD |??_E?$CPVRTSingleton@VContextManager@pvrengine@@@@MAAPAXI@Z| ; CPVRTSingleton<pvrengine::ContextManager>::`vftable'
; Function compile flags: /Ogspy

  00000			 AREA	 |.text|, CODE, ARM

  00000		 |??1?$CPVRTSingleton@VContextManager@pvrengine@@@@MAA@XZ| PROC ; CPVRTSingleton<pvrengine::ContextManager>::~CPVRTSingleton<pvrengine::ContextManager>

; 38   : 	virtual ~CPVRTSingleton() {};

  00000		 |$LN5@CPVRTSingl|
  00000		 |$M36341|
  00000	e59f3004	 ldr         r3, [pc, #4]
  00004	e5803000	 str         r3, [r0]
  00008	e12fff1e	 bx          lr
  0000c		 |$LN6@CPVRTSingl|
  0000c		 |$LN7@CPVRTSingl|
  0000c	00000000	 DCD         |??_7?$CPVRTSingleton@VContextManager@pvrengine@@@@6B@|
  00010		 |$M36342|

			 ENDP  ; |??1?$CPVRTSingleton@VContextManager@pvrengine@@@@MAA@XZ|, CPVRTSingleton<pvrengine::ContextManager>::~CPVRTSingleton<pvrengine::ContextManager>

	EXPORT	|??1?$dynamicArray@USPVRTContext@@@@QAA@XZ| ; dynamicArray<SPVRTContext>::~dynamicArray<SPVRTContext>
	IMPORT	|??3@YAXPAX@Z|				; operator delete
; File c:\wince600\public\powervr-sdk\ogles2\extras\pvrengine\include\dynamicarray.h

  00000			 AREA	 |.pdata|, PDATA
|$T36355| DCD	|$LN6@dynamicArr|
	DCD	0x40000701
; Function compile flags: /Ogspy

  00000			 AREA	 |.text|, CODE, ARM

  00000		 |??1?$dynamicArray@USPVRTContext@@@@QAA@XZ| PROC ; dynamicArray<SPVRTContext>::~dynamicArray<SPVRTContext>

; 113  : 	{

  00000		 |$LN6@dynamicArr|
  00000	e52de004	 str         lr, [sp, #-4]!
  00004		 |$M36352|

; 114  : 		if(m_pArray)

  00004	e5903008	 ldr         r3, [r0, #8]
  00008	e3530000	 cmp         r3, #0

; 115  : 			delete[](m_pArray);

  0000c	11a00003	 movne       r0, r3
  00010	1b000000	 blne        |??3@YAXPAX@Z|

; 116  : 	}

  00014	e49de004	 ldr         lr, [sp], #4
  00018	e12fff1e	 bx          lr
  0001c		 |$M36353|

			 ENDP  ; |??1?$dynamicArray@USPVRTContext@@@@QAA@XZ|, dynamicArray<SPVRTContext>::~dynamicArray<SPVRTContext>


  00000			 AREA	 |.pdata|, PDATA
|$T36369| DCD	|$LN8@scalar|
	DCD	0x40000a01
; Function compile flags: /Ogspy

  00000			 AREA	 |.text|, CODE, ARM

  00000		 |??_G?$CPVRTSingleton@VContextManager@pvrengine@@@@MAAPAXI@Z| PROC ; CPVRTSingleton<pvrengine::ContextManager>::`scalar deleting destructor'
  00000		 |$LN8@scalar|
  00000	e92d4010	 stmdb       sp!, {r4, lr}
  00004		 |$M36366|
  00004	e1a04000	 mov         r4, r0
  00008	e59f3014	 ldr         r3, [pc, #0x14]
  0000c	e3110001	 tst         r1, #1
  00010	e5843000	 str         r3, [r4]
  00014	1b000000	 blne        |??3@YAXPAX@Z|
  00018	e1a00004	 mov         r0, r4
  0001c	e8bd4010	 ldmia       sp!, {r4, lr}
  00020	e12fff1e	 bx          lr
  00024		 |$LN9@scalar|
  00024		 |$LN10@scalar|
  00024	00000000	 DCD         |??_7?$CPVRTSingleton@VContextManager@pvrengine@@@@6B@|
  00028		 |$M36367|

			 ENDP  ; |??_G?$CPVRTSingleton@VContextManager@pvrengine@@@@MAAPAXI@Z|, CPVRTSingleton<pvrengine::ContextManager>::`scalar deleting destructor'

	EXPORT	|??1ContextManager@pvrengine@@UAA@XZ|	; pvrengine::ContextManager::~ContextManager
	EXPORT	|??_7ContextManager@pvrengine@@6B@| [ DATA ] ; pvrengine::ContextManager::`vftable'
	IMPORT	|??_EContextManager@pvrengine@@UAAPAXI@Z|, WEAK |??_GContextManager@pvrengine@@UAAPAXI@Z| ; pvrengine::ContextManager::`vector deleting destructor', pvrengine::ContextManager::`scalar deleting destructor'
; File c:\wince600\public\powervr-sdk\ogles2\tools\pvrtsingleton.h

  00000			 AREA	 |.pdata|, PDATA
|$T36390| DCD	|$LN10@ContextMan|
	DCD	0x40000f01

  00000			 AREA	 |.rdata|, DATA, READONLY
|??_7ContextManager@pvrengine@@6B@| DCD |??_EContextManager@pvrengine@@UAAPAXI@Z| ; pvrengine::ContextManager::`vftable'
; Function compile flags: /Ogspy
; File c:\wince600\public\powervr-sdk\ogles2\extras\pvrengine\include\ogles2\contextmanager.h

  00000			 AREA	 |.text|, CODE, ARM

  00000		 |??1ContextManager@pvrengine@@UAA@XZ| PROC ; pvrengine::ContextManager::~ContextManager

; 57   : 		~ContextManager(){}

  00000		 |$LN10@ContextMan|
  00000	e92d4010	 stmdb       sp!, {r4, lr}
  00004		 |$M36387|
  00004	e1a04000	 mov         r4, r0
  00008	e59f3028	 ldr         r3, [pc, #0x28]
  0000c	e1a02004	 mov         r2, r4
  00010	e4823004	 str         r3, [r2], #4
  00014	e5923008	 ldr         r3, [r2, #8]
  00018	e3530000	 cmp         r3, #0
  0001c	11a00003	 movne       r0, r3
  00020	1b000000	 blne        |??3@YAXPAX@Z|
  00024	e59f3008	 ldr         r3, [pc, #8]
  00028	e5843000	 str         r3, [r4]
  0002c	e8bd4010	 ldmia       sp!, {r4, lr}
  00030	e12fff1e	 bx          lr
  00034		 |$LN11@ContextMan|
  00034		 |$LN12@ContextMan|
  00034	00000000	 DCD         |??_7?$CPVRTSingleton@VContextManager@pvrengine@@@@6B@|
  00038		 |$LN13@ContextMan|
  00038	00000000	 DCD         |??_7ContextManager@pvrengine@@6B@|
  0003c		 |$M36388|

			 ENDP  ; |??1ContextManager@pvrengine@@UAA@XZ|, pvrengine::ContextManager::~ContextManager


  00000			 AREA	 |.pdata|, PDATA
|$T36404| DCD	|$LN6@scalar@2|
	DCD	0x40000a01
; Function compile flags: /Ogspy

  00000			 AREA	 |.text|, CODE, ARM

  00000		 |??_GContextManager@pvrengine@@UAAPAXI@Z| PROC ; pvrengine::ContextManager::`scalar deleting destructor'
  00000		 |$LN6@scalar@2|
  00000	e92d4030	 stmdb       sp!, {r4, r5, lr}
  00004		 |$M36401|
  00004	e1a04001	 mov         r4, r1
  00008	e1a05000	 mov         r5, r0
  0000c	eb000000	 bl          |??1ContextManager@pvrengine@@UAA@XZ|
  00010	e3140001	 tst         r4, #1
  00014	11a00005	 movne       r0, r5
  00018	1b000000	 blne        |??3@YAXPAX@Z|
  0001c	e1a00005	 mov         r0, r5
  00020	e8bd4030	 ldmia       sp!, {r4, r5, lr}
  00024	e12fff1e	 bx          lr
  00028		 |$M36402|

			 ENDP  ; |??_GContextManager@pvrengine@@UAAPAXI@Z|, pvrengine::ContextManager::`scalar deleting destructor'

	EXPORT	|??__Fobject@?1??inst@?$CPVRTSingleton@VContextManager@pvrengine@@@@SAAAVContextManager@pvrengine@@XZ@YAXXZ| ; `CPVRTSingleton<pvrengine::ContextManager>::inst'::`2'::`dynamic atexit destructor for 'object''
	EXPORT	|??_B?1??inst@?$CPVRTSingleton@VContextManager@pvrengine@@@@SAAAVContextManager@pvrengine@@XZ@51| [ DATA ] ; `CPVRTSingleton<pvrengine::ContextManager>::inst'::`2'::`local static guard'
	EXPORT	|?inst@?$CPVRTSingleton@VContextManager@pvrengine@@@@SAAAVContextManager@pvrengine@@XZ| ; CPVRTSingleton<pvrengine::ContextManager>::inst
	EXPORT	|?object@?1??inst@?$CPVRTSingleton@VContextManager@pvrengine@@@@SAAAVContextManager@pvrengine@@XZ@4V34@A| [ DATA ] ; `CPVRTSingleton<pvrengine::ContextManager>::inst'::`2'::object
	IMPORT	|atexit|
	IMPORT	|??0ContextManager@pvrengine@@QAA@XZ|	; pvrengine::ContextManager::ContextManager
; File c:\wince600\public\powervr-sdk\ogles2\tools\pvrtsingleton.h

  00000			 AREA	 |.bss|, NOINIT
|??_B?1??inst@?$CPVRTSingleton@VContextManager@pvrengine@@@@SAAAVContextManager@pvrengine@@XZ@51| % 0x4 ; `CPVRTSingleton<pvrengine::ContextManager>::inst'::`2'::`local static guard'

  00000			 AREA	 |.bss|, NOINIT
|?object@?1??inst@?$CPVRTSingleton@VContextManager@pvrengine@@@@SAAAVContextManager@pvrengine@@XZ@4V34@A| % 0x14 ; `CPVRTSingleton<pvrengine::ContextManager>::inst'::`2'::object

  00000			 AREA	 |.pdata|, PDATA
|$T36413| DCD	|$LN6@inst|
	DCD	0x40001101
; Function compile flags: /Ogspy

  00000			 AREA	 |.text|, CODE, ARM

  00000		 |?inst@?$CPVRTSingleton@VContextManager@pvrengine@@@@SAAAVContextManager@pvrengine@@XZ| PROC ; CPVRTSingleton<pvrengine::ContextManager>::inst

; 26   : 	{

  00000		 |$LN6@inst|
  00000	e52de004	 str         lr, [sp, #-4]!
  00004		 |$M36410|

; 27   : 		static T object;

  00004	e59f2034	 ldr         r2, [pc, #0x34]
  00008	e5923000	 ldr         r3, [r2]
  0000c	e3130001	 tst         r3, #1
  00010	1a000005	 bne         |$LN1@inst|
  00014	e59f001c	 ldr         r0, [pc, #0x1C]
  00018	e3833001	 orr         r3, r3, #1
  0001c	e5823000	 str         r3, [r2]
  00020	eb000000	 bl          |??0ContextManager@pvrengine@@QAA@XZ|
  00024	e59f0010	 ldr         r0, [pc, #0x10]
  00028	eb000000	 bl          atexit
  0002c		 |$LN1@inst|

; 28   : 		return object;
; 29   : 	}

  0002c	e59f0004	 ldr         r0, [pc, #4]
  00030	e49de004	 ldr         lr, [sp], #4
  00034	e12fff1e	 bx          lr
  00038		 |$LN7@inst|
  00038		 |$LN8@inst|
  00038	00000000	 DCD         |?object@?1??inst@?$CPVRTSingleton@VContextManager@pvrengine@@@@SAAAVContextManager@pvrengine@@XZ@4V34@A|
  0003c		 |$LN9@inst|
  0003c	00000000	 DCD         |??__Fobject@?1??inst@?$CPVRTSingleton@VContextManager@pvrengine@@@@SAAAVContextManager@pvrengine@@XZ@YAXXZ|
  00040		 |$LN10@inst|
  00040	00000000	 DCD         |??_B?1??inst@?$CPVRTSingleton@VContextManager@pvrengine@@@@SAAAVContextManager@pvrengine@@XZ@51|
  00044		 |$M36411|

			 ENDP  ; |?inst@?$CPVRTSingleton@VContextManager@pvrengine@@@@SAAAVContextManager@pvrengine@@XZ|, CPVRTSingleton<pvrengine::ContextManager>::inst

	EXPORT	|?InitPrint3D@PVRESettings@pvrengine@@QAA_NAAVCPVRTPrint3D@@II_N@Z| ; pvrengine::PVRESettings::InitPrint3D
	IMPORT	|?SetTextures@CPVRTPrint3D@@QAA?AW4EPVRTError@@QBUSPVRTContext@@II_N@Z| ; CPVRTPrint3D::SetTextures
	IMPORT	|?getCurrentContext@ContextManager@pvrengine@@QAAPAUSPVRTContext@@XZ| ; pvrengine::ContextManager::getCurrentContext
; File c:\wince600\public\powervr-sdk\ogles2\extras\pvrengine\pvresettingsbase.cpp

  00000			 AREA	 |.pdata|, PDATA
|$T36431| DCD	|$LN7@InitPrint3|
	DCD	0x40001502
; Function compile flags: /Ogspy

  00000			 AREA	 |.text|, CODE, ARM

  00000		 |?InitPrint3D@PVRESettings@pvrengine@@QAA_NAAVCPVRTPrint3D@@II_N@Z| PROC ; pvrengine::PVRESettings::InitPrint3D

; 40   : 	{

  00000		 |$LN7@InitPrint3|
  00000	e92d4070	 stmdb       sp!, {r4 - r6, lr}
  00004	e24dd004	 sub         sp, sp, #4
  00008		 |$M36428|
  00008	e1a04003	 mov         r4, r3
  0000c	e1a05002	 mov         r5, r2
  00010	e1a06001	 mov         r6, r1

; 41   : 		return print3d.SetTextures(ContextManager::inst().getCurrentContext(),u32Width,u32Height,bRotate) == PVR_SUCCESS;

  00014	eb000000	 bl          |?inst@?$CPVRTSingleton@VContextManager@pvrengine@@@@SAAAVContextManager@pvrengine@@XZ|
  00018	eb000000	 bl          |?getCurrentContext@ContextManager@pvrengine@@QAAPAUSPVRTContext@@XZ|
  0001c	e5dde014	 ldrb        lr, [sp, #0x14]
  00020	e1a01000	 mov         r1, r0
  00024	e1a03004	 mov         r3, r4
  00028	e1a02005	 mov         r2, r5
  0002c	e1a00006	 mov         r0, r6
  00030	e58de000	 str         lr, [sp]
  00034	eb000000	 bl          |?SetTextures@CPVRTPrint3D@@QAA?AW4EPVRTError@@QBUSPVRTContext@@II_N@Z|
  00038	e3500000	 cmp         r0, #0
  0003c	03a03001	 moveq       r3, #1
  00040	13a03000	 movne       r3, #0
  00044	e20300ff	 and         r0, r3, #0xFF

; 42   : 	}

  00048	e28dd004	 add         sp, sp, #4
  0004c	e8bd4070	 ldmia       sp!, {r4 - r6, lr}
  00050	e12fff1e	 bx          lr
  00054		 |$M36429|

			 ENDP  ; |?InitPrint3D@PVRESettings@pvrengine@@QAA_NAAVCPVRTPrint3D@@II_N@Z|, pvrengine::PVRESettings::InitPrint3D


  00000			 AREA	 |.pdata|, PDATA
|$T36438| DCD	|$LN5@dynamic|
	DCD	0x40000601
; Function compile flags: /Ogspy

  00000			 AREA	 |.text$yd|, CODE, ARM

  00000		 |??__Fobject@?1??inst@?$CPVRTSingleton@VContextManager@pvrengine@@@@SAAAVContextManager@pvrengine@@XZ@YAXXZ| PROC ; `CPVRTSingleton<pvrengine::ContextManager>::inst'::`2'::`dynamic atexit destructor for 'object''
  00000		 |$LN5@dynamic|
  00000	e52de004	 str         lr, [sp, #-4]!
  00004		 |$M36435|
  00004	e59f0008	 ldr         r0, [pc, #8]
  00008	eb000000	 bl          |??1ContextManager@pvrengine@@UAA@XZ|
  0000c	e49de004	 ldr         lr, [sp], #4
  00010	e12fff1e	 bx          lr
  00014		 |$LN6@dynamic|
  00014		 |$LN7@dynamic|
  00014	00000000	 DCD         |?object@?1??inst@?$CPVRTSingleton@VContextManager@pvrengine@@@@SAAAVContextManager@pvrengine@@XZ@4V34@A|
  00018		 |$M36436|

			 ENDP  ; |??__Fobject@?1??inst@?$CPVRTSingleton@VContextManager@pvrengine@@@@SAAAVContextManager@pvrengine@@XZ@YAXXZ|, `CPVRTSingleton<pvrengine::ContextManager>::inst'::`2'::`dynamic atexit destructor for 'object''

	END
