; Listing generated by Microsoft (R) Optimizing Compiler Version 14.01.60511.01 

	TTL	C:\WINCE600\PUBLIC\PowerVR-SDK\OGLES2\Shell\PVRShell.cpp
	CODE32

  00000			 AREA	 |.drectve|, DRECTVE
	DCB	"-defaultlib:LIBCMT "
	DCB	"-defaultlib:OLDNAMES "

	EXPORT	|?strrchr@@YAPADPADH@Z|			; strrchr
	IMPORT	|strrchr|
; File c:\wince600\osdesigns\combined_3530\evm_3530\wince600\evm_omap3530_armv4i\cesysgen\sdk\inc\stdlib.h

  00000			 AREA	 |.pdata|, PDATA
|$T33608| DCD	|$LN5@strrchr|
	DCD	0x40000401
; Function compile flags: /Ogspy

  00000			 AREA	 |.text|, CODE, ARM

  00000		 |?strrchr@@YAPADPADH@Z| PROC		; strrchr

; 250  :     { return (char*)strrchr((const char*)_Str, _Ch); }

  00000		 |$LN5@strrchr|
  00000	e52de004	 str         lr, [sp, #-4]!
  00004		 |$M33605|
  00004	eb000000	 bl          strrchr
  00008	e49de004	 ldr         lr, [sp], #4
  0000c	e12fff1e	 bx          lr
  00010		 |$M33606|

			 ENDP  ; |?strrchr@@YAPADPADH@Z|, strrchr

	EXPORT	|??0PVRShell@@QAA@XZ|			; PVRShell::PVRShell
	EXPORT	|??_7PVRShell@@6B@| [ DATA ]		; PVRShell::`vftable'
	EXPORT	|?InitApplication@PVRShell@@UAA_NXZ|	; PVRShell::InitApplication
	EXPORT	|?QuitApplication@PVRShell@@UAA_NXZ|	; PVRShell::QuitApplication
	EXPORT	|?InitView@PVRShell@@UAA_NXZ|		; PVRShell::InitView
	EXPORT	|?ReleaseView@PVRShell@@UAA_NXZ|	; PVRShell::ReleaseView
	EXPORT	|?RenderScene@PVRShell@@UAA_NXZ|	; PVRShell::RenderScene
	IMPORT	|??2@YAPAXI@Z|				; operator new
	IMPORT	|??_EPVRShell@@UAAPAXI@Z|, WEAK |??_GPVRShell@@UAAPAXI@Z| ; PVRShell::`vector deleting destructor', PVRShell::`scalar deleting destructor'
; File c:\wince600\public\powervr-sdk\ogles2\shell\pvrshell.cpp

  00000			 AREA	 |.pdata|, PDATA
|$T33619| DCD	|$LN5@PVRShell|
	DCD	0x40004001

  00000			 AREA	 |.rdata|, DATA, READONLY
|??_7PVRShell@@6B@| DCD |??_EPVRShell@@UAAPAXI@Z|	; PVRShell::`vftable'
	DCD	|?InitApplication@PVRShell@@UAA_NXZ|
	DCD	|?QuitApplication@PVRShell@@UAA_NXZ|
	DCD	|?InitView@PVRShell@@UAA_NXZ|
	DCD	|?ReleaseView@PVRShell@@UAA_NXZ|
	DCD	|?RenderScene@PVRShell@@UAA_NXZ|
; Function compile flags: /Ogspy

  00000			 AREA	 |.text|, CODE, ARM

  00000		 |??0PVRShell@@QAA@XZ| PROC		; PVRShell::PVRShell

; 68   : {

  00000		 |$LN5@PVRShell|
  00000	e92d4030	 stmdb       sp!, {r4, r5, lr}
  00004		 |$M33616|
  00004	e1a04000	 mov         r4, r0
  00008	e59f30ec	 ldr         r3, [pc, #0xEC]

; 69   : 	m_pShellInit = NULL;

  0000c	e3a05000	 mov         r5, #0

; 70   : 	m_pShellData = new PVRShellData;

  00010	e3a00044	 mov         r0, #0x44
  00014	e5843000	 str         r3, [r4]
  00018	e5845008	 str         r5, [r4, #8]
  0001c	eb000000	 bl          |??2@YAPAXI@Z|
  00020	e5840004	 str         r0, [r4, #4]

; 71   : 
; 72   : 	m_pShellData->nShellPosX=0;

  00024	e5805010	 str         r5, [r0, #0x10]

; 73   : 	m_pShellData->nShellPosY=0;

  00028	e5943004	 ldr         r3, [r4, #4]

; 74   : 
; 75   : 	m_pShellData->bFullScreen=false;	// note this may be overriden by some OS versions of PVRShell
; 76   : 
; 77   : 	m_pShellData->nFSAAMode=0;
; 78   : 
; 79   : 	m_pShellData->nDieAfterFrames=PVRSHELL_QUIT_AFTER_FRAME;

  0002c	e3e01000	 mvn         r1, #0
  00030	e3e02080	 mvn         r2, #0x80
  00034	e5835014	 str         r5, [r3, #0x14]
  00038	e5943004	 ldr         r3, [r4, #4]

; 80   : 	m_pShellData->fDieAfterTime=PVRSHELL_QUIT_AFTER_TIME;

  0003c	e1a02b82	 mov         r2, r2, lsl #23

; 81   : 
; 82   : 	m_pShellData->bNeedPbuffer = false;
; 83   : 	m_pShellData->bNeedPixmap = false;
; 84   : 	m_pShellData->bNeedPixmapDisableCopy = false;
; 85   : 	m_pShellData->bNeedZbuffer = true;

  00040	e3a0e001	 mov         lr, #1
  00044	e5c35018	 strb        r5, [r3, #0x18]
  00048	e5943004	 ldr         r3, [r4, #4]

; 86   : 	m_pShellData->bLockableBackBuffer = false;
; 87   : 	m_pShellData->bSoftwareRender = false;
; 88   : 	m_pShellData->bNeedStencilBuffer = false;
; 89   : 	m_pShellData->bNeedOpenVG = false;
; 90   : 	m_pShellData->bNeedAlphaFormatPre = false;
; 91   : 	m_pShellData->bUsingPowerSaving = true;
; 92   : 	m_pShellData->bOutputInfo = false;
; 93   : 
; 94   : 	m_pShellData->pszAppName = 0;
; 95   : 	m_pShellData->pszExitMessage = 0;
; 96   : 
; 97   : 	m_pShellData->nSwapInterval = PVRSHELL_SWAP_INTERVAL;
; 98   : 	m_pShellData->nInitRepeats = 0;
; 99   : 
; 100  : 	// Internal Data
; 101  : 	m_pShellData->bShellPosWasDefault = true;
; 102  : 	m_pShellData->nShellCurFrameNum = 0;
; 103  : #ifdef PVRSHELL_FPS_OUTPUT
; 104  : 	m_pShellData->bOutputFPS = PVRSHELL_FPS_DEFAULT_OUTPUT;
; 105  : #endif
; 106  : }

  0004c	e1a00004	 mov         r0, r4
  00050	e5835034	 str         r5, [r3, #0x34]
  00054	e5943004	 ldr         r3, [r4, #4]
  00058	e583102c	 str         r1, [r3, #0x2C]
  0005c	e5943004	 ldr         r3, [r4, #4]
  00060	e5832030	 str         r2, [r3, #0x30]
  00064	e5943004	 ldr         r3, [r4, #4]
  00068	e5c35019	 strb        r5, [r3, #0x19]
  0006c	e5943004	 ldr         r3, [r4, #4]
  00070	e5c3501c	 strb        r5, [r3, #0x1C]
  00074	e5943004	 ldr         r3, [r4, #4]
  00078	e5c3501d	 strb        r5, [r3, #0x1D]
  0007c	e5943004	 ldr         r3, [r4, #4]
  00080	e5c3e01a	 strb        lr, [r3, #0x1A]
  00084	e5943004	 ldr         r3, [r4, #4]
  00088	e5c3501e	 strb        r5, [r3, #0x1E]
  0008c	e5943004	 ldr         r3, [r4, #4]
  00090	e5c3501f	 strb        r5, [r3, #0x1F]
  00094	e5943004	 ldr         r3, [r4, #4]
  00098	e5c3501b	 strb        r5, [r3, #0x1B]
  0009c	e5943004	 ldr         r3, [r4, #4]
  000a0	e5c35020	 strb        r5, [r3, #0x20]
  000a4	e5943004	 ldr         r3, [r4, #4]
  000a8	e5c35021	 strb        r5, [r3, #0x21]
  000ac	e5943004	 ldr         r3, [r4, #4]
  000b0	e5c3e022	 strb        lr, [r3, #0x22]
  000b4	e5943004	 ldr         r3, [r4, #4]
  000b8	e5c35023	 strb        r5, [r3, #0x23]
  000bc	e5943004	 ldr         r3, [r4, #4]
  000c0	e5835000	 str         r5, [r3]
  000c4	e5943004	 ldr         r3, [r4, #4]
  000c8	e5835004	 str         r5, [r3, #4]
  000cc	e5943004	 ldr         r3, [r4, #4]
  000d0	e5835024	 str         r5, [r3, #0x24]
  000d4	e5943004	 ldr         r3, [r4, #4]
  000d8	e5835028	 str         r5, [r3, #0x28]
  000dc	e5943004	 ldr         r3, [r4, #4]
  000e0	e5c3e038	 strb        lr, [r3, #0x38]
  000e4	e5943004	 ldr         r3, [r4, #4]
  000e8	e583503c	 str         r5, [r3, #0x3C]
  000ec	e5943004	 ldr         r3, [r4, #4]
  000f0	e5c3e040	 strb        lr, [r3, #0x40]
  000f4	e8bd4030	 ldmia       sp!, {r4, r5, lr}
  000f8	e12fff1e	 bx          lr
  000fc		 |$LN6@PVRShell|
  000fc		 |$LN7@PVRShell|
  000fc	00000000	 DCD         |??_7PVRShell@@6B@|
  00100		 |$M33617|

			 ENDP  ; |??0PVRShell@@QAA@XZ|, PVRShell::PVRShell

; File c:\wince600\public\powervr-sdk\ogles2\shell\pvrshell.h

  00000			 AREA	 |.pdata|, PDATA
|$T33630| DCD	|$LN5@InitApplic|
	DCD	0x40000200
; Function compile flags: /Ogspy

  00000			 AREA	 |.text|, CODE, ARM

  00000		 |?InitApplication@PVRShell@@UAA_NXZ| PROC ; PVRShell::InitApplication

; 200  : 	virtual bool InitApplication() { return true; };

  00000		 |$LN5@InitApplic|
  00000		 |$M33627|
  00000	e3a00001	 mov         r0, #1
  00004	e12fff1e	 bx          lr
  00008		 |$M33628|

			 ENDP  ; |?InitApplication@PVRShell@@UAA_NXZ|, PVRShell::InitApplication


  00000			 AREA	 |.pdata|, PDATA
|$T33639| DCD	|$LN5@QuitApplic|
	DCD	0x40000200
; Function compile flags: /Ogspy

  00000			 AREA	 |.text|, CODE, ARM

  00000		 |?QuitApplication@PVRShell@@UAA_NXZ| PROC ; PVRShell::QuitApplication

; 210  : 	virtual bool QuitApplication() { return true; };

  00000		 |$LN5@QuitApplic|
  00000		 |$M33636|
  00000	e3a00001	 mov         r0, #1
  00004	e12fff1e	 bx          lr
  00008		 |$M33637|

			 ENDP  ; |?QuitApplication@PVRShell@@UAA_NXZ|, PVRShell::QuitApplication


  00000			 AREA	 |.pdata|, PDATA
|$T33648| DCD	|$LN5@InitView|
	DCD	0x40000200
; Function compile flags: /Ogspy

  00000			 AREA	 |.text|, CODE, ARM

  00000		 |?InitView@PVRShell@@UAA_NXZ| PROC	; PVRShell::InitView

; 229  : 	virtual bool InitView() { return true; };

  00000		 |$LN5@InitView|
  00000		 |$M33645|
  00000	e3a00001	 mov         r0, #1
  00004	e12fff1e	 bx          lr
  00008		 |$M33646|

			 ENDP  ; |?InitView@PVRShell@@UAA_NXZ|, PVRShell::InitView


  00000			 AREA	 |.pdata|, PDATA
|$T33657| DCD	|$LN5@ReleaseVie|
	DCD	0x40000200
; Function compile flags: /Ogspy

  00000			 AREA	 |.text|, CODE, ARM

  00000		 |?ReleaseView@PVRShell@@UAA_NXZ| PROC	; PVRShell::ReleaseView

; 239  : 	virtual bool ReleaseView() {  return true; };

  00000		 |$LN5@ReleaseVie|
  00000		 |$M33654|
  00000	e3a00001	 mov         r0, #1
  00004	e12fff1e	 bx          lr
  00008		 |$M33655|

			 ENDP  ; |?ReleaseView@PVRShell@@UAA_NXZ|, PVRShell::ReleaseView


  00000			 AREA	 |.pdata|, PDATA
|$T33666| DCD	|$LN5@RenderScen|
	DCD	0x40000200
; Function compile flags: /Ogspy

  00000			 AREA	 |.text|, CODE, ARM

  00000		 |?RenderScene@PVRShell@@UAA_NXZ| PROC	; PVRShell::RenderScene

; 248  : 	virtual bool RenderScene() { return true; };

  00000		 |$LN5@RenderScen|
  00000		 |$M33663|
  00000	e3a00001	 mov         r0, #1
  00004	e12fff1e	 bx          lr
  00008		 |$M33664|

			 ENDP  ; |?RenderScene@PVRShell@@UAA_NXZ|, PVRShell::RenderScene

	EXPORT	|??1PVRShell@@UAA@XZ|			; PVRShell::~PVRShell
	IMPORT	|??3@YAXPAX@Z|				; operator delete
; File c:\wince600\public\powervr-sdk\ogles2\shell\pvrshell.cpp

  00000			 AREA	 |.pdata|, PDATA
|$T33675| DCD	|$LN5@PVRShell@2|
	DCD	0x40000b01
; Function compile flags: /Ogspy

  00000			 AREA	 |.text|, CODE, ARM

  00000		 |??1PVRShell@@UAA@XZ| PROC		; PVRShell::~PVRShell

; 113  : {

  00000		 |$LN5@PVRShell@2|
  00000	e92d4010	 stmdb       sp!, {r4, lr}
  00004		 |$M33672|
  00004	e1a04000	 mov         r4, r0
  00008	e59f3018	 ldr         r3, [pc, #0x18]

; 114  : 	delete m_pShellData;

  0000c	e5940004	 ldr         r0, [r4, #4]
  00010	e5843000	 str         r3, [r4]
  00014	eb000000	 bl          |??3@YAXPAX@Z|

; 115  : 	m_pShellData = NULL;

  00018	e3a03000	 mov         r3, #0
  0001c	e5843004	 str         r3, [r4, #4]

; 116  : }

  00020	e8bd4010	 ldmia       sp!, {r4, lr}
  00024	e12fff1e	 bx          lr
  00028		 |$LN6@PVRShell@2|
  00028		 |$LN7@PVRShell@2|
  00028	00000000	 DCD         |??_7PVRShell@@6B@|
  0002c		 |$M33673|

			 ENDP  ; |??1PVRShell@@UAA@XZ|, PVRShell::~PVRShell

	EXPORT	|?PVRShellSet@PVRShell@@QAA_NW4prefNameBoolEnum@@_N@Z| ; PVRShell::PVRShellSet

  00000			 AREA	 |.pdata|, PDATA
|$T33705| DCD	|$LN37@PVRShellSe|
	DCD	0x40003f00
; Function compile flags: /Ogspy

  00000			 AREA	 |.text|, CODE, ARM

  00000		 |?PVRShellSet@PVRShell@@QAA_NW4prefNameBoolEnum@@_N@Z| PROC ; PVRShell::PVRShellSet

; 129  : {

  00000		 |$LN37@PVRShellSe|
  00000		 |$M33702|

; 130  : 	switch(prefName)

  00000	e351000d	 cmp         r1, #0xD
  00004	8a00003a	 bhi         |$LN1@PVRShellSe|
  00008	e28f3004	 add         r3, pc, #4
  0000c	e7d33001	 ldrb        r3, [r3, +r1]
  00010	e08ff003	 add         pc, pc, r3
  00014		 |$LN20@PVRShellSe|
  00014		 |$LN19@PVRShellSe|
  00014		 |$LN21@PVRShellSe|
  00014	0ced		 DCB         0xc
  00015		 |$LN22@PVRShellSe|
  00015	dced		 DCB         0xdc
  00016		 |$LN23@PVRShellSe|
  00016	1ced		 DCB         0x1c
  00017		 |$LN24@PVRShellSe|
  00017	2ced		 DCB         0x2c
  00018		 |$LN25@PVRShellSe|
  00018	3ced		 DCB         0x3c
  00019		 |$LN26@PVRShellSe|
  00019	4ced		 DCB         0x4c
  0001a		 |$LN27@PVRShellSe|
  0001a	5ced		 DCB         0x5c
  0001b		 |$LN28@PVRShellSe|
  0001b	6ced		 DCB         0x6c
  0001c		 |$LN29@PVRShellSe|
  0001c	7ced		 DCB         0x7c
  0001d		 |$LN30@PVRShellSe|
  0001d	8ced		 DCB         0x8c
  0001e		 |$LN31@PVRShellSe|
  0001e	9ced		 DCB         0x9c
  0001f		 |$LN32@PVRShellSe|
  0001f	aced		 DCB         0xac
  00020		 |$LN33@PVRShellSe|
  00020	cced		 DCB         0xcc
  00021		 |$LN34@PVRShellSe|
  00021	bced		 DCB         0xbc
  00022		 |$LN38@PVRShellSe|

; 189  : }

  00022	bced		 DCB         0xbc
  00023		 |$LN39@PVRShellSe|
  00023	bced		 DCB         0xbc
  00024		 |$LN14@PVRShellSe|

; 131  : 	{
; 132  : 		case prefFullScreen:
; 133  : 			m_pShellData->bFullScreen = value;

  00024	e5903004	 ldr         r3, [r0, #4]

; 134  : 			return true;

  00028	e3a00001	 mov         r0, #1
  0002c	e5c32018	 strb        r2, [r3, #0x18]

; 189  : }

  00030	e12fff1e	 bx          lr
  00034		 |$LN13@PVRShellSe|

; 135  : 
; 136  : 		case prefPBufferContext:
; 137  : 			m_pShellData->bNeedPbuffer = value;

  00034	e5903004	 ldr         r3, [r0, #4]

; 138  : 			return true;

  00038	e3a00001	 mov         r0, #1
  0003c	e5c32019	 strb        r2, [r3, #0x19]

; 189  : }

  00040	e12fff1e	 bx          lr
  00044		 |$LN12@PVRShellSe|

; 139  : 
; 140  : 		case prefPixmapContext:
; 141  : 			m_pShellData->bNeedPixmap = value;

  00044	e5903004	 ldr         r3, [r0, #4]

; 142  : 			return true;

  00048	e3a00001	 mov         r0, #1
  0004c	e5c3201c	 strb        r2, [r3, #0x1C]

; 189  : }

  00050	e12fff1e	 bx          lr
  00054		 |$LN11@PVRShellSe|

; 143  : 
; 144  : 		case prefPixmapDisableCopy:
; 145  : 			m_pShellData->bNeedPixmapDisableCopy = value;

  00054	e5903004	 ldr         r3, [r0, #4]

; 146  : 			return true;

  00058	e3a00001	 mov         r0, #1
  0005c	e5c3201d	 strb        r2, [r3, #0x1D]

; 189  : }

  00060	e12fff1e	 bx          lr
  00064		 |$LN10@PVRShellSe|

; 147  : 
; 148  : 		case prefZbufferContext:
; 149  : 			m_pShellData->bNeedZbuffer = value;

  00064	e5903004	 ldr         r3, [r0, #4]

; 150  : 			return true;

  00068	e3a00001	 mov         r0, #1
  0006c	e5c3201a	 strb        r2, [r3, #0x1A]

; 189  : }

  00070	e12fff1e	 bx          lr
  00074		 |$LN9@PVRShellSe|

; 151  : 
; 152  : 		case prefLockableBackBuffer:
; 153  : 			m_pShellData->bLockableBackBuffer = value;

  00074	e5903004	 ldr         r3, [r0, #4]

; 154  : 			return true;

  00078	e3a00001	 mov         r0, #1
  0007c	e5c3201e	 strb        r2, [r3, #0x1E]

; 189  : }

  00080	e12fff1e	 bx          lr
  00084		 |$LN8@PVRShellSe|

; 155  : 
; 156  : 		case prefSoftwareRendering:
; 157  : 			m_pShellData->bSoftwareRender = value;

  00084	e5903004	 ldr         r3, [r0, #4]

; 158  : 			return true;

  00088	e3a00001	 mov         r0, #1
  0008c	e5c3201f	 strb        r2, [r3, #0x1F]

; 189  : }

  00090	e12fff1e	 bx          lr
  00094		 |$LN7@PVRShellSe|

; 159  : 
; 160  : 		case prefStencilBufferContext:
; 161  : 			m_pShellData->bNeedStencilBuffer = value;

  00094	e5903004	 ldr         r3, [r0, #4]

; 162  : 			return true;

  00098	e3a00001	 mov         r0, #1
  0009c	e5c3201b	 strb        r2, [r3, #0x1B]

; 189  : }

  000a0	e12fff1e	 bx          lr
  000a4		 |$LN6@PVRShellSe|

; 163  : 
; 164  : 		case prefOpenVGContext:
; 165  : 			m_pShellData->bNeedOpenVG = value;

  000a4	e5903004	 ldr         r3, [r0, #4]

; 166  : 			return true;

  000a8	e3a00001	 mov         r0, #1
  000ac	e5c32020	 strb        r2, [r3, #0x20]

; 189  : }

  000b0	e12fff1e	 bx          lr
  000b4		 |$LN5@PVRShellSe|

; 167  : 
; 168  : 		case prefAlphaFormatPre:
; 169  : 			m_pShellData->bNeedAlphaFormatPre = value;

  000b4	e5903004	 ldr         r3, [r0, #4]

; 170  : 			return true;

  000b8	e3a00001	 mov         r0, #1
  000bc	e5c32021	 strb        r2, [r3, #0x21]

; 189  : }

  000c0	e12fff1e	 bx          lr
  000c4		 |$LN4@PVRShellSe|

; 171  : 
; 172  : 		case prefPowerSaving:
; 173  : 			m_pShellData->bUsingPowerSaving = value;

  000c4	e5903004	 ldr         r3, [r0, #4]

; 174  : 			return true;

  000c8	e3a00001	 mov         r0, #1
  000cc	e5c32022	 strb        r2, [r3, #0x22]

; 189  : }

  000d0	e12fff1e	 bx          lr
  000d4		 |$LN3@PVRShellSe|

; 175  : 
; 176  : 		case prefOutputInfo:
; 177  : 			m_pShellData->bOutputInfo = value;

  000d4	e5903004	 ldr         r3, [r0, #4]

; 178  : 			return true;

  000d8	e3a00001	 mov         r0, #1
  000dc	e5c32023	 strb        r2, [r3, #0x23]

; 189  : }

  000e0	e12fff1e	 bx          lr
  000e4		 |$LN2@PVRShellSe|

; 179  : 
; 180  : #ifdef PVRSHELL_FPS_OUTPUT
; 181  : 		case prefOutputFPS:
; 182  : 			m_pShellData->bOutputFPS = value;

  000e4	e5903004	 ldr         r3, [r0, #4]

; 183  : 			return true;

  000e8	e3a00001	 mov         r0, #1
  000ec	e5c32040	 strb        r2, [r3, #0x40]

; 189  : }

  000f0	e12fff1e	 bx          lr
  000f4		 |$LN1@PVRShellSe|

; 184  : #endif
; 185  : 		default:
; 186  : 			break;
; 187  : 	}
; 188  : 	return false;

  000f4	e3a00000	 mov         r0, #0

; 189  : }

  000f8	e12fff1e	 bx          lr
  000fc		 |$M33703|

			 ENDP  ; |?PVRShellSet@PVRShell@@QAA_NW4prefNameBoolEnum@@_N@Z|, PVRShell::PVRShellSet

	EXPORT	|?PVRShellGet@PVRShell@@QBA_NW4prefNameBoolEnum@@@Z| ; PVRShell::PVRShellGet

  00000			 AREA	 |.pdata|, PDATA
|$T33736| DCD	|$LN40@PVRShellGe|
	DCD	0x40003b00
; Function compile flags: /Ogspy

  00000			 AREA	 |.text|, CODE, ARM

  00000		 |?PVRShellGet@PVRShell@@QBA_NW4prefNameBoolEnum@@@Z| PROC ; PVRShell::PVRShellGet

; 199  : {

  00000		 |$LN40@PVRShellGe|
  00000		 |$M33733|

; 200  : 	switch(prefName)

  00000	e351000d	 cmp         r1, #0xD
  00004	8a000036	 bhi         |$LN1@PVRShellGe|
  00008	e28f3004	 add         r3, pc, #4
  0000c	e7d33001	 ldrb        r3, [r3, +r1]
  00010	e08ff003	 add         pc, pc, r3
  00014		 |$LN23@PVRShellGe|
  00014		 |$LN22@PVRShellGe|
  00014		 |$LN24@PVRShellGe|
  00014	0ced		 DCB         0xc
  00015		 |$LN25@PVRShellGe|
  00015	18ed		 DCB         0x18
  00016		 |$LN26@PVRShellGe|
  00016	3ced		 DCB         0x3c
  00017		 |$LN27@PVRShellGe|
  00017	48ed		 DCB         0x48
  00018		 |$LN28@PVRShellGe|
  00018	54ed		 DCB         0x54
  00019		 |$LN29@PVRShellGe|
  00019	60ed		 DCB         0x60
  0001a		 |$LN30@PVRShellGe|
  0001a	6ced		 DCB         0x6c
  0001b		 |$LN31@PVRShellGe|
  0001b	78ed		 DCB         0x78
  0001c		 |$LN32@PVRShellGe|
  0001c	84ed		 DCB         0x84
  0001d		 |$LN33@PVRShellGe|
  0001d	90ed		 DCB         0x90
  0001e		 |$LN34@PVRShellGe|
  0001e	9ced		 DCB         0x9c
  0001f		 |$LN35@PVRShellGe|
  0001f	a8ed		 DCB         0xa8
  00020		 |$LN36@PVRShellGe|
  00020	c0ed		 DCB         0xc0
  00021		 |$LN37@PVRShellGe|
  00021	b4ed		 DCB         0xb4
  00022		 |$LN41@PVRShellGe|

; 219  : 	}
; 220  : }

  00022	b4ed		 DCB         0xb4
  00023		 |$LN42@PVRShellGe|
  00023	b4ed		 DCB         0xb4
  00024		 |$LN15@PVRShellGe|

; 201  : 	{
; 202  : 		case prefFullScreen:	return m_pShellData->bFullScreen;

  00024	e5903004	 ldr         r3, [r0, #4]
  00028	e5d30018	 ldrb        r0, [r3, #0x18]

; 219  : 	}
; 220  : }

  0002c	e12fff1e	 bx          lr
  00030		 |$LN14@PVRShellGe|

; 203  : 		case prefIsRotated:	return (m_pShellData->nShellDimY > m_pShellData->nShellDimX);

  00030	e5903004	 ldr         r3, [r0, #4]
  00034	e593200c	 ldr         r2, [r3, #0xC]
  00038	e5933008	 ldr         r3, [r3, #8]
  0003c	e1520003	 cmp         r2, r3
  00040	c3a03001	 movgt       r3, #1
  00044	c20300ff	 andgt       r0, r3, #0xFF
  00048	d3a03000	 movle       r3, #0
  0004c	d20300ff	 andle       r0, r3, #0xFF

; 219  : 	}
; 220  : }

  00050	e12fff1e	 bx          lr
  00054		 |$LN13@PVRShellGe|

; 204  : 		case prefPBufferContext:	return m_pShellData->bNeedPbuffer;

  00054	e5903004	 ldr         r3, [r0, #4]
  00058	e5d30019	 ldrb        r0, [r3, #0x19]

; 219  : 	}
; 220  : }

  0005c	e12fff1e	 bx          lr
  00060		 |$LN12@PVRShellGe|

; 205  : 		case prefPixmapContext:	return m_pShellData->bNeedPixmap;

  00060	e5903004	 ldr         r3, [r0, #4]
  00064	e5d3001c	 ldrb        r0, [r3, #0x1C]

; 219  : 	}
; 220  : }

  00068	e12fff1e	 bx          lr
  0006c		 |$LN11@PVRShellGe|

; 206  : 		case prefPixmapDisableCopy:	return m_pShellData->bNeedPixmapDisableCopy;

  0006c	e5903004	 ldr         r3, [r0, #4]
  00070	e5d3001d	 ldrb        r0, [r3, #0x1D]

; 219  : 	}
; 220  : }

  00074	e12fff1e	 bx          lr
  00078		 |$LN10@PVRShellGe|

; 207  : 		case prefZbufferContext:	return m_pShellData->bNeedZbuffer;

  00078	e5903004	 ldr         r3, [r0, #4]
  0007c	e5d3001a	 ldrb        r0, [r3, #0x1A]

; 219  : 	}
; 220  : }

  00080	e12fff1e	 bx          lr
  00084		 |$LN9@PVRShellGe|

; 208  : 		case prefLockableBackBuffer:	return m_pShellData->bLockableBackBuffer;

  00084	e5903004	 ldr         r3, [r0, #4]
  00088	e5d3001e	 ldrb        r0, [r3, #0x1E]

; 219  : 	}
; 220  : }

  0008c	e12fff1e	 bx          lr
  00090		 |$LN8@PVRShellGe|

; 209  : 		case prefSoftwareRendering:	return m_pShellData->bSoftwareRender;

  00090	e5903004	 ldr         r3, [r0, #4]
  00094	e5d3001f	 ldrb        r0, [r3, #0x1F]

; 219  : 	}
; 220  : }

  00098	e12fff1e	 bx          lr
  0009c		 |$LN7@PVRShellGe|

; 210  : 		case prefStencilBufferContext:	return m_pShellData->bNeedStencilBuffer;

  0009c	e5903004	 ldr         r3, [r0, #4]
  000a0	e5d3001b	 ldrb        r0, [r3, #0x1B]

; 219  : 	}
; 220  : }

  000a4	e12fff1e	 bx          lr
  000a8		 |$LN6@PVRShellGe|

; 211  : 		case prefOpenVGContext:	return m_pShellData->bNeedOpenVG;

  000a8	e5903004	 ldr         r3, [r0, #4]
  000ac	e5d30020	 ldrb        r0, [r3, #0x20]

; 219  : 	}
; 220  : }

  000b0	e12fff1e	 bx          lr
  000b4		 |$LN5@PVRShellGe|

; 212  : 		case prefAlphaFormatPre: return m_pShellData->bNeedAlphaFormatPre;

  000b4	e5903004	 ldr         r3, [r0, #4]
  000b8	e5d30021	 ldrb        r0, [r3, #0x21]

; 219  : 	}
; 220  : }

  000bc	e12fff1e	 bx          lr
  000c0		 |$LN4@PVRShellGe|

; 213  : 		case prefPowerSaving: return m_pShellData->bUsingPowerSaving;

  000c0	e5903004	 ldr         r3, [r0, #4]
  000c4	e5d30022	 ldrb        r0, [r3, #0x22]

; 219  : 	}
; 220  : }

  000c8	e12fff1e	 bx          lr
  000cc		 |$LN3@PVRShellGe|

; 214  : 		case prefOutputInfo:	return m_pShellData->bOutputInfo;

  000cc	e5903004	 ldr         r3, [r0, #4]
  000d0	e5d30023	 ldrb        r0, [r3, #0x23]

; 219  : 	}
; 220  : }

  000d4	e12fff1e	 bx          lr
  000d8		 |$LN2@PVRShellGe|

; 215  : #ifdef PVRSHELL_FPS_OUTPUT
; 216  : 		case prefOutputFPS: return m_pShellData->bOutputFPS;

  000d8	e5903004	 ldr         r3, [r0, #4]
  000dc	e5d30040	 ldrb        r0, [r3, #0x40]

; 219  : 	}
; 220  : }

  000e0	e12fff1e	 bx          lr
  000e4		 |$LN1@PVRShellGe|

; 217  : #endif
; 218  : 		default:	return false;

  000e4	e3a00000	 mov         r0, #0

; 219  : 	}
; 220  : }

  000e8	e12fff1e	 bx          lr
  000ec		 |$M33734|

			 ENDP  ; |?PVRShellGet@PVRShell@@QBA_NW4prefNameBoolEnum@@@Z|, PVRShell::PVRShellGet

	EXPORT	|?PVRShellSet@PVRShell@@QAA_NW4prefNameFloatEnum@@M@Z| ; PVRShell::PVRShellSet

  00000			 AREA	 |.pdata|, PDATA
|$T33750| DCD	|$LN9@PVRShellSe@2|
	DCD	0x40000600
; Function compile flags: /Ogspy

  00000			 AREA	 |.text|, CODE, ARM

  00000		 |?PVRShellSet@PVRShell@@QAA_NW4prefNameFloatEnum@@M@Z| PROC ; PVRShell::PVRShellSet

; 231  : {

  00000		 |$LN9@PVRShellSe@2|
  00000		 |$M33747|
  00000	e3510000	 cmp         r1, #0

; 237  : 
; 238  : 		default:
; 239  : 			break;
; 240  : 	}
; 241  : 	return false;

  00004	13a00000	 movne       r0, #0

; 232  : 	switch(prefName)
; 233  : 	{
; 234  : 		case prefQuitAfterTime:
; 235  : 			m_pShellData->fDieAfterTime = value;

  00008	05903004	 ldreq       r3, [r0, #4]

; 236  : 			return true;

  0000c	03a00001	 moveq       r0, #1
  00010	05832030	 streq       r2, [r3, #0x30]

; 242  : }

  00014	e12fff1e	 bx          lr
  00018		 |$M33748|

			 ENDP  ; |?PVRShellSet@PVRShell@@QAA_NW4prefNameFloatEnum@@M@Z|, PVRShell::PVRShellSet

	EXPORT	|?PVRShellGet@PVRShell@@QBAMW4prefNameFloatEnum@@@Z| ; PVRShell::PVRShellGet

  00000			 AREA	 |.pdata|, PDATA
|$T33761| DCD	|$LN9@PVRShellGe@2|
	DCD	0x40000600
; Function compile flags: /Ogspy

  00000			 AREA	 |.text|, CODE, ARM

  00000		 |?PVRShellGet@PVRShell@@QBAMW4prefNameFloatEnum@@@Z| PROC ; PVRShell::PVRShellGet

; 252  : {

  00000		 |$LN9@PVRShellGe@2|
  00000		 |$M33758|
  00000	e3510000	 cmp         r1, #0

; 253  : 	switch(prefName)

  00004	13e03080	 mvnne       r3, #0x80

; 256  : 		default:	return -1;

  00008	11a00b83	 movne       r0, r3, lsl #23

; 254  : 	{
; 255  : 		case prefQuitAfterTime:	return m_pShellData->fDieAfterTime;

  0000c	05903004	 ldreq       r3, [r0, #4]
  00010	05930030	 ldreq       r0, [r3, #0x30]

; 257  : 	}
; 258  : }

  00014	e12fff1e	 bx          lr
  00018		 |$M33759|

			 ENDP  ; |?PVRShellGet@PVRShell@@QBAMW4prefNameFloatEnum@@@Z|, PVRShell::PVRShellGet

	EXPORT	|?PVRShellSet@PVRShell@@QAA_NW4prefNameIntEnum@@H@Z| ; PVRShell::PVRShellSet
	IMPORT	|?setSwapInterval@PVRShell@@AAA_NH@Z|	; PVRShell::setSwapInterval

  00000			 AREA	 |.pdata|, PDATA
|$T33784| DCD	|$LN30@PVRShellSe@3|
	DCD	0x40004001
; Function compile flags: /Ogspy

  00000			 AREA	 |.text|, CODE, ARM

  00000		 |?PVRShellSet@PVRShell@@QAA_NW4prefNameIntEnum@@H@Z| PROC ; PVRShell::PVRShellSet

; 269  : {

  00000		 |$LN30@PVRShellSe@3|
  00000	e52de004	 str         lr, [sp, #-4]!
  00004		 |$M33781|
  00004	e1a0e000	 mov         lr, r0

; 270  : 	switch(prefName)

  00008	e2411002	 sub         r1, r1, #2
  0000c	e3510007	 cmp         r1, #7
  00010	8a000037	 bhi         |$LN1@PVRShellSe@3|
  00014	e28f3004	 add         r3, pc, #4
  00018	e7d33001	 ldrb        r3, [r3, +r1]
  0001c	e08ff003	 add         pc, pc, r3
  00020		 |$LN19@PVRShellSe@3|
  00020		 |$LN18@PVRShellSe@3|
  00020		 |$LN20@PVRShellSe@3|
  00020	04ed		 DCB         0x4
  00021		 |$LN21@PVRShellSe@3|
  00021	20ed		 DCB         0x20
  00022		 |$LN22@PVRShellSe@3|
  00022	3ced		 DCB         0x3c
  00023		 |$LN23@PVRShellSe@3|
  00023	5ced		 DCB         0x5c
  00024		 |$LN24@PVRShellSe@3|
  00024	7ced		 DCB         0x7c
  00025		 |$LN25@PVRShellSe@3|
  00025	90ed		 DCB         0x90
  00026		 |$LN26@PVRShellSe@3|
  00026	a4ed		 DCB         0xa4
  00027		 |$LN27@PVRShellSe@3|
  00027	b8ed		 DCB         0xb8
  00028		 |$LN12@PVRShellSe@3|

; 271  : 	{
; 272  : 		case prefWidth:
; 273  : 			if(value > 0)

  00028	e3520000	 cmp         r2, #0
  0002c	da000030	 ble         |$LN1@PVRShellSe@3|

; 274  : 			{
; 275  : 				m_pShellData->nShellDimX = value;

  00030	e59e3004	 ldr         r3, [lr, #4]

; 276  : 				return true;

  00034	e3a00001	 mov         r0, #1
  00038	e5832008	 str         r2, [r3, #8]

; 321  : }

  0003c	e49de004	 ldr         lr, [sp], #4
  00040	e12fff1e	 bx          lr
  00044		 |$LN10@PVRShellSe@3|

; 277  : 			}
; 278  : 			return false;
; 279  : 
; 280  : 		case prefHeight:
; 281  : 			if(value > 0)

  00044	e3520000	 cmp         r2, #0
  00048	da000029	 ble         |$LN1@PVRShellSe@3|

; 282  : 			{
; 283  : 				m_pShellData->nShellDimY = value;

  0004c	e59e3004	 ldr         r3, [lr, #4]

; 284  : 				return true;

  00050	e3a00001	 mov         r0, #1
  00054	e583200c	 str         r2, [r3, #0xC]

; 321  : }

  00058	e49de004	 ldr         lr, [sp], #4
  0005c	e12fff1e	 bx          lr
  00060		 |$LN8@PVRShellSe@3|

; 285  : 			}
; 286  : 			return false;
; 287  : 
; 288  : 		case prefPositionX:
; 289  : 			m_pShellData->bShellPosWasDefault = false;

  00060	e59e3004	 ldr         r3, [lr, #4]
  00064	e3a01000	 mov         r1, #0

; 290  : 			m_pShellData->nShellPosX = value;
; 291  : 			return true;

  00068	e3a00001	 mov         r0, #1
  0006c	e5c31038	 strb        r1, [r3, #0x38]
  00070	e59e3004	 ldr         r3, [lr, #4]
  00074	e5832010	 str         r2, [r3, #0x10]

; 321  : }

  00078	e49de004	 ldr         lr, [sp], #4
  0007c	e12fff1e	 bx          lr
  00080		 |$LN7@PVRShellSe@3|

; 292  : 
; 293  : 		case prefPositionY:
; 294  : 			m_pShellData->bShellPosWasDefault = false;

  00080	e59e3004	 ldr         r3, [lr, #4]
  00084	e3a01000	 mov         r1, #0

; 295  : 			m_pShellData->nShellPosY = value;
; 296  : 			return true;

  00088	e3a00001	 mov         r0, #1
  0008c	e5c31038	 strb        r1, [r3, #0x38]
  00090	e59e3004	 ldr         r3, [lr, #4]
  00094	e5832014	 str         r2, [r3, #0x14]

; 321  : }

  00098	e49de004	 ldr         lr, [sp], #4
  0009c	e12fff1e	 bx          lr
  000a0		 |$LN6@PVRShellSe@3|

; 297  : 
; 298  : 		case prefQuitAfterFrame:
; 299  : 			m_pShellData->nDieAfterFrames = value;

  000a0	e59e3004	 ldr         r3, [lr, #4]

; 300  : 			return true;

  000a4	e3a00001	 mov         r0, #1
  000a8	e583202c	 str         r2, [r3, #0x2C]

; 321  : }

  000ac	e49de004	 ldr         lr, [sp], #4
  000b0	e12fff1e	 bx          lr
  000b4		 |$LN5@PVRShellSe@3|

; 301  : 
; 302  : 		case prefSwapInterval:
; 303  : 			return setSwapInterval(value);

  000b4	e1a01002	 mov         r1, r2
  000b8	e1a0000e	 mov         r0, lr
  000bc	eb000000	 bl          |?setSwapInterval@PVRShell@@AAA_NH@Z|

; 321  : }

  000c0	e49de004	 ldr         lr, [sp], #4
  000c4	e12fff1e	 bx          lr
  000c8		 |$LN4@PVRShellSe@3|

; 304  : 
; 305  : 		case prefInitRepeats:
; 306  : 			m_pShellData->nInitRepeats = value;

  000c8	e59e3004	 ldr         r3, [lr, #4]

; 307  : 			return true;

  000cc	e3a00001	 mov         r0, #1
  000d0	e5832028	 str         r2, [r3, #0x28]

; 321  : }

  000d4	e49de004	 ldr         lr, [sp], #4
  000d8	e12fff1e	 bx          lr
  000dc		 |$LN3@PVRShellSe@3|

; 308  : 
; 309  : 		case prefFSAAMode:
; 310  : 			if(value >= 0 && value <= 2)

  000dc	e3520002	 cmp         r2, #2

; 311  : 			{
; 312  : 				m_pShellData->nFSAAMode = value;

  000e0	959e3004	 ldrls       r3, [lr, #4]

; 313  : 				return true;

  000e4	93a00001	 movls       r0, #1
  000e8	95832034	 strls       r2, [r3, #0x34]

; 321  : }

  000ec	949de004	 ldrls       lr, [sp], #4
  000f0	912fff1e	 bxls        lr
  000f4		 |$LN1@PVRShellSe@3|

; 314  : 			}
; 315  : 			return false;
; 316  : 
; 317  : 		default:
; 318  : 			break;
; 319  : 	}
; 320  : 	return false;

  000f4	e3a00000	 mov         r0, #0

; 321  : }

  000f8	e49de004	 ldr         lr, [sp], #4
  000fc	e12fff1e	 bx          lr
  00100		 |$M33782|

			 ENDP  ; |?PVRShellSet@PVRShell@@QAA_NW4prefNameIntEnum@@H@Z|, PVRShell::PVRShellSet

	EXPORT	|?PVRShellGet@PVRShell@@QBAHW4prefNameIntEnum@@@Z| ; PVRShell::PVRShellGet
	IMPORT	|?OsGet@PVRShellInit@@QAA_NW4prefNameIntEnum@@PAH@Z| ; PVRShellInit::OsGet
	IMPORT	|?ApiGet@PVRShellInit@@QAA_NW4prefNameIntEnum@@PAH@Z| ; PVRShellInit::ApiGet

  00000			 AREA	 |.pdata|, PDATA
|$T33807| DCD	|$LN31@PVRShellGe@3|
	DCD	0x40003a02
; Function compile flags: /Ogspy

  00000			 AREA	 |.text|, CODE, ARM

  00000		 |?PVRShellGet@PVRShell@@QBAHW4prefNameIntEnum@@@Z| PROC ; PVRShell::PVRShellGet

; 331  : {

  00000		 |$LN31@PVRShellGe@3|
  00000	e92d4030	 stmdb       sp!, {r4, r5, lr}
  00004	e24dd004	 sub         sp, sp, #4
  00008		 |$M33804|
  00008	e1a05001	 mov         r5, r1
  0000c	e1a04000	 mov         r4, r0

; 332  : 	switch(prefName)

  00010	e2452002	 sub         r2, r5, #2
  00014	e3520008	 cmp         r2, #8
  00018	8a000020	 bhi         |$LN3@PVRShellGe@3|
  0001c	e28f3004	 add         r3, pc, #4
  00020	e7d33002	 ldrb        r3, [r3, +r2]
  00024	e08ff003	 add         pc, pc, r3
  00028		 |$LN19@PVRShellGe@3|
  00028		 |$LN18@PVRShellGe@3|
  00028		 |$LN20@PVRShellGe@3|
  00028	08ed		 DCB         0x8
  00029		 |$LN21@PVRShellGe@3|
  00029	14ed		 DCB         0x14
  0002a		 |$LN22@PVRShellGe@3|
  0002a	20ed		 DCB         0x20
  0002b		 |$LN23@PVRShellGe@3|
  0002b	2ced		 DCB         0x2c
  0002c		 |$LN24@PVRShellGe@3|
  0002c	38ed		 DCB         0x38
  0002d		 |$LN25@PVRShellGe@3|
  0002d	44ed		 DCB         0x44
  0002e		 |$LN26@PVRShellGe@3|
  0002e	50ed		 DCB         0x50
  0002f		 |$LN27@PVRShellGe@3|
  0002f	5ced		 DCB         0x5c
  00030		 |$LN28@PVRShellGe@3|
  00030	68ed		 DCB         0x68
  00031		 |$LN32@PVRShellGe@3|

; 352  : 			}
; 353  : 	}
; 354  : }

  00031	68ed		 DCB         0x68
  00032		 |$LN33@PVRShellGe@3|
  00032	68ed		 DCB         0x68
  00033		 |$LN34@PVRShellGe@3|
  00033	68ed		 DCB         0x68
  00034		 |$LN12@PVRShellGe@3|

; 333  : 	{
; 334  : 		case prefWidth:	return m_pShellData->nShellDimX;

  00034	e5943004	 ldr         r3, [r4, #4]
  00038	e5930008	 ldr         r0, [r3, #8]
  0003c	ea000026	 b           |$LN13@PVRShellGe@3|
  00040		 |$LN11@PVRShellGe@3|

; 335  : 		case prefHeight:	return m_pShellData->nShellDimY;

  00040	e5943004	 ldr         r3, [r4, #4]
  00044	e593000c	 ldr         r0, [r3, #0xC]
  00048	ea000023	 b           |$LN13@PVRShellGe@3|
  0004c		 |$LN10@PVRShellGe@3|

; 336  : 		case prefPositionX:	return m_pShellData->nShellPosX;

  0004c	e5943004	 ldr         r3, [r4, #4]
  00050	e5930010	 ldr         r0, [r3, #0x10]
  00054	ea000020	 b           |$LN13@PVRShellGe@3|
  00058		 |$LN9@PVRShellGe@3|

; 337  : 		case prefPositionY:	return m_pShellData->nShellPosY;

  00058	e5943004	 ldr         r3, [r4, #4]
  0005c	e5930014	 ldr         r0, [r3, #0x14]
  00060	ea00001d	 b           |$LN13@PVRShellGe@3|
  00064		 |$LN8@PVRShellGe@3|

; 338  : 		case prefQuitAfterFrame:	return m_pShellData->nDieAfterFrames;

  00064	e5943004	 ldr         r3, [r4, #4]
  00068	e593002c	 ldr         r0, [r3, #0x2C]
  0006c	ea00001a	 b           |$LN13@PVRShellGe@3|
  00070		 |$LN7@PVRShellGe@3|

; 339  : 		case prefSwapInterval:	return m_pShellData->nSwapInterval;

  00070	e5943004	 ldr         r3, [r4, #4]
  00074	e5930024	 ldr         r0, [r3, #0x24]
  00078	ea000017	 b           |$LN13@PVRShellGe@3|
  0007c		 |$LN6@PVRShellGe@3|

; 340  : 		case prefInitRepeats:	return m_pShellData->nInitRepeats;

  0007c	e5943004	 ldr         r3, [r4, #4]
  00080	e5930028	 ldr         r0, [r3, #0x28]
  00084	ea000014	 b           |$LN13@PVRShellGe@3|
  00088		 |$LN5@PVRShellGe@3|

; 341  : 		case prefFSAAMode:	return m_pShellData->nFSAAMode;

  00088	e5943004	 ldr         r3, [r4, #4]
  0008c	e5930034	 ldr         r0, [r3, #0x34]
  00090	ea000011	 b           |$LN13@PVRShellGe@3|
  00094		 |$LN4@PVRShellGe@3|

; 342  : 		case prefCommandLineOptNum:	return m_pShellInit->m_CommandLine.m_nOptLen;

  00094	e5943008	 ldr         r3, [r4, #8]
  00098	e5930050	 ldr         r0, [r3, #0x50]
  0009c	ea00000e	 b           |$LN13@PVRShellGe@3|
  000a0		 |$LN3@PVRShellGe@3|

; 343  : 		default:
; 344  : 			{
; 345  : 				int n;
; 346  : 
; 347  : 				if(m_pShellInit->ApiGet(prefName, &n))

  000a0	e5940008	 ldr         r0, [r4, #8]
  000a4	e28d2000	 add         r2, sp, #0
  000a8	e1a01005	 mov         r1, r5
  000ac	eb000000	 bl          |?ApiGet@PVRShellInit@@QAA_NW4prefNameIntEnum@@PAH@Z|
  000b0	e3500000	 cmp         r0, #0
  000b4	0a000001	 beq         |$LN2@PVRShellGe@3|
  000b8		 |$LN17@PVRShellGe@3|

; 348  : 					return n;

  000b8	e59d0000	 ldr         r0, [sp]
  000bc	ea000006	 b           |$LN13@PVRShellGe@3|
  000c0		 |$LN2@PVRShellGe@3|

; 349  : 				if(m_pShellInit->OsGet(prefName, &n))

  000c0	e5940008	 ldr         r0, [r4, #8]
  000c4	e28d2000	 add         r2, sp, #0
  000c8	e1a01005	 mov         r1, r5
  000cc	eb000000	 bl          |?OsGet@PVRShellInit@@QAA_NW4prefNameIntEnum@@PAH@Z|
  000d0	e3500000	 cmp         r0, #0

; 350  : 					return n;

  000d4	1afffff7	 bne         |$LN17@PVRShellGe@3|

; 351  : 				return -1;

  000d8	e3e00000	 mvn         r0, #0
  000dc		 |$LN13@PVRShellGe@3|

; 352  : 			}
; 353  : 	}
; 354  : }

  000dc	e28dd004	 add         sp, sp, #4
  000e0	e8bd4030	 ldmia       sp!, {r4, r5, lr}
  000e4	e12fff1e	 bx          lr
  000e8		 |$M33805|

			 ENDP  ; |?PVRShellGet@PVRShell@@QBAHW4prefNameIntEnum@@@Z|, PVRShell::PVRShellGet

	EXPORT	|?PVRShellSet@PVRShell@@QAA_NW4prefNamePtrEnum@@QBX@Z| ; PVRShell::PVRShellSet

  00000			 AREA	 |.pdata|, PDATA
|$T33819| DCD	|$LN5@PVRShellSe@4|
	DCD	0x40000200
; Function compile flags: /Ogspy

  00000			 AREA	 |.text|, CODE, ARM

  00000		 |?PVRShellSet@PVRShell@@QAA_NW4prefNamePtrEnum@@QBX@Z| PROC ; PVRShell::PVRShellSet

; 365  : {

  00000		 |$LN5@PVRShellSe@4|
  00000		 |$M33816|

; 366  : 	return false;

  00000	e3a00000	 mov         r0, #0

; 367  : }

  00004	e12fff1e	 bx          lr
  00008		 |$M33817|

			 ENDP  ; |?PVRShellSet@PVRShell@@QAA_NW4prefNamePtrEnum@@QBX@Z|, PVRShell::PVRShellSet

	EXPORT	|?PVRShellGet@PVRShell@@QBAPAXW4prefNamePtrEnum@@@Z| ; PVRShell::PVRShellGet
	IMPORT	|?OsGetNativeWindowType@PVRShellInit@@QAAPAXXZ| ; PVRShellInit::OsGetNativeWindowType
	IMPORT	|?OsGet@PVRShellInit@@QAA_NW4prefNamePtrEnum@@PAPAX@Z| ; PVRShellInit::OsGet
	IMPORT	|?ApiGet@PVRShellInit@@QAA_NW4prefNamePtrEnum@@PAPAX@Z| ; PVRShellInit::ApiGet

  00000			 AREA	 |.pdata|, PDATA
|$T33831| DCD	|$LN12@PVRShellGe@4|
	DCD	0x40001902
; Function compile flags: /Ogspy

  00000			 AREA	 |.text|, CODE, ARM

  00000		 |?PVRShellGet@PVRShell@@QBAPAXW4prefNamePtrEnum@@@Z| PROC ; PVRShell::PVRShellGet

; 377  : {

  00000		 |$LN12@PVRShellGe@4|
  00000	e92d4030	 stmdb       sp!, {r4, r5, lr}
  00004	e24dd004	 sub         sp, sp, #4
  00008		 |$M33828|
  00008	e1a05001	 mov         r5, r1
  0000c	e1a04000	 mov         r4, r0

; 381  : 	default:
; 382  : 		{
; 383  : 			void *p;
; 384  : 
; 385  : 			if(m_pShellInit->ApiGet(prefName, &p))

  00010	e5940008	 ldr         r0, [r4, #8]
  00014	e3550004	 cmp         r5, #4
  00018	0a00000d	 beq         |$LN4@PVRShellGe@4|
  0001c	e28d2000	 add         r2, sp, #0
  00020	eb000000	 bl          |?ApiGet@PVRShellInit@@QAA_NW4prefNamePtrEnum@@PAPAX@Z|
  00024	e3500000	 cmp         r0, #0
  00028	0a000001	 beq         |$LN2@PVRShellGe@4|
  0002c		 |$LN9@PVRShellGe@4|

; 386  : 				return p;

  0002c	e59d0000	 ldr         r0, [sp]
  00030	ea000008	 b           |$LN5@PVRShellGe@4|
  00034		 |$LN2@PVRShellGe@4|

; 387  : 			if(m_pShellInit->OsGet(prefName, &p))

  00034	e5940008	 ldr         r0, [r4, #8]
  00038	e28d2000	 add         r2, sp, #0
  0003c	e1a01005	 mov         r1, r5
  00040	eb000000	 bl          |?OsGet@PVRShellInit@@QAA_NW4prefNamePtrEnum@@PAPAX@Z|
  00044	e3500000	 cmp         r0, #0

; 388  : 				return p;

  00048	1afffff7	 bne         |$LN9@PVRShellGe@4|

; 389  : 			return NULL;

  0004c	e3a00000	 mov         r0, #0
  00050	ea000000	 b           |$LN5@PVRShellGe@4|
  00054		 |$LN4@PVRShellGe@4|

; 378  : 	switch(prefName)
; 379  : 	{
; 380  : 	case prefNativeWindowType:	return m_pShellInit->OsGetNativeWindowType();

  00054	eb000000	 bl          |?OsGetNativeWindowType@PVRShellInit@@QAAPAXXZ|
  00058		 |$LN5@PVRShellGe@4|

; 390  : 		}
; 391  : 	}
; 392  : }

  00058	e28dd004	 add         sp, sp, #4
  0005c	e8bd4030	 ldmia       sp!, {r4, r5, lr}
  00060	e12fff1e	 bx          lr
  00064		 |$M33829|

			 ENDP  ; |?PVRShellGet@PVRShell@@QBAPAXW4prefNamePtrEnum@@@Z|, PVRShell::PVRShellGet

	EXPORT	|?PVRShellScreenCaptureBuffer@PVRShell@@QAA_NHHPAPAE@Z| ; PVRShell::PVRShellScreenCaptureBuffer
	IMPORT	|?ApiScreenCaptureBuffer@PVRShellInit@@QAA_NHHPAE@Z| ; PVRShellInit::ApiScreenCaptureBuffer
	IMPORT	|calloc|

  00000			 AREA	 |.pdata|, PDATA
|$T33845| DCD	|$LN7@PVRShellSc|
	DCD	0x40001a01
; Function compile flags: /Ogspy

  00000			 AREA	 |.text|, CODE, ARM

  00000		 |?PVRShellScreenCaptureBuffer@PVRShell@@QAA_NHHPAPAE@Z| PROC ; PVRShell::PVRShellScreenCaptureBuffer

; 459  : {

  00000		 |$LN7@PVRShellSc|
  00000	e92d41f0	 stmdb       sp!, {r4 - r8, lr}
  00004		 |$M33842|
  00004	e1a07003	 mov         r7, r3
  00008	e1a05002	 mov         r5, r2
  0000c	e1a06001	 mov         r6, r1
  00010	e1a08000	 mov         r8, r0

; 460  : 	int Pitch;
; 461  : 
; 462  : 	/* Compute line pitch */
; 463  : 	Pitch = 3*Width;

  00014	e0864086	 add         r4, r6, r6, lsl #1

; 464  : 	if ( ((3*Width)%4)!=0 )

  00018	e1b0e004	 movs        lr, r4
  0001c	428ee003	 addmi       lr, lr, #3
  00020	e1a0e14e	 mov         lr, lr, asr #2
  00024	e054210e	 subs        r2, r4, lr, lsl #2

; 465  : 	{
; 466  : 		Pitch += 4-((3*Width)%4);

  00028	1044e002	 subne       lr, r4, r2
  0002c	128e4004	 addne       r4, lr, #4

; 467  : 	}
; 468  : 
; 469  : 	/* Allocate memory for line */
; 470  : 	*pLines=(unsigned char *)calloc(Pitch*Height, sizeof(unsigned char));

  00030	e0000594	 mul         r0, r4, r5
  00034	e3a01001	 mov         r1, #1
  00038	eb000000	 bl          calloc
  0003c	e1b03000	 movs        r3, r0

; 471  : 	if (!(*pLines)) return false;

  00040	03a00000	 moveq       r0, #0
  00044	e5873000	 str         r3, [r7]

; 474  : }

  00048	08bd41f0	 ldmeqia     sp!, {r4 - r8, lr}
  0004c	012fff1e	 bxeq        lr

; 472  : 
; 473  : 	return m_pShellInit->ApiScreenCaptureBuffer(Width, Height, *pLines);

  00050	e5980008	 ldr         r0, [r8, #8]
  00054	e1a02005	 mov         r2, r5
  00058	e1a01006	 mov         r1, r6
  0005c	eb000000	 bl          |?ApiScreenCaptureBuffer@PVRShellInit@@QAA_NHHPAE@Z|

; 474  : }

  00060	e8bd41f0	 ldmia       sp!, {r4 - r8, lr}
  00064	e12fff1e	 bx          lr
  00068		 |$M33843|

			 ENDP  ; |?PVRShellScreenCaptureBuffer@PVRShell@@QAA_NHHPAPAE@Z|, PVRShell::PVRShellScreenCaptureBuffer

	EXPORT	|?PVRShellByteSwap@@YAXPAEH@Z|		; PVRShellByteSwap

  00000			 AREA	 |.pdata|, PDATA
|$T33859| DCD	|$LN9@PVRShellBy|
	DCD	0x40001101
; Function compile flags: /Ogspy

  00000			 AREA	 |.text|, CODE, ARM

  00000		 |?PVRShellByteSwap@@YAXPAEH@Z| PROC	; PVRShellByteSwap

; 548  : {

  00000		 |$LN9@PVRShellBy|
  00000	e92d4030	 stmdb       sp!, {r4, r5, lr}
  00004		 |$M33856|

; 549  : 	int i = 0, j = i32ByteNo - 1;

  00004	e2414001	 sub         r4, r1, #1

; 550  : 
; 551  : 	while(i < j)

  00008	e3540000	 cmp         r4, #0
  0000c	e3a05000	 mov         r5, #0
  00010	da000009	 ble         |$LN1@PVRShellBy|
  00014		 |$LL2@PVRShellBy|
  00014	e1a01005	 mov         r1, r5
  00018	e1a0e004	 mov         lr, r4

; 552  : 	{
; 553  : 		unsigned char cTmp = pBytes[i];

  0001c	e7f12000	 ldrb        r2, [r1, +r0]!

; 554  : 		pBytes[i] = pBytes[j];

  00020	e7fe3000	 ldrb        r3, [lr, +r0]!

; 555  : 		pBytes[j] = cTmp;
; 556  : 
; 557  : 		++i;

  00024	e2855001	 add         r5, r5, #1

; 558  : 		--j;

  00028	e2444001	 sub         r4, r4, #1
  0002c	e1550004	 cmp         r5, r4
  00030	e5c13000	 strb        r3, [r1]
  00034	e5ce2000	 strb        r2, [lr]
  00038	bafffff5	 blt         |$LL2@PVRShellBy|
  0003c		 |$LN1@PVRShellBy|

; 559  : 	}
; 560  : }

  0003c	e8bd4030	 ldmia       sp!, {r4, r5, lr}
  00040	e12fff1e	 bx          lr
  00044		 |$M33857|

			 ENDP  ; |?PVRShellByteSwap@@YAXPAEH@Z|, PVRShellByteSwap

	EXPORT	|?PVRShellWriteBMPFile@PVRShell@@QAAHQBDKKQBX@Z| ; PVRShell::PVRShellWriteBMPFile
	EXPORT	|??_C@_0DI@BLEIMHEF@PVRShell?3?5Failed?5to?5open?5?$CC?$CFs?$CC?5fo@| [ DATA ] ; `string'
	EXPORT	|??_C@_02GMLFBBN@wb?$AA@| [ DATA ]	; `string'
	IMPORT	|?PVRShellOutputDebug@PVRShell@@QBAXQBDZZ| ; PVRShell::PVRShellOutputDebug
	IMPORT	|fclose|
	IMPORT	|fwrite|
	IMPORT	|fopen|

  00000			 AREA	 |.pdata|, PDATA
|$T33999| DCD	|$LN94@PVRShellWr|
	DCD	0x4000af02

  00000			 AREA	 |.rdata|, DATA, READONLY
|??_C@_0DI@BLEIMHEF@PVRShell?3?5Failed?5to?5open?5?$CC?$CFs?$CC?5fo@| DCB "P"
	DCB	"VRShell: Failed to open ""%s"" for writing screen dump.", 0xa
	DCB	0x0					; `string'

  00000			 AREA	 |.rdata|, DATA, READONLY
|??_C@_02GMLFBBN@wb?$AA@| DCB "wb", 0x0			; `string'
; Function compile flags: /Ogspy

  00000			 AREA	 |.text|, CODE, ARM

  00000		 |?PVRShellWriteBMPFile@PVRShell@@QAAHQBDKKQBX@Z| PROC ; PVRShell::PVRShellWriteBMPFile

; 579  : {

  00000		 |$LN94@PVRShellWr|
  00000	e92d4ff0	 stmdb       sp!, {r4 - r11, lr}
  00004	e24dd038	 sub         sp, sp, #0x38
  00008		 |$M33996|
  00008	e1a07003	 mov         r7, r3
  0000c	e1a09002	 mov         r9, r2
  00010	e1a06001	 mov         r6, r1
  00014	e1a08000	 mov         r8, r0

; 580  : 	#define ByteSwap(x) PVRShellByteSwap((unsigned char*) &x, sizeof(x))
; 581  : 
; 582  : 	int			Result = 1;
; 583  : 	unsigned int i,j;
; 584  : 	FILE*		fpDumpfile = 0;
; 585  : 
; 586  : 	fpDumpfile = fopen(pszFilename, "wb");

  00018	e59f1298	 ldr         r1, [pc, #0x298]
  0001c	e1a00006	 mov         r0, r6
  00020	e3a04001	 mov         r4, #1
  00024	eb000000	 bl          fopen
  00028	e1b05000	 movs        r5, r0

; 587  : 
; 588  : 	if (fpDumpfile != 0)

  0002c	0a000098	 beq         |$LN15@PVRShellWr|

; 589  : 	{
; 590  : 		short int word = 0x0001;
; 591  : 		char *byte = (char*) &word;
; 592  : 		bool bLittleEndian = byte[0] ? true : false;
; 593  : 
; 594  : 		int i32Line		  = uWidth * 3;
; 595  : 		int i32BytesPerLine = i32Line;
; 596  : 		unsigned int i32Align = 0;
; 597  : 
; 598  : 		// round up to a dword boundary
; 599  : 		if(i32BytesPerLine & 3)
; 600  : 		{
; 601  : 			i32BytesPerLine |= 3;
; 602  : 			++i32BytesPerLine;
; 603  : 			i32Align = i32BytesPerLine - i32Line;
; 604  : 		}
; 605  : 
; 606  : 		int i32RealSize = i32BytesPerLine *uHeight;
; 607  : 
; 608  : 		// BMP Header
; 609  : 		unsigned short  bfType = 0x4D42;
; 610  : 		unsigned long   bfSize = g_i32BMPHeaderSize + g_i32BMPInfoSize + i32RealSize;
; 611  : 		unsigned short  bfReserved1 = 0;
; 612  : 		unsigned short  bfReserved2 = 0;
; 613  : 		unsigned long   bfOffBits = g_i32BMPHeaderSize + g_i32BMPInfoSize;
; 614  : 
; 615  : 		// BMP Info Header
; 616  : 		unsigned long  biSize = g_i32BMPInfoSize;
; 617  : 		unsigned long  biWidth = uWidth;
; 618  : 		unsigned long  biHeight = uHeight;
; 619  : 		unsigned short biPlanes = 1;
; 620  : 		unsigned short biBitCount = 24;
; 621  : 		unsigned long  biCompression = 0L;
; 622  : 		unsigned long  biSizeImage = i32RealSize;
; 623  : 		unsigned long  biXPelsPerMeter = 0;
; 624  : 		unsigned long  biYPelsPerMeter = 0;
; 625  : 		unsigned long  biClrUsed = 0;
; 626  : 		unsigned long  biClrImportant = 0;
; 627  : 
; 628  : 		unsigned char *pData = (unsigned char*) pImageData;

  00030	e3a02c4d	 mov         r2, #0x4D, 24
  00034	e382e042	 orr         lr, r2, #0x42

; 629  : 
; 630  : 		if(!bLittleEndian)
; 631  : 		{
; 632  : 			for(i = 0; i < uWidth * uHeight; ++i)
; 633  : 				PVRShellByteSwap(pData + (3 * i), 3);
; 634  : 
; 635  : 			ByteSwap(bfType);
; 636  : 			ByteSwap(bfSize);
; 637  : 			ByteSwap(bfOffBits);
; 638  : 			ByteSwap(biSize);
; 639  : 			ByteSwap(biWidth);
; 640  : 			ByteSwap(biHeight);
; 641  : 			ByteSwap(biPlanes);
; 642  : 			ByteSwap(biBitCount);
; 643  : 			ByteSwap(biCompression);
; 644  : 			ByteSwap(biSizeImage);
; 645  : 		}
; 646  : 
; 647  : 		// Write Header.
; 648  : 		fwrite(&bfType		, 1, sizeof(bfType)		, fpDumpfile);

  00038	e1cde0b2	 strh        lr, [sp, #2]
  0003c	e3a0e000	 mov         lr, #0
  00040	e1cde0b6	 strh        lr, [sp, #6]
  00044	e3a0e036	 mov         lr, #0x36
  00048	e58de010	 str         lr, [sp, #0x10]
  0004c	e3a0e028	 mov         lr, #0x28
  00050	e58de014	 str         lr, [sp, #0x14]
  00054	e3a0e001	 mov         lr, #1
  00058	e1cde0b8	 strh        lr, [sp, #8]
  0005c	e3a0e018	 mov         lr, #0x18
  00060	e0894089	 add         r4, r9, r9, lsl #1
  00064	e1cde0ba	 strh        lr, [sp, #0xA]
  00068	e3a0e000	 mov         lr, #0
  0006c	e3140003	 tst         r4, #3
  00070	e58de020	 str         lr, [sp, #0x20]
  00074	13841003	 orrne       r1, r4, #3
  00078	e3a0e000	 mov         lr, #0
  0007c	e1a03004	 mov         r3, r4
  00080	12813001	 addne       r3, r1, #1
  00084	e58de028	 str         lr, [sp, #0x28]
  00088	e3a0e000	 mov         lr, #0
  0008c	e00a0793	 mul         r10, r3, r7
  00090	e58de02c	 str         lr, [sp, #0x2C]
  00094	e3a06000	 mov         r6, #0
  00098	e3a0e000	 mov         lr, #0
  0009c	10436004	 subne       r6, r3, r4
  000a0	e28a3036	 add         r3, r10, #0x36
  000a4	e58de030	 str         lr, [sp, #0x30]
  000a8	e3a0e000	 mov         lr, #0
  000ac	e59d805c	 ldr         r8, [sp, #0x5C]
  000b0	e3a0b000	 mov         r11, #0
  000b4	e58d300c	 str         r3, [sp, #0xC]
  000b8	e1a03005	 mov         r3, r5
  000bc	e3a02002	 mov         r2, #2
  000c0	e3a01001	 mov         r1, #1
  000c4	e28d0002	 add         r0, sp, #2
  000c8	e58de034	 str         lr, [sp, #0x34]
  000cc	e1cdb0b4	 strh        r11, [sp, #4]
  000d0	e58d9018	 str         r9, [sp, #0x18]
  000d4	e58d701c	 str         r7, [sp, #0x1C]
  000d8	e58da024	 str         r10, [sp, #0x24]
  000dc	eb000000	 bl          fwrite

; 649  : 		fwrite(&bfSize		, 1, sizeof(bfSize)		, fpDumpfile);

  000e0	e1a03005	 mov         r3, r5
  000e4	e3a02004	 mov         r2, #4
  000e8	e3a01001	 mov         r1, #1
  000ec	e28d000c	 add         r0, sp, #0xC
  000f0	eb000000	 bl          fwrite

; 650  : 		fwrite(&bfReserved1	, 1, sizeof(bfReserved1), fpDumpfile);

  000f4	e1a03005	 mov         r3, r5
  000f8	e3a02002	 mov         r2, #2
  000fc	e3a01001	 mov         r1, #1
  00100	e28d0004	 add         r0, sp, #4
  00104	eb000000	 bl          fwrite

; 651  : 		fwrite(&bfReserved2	, 1, sizeof(bfReserved2), fpDumpfile);

  00108	e1a03005	 mov         r3, r5
  0010c	e3a02002	 mov         r2, #2
  00110	e3a01001	 mov         r1, #1
  00114	e28d0006	 add         r0, sp, #6
  00118	eb000000	 bl          fwrite

; 652  : 		fwrite(&bfOffBits	, 1, sizeof(bfOffBits)	, fpDumpfile);

  0011c	e1a03005	 mov         r3, r5
  00120	e3a02004	 mov         r2, #4
  00124	e3a01001	 mov         r1, #1
  00128	e28d0010	 add         r0, sp, #0x10
  0012c	eb000000	 bl          fwrite

; 653  : 
; 654  : 		// Write info header.
; 655  : 		fwrite(&biSize			, 1, sizeof(biSize)			, fpDumpfile);

  00130	e1a03005	 mov         r3, r5
  00134	e3a02004	 mov         r2, #4
  00138	e3a01001	 mov         r1, #1
  0013c	e28d0014	 add         r0, sp, #0x14
  00140	eb000000	 bl          fwrite

; 656  : 		fwrite(&biWidth			, 1, sizeof(biWidth)		, fpDumpfile);

  00144	e1a03005	 mov         r3, r5
  00148	e3a02004	 mov         r2, #4
  0014c	e3a01001	 mov         r1, #1
  00150	e28d0018	 add         r0, sp, #0x18
  00154	eb000000	 bl          fwrite

; 657  : 		fwrite(&biHeight		, 1, sizeof(biHeight)		, fpDumpfile);

  00158	e1a03005	 mov         r3, r5
  0015c	e3a02004	 mov         r2, #4
  00160	e3a01001	 mov         r1, #1
  00164	e28d001c	 add         r0, sp, #0x1C
  00168	eb000000	 bl          fwrite

; 658  : 		fwrite(&biPlanes		, 1, sizeof(biPlanes)		, fpDumpfile);

  0016c	e1a03005	 mov         r3, r5
  00170	e3a02002	 mov         r2, #2
  00174	e3a01001	 mov         r1, #1
  00178	e28d0008	 add         r0, sp, #8
  0017c	eb000000	 bl          fwrite

; 659  : 		fwrite(&biBitCount		, 1, sizeof(biBitCount)		, fpDumpfile);

  00180	e1a03005	 mov         r3, r5
  00184	e3a02002	 mov         r2, #2
  00188	e3a01001	 mov         r1, #1
  0018c	e28d000a	 add         r0, sp, #0xA
  00190	eb000000	 bl          fwrite

; 660  : 		fwrite(&biCompression	, 1, sizeof(biCompression)	, fpDumpfile);

  00194	e1a03005	 mov         r3, r5
  00198	e3a02004	 mov         r2, #4
  0019c	e3a01001	 mov         r1, #1
  001a0	e28d0020	 add         r0, sp, #0x20
  001a4	eb000000	 bl          fwrite

; 661  : 		fwrite(&biSizeImage		, 1, sizeof(biSizeImage)	, fpDumpfile);

  001a8	e1a03005	 mov         r3, r5
  001ac	e3a02004	 mov         r2, #4
  001b0	e3a01001	 mov         r1, #1
  001b4	e28d0024	 add         r0, sp, #0x24
  001b8	eb000000	 bl          fwrite

; 662  : 		fwrite(&biXPelsPerMeter	, 1, sizeof(biXPelsPerMeter), fpDumpfile);

  001bc	e1a03005	 mov         r3, r5
  001c0	e3a02004	 mov         r2, #4
  001c4	e3a01001	 mov         r1, #1
  001c8	e28d0028	 add         r0, sp, #0x28
  001cc	eb000000	 bl          fwrite

; 663  : 		fwrite(&biYPelsPerMeter	, 1, sizeof(biYPelsPerMeter), fpDumpfile);

  001d0	e1a03005	 mov         r3, r5
  001d4	e3a02004	 mov         r2, #4
  001d8	e3a01001	 mov         r1, #1
  001dc	e28d002c	 add         r0, sp, #0x2C
  001e0	eb000000	 bl          fwrite

; 664  : 		fwrite(&biClrUsed		, 1, sizeof(biClrUsed)		, fpDumpfile);

  001e4	e1a03005	 mov         r3, r5
  001e8	e3a02004	 mov         r2, #4
  001ec	e3a01001	 mov         r1, #1
  001f0	e28d0030	 add         r0, sp, #0x30
  001f4	eb000000	 bl          fwrite

; 665  : 		fwrite(&biClrImportant	, 1, sizeof(biClrImportant)	, fpDumpfile);

  001f8	e1a03005	 mov         r3, r5
  001fc	e3a02004	 mov         r2, #4
  00200	e3a01001	 mov         r1, #1
  00204	e28d0034	 add         r0, sp, #0x34
  00208	eb000000	 bl          fwrite

; 666  : 
; 667  : 		unsigned char align = 0x00;

  0020c	e3a03000	 mov         r3, #0
  00210	e5cd3000	 strb        r3, [sp]

; 668  : 
; 669  : 		// Write image.
; 670  : 		if(i32Align == 0)

  00214	e3560000	 cmp         r6, #0
  00218	1a000005	 bne         |$LN9@PVRShellWr|

; 671  : 		{
; 672  : 			fwrite(pData, 1, i32RealSize, fpDumpfile);

  0021c	e1a03005	 mov         r3, r5
  00220	e1a0200a	 mov         r2, r10
  00224	e3a01001	 mov         r1, #1
  00228	e1a00008	 mov         r0, r8
  0022c	eb000000	 bl          fwrite

; 673  : 		}
; 674  : 		else

  00230	ea000013	 b           |$LN5@PVRShellWr|
  00234		 |$LN9@PVRShellWr|

; 675  : 		{
; 676  : 			for(i = 0; i < uHeight; i++)

  00234	e3570000	 cmp         r7, #0
  00238	0a000011	 beq         |$LN5@PVRShellWr|
  0023c		 |$LL7@PVRShellWr|

; 677  : 			{
; 678  : 				pData += fwrite(pData, 1, i32Line, fpDumpfile);

  0023c	e1a03005	 mov         r3, r5
  00240	e1a02004	 mov         r2, r4
  00244	e3a01001	 mov         r1, #1
  00248	e1a00008	 mov         r0, r8
  0024c	eb000000	 bl          fwrite
  00250	e0888000	 add         r8, r8, r0

; 679  : 
; 680  : 				for(j = 0; j < i32Align; ++j)

  00254	e3560000	 cmp         r6, #0
  00258	0a000007	 beq         |$LN6@PVRShellWr|

; 677  : 			{
; 678  : 				pData += fwrite(pData, 1, i32Line, fpDumpfile);

  0025c	e1a09006	 mov         r9, r6
  00260		 |$LL4@PVRShellWr|

; 681  : 					fwrite(&align, 1, 1, fpDumpfile);

  00260	e1a03005	 mov         r3, r5
  00264	e3a02001	 mov         r2, #1
  00268	e3a01001	 mov         r1, #1
  0026c	e28d0000	 add         r0, sp, #0
  00270	eb000000	 bl          fwrite
  00274	e2599001	 subs        r9, r9, #1
  00278	1afffff8	 bne         |$LL4@PVRShellWr|
  0027c		 |$LN6@PVRShellWr|

; 675  : 		{
; 676  : 			for(i = 0; i < uHeight; i++)

  0027c	e2577001	 subs        r7, r7, #1
  00280	1affffed	 bne         |$LL7@PVRShellWr|
  00284		 |$LN5@PVRShellWr|

; 682  : 			}
; 683  : 		}
; 684  : 
; 685  : 		// Last but not least close the file.
; 686  : 		fclose(fpDumpfile);

  00284	e1a00005	 mov         r0, r5
  00288	eb000000	 bl          fclose

; 687  : 
; 688  :         Result = 0;

  0028c	e3a04000	 mov         r4, #0

; 689  : 	}
; 690  : 	else

  00290	ea000003	 b           |$LN1@PVRShellWr|
  00294		 |$LN15@PVRShellWr|

; 691  : 	{
; 692  : 		PVRShellOutputDebug("PVRShell: Failed to open \"%s\" for writing screen dump.\n", pszFilename);

  00294	e59f1018	 ldr         r1, [pc, #0x18]
  00298	e1a02006	 mov         r2, r6
  0029c	e1a00008	 mov         r0, r8
  002a0	eb000000	 bl          |?PVRShellOutputDebug@PVRShell@@QBAXQBDZZ|
  002a4		 |$LN1@PVRShellWr|

; 693  : 	}
; 694  : 
; 695  : 	return Result;
; 696  : }

  002a4	e1a00004	 mov         r0, r4
  002a8	e28dd038	 add         sp, sp, #0x38
  002ac	e8bd4ff0	 ldmia       sp!, {r4 - r11, lr}
  002b0	e12fff1e	 bx          lr
  002b4		 |$LN95@PVRShellWr|
  002b4		 |$LN96@PVRShellWr|
  002b4	00000000	 DCD         |??_C@_0DI@BLEIMHEF@PVRShell?3?5Failed?5to?5open?5?$CC?$CFs?$CC?5fo@|
  002b8		 |$LN97@PVRShellWr|
  002b8	00000000	 DCD         |??_C@_02GMLFBBN@wb?$AA@|
  002bc		 |$M33997|

			 ENDP  ; |?PVRShellWriteBMPFile@PVRShell@@QAAHQBDKKQBX@Z|, PVRShell::PVRShellWriteBMPFile

	EXPORT	|?PVRShellGetTime@PVRShell@@QAAKXZ|	; PVRShell::PVRShellGetTime
	IMPORT	|?OsGetTime@PVRShellInit@@QAAKXZ|	; PVRShellInit::OsGetTime

  00000			 AREA	 |.pdata|, PDATA
|$T34012| DCD	|$LN5@PVRShellGe@5|
	DCD	0x40000501
; Function compile flags: /Ogspy

  00000			 AREA	 |.text|, CODE, ARM

  00000		 |?PVRShellGetTime@PVRShell@@QAAKXZ| PROC ; PVRShell::PVRShellGetTime

; 707  : {

  00000		 |$LN5@PVRShellGe@5|
  00000	e52de004	 str         lr, [sp, #-4]!
  00004		 |$M34009|

; 708  : 	// Read timer from a platform dependant function
; 709  : 	return m_pShellInit->OsGetTime();

  00004	e5900008	 ldr         r0, [r0, #8]
  00008	eb000000	 bl          |?OsGetTime@PVRShellInit@@QAAKXZ|

; 710  : }

  0000c	e49de004	 ldr         lr, [sp], #4
  00010	e12fff1e	 bx          lr
  00014		 |$M34010|

			 ENDP  ; |?PVRShellGetTime@PVRShell@@QAAKXZ|, PVRShell::PVRShellGetTime

	EXPORT	|??0PVRShellCommandLine@@QAA@XZ|	; PVRShellCommandLine::PVRShellCommandLine
	IMPORT	|memset|

  00000			 AREA	 |.pdata|, PDATA
|$T34023| DCD	|$LN5@PVRShellCo|
	DCD	0x40000801
; Function compile flags: /Ogspy

  00000			 AREA	 |.text|, CODE, ARM

  00000		 |??0PVRShellCommandLine@@QAA@XZ| PROC	; PVRShellCommandLine::PVRShellCommandLine

; 738  : {

  00000		 |$LN5@PVRShellCo|
  00000	e92d4010	 stmdb       sp!, {r4, lr}
  00004		 |$M34020|
  00004	e1a04000	 mov         r4, r0

; 739  : 	memset(this, 0, sizeof(*this));

  00008	e3a02014	 mov         r2, #0x14
  0000c	e3a01000	 mov         r1, #0
  00010	eb000000	 bl          memset

; 740  : }

  00014	e1a00004	 mov         r0, r4
  00018	e8bd4010	 ldmia       sp!, {r4, lr}
  0001c	e12fff1e	 bx          lr
  00020		 |$M34021|

			 ENDP  ; |??0PVRShellCommandLine@@QAA@XZ|, PVRShellCommandLine::PVRShellCommandLine

	EXPORT	|??1PVRShellCommandLine@@QAA@XZ|	; PVRShellCommandLine::~PVRShellCommandLine
	IMPORT	|free|

  00000			 AREA	 |.pdata|, PDATA
|$T34033| DCD	|$LN6@PVRShellCo@2|
	DCD	0x40000f01
; Function compile flags: /Ogspy

  00000			 AREA	 |.text|, CODE, ARM

  00000		 |??1PVRShellCommandLine@@QAA@XZ| PROC	; PVRShellCommandLine::~PVRShellCommandLine

; 747  : {

  00000		 |$LN6@PVRShellCo@2|
  00000	e92d4010	 stmdb       sp!, {r4, lr}
  00004		 |$M34030|
  00004	e1a04000	 mov         r4, r0

; 748  : 	delete [] m_psOrig;

  00008	e5940000	 ldr         r0, [r4]
  0000c	eb000000	 bl          |??3@YAXPAX@Z|

; 749  : 	delete [] m_psSplit;

  00010	e5940004	 ldr         r0, [r4, #4]
  00014	eb000000	 bl          |??3@YAXPAX@Z|

; 750  : 	FREE(m_pOpt);

  00018	e5943008	 ldr         r3, [r4, #8]
  0001c	e3530000	 cmp         r3, #0
  00020	0a000003	 beq         |$LN1@PVRShellCo@2|
  00024	e1a00003	 mov         r0, r3
  00028	eb000000	 bl          free
  0002c	e3a03000	 mov         r3, #0
  00030	e5843008	 str         r3, [r4, #8]
  00034		 |$LN1@PVRShellCo@2|

; 751  : }

  00034	e8bd4010	 ldmia       sp!, {r4, lr}
  00038	e12fff1e	 bx          lr
  0003c		 |$M34031|

			 ENDP  ; |??1PVRShellCommandLine@@QAA@XZ|, PVRShellCommandLine::~PVRShellCommandLine

	EXPORT	|?Parse@PVRShellCommandLine@@QAAXPBD@Z|	; PVRShellCommandLine::Parse
	IMPORT	|realloc|
	IMPORT	|strcpy|
	IMPORT	|strlen|

  00000			 AREA	 |.pdata|, PDATA
|$T34056| DCD	|$LN28@Parse|
	DCD	0x40005901
; Function compile flags: /Ogspy

  00000			 AREA	 |.text|, CODE, ARM

  00000		 |?Parse@PVRShellCommandLine@@QAAXPBD@Z| PROC ; PVRShellCommandLine::Parse

; 759  : {

  00000		 |$LN28@Parse|
  00000	e92d47f0	 stmdb       sp!, {r4 - r10, lr}
  00004		 |$M34053|
  00004	e1a05001	 mov         r5, r1
  00008	e1a06000	 mov         r6, r0

; 760  : 	size_t		len;
; 761  : 	int			nIn, nOut;
; 762  : 	bool		bInQuotes;
; 763  : 	SCmdLineOpt	opt;
; 764  : 
; 765  : 	// Take a copy of the original
; 766  : 	len = strlen(pStr)+1;

  0000c	e1a00005	 mov         r0, r5
  00010	eb000000	 bl          strlen
  00014	e1a04000	 mov         r4, r0

; 767  : 	m_psOrig = new char[len];

  00018	e2840001	 add         r0, r4, #1
  0001c	eb000000	 bl          |??2@YAPAXI@Z|
  00020	e1a03000	 mov         r3, r0

; 768  : 	strcpy(m_psOrig, pStr);

  00024	e1a01005	 mov         r1, r5
  00028	e5863000	 str         r3, [r6]
  0002c	eb000000	 bl          strcpy

; 769  : 
; 770  : 	// Take a copy to be edited
; 771  : 	m_psSplit = new char[len];

  00030	e2840001	 add         r0, r4, #1
  00034	eb000000	 bl          |??2@YAPAXI@Z|
  00038	e5860004	 str         r0, [r6, #4]

; 772  : 
; 773  : 	// Break the command line into options
; 774  : 	bInQuotes = false;

  0003c	e3a09000	 mov         r9, #0

; 775  : 	opt.pArg = NULL;

  00040	e3a07000	 mov         r7, #0

; 776  : 	opt.pVal = NULL;

  00044	e3a08000	 mov         r8, #0

; 777  : 	nIn = -1;
; 778  : 	nOut = 0;

  00048	e3a04000	 mov         r4, #0
  0004c	e2455001	 sub         r5, r5, #1
  00050	e3a0a000	 mov         r10, #0
  00054		 |$LL18@Parse|

; 779  : 	do
; 780  : 	{
; 781  : 		++nIn;
; 782  : 		if(pStr[nIn] == '"')

  00054	e1f520d1	 ldrsb       r2, [r5, #1]!
  00058	e3520022	 cmp         r2, #0x22
  0005c	1a000006	 bne         |$LN15@Parse|

; 783  : 		{
; 784  : 			bInQuotes = !bInQuotes;

  00060	e3590000	 cmp         r9, #0
  00064	03a03001	 moveq       r3, #1
  00068	020390ff	 andeq       r9, r3, #0xFF
  0006c	0a000037	 beq         |$LN17@Parse|
  00070	e3a03000	 mov         r3, #0
  00074	e20390ff	 and         r9, r3, #0xFF

; 785  : 		}
; 786  : 		else

  00078	ea000034	 b           |$LN17@Parse|
  0007c		 |$LN15@Parse|

; 787  : 		{
; 788  : 			if(bInQuotes && pStr[nIn] != 0)

  0007c	e3590000	 cmp         r9, #0
  00080	0a000001	 beq         |$LN13@Parse|
  00084	e3520000	 cmp         r2, #0

; 789  : 			{
; 790  : 				if(!opt.pArg)
; 791  : 					opt.pArg = &m_psSplit[nOut];
; 792  : 
; 793  : 				m_psSplit[nOut++] = pStr[nIn];
; 794  : 			}
; 795  : 			else

  00088	1a000007	 bne         |$LN25@Parse|
  0008c		 |$LN13@Parse|

; 796  : 			{
; 797  : 				switch(pStr[nIn])

  0008c	e1b03002	 movs        r3, r2
  00090	0a000012	 beq         |$LN7@Parse|
  00094	e3530009	 cmp         r3, #9
  00098	0a000010	 beq         |$LN7@Parse|
  0009c	e3530020	 cmp         r3, #0x20
  000a0	0a00000e	 beq         |$LN7@Parse|
  000a4	e353003d	 cmp         r3, #0x3D
  000a8	0a000006	 beq         |$LN8@Parse|
  000ac		 |$LN25@Parse|

; 821  : 					}
; 822  : 					break;
; 823  : 
; 824  : 				default:
; 825  : 					if(!opt.pArg)

  000ac	e3570000	 cmp         r7, #0

; 826  : 						opt.pArg = &m_psSplit[nOut];

  000b0	05963004	 ldreq       r3, [r6, #4]
  000b4	00837004	 addeq       r7, r3, r4

; 827  : 
; 828  : 					m_psSplit[nOut++] = pStr[nIn];

  000b8	e5963004	 ldr         r3, [r6, #4]
  000bc	e7c32004	 strb        r2, [r3, +r4]
  000c0	e2844001	 add         r4, r4, #1

; 829  : 					break;

  000c4	ea000021	 b           |$LN17@Parse|
  000c8		 |$LN8@Parse|

; 798  : 				{
; 799  : 				case '=':
; 800  : 					m_psSplit[nOut++] = 0;

  000c8	e5963004	 ldr         r3, [r6, #4]
  000cc	e7c3a004	 strb        r10, [r3, +r4]

; 801  : 					opt.pVal = &m_psSplit[nOut];

  000d0	e5963004	 ldr         r3, [r6, #4]
  000d4	e2844001	 add         r4, r4, #1
  000d8	e0838004	 add         r8, r3, r4

; 802  : 					break;

  000dc	ea00001b	 b           |$LN17@Parse|
  000e0		 |$LN7@Parse|

; 803  : 
; 804  : 				case ' ':
; 805  : 				case '\t':
; 806  : 				case '\0':
; 807  : 					m_psSplit[nOut++] = 0;

  000e0	e5963004	 ldr         r3, [r6, #4]

; 808  : 					if(opt.pArg || opt.pVal)

  000e4	e3570000	 cmp         r7, #0
  000e8	e7c3a004	 strb        r10, [r3, +r4]
  000ec	e2844001	 add         r4, r4, #1
  000f0	1a000001	 bne         |$LN5@Parse|
  000f4	e3580000	 cmp         r8, #0
  000f8	0a000014	 beq         |$LN17@Parse|
  000fc		 |$LN5@Parse|

; 809  : 					{
; 810  : 						// Increase list length if necessary
; 811  : 						if(m_nOptLen == m_nOptMax)

  000fc	e5962010	 ldr         r2, [r6, #0x10]
  00100	e596300c	 ldr         r3, [r6, #0xC]

; 812  : 							m_nOptMax = m_nOptMax * 2 + 1;
; 813  : 						m_pOpt = (SCmdLineOpt*)realloc(m_pOpt, m_nOptMax * sizeof(*m_pOpt));

  00104	e5960008	 ldr         r0, [r6, #8]
  00108	e1530002	 cmp         r3, r2
  0010c	01a03082	 moveq       r3, r2, lsl #1
  00110	02833001	 addeq       r3, r3, #1
  00114	05863010	 streq       r3, [r6, #0x10]
  00118	e5963010	 ldr         r3, [r6, #0x10]
  0011c	e1a01183	 mov         r1, r3, lsl #3
  00120	eb000000	 bl          realloc
  00124	e3500000	 cmp         r0, #0
  00128	e5860008	 str         r0, [r6, #8]

; 814  : 						if(!m_pOpt)

  0012c	0a00000a	 beq         |$LN16@Parse|

; 815  : 							return;
; 816  : 
; 817  : 						// Add option to list
; 818  : 						m_pOpt[m_nOptLen++] = opt;

  00130	e596300c	 ldr         r3, [r6, #0xC]
  00134	e7a07183	 str         r7, [r0, +r3, lsl #3]!

; 819  : 						opt.pArg = NULL;

  00138	e3a07000	 mov         r7, #0
  0013c	e5808004	 str         r8, [r0, #4]
  00140	e596300c	 ldr         r3, [r6, #0xC]

; 820  : 						opt.pVal = NULL;

  00144	e3a08000	 mov         r8, #0
  00148	e2833001	 add         r3, r3, #1
  0014c	e586300c	 str         r3, [r6, #0xC]
  00150		 |$LN17@Parse|

; 830  : 				}
; 831  : 			}
; 832  : 		}
; 833  : 	} while(pStr[nIn]);

  00150	e1d530d0	 ldrsb       r3, [r5]
  00154	e3530000	 cmp         r3, #0
  00158	1affffbd	 bne         |$LL18@Parse|
  0015c		 |$LN16@Parse|

; 834  : }

  0015c	e8bd47f0	 ldmia       sp!, {r4 - r10, lr}
  00160	e12fff1e	 bx          lr
  00164		 |$M34054|

			 ENDP  ; |?Parse@PVRShellCommandLine@@QAAXPBD@Z|, PVRShellCommandLine::Parse

	EXPORT	|??0PVRShellInit@@QAA@XZ|		; PVRShellInit::PVRShellInit

  00000			 AREA	 |.pdata|, PDATA
|$T34070| DCD	|$LN7@PVRShellIn|
	DCD	0x40000d01
; Function compile flags: /Ogspy

  00000			 AREA	 |.text|, CODE, ARM

  00000		 |??0PVRShellInit@@QAA@XZ| PROC		; PVRShellInit::PVRShellInit

; 929  : {

  00000		 |$LN7@PVRShellIn|
  00000	e92d4010	 stmdb       sp!, {r4, lr}
  00004		 |$M34067|
  00004	e1a04000	 mov         r4, r0
  00008	e3a02014	 mov         r2, #0x14
  0000c	e3a01000	 mov         r1, #0
  00010	e2840044	 add         r0, r4, #0x44
  00014	eb000000	 bl          memset

; 930  : 	memset(this, 0, sizeof(*this));

  00018	e3a02074	 mov         r2, #0x74
  0001c	e3a01000	 mov         r1, #0
  00020	e1a00004	 mov         r0, r4
  00024	eb000000	 bl          memset

; 931  : }

  00028	e1a00004	 mov         r0, r4
  0002c	e8bd4010	 ldmia       sp!, {r4, lr}
  00030	e12fff1e	 bx          lr
  00034		 |$M34068|

			 ENDP  ; |??0PVRShellInit@@QAA@XZ|, PVRShellInit::PVRShellInit

	EXPORT	|??1PVRShellInit@@QAA@XZ|		; PVRShellInit::~PVRShellInit

  00000			 AREA	 |.pdata|, PDATA
|$T34080| DCD	|$LN5@PVRShellIn@2|
	DCD	0x40000d01
; Function compile flags: /Ogspy

  00000			 AREA	 |.text|, CODE, ARM

  00000		 |??1PVRShellInit@@QAA@XZ| PROC		; PVRShellInit::~PVRShellInit

; 938  : {

  00000		 |$LN5@PVRShellIn@2|
  00000	e92d4030	 stmdb       sp!, {r4, r5, lr}
  00004		 |$M34077|
  00004	e1a04000	 mov         r4, r0

; 939  : 	delete [] m_pReadPath;

  00008	e5940064	 ldr         r0, [r4, #0x64]
  0000c	eb000000	 bl          |??3@YAXPAX@Z|

; 940  : 	m_pReadPath = NULL;
; 941  : 
; 942  : 	delete [] m_pWritePath;

  00010	e5940068	 ldr         r0, [r4, #0x68]
  00014	e3a05000	 mov         r5, #0
  00018	e5845064	 str         r5, [r4, #0x64]
  0001c	eb000000	 bl          |??3@YAXPAX@Z|

; 943  : 	m_pWritePath = NULL;
; 944  : }

  00020	e2840044	 add         r0, r4, #0x44
  00024	e5845068	 str         r5, [r4, #0x68]
  00028	eb000000	 bl          |??1PVRShellCommandLine@@QAA@XZ|
  0002c	e8bd4030	 ldmia       sp!, {r4, r5, lr}
  00030	e12fff1e	 bx          lr
  00034		 |$M34078|

			 ENDP  ; |??1PVRShellInit@@QAA@XZ|, PVRShellInit::~PVRShellInit

	EXPORT	|?Init@PVRShellInit@@QAAXAAVPVRShell@@@Z| ; PVRShellInit::Init
	IMPORT	|?OsInit@PVRShellInit@@QAAXXZ|		; PVRShellInit::OsInit

  00000			 AREA	 |.pdata|, PDATA
|$T34089| DCD	|$LN5@Init|
	DCD	0x40000a01
; Function compile flags: /Ogspy

  00000			 AREA	 |.text|, CODE, ARM

  00000		 |?Init@PVRShellInit@@QAAXAAVPVRShell@@@Z| PROC ; PVRShellInit::Init

; 952  : {

  00000		 |$LN5@Init|
  00000	e92d4010	 stmdb       sp!, {r4, lr}
  00004		 |$M34086|
  00004	e1a04000	 mov         r4, r0

; 953  : 	m_pShell				= &Shell;

  00008	e5841040	 str         r1, [r4, #0x40]

; 954  : 	m_pShell->m_pShellInit	= this;
; 955  : 
; 956  : 	OsInit();

  0000c	e5814008	 str         r4, [r1, #8]
  00010	eb000000	 bl          |?OsInit@PVRShellInit@@QAAXXZ|

; 957  : 
; 958  : 	gShellDone = false;

  00014	e3a03000	 mov         r3, #0
  00018	e5c43058	 strb        r3, [r4, #0x58]

; 959  : 	m_eState = ePVRShellInitApp;

  0001c	e584305c	 str         r3, [r4, #0x5C]

; 960  : }

  00020	e8bd4010	 ldmia       sp!, {r4, lr}
  00024	e12fff1e	 bx          lr
  00028		 |$M34087|

			 ENDP  ; |?Init@PVRShellInit@@QAAXAAVPVRShell@@@Z|, PVRShellInit::Init

	EXPORT	|?CommandLine@PVRShellInit@@QAAXPAD@Z|	; PVRShellInit::CommandLine

  00000			 AREA	 |.pdata|, PDATA
|$T34098| DCD	|$LN5@CommandLin|
	DCD	0x40000501
; Function compile flags: /Ogspy

  00000			 AREA	 |.text|, CODE, ARM

  00000		 |?CommandLine@PVRShellInit@@QAAXPAD@Z| PROC ; PVRShellInit::CommandLine

; 968  : {

  00000		 |$LN5@CommandLin|
  00000	e52de004	 str         lr, [sp, #-4]!
  00004		 |$M34095|

; 969  : 	m_CommandLine.Parse(str);

  00004	e2800044	 add         r0, r0, #0x44
  00008	eb000000	 bl          |?Parse@PVRShellCommandLine@@QAAXPBD@Z|

; 970  : #if defined(_DEBUG)
; 971  : 	m_pShell->PVRShellOutputDebug("PVRShell command line: %d/%d\n", m_CommandLine.m_nOptLen, m_CommandLine.m_nOptMax);
; 972  : 	for(int i = 0; i < m_CommandLine.m_nOptLen; ++i)
; 973  : 	{
; 974  : 		m_pShell->PVRShellOutputDebug("CL %d: \"%s\"\t= \"%s\".\n", i,
; 975  : 			m_CommandLine.m_pOpt[i].pArg ? m_CommandLine.m_pOpt[i].pArg : "",
; 976  : 			m_CommandLine.m_pOpt[i].pVal ? m_CommandLine.m_pOpt[i].pVal : "");
; 977  : 	}
; 978  : #endif
; 979  : }

  0000c	e49de004	 ldr         lr, [sp], #4
  00010	e12fff1e	 bx          lr
  00014		 |$M34096|

			 ENDP  ; |?CommandLine@PVRShellInit@@QAAXPAD@Z|, PVRShellInit::CommandLine

	EXPORT	|?CommandLine@PVRShellInit@@QAAXHPAPAD@Z| ; PVRShellInit::CommandLine
	EXPORT	|??_C@_00CNPNBAHC@?$AA@| [ DATA ]	; `string'
	IMPORT	|strncpy|

  00000			 AREA	 |.pdata|, PDATA
|$T34127| DCD	|$LN21@CommandLin@2|
	DCD	0x40003201

  00000			 AREA	 |.rdata|, DATA, READONLY
|??_C@_00CNPNBAHC@?$AA@| DCB 0x0			; `string'
; Function compile flags: /Ogspy

  00000			 AREA	 |.text|, CODE, ARM

  00000		 |?CommandLine@PVRShellInit@@QAAXHPAPAD@Z| PROC ; PVRShellInit::CommandLine

; 988  : {

  00000		 |$LN21@CommandLin@2|
  00000	e92d4ff0	 stmdb       sp!, {r4 - r11, lr}
  00004		 |$M34124|
  00004	e1a09002	 mov         r9, r2
  00008	e1a07001	 mov         r7, r1
  0000c	e1a08000	 mov         r8, r0

; 989  : 	size_t	tot, len;
; 990  : 	char	*buf;
; 991  : 	int		i;
; 992  : 
; 993  : 	tot = 0;

  00010	e3a04000	 mov         r4, #0

; 994  : 	for(i = 0; i < argc; ++i)

  00014	e3570000	 cmp         r7, #0
  00018	da000024	 ble         |$LN18@CommandLin@2|
  0001c	e1a05009	 mov         r5, r9
  00020	e1a06007	 mov         r6, r7
  00024		 |$LL7@CommandLin@2|

; 995  : 		tot += strlen(argv[i]);

  00024	e4950004	 ldr         r0, [r5], #4
  00028	eb000000	 bl          strlen
  0002c	e0844000	 add         r4, r4, r0
  00030	e2566001	 subs        r6, r6, #1
  00034	1afffffa	 bne         |$LL7@CommandLin@2|

; 996  : 
; 997  : 	if(!tot)

  00038	e3540000	 cmp         r4, #0
  0003c	0a00001b	 beq         |$LN18@CommandLin@2|

; 1000 : 		return;
; 1001 : 	}
; 1002 : 
; 1003 : 	// Add room for spaces and the \0
; 1004 : 	tot += argc;

  00040	e0840007	 add         r0, r4, r7

; 1005 : 
; 1006 : 	buf = new char[tot];

  00044	eb000000	 bl          |??2@YAPAXI@Z|
  00048	e1a06000	 mov         r6, r0

; 1007 : 	tot = 0;

  0004c	e3a0a000	 mov         r10, #0
  00050	e3a0b020	 mov         r11, #0x20
  00054		 |$LL3@CommandLin@2|

; 1008 : 	for(i = 0; i < argc; ++i)
; 1009 : 	{
; 1010 : 		len = strlen(argv[i]);

  00054	e4994004	 ldr         r4, [r9], #4
  00058	e1a00004	 mov         r0, r4
  0005c	eb000000	 bl          strlen
  00060	e1a05000	 mov         r5, r0

; 1011 : 		strncpy(&buf[tot], argv[i], len);

  00064	e1a02005	 mov         r2, r5
  00068	e1a01004	 mov         r1, r4
  0006c	e086000a	 add         r0, r6, r10
  00070	eb000000	 bl          strncpy

; 1012 : 		tot += len;

  00074	e08a3005	 add         r3, r10, r5

; 1013 : 		buf[tot++] = ' ';

  00078	e7c6b003	 strb        r11, [r6, +r3]
  0007c	e283a001	 add         r10, r3, #1
  00080	e2577001	 subs        r7, r7, #1
  00084	1afffff2	 bne         |$LL3@CommandLin@2|

; 1014 : 	}
; 1015 : 	buf[tot-1] = 0;

  00088	e086300a	 add         r3, r6, r10
  0008c	e3a02000	 mov         r2, #0

; 1016 : 
; 1017 : 	CommandLine(buf);

  00090	e1a01006	 mov         r1, r6
  00094	e2880044	 add         r0, r8, #0x44
  00098	e5432001	 strb        r2, [r3, #-1]
  0009c	eb000000	 bl          |?Parse@PVRShellCommandLine@@QAAXPBD@Z|

; 1018 : 
; 1019 : 	delete [] buf;

  000a0	e1a00006	 mov         r0, r6
  000a4	eb000000	 bl          |??3@YAXPAX@Z|

; 1020 : }

  000a8	e8bd4ff0	 ldmia       sp!, {r4 - r11, lr}
  000ac	e12fff1e	 bx          lr
  000b0		 |$LN18@CommandLin@2|

; 998  : 	{
; 999  : 		CommandLine("");

  000b0	e59f100c	 ldr         r1, [pc, #0xC]
  000b4	e2880044	 add         r0, r8, #0x44
  000b8	eb000000	 bl          |?Parse@PVRShellCommandLine@@QAAXPBD@Z|

; 1020 : }

  000bc	e8bd4ff0	 ldmia       sp!, {r4 - r11, lr}
  000c0	e12fff1e	 bx          lr
  000c4		 |$LN22@CommandLin@2|
  000c4		 |$LN23@CommandLin@2|
  000c4	00000000	 DCD         |??_C@_00CNPNBAHC@?$AA@|
  000c8		 |$M34125|

			 ENDP  ; |?CommandLine@PVRShellInit@@QAAXHPAPAD@Z|, PVRShellInit::CommandLine

	EXPORT	|?DoIsKeyPressed@PVRShellInit@@QAA_NW4PVRShellKeyName@@@Z| ; PVRShellInit::DoIsKeyPressed

  00000			 AREA	 |.pdata|, PDATA
|$T34140| DCD	|$LN7@DoIsKeyPre|
	DCD	0x40000700
; Function compile flags: /Ogspy

  00000			 AREA	 |.text|, CODE, ARM

  00000		 |?DoIsKeyPressed@PVRShellInit@@QAA_NW4PVRShellKeyName@@@Z| PROC ; PVRShellInit::DoIsKeyPressed

; 1028 : {

  00000		 |$LN7@DoIsKeyPre|
  00000		 |$M34137|

; 1029 : 	if(key == nLastKeyPressed)

  00000	e5903060	 ldr         r3, [r0, #0x60]
  00004	e1510003	 cmp         r1, r3

; 1030 : 	{
; 1031 : 		nLastKeyPressed = PVRShellKeyNameNull;

  00008	03a03000	 moveq       r3, #0
  0000c	05803060	 streq       r3, [r0, #0x60]

; 1032 : 		return true;

  00010	03a00001	 moveq       r0, #1

; 1033 : 	}
; 1034 : 	else
; 1035 : 	{
; 1036 : 		return false;

  00014	13a00000	 movne       r0, #0

; 1037 : 	}
; 1038 : }

  00018	e12fff1e	 bx          lr
  0001c		 |$M34138|

			 ENDP  ; |?DoIsKeyPressed@PVRShellInit@@QAA_NW4PVRShellKeyName@@@Z|, PVRShellInit::DoIsKeyPressed

	EXPORT	|?KeyPressed@PVRShellInit@@QAAXW4PVRShellKeyName@@@Z| ; PVRShellInit::KeyPressed

  00000			 AREA	 |.pdata|, PDATA
|$T34149| DCD	|$LN5@KeyPressed|
	DCD	0x40000200
; Function compile flags: /Ogspy

  00000			 AREA	 |.text|, CODE, ARM

  00000		 |?KeyPressed@PVRShellInit@@QAAXW4PVRShellKeyName@@@Z| PROC ; PVRShellInit::KeyPressed

; 1046 : {

  00000		 |$LN5@KeyPressed|
  00000		 |$M34146|

; 1047 : 	nLastKeyPressed = nKey;

  00000	e5801060	 str         r1, [r0, #0x60]

; 1048 : }

  00004	e12fff1e	 bx          lr
  00008		 |$M34147|

			 ENDP  ; |?KeyPressed@PVRShellInit@@QAAXW4PVRShellKeyName@@@Z|, PVRShellInit::KeyPressed

	EXPORT	|?GetReadPath@PVRShellInit@@QBAPBDXZ|	; PVRShellInit::GetReadPath

  00000			 AREA	 |.pdata|, PDATA
|$T34159| DCD	|$LN5@GetReadPat|
	DCD	0x40000200
; Function compile flags: /Ogspy

  00000			 AREA	 |.text|, CODE, ARM

  00000		 |?GetReadPath@PVRShellInit@@QBAPBDXZ| PROC ; PVRShellInit::GetReadPath

; 1056 : {

  00000		 |$LN5@GetReadPat|
  00000		 |$M34156|

; 1057 : 	return m_pReadPath;

  00000	e5900064	 ldr         r0, [r0, #0x64]

; 1058 : }

  00004	e12fff1e	 bx          lr
  00008		 |$M34157|

			 ENDP  ; |?GetReadPath@PVRShellInit@@QBAPBDXZ|, PVRShellInit::GetReadPath

	EXPORT	|?GetWritePath@PVRShellInit@@QBAPBDXZ|	; PVRShellInit::GetWritePath

  00000			 AREA	 |.pdata|, PDATA
|$T34169| DCD	|$LN5@GetWritePa|
	DCD	0x40000200
; Function compile flags: /Ogspy

  00000			 AREA	 |.text|, CODE, ARM

  00000		 |?GetWritePath@PVRShellInit@@QBAPBDXZ| PROC ; PVRShellInit::GetWritePath

; 1066 : {

  00000		 |$LN5@GetWritePa|
  00000		 |$M34166|

; 1067 : 	return m_pWritePath;

  00000	e5900068	 ldr         r0, [r0, #0x68]

; 1068 : }

  00004	e12fff1e	 bx          lr
  00008		 |$M34167|

			 ENDP  ; |?GetWritePath@PVRShellInit@@QBAPBDXZ|, PVRShellInit::GetWritePath

	EXPORT	|?SetReadPath@PVRShellInit@@QAAXQBD@Z|	; PVRShellInit::SetReadPath
; File c:\wince600\osdesigns\combined_3530\evm_3530\wince600\evm_omap3530_armv4i\cesysgen\sdk\inc\stdlib.h

  00000			 AREA	 |.pdata|, PDATA
|$T34184| DCD	|$LN8@SetReadPat|
	DCD	0x40001301
; Function compile flags: /Ogspy
; File c:\wince600\public\powervr-sdk\ogles2\shell\pvrshell.cpp

  00000			 AREA	 |.text|, CODE, ARM

  00000		 |?SetReadPath@PVRShellInit@@QAAXQBD@Z| PROC ; PVRShellInit::SetReadPath

; 1096 : {

  00000		 |$LN8@SetReadPat|
  00000	e92d4030	 stmdb       sp!, {r4, r5, lr}
  00004		 |$M34181|
  00004	e1a04001	 mov         r4, r1
  00008	e1a05000	 mov         r5, r0

; 1097 : 	m_pReadPath = new char[strlen(str)+1];

  0000c	e1a00004	 mov         r0, r4
  00010	eb000000	 bl          strlen
  00014	e2800001	 add         r0, r0, #1
  00018	eb000000	 bl          |??2@YAPAXI@Z|
  0001c	e3500000	 cmp         r0, #0
  00020	e5850064	 str         r0, [r5, #0x64]

; 1098 : 
; 1099 : 	if(m_pReadPath)

  00024	0a000006	 beq         |$LN1@SetReadPat|

; 1100 : 	{
; 1101 : 		strcpy(m_pReadPath, str);

  00028	e1a01004	 mov         r1, r4
  0002c	eb000000	 bl          strcpy

; 1102 : 		char* lastSlash = strrchr(m_pReadPath, PVRSHELL_DIR_SYM);

  00030	e5950064	 ldr         r0, [r5, #0x64]
  00034	e3a0105c	 mov         r1, #0x5C
  00038	eb000000	 bl          strrchr

; 1103 : 		lastSlash[1] = 0;

  0003c	e3a03000	 mov         r3, #0
  00040	e5c03001	 strb        r3, [r0, #1]
  00044		 |$LN1@SetReadPat|

; 1104 : 	}
; 1105 : }

  00044	e8bd4030	 ldmia       sp!, {r4, r5, lr}
  00048	e12fff1e	 bx          lr
  0004c		 |$M34182|

			 ENDP  ; |?SetReadPath@PVRShellInit@@QAAXQBD@Z|, PVRShellInit::SetReadPath

	EXPORT	|?SetWritePath@PVRShellInit@@QAAXQBD@Z|	; PVRShellInit::SetWritePath
; File c:\wince600\osdesigns\combined_3530\evm_3530\wince600\evm_omap3530_armv4i\cesysgen\sdk\inc\stdlib.h

  00000			 AREA	 |.pdata|, PDATA
|$T34199| DCD	|$LN8@SetWritePa|
	DCD	0x40001301
; Function compile flags: /Ogspy
; File c:\wince600\public\powervr-sdk\ogles2\shell\pvrshell.cpp

  00000			 AREA	 |.text|, CODE, ARM

  00000		 |?SetWritePath@PVRShellInit@@QAAXQBD@Z| PROC ; PVRShellInit::SetWritePath

; 1113 : {

  00000		 |$LN8@SetWritePa|
  00000	e92d4030	 stmdb       sp!, {r4, r5, lr}
  00004		 |$M34196|
  00004	e1a04001	 mov         r4, r1
  00008	e1a05000	 mov         r5, r0

; 1114 : 	m_pWritePath = new char[strlen(str)+1];

  0000c	e1a00004	 mov         r0, r4
  00010	eb000000	 bl          strlen
  00014	e2800001	 add         r0, r0, #1
  00018	eb000000	 bl          |??2@YAPAXI@Z|
  0001c	e3500000	 cmp         r0, #0
  00020	e5850068	 str         r0, [r5, #0x68]

; 1115 : 
; 1116 : 	if(m_pWritePath)

  00024	0a000006	 beq         |$LN1@SetWritePa|

; 1117 : 	{
; 1118 : 		strcpy(m_pWritePath, str);

  00028	e1a01004	 mov         r1, r4
  0002c	eb000000	 bl          strcpy

; 1119 : 		char* lastSlash = strrchr(m_pWritePath, PVRSHELL_DIR_SYM);

  00030	e5950068	 ldr         r0, [r5, #0x68]
  00034	e3a0105c	 mov         r1, #0x5C
  00038	eb000000	 bl          strrchr

; 1120 : 		lastSlash[1] = 0;

  0003c	e3a03000	 mov         r3, #0
  00040	e5c03001	 strb        r3, [r0, #1]
  00044		 |$LN1@SetWritePa|

; 1121 : 	}
; 1122 : }

  00044	e8bd4030	 ldmia       sp!, {r4, r5, lr}
  00048	e12fff1e	 bx          lr
  0004c		 |$M34197|

			 ENDP  ; |?SetWritePath@PVRShellInit@@QAAXQBD@Z|, PVRShellInit::SetWritePath

	EXPORT	|?FpsUpdate@PVRShellInit@@QAAXXZ|	; PVRShellInit::FpsUpdate
	EXPORT	|??_C@_0BP@DPFNKOOF@PVRShell?3?5frame?5?$CFd?0?5FPS?5?$CF?41f?4?6?$AA@| [ DATA ] ; `string'
	IMPORT	|__imp___itos|
	IMPORT	|__imp___muls|
	IMPORT	|__imp___utos|
	IMPORT	|__imp___divs|
	IMPORT	|__imp___stod|

  00000			 AREA	 |.pdata|, PDATA
|$T34224| DCD	|$LN8@FpsUpdate|
	DCD	0x40003d02

  00000			 AREA	 |.rdata|, DATA, READONLY
|??_C@_0BP@DPFNKOOF@PVRShell?3?5frame?5?$CFd?0?5FPS?5?$CF?41f?4?6?$AA@| DCB "P"
	DCB	"VRShell: frame %d, FPS %.1f.", 0xa, 0x0 ; `string'
; Function compile flags: /Ogspy

  00000			 AREA	 |.text|, CODE, ARM

  00000		 |?FpsUpdate@PVRShellInit@@QAAXXZ| PROC	; PVRShellInit::FpsUpdate

; 1130 : {

  00000		 |$LN8@FpsUpdate|
  00000	e92d41f0	 stmdb       sp!, {r4 - r8, lr}
  00004	e24dd004	 sub         sp, sp, #4
  00008		 |$M34221|
  00008	e1a06000	 mov         r6, r0

; 1131 : 	unsigned int ui32TimeDelta, ui32Time;
; 1132 : 
; 1133 : 	ui32Time = m_pShell->PVRShellGetTime();

  0000c	e5963040	 ldr         r3, [r6, #0x40]
  00010	e5930008	 ldr         r0, [r3, #8]
  00014	eb000000	 bl          |?OsGetTime@PVRShellInit@@QAAKXZ|

; 1134 : 	++m_i32FpsFrameCnt;

  00018	e596306c	 ldr         r3, [r6, #0x6C]

; 1135 : 	ui32TimeDelta = ui32Time - m_i32FpsTimePrev;

  0001c	e5962070	 ldr         r2, [r6, #0x70]
  00020	e1a07000	 mov         r7, r0
  00024	e2830001	 add         r0, r3, #1
  00028	e0478002	 sub         r8, r7, r2
  0002c	e586006c	 str         r0, [r6, #0x6C]

; 1136 : 
; 1137 : 	if(ui32TimeDelta >= 1000)

  00030	e3580ffa	 cmp         r8, #0xFA, 30
  00034	3a000025	 bcc         |$LN1@FpsUpdate|

; 1138 : 	{
; 1139 : 		float fFPS = 1000.0f * (float) m_i32FpsFrameCnt / (float) ui32TimeDelta;
; 1140 : 
; 1141 : 		m_pShell->PVRShellOutputDebug("PVRShell: frame %d, FPS %.1f.\n",
; 1142 : 			m_pShell->m_pShellData->nShellCurFrameNum, fFPS);

  00038	e59f30b0	 ldr         r3, [pc, #0xB0]
  0003c	e5965040	 ldr         r5, [r6, #0x40]
  00040	e5933000	 ldr         r3, [r3]
  00044	e1a0e00f	 mov         lr, pc
  00048	e12fff13	 bx          r3
  0004c	e59f3098	 ldr         r3, [pc, #0x98]
  00050	e3a02311	 mov         r2, #0x11, 6
  00054	e382187a	 orr         r1, r2, #0x7A, 16
  00058	e5933000	 ldr         r3, [r3]
  0005c	e1a0e00f	 mov         lr, pc
  00060	e12fff13	 bx          r3
  00064	e59f307c	 ldr         r3, [pc, #0x7C]
  00068	e1a04000	 mov         r4, r0
  0006c	e1a00008	 mov         r0, r8
  00070	e5933000	 ldr         r3, [r3]
  00074	e1a0e00f	 mov         lr, pc
  00078	e12fff13	 bx          r3
  0007c	e59f3060	 ldr         r3, [pc, #0x60]
  00080	e1a01000	 mov         r1, r0
  00084	e1a00004	 mov         r0, r4
  00088	e5933000	 ldr         r3, [r3]
  0008c	e1a0e00f	 mov         lr, pc
  00090	e12fff13	 bx          r3
  00094	e59f3044	 ldr         r3, [pc, #0x44]
  00098	e5933000	 ldr         r3, [r3]
  0009c	e1a0e00f	 mov         lr, pc
  000a0	e12fff13	 bx          r3
  000a4	e5953004	 ldr         r3, [r5, #4]
  000a8	e1a0e001	 mov         lr, r1
  000ac	e59f1028	 ldr         r1, [pc, #0x28]
  000b0	e593203c	 ldr         r2, [r3, #0x3C]
  000b4	e1a03000	 mov         r3, r0
  000b8	e1a00005	 mov         r0, r5
  000bc	e58de000	 str         lr, [sp]
  000c0	eb000000	 bl          |?PVRShellOutputDebug@PVRShell@@QBAXQBDZZ|

; 1143 : 
; 1144 : 		m_i32FpsFrameCnt = 0;

  000c4	e3a03000	 mov         r3, #0
  000c8	e586306c	 str         r3, [r6, #0x6C]

; 1145 : 		m_i32FpsTimePrev = ui32Time;

  000cc	e5867070	 str         r7, [r6, #0x70]
  000d0		 |$LN1@FpsUpdate|

; 1146 : 	}
; 1147 : }

  000d0	e28dd004	 add         sp, sp, #4
  000d4	e8bd41f0	 ldmia       sp!, {r4 - r8, lr}
  000d8	e12fff1e	 bx          lr
  000dc		 |$LN9@FpsUpdate|
  000dc		 |$LN10@FpsUpdate|
  000dc	00000000	 DCD         |??_C@_0BP@DPFNKOOF@PVRShell?3?5frame?5?$CFd?0?5FPS?5?$CF?41f?4?6?$AA@|
  000e0		 |$LN11@FpsUpdate|
  000e0	00000000	 DCD         |__imp___stod|
  000e4		 |$LN12@FpsUpdate|
  000e4	00000000	 DCD         |__imp___divs|
  000e8		 |$LN13@FpsUpdate|
  000e8	00000000	 DCD         |__imp___utos|
  000ec		 |$LN14@FpsUpdate|
  000ec	00000000	 DCD         |__imp___muls|
  000f0		 |$LN15@FpsUpdate|
  000f0	00000000	 DCD         |__imp___itos|
  000f4		 |$M34222|

			 ENDP  ; |?FpsUpdate@PVRShellInit@@QAAXXZ|, PVRShellInit::FpsUpdate

	IMPORT	|malloc|

  00000			 AREA	 |.pdata|, PDATA
|$T34243| DCD	|$LN9@StringCopy|
	DCD	0x40001a01
; Function compile flags: /Ogspy

  00000			 AREA	 |.text|, CODE, ARM

  00000		 |?StringCopy@@YA_NAAPADQBD@Z| PROC	; StringCopy

; 1339 : {

  00000		 |$LN9@StringCopy|
  00000	e92d4030	 stmdb       sp!, {r4, r5, lr}
  00004		 |$M34240|
  00004	e1a04001	 mov         r4, r1
  00008	e1a05000	 mov         r5, r0

; 1340 : 	size_t len;
; 1341 : 
; 1342 : 	FREE(pszStr);

  0000c	e5953000	 ldr         r3, [r5]
  00010	e3530000	 cmp         r3, #0
  00014	0a000003	 beq         |$LN3@StringCopy|
  00018	e1a00003	 mov         r0, r3
  0001c	eb000000	 bl          free
  00020	e3a03000	 mov         r3, #0
  00024	e5853000	 str         r3, [r5]
  00028		 |$LN3@StringCopy|

; 1343 : 
; 1344 : 	if(!pszSrc)

  00028	e3540000	 cmp         r4, #0

; 1345 : 		return true;

  0002c	0a00000a	 beq         |$LN6@StringCopy|

; 1346 : 
; 1347 : 	len = strlen(pszSrc)+1;

  00030	e1a00004	 mov         r0, r4
  00034	eb000000	 bl          strlen
  00038	e2800001	 add         r0, r0, #1

; 1348 : 	pszStr = (char*)malloc(len);

  0003c	eb000000	 bl          malloc
  00040	e3500000	 cmp         r0, #0
  00044	e5850000	 str         r0, [r5]

; 1349 : 	if(!pszStr)
; 1350 : 		return false;

  00048	03a00000	 moveq       r0, #0

; 1354 : }

  0004c	08bd4030	 ldmeqia     sp!, {r4, r5, lr}
  00050	012fff1e	 bxeq        lr

; 1351 : 
; 1352 : 	strcpy(pszStr, pszSrc);

  00054	e1a01004	 mov         r1, r4
  00058	eb000000	 bl          strcpy
  0005c		 |$LN6@StringCopy|

; 1353 : 	return true;

  0005c	e3a00001	 mov         r0, #1

; 1354 : }

  00060	e8bd4030	 ldmia       sp!, {r4, r5, lr}
  00064	e12fff1e	 bx          lr
  00068		 |$M34241|

			 ENDP  ; |?StringCopy@@YA_NAAPADQBD@Z|, StringCopy


  00000			 AREA	 |.pdata|, PDATA
|$T34259| DCD	|$LN8@scalar|
	DCD	0x40001001
; Function compile flags: /Ogspy

  00000			 AREA	 |.text|, CODE, ARM

  00000		 |??_GPVRShell@@UAAPAXI@Z| PROC		; PVRShell::`scalar deleting destructor'
  00000		 |$LN8@scalar|
  00000	e92d4030	 stmdb       sp!, {r4, r5, lr}
  00004		 |$M34256|
  00004	e1a04001	 mov         r4, r1
  00008	e1a05000	 mov         r5, r0
  0000c	e59f3028	 ldr         r3, [pc, #0x28]
  00010	e5950004	 ldr         r0, [r5, #4]
  00014	e5853000	 str         r3, [r5]
  00018	eb000000	 bl          |??3@YAXPAX@Z|
  0001c	e3140001	 tst         r4, #1
  00020	e3a03000	 mov         r3, #0
  00024	11a00005	 movne       r0, r5
  00028	e5853004	 str         r3, [r5, #4]
  0002c	1b000000	 blne        |??3@YAXPAX@Z|
  00030	e1a00005	 mov         r0, r5
  00034	e8bd4030	 ldmia       sp!, {r4, r5, lr}
  00038	e12fff1e	 bx          lr
  0003c		 |$LN9@scalar|
  0003c		 |$LN10@scalar|
  0003c	00000000	 DCD         |??_7PVRShell@@6B@|
  00040		 |$M34257|

			 ENDP  ; |??_GPVRShell@@UAAPAXI@Z|, PVRShell::`scalar deleting destructor'

	EXPORT	|?PVRShellSet@PVRShell@@QAA_NW4prefNameConstPtrEnum@@QBX@Z| ; PVRShell::PVRShellSet
	EXPORT	|??_C@_0CF@DJPOCLCC@Exit?5message?5has?5been?5set?5to?3?5?$CC?$CF@| [ DATA ] ; `string'

  00000			 AREA	 |.pdata|, PDATA
|$T34274| DCD	|$LN11@PVRShellSe@5|
	DCD	0x40001901

  00000			 AREA	 |.rdata|, DATA, READONLY
|??_C@_0CF@DJPOCLCC@Exit?5message?5has?5been?5set?5to?3?5?$CC?$CF@| DCB "E"
	DCB	"xit message has been set to: ""%s"".", 0xa, 0x0 ; `string'
; Function compile flags: /Ogspy

  00000			 AREA	 |.text|, CODE, ARM

  00000		 |?PVRShellSet@PVRShell@@QAA_NW4prefNameConstPtrEnum@@QBX@Z| PROC ; PVRShell::PVRShellSet

; 403  : {

  00000		 |$LN11@PVRShellSe@5|
  00000	e92d4030	 stmdb       sp!, {r4, r5, lr}
  00004		 |$M34271|
  00004	e1a04002	 mov         r4, r2
  00008	e3510000	 cmp         r1, #0
  0000c	e1a05000	 mov         r5, r0

; 404  : 	switch(prefName)

  00010	0a00000c	 beq         |$LN3@PVRShellSe@5|
  00014	e3510005	 cmp         r1, #5

; 413  : 	default:
; 414  : 		break;
; 415  : 	}
; 416  : 	return false;

  00018	13a00000	 movne       r0, #0

; 417  : }

  0001c	18bd4030	 ldmneia     sp!, {r4, r5, lr}
  00020	112fff1e	 bxne        lr

; 409  : 	case prefExitMessage:
; 410  : 		StringCopy(m_pShellData->pszExitMessage, (char*)ptrValue);

  00024	e5953004	 ldr         r3, [r5, #4]
  00028	e1a01004	 mov         r1, r4
  0002c	e2830004	 add         r0, r3, #4
  00030	eb000000	 bl          |?StringCopy@@YA_NAAPADQBD@Z|

; 411  : 		PVRShellOutputDebug("Exit message has been set to: \"%s\".\n", ptrValue);

  00034	e59f1024	 ldr         r1, [pc, #0x24]
  00038	e1a02004	 mov         r2, r4
  0003c	e1a00005	 mov         r0, r5
  00040	eb000000	 bl          |?PVRShellOutputDebug@PVRShell@@QBAXQBDZZ|

; 412  : 		return true;

  00044	ea000002	 b           |$LN8@PVRShellSe@5|
  00048		 |$LN3@PVRShellSe@5|

; 405  : 	{
; 406  : 	case prefAppName:
; 407  : 		StringCopy(m_pShellData->pszAppName, (char*)ptrValue);

  00048	e5950004	 ldr         r0, [r5, #4]
  0004c	e1a01004	 mov         r1, r4
  00050	eb000000	 bl          |?StringCopy@@YA_NAAPADQBD@Z|
  00054		 |$LN8@PVRShellSe@5|

; 408  : 		return true;

  00054	e3a00001	 mov         r0, #1

; 417  : }

  00058	e8bd4030	 ldmia       sp!, {r4, r5, lr}
  0005c	e12fff1e	 bx          lr
  00060		 |$LN12@PVRShellSe@5|
  00060		 |$LN13@PVRShellSe@5|
  00060	00000000	 DCD         |??_C@_0CF@DJPOCLCC@Exit?5message?5has?5been?5set?5to?3?5?$CC?$CF@|
  00064		 |$M34272|

			 ENDP  ; |?PVRShellSet@PVRShell@@QAA_NW4prefNameConstPtrEnum@@QBX@Z|, PVRShell::PVRShellSet

	EXPORT	|?PVRShellGet@PVRShell@@QBAPBXW4prefNameConstPtrEnum@@@Z| ; PVRShell::PVRShellGet
	EXPORT	|??_C@_0N@PNLGIOMB@2?403?423?41162?$AA@| [ DATA ] ; `string'

  00000			 AREA	 |.pdata|, PDATA
|$T34295| DCD	|$LN19@PVRShellGe@6|
	DCD	0x40002300

  00000			 AREA	 |.rdata|, DATA, READONLY
|??_C@_0N@PNLGIOMB@2?403?423?41162?$AA@| DCB "2.03.23.1162", 0x0 ; `string'
; Function compile flags: /Ogspy

  00000			 AREA	 |.text|, CODE, ARM

  00000		 |?PVRShellGet@PVRShell@@QBAPBXW4prefNameConstPtrEnum@@@Z| PROC ; PVRShell::PVRShellGet

; 427  : {

  00000		 |$LN19@PVRShellGe@6|
  00000		 |$M34292|
  00000	e3510000	 cmp         r1, #0

; 428  : 	switch(prefName)

  00004	0a00001c	 beq         |$LN8@PVRShellGe@6|
  00008	e3510001	 cmp         r1, #1
  0000c	0a000017	 beq         |$LN6@PVRShellGe@6|
  00010	e3510002	 cmp         r1, #2
  00014	0a000012	 beq         |$LN5@PVRShellGe@6|
  00018	e3510003	 cmp         r1, #3
  0001c	0a00000d	 beq         |$LN4@PVRShellGe@6|
  00020	e3510004	 cmp         r1, #4
  00024	0a000008	 beq         |$LN3@PVRShellGe@6|
  00028	e3510005	 cmp         r1, #5
  0002c	0a000003	 beq         |$LN7@PVRShellGe@6|
  00030	e3510006	 cmp         r1, #6

; 444  : 	default:
; 445  : 		return 0;

  00034	13a00000	 movne       r0, #0

; 442  : 	case prefVersion:
; 443  : 		return PVRSDK_VERSION;

  00038	059f0048	 ldreq       r0, [pc, #0x48]

; 446  : 	}
; 447  : }

  0003c	e12fff1e	 bx          lr
  00040		 |$LN7@PVRShellGe@6|

; 432  : 	case prefExitMessage:
; 433  : 		return m_pShellData->pszExitMessage;

  00040	e5903004	 ldr         r3, [r0, #4]
  00044	e5930004	 ldr         r0, [r3, #4]

; 446  : 	}
; 447  : }

  00048	e12fff1e	 bx          lr
  0004c		 |$LN3@PVRShellGe@6|

; 440  : 	case prefCommandLineOpts:
; 441  : 		return m_pShellInit->m_CommandLine.m_pOpt;

  0004c	e5903008	 ldr         r3, [r0, #8]
  00050	e593004c	 ldr         r0, [r3, #0x4C]

; 446  : 	}
; 447  : }

  00054	e12fff1e	 bx          lr
  00058		 |$LN4@PVRShellGe@6|

; 438  : 	case prefCommandLine:
; 439  : 		return m_pShellInit->m_CommandLine.m_psOrig;

  00058	e5903008	 ldr         r3, [r0, #8]
  0005c	e5930044	 ldr         r0, [r3, #0x44]

; 446  : 	}
; 447  : }

  00060	e12fff1e	 bx          lr
  00064		 |$LN5@PVRShellGe@6|

; 436  : 	case prefWritePath:
; 437  : 		return m_pShellInit->GetWritePath();

  00064	e5903008	 ldr         r3, [r0, #8]
  00068	e5930068	 ldr         r0, [r3, #0x68]

; 446  : 	}
; 447  : }

  0006c	e12fff1e	 bx          lr
  00070		 |$LN6@PVRShellGe@6|

; 434  : 	case prefReadPath:
; 435  : 		return m_pShellInit->GetReadPath();

  00070	e5903008	 ldr         r3, [r0, #8]
  00074	e5930064	 ldr         r0, [r3, #0x64]

; 446  : 	}
; 447  : }

  00078	e12fff1e	 bx          lr
  0007c		 |$LN8@PVRShellGe@6|

; 429  : 	{
; 430  : 	case prefAppName:
; 431  : 		return m_pShellData->pszAppName;

  0007c	e5903004	 ldr         r3, [r0, #4]
  00080	e5930000	 ldr         r0, [r3]

; 446  : 	}
; 447  : }

  00084	e12fff1e	 bx          lr
  00088		 |$LN20@PVRShellGe@6|
  00088		 |$LN21@PVRShellGe@6|
  00088	00000000	 DCD         |??_C@_0N@PNLGIOMB@2?403?423?41162?$AA@|
  0008c		 |$M34293|

			 ENDP  ; |?PVRShellGet@PVRShell@@QBAPBXW4prefNameConstPtrEnum@@@Z|, PVRShell::PVRShellGet

	EXPORT	|?PVRShellScreenSave@PVRShell@@QAAHQBDQBEQAD@Z| ; PVRShell::PVRShellScreenSave
	EXPORT	|??_C@_0N@GALALBKJ@?$CFs?$CFs0000?4bmp?$AA@| [ DATA ] ; `string'
	EXPORT	|??_C@_0CG@PIPLNNIL@PVRShell?3?5?$CKWARNING?$CK?5?3?5Overwritin@| [ DATA ] ; `string'
	EXPORT	|??_C@_0N@OFLHNIGF@?$CFs?$CFs?$CF04d?4bmp?$AA@| [ DATA ] ; `string'
	EXPORT	|??_C@_01KDCPPGHE@r?$AA@| [ DATA ]	; `string'
	IMPORT	|sprintf|

  00000			 AREA	 |.pdata|, PDATA
|$T34346| DCD	|$LN33@PVRShellSc@2|
	DCD	0x40004902

  00000			 AREA	 |.rdata|, DATA, READONLY
|??_C@_0N@GALALBKJ@?$CFs?$CFs0000?4bmp?$AA@| DCB "%s%s0000.bmp", 0x0 ; `string'

  00000			 AREA	 |.rdata|, DATA, READONLY
|??_C@_0CG@PIPLNNIL@PVRShell?3?5?$CKWARNING?$CK?5?3?5Overwritin@| DCB "PV"
	DCB	"RShell: *WARNING* : Overwriting %s", 0xa, 0x0 ; `string'

  00000			 AREA	 |.rdata|, DATA, READONLY
|??_C@_0N@OFLHNIGF@?$CFs?$CFs?$CF04d?4bmp?$AA@| DCB "%s%s%04d.bmp", 0x0 ; `string'

  00000			 AREA	 |.rdata|, DATA, READONLY
|??_C@_01KDCPPGHE@r?$AA@| DCB "r", 0x0			; `string'
; Function compile flags: /Ogspy

  00000			 AREA	 |.text|, CODE, ARM

  00000		 |?PVRShellScreenSave@PVRShell@@QAAHQBDQBEQAD@Z| PROC ; PVRShell::PVRShellScreenSave

; 494  : {

  00000		 |$LN33@PVRShellSc@2|
  00000	e92d4ff0	 stmdb       sp!, {r4 - r11, lr}
  00004	e24dd00c	 sub         sp, sp, #0xC
  00008		 |$M34343|
  00008	e1a06003	 mov         r6, r3
  0000c	e1a0b002	 mov         r11, r2
  00010	e1a0a001	 mov         r10, r1
  00014	e1a08000	 mov         r8, r0

; 495  : 	FILE		*file = 0;
; 496  : 	const char	*pszWritePath;
; 497  : 	char		*pszFileName;
; 498  : 	int			nScreenshotCount;
; 499  : 	int			dwWidth	= m_pShellData->nShellDimX;
; 500  : 	int			dwHeight= m_pShellData->nShellDimY;
; 501  : 	int 		error;
; 502  : 
; 503  : 	pszWritePath = (const char*)PVRShellGet(prefWritePath);

  00018	e5984004	 ldr         r4, [r8, #4]
  0001c	e598e008	 ldr         lr, [r8, #8]
  00020	e5943008	 ldr         r3, [r4, #8]
  00024	e59e9068	 ldr         r9, [lr, #0x68]
  00028	e58d3008	 str         r3, [sp, #8]
  0002c	e594300c	 ldr         r3, [r4, #0xC]

; 504  : 	pszFileName = (char*)malloc(strlen(pszWritePath) + 200);

  00030	e1a00009	 mov         r0, r9
  00034	e58d3004	 str         r3, [sp, #4]
  00038	eb000000	 bl          strlen
  0003c	e28000c8	 add         r0, r0, #0xC8
  00040	eb000000	 bl          malloc

; 505  : 
; 506  : 	/* Look for the first file name that doesn't already exist */
; 507  : 	for(nScreenshotCount = 0; nScreenshotCount < 10000; ++nScreenshotCount)

  00044	e3a03c27	 mov         r3, #0x27, 24
  00048	e3837010	 orr         r7, r3, #0x10
  0004c	e1a04000	 mov         r4, r0
  00050	e3a05000	 mov         r5, #0
  00054		 |$LL9@PVRShellSc@2|

; 508  : 	{
; 509  : 		sprintf(pszFileName, "%s%s%04d.bmp", pszWritePath, fname, nScreenshotCount);

  00054	e59f10c4	 ldr         r1, [pc, #0xC4]
  00058	e1a0300a	 mov         r3, r10
  0005c	e1a02009	 mov         r2, r9
  00060	e1a00004	 mov         r0, r4
  00064	e58d5000	 str         r5, [sp]
  00068	eb000000	 bl          sprintf

; 510  : 		file = fopen(pszFileName,"r");

  0006c	e59f10a8	 ldr         r1, [pc, #0xA8]
  00070	e1a00004	 mov         r0, r4
  00074	eb000000	 bl          fopen
  00078	e3500000	 cmp         r0, #0

; 511  : 		if(!file)

  0007c	0a000003	 beq         |$LN29@PVRShellSc@2|

; 512  : 			break;
; 513  : 		fclose(file);

  00080	eb000000	 bl          fclose
  00084	e2855001	 add         r5, r5, #1
  00088	e1550007	 cmp         r5, r7
  0008c	bafffff0	 blt         |$LL9@PVRShellSc@2|
  00090		 |$LN29@PVRShellSc@2|

; 514  : 	}
; 515  : 
; 516  : 	/* If all files already exist, replace the first one */
; 517  : 	if (nScreenshotCount==10000)

  00090	e1550007	 cmp         r5, r7
  00094	1a000008	 bne         |$LN5@PVRShellSc@2|

; 518  : 	{
; 519  : 		sprintf(pszFileName, "%s%s0000.bmp", pszWritePath, fname);

  00098	e59f1078	 ldr         r1, [pc, #0x78]
  0009c	e1a0300a	 mov         r3, r10
  000a0	e1a02009	 mov         r2, r9
  000a4	e1a00004	 mov         r0, r4
  000a8	eb000000	 bl          sprintf

; 520  : 		PVRShellOutputDebug("PVRShell: *WARNING* : Overwriting %s\n", pszFileName);

  000ac	e59f1060	 ldr         r1, [pc, #0x60]
  000b0	e1a02004	 mov         r2, r4
  000b4	e1a00008	 mov         r0, r8
  000b8	eb000000	 bl          |?PVRShellOutputDebug@PVRShell@@QBAXQBDZZ|
  000bc		 |$LN5@PVRShellSc@2|

; 521  : 	}
; 522  : 
; 523  : 	if(ofname)	// requested the output file name

  000bc	e3560000	 cmp         r6, #0

; 524  : 	{
; 525  : 		strcpy(ofname, pszFileName);

  000c0	11a01004	 movne       r1, r4
  000c4	11a00006	 movne       r0, r6
  000c8	1b000000	 blne        strcpy

; 526  : 	}
; 527  : 
; 528  : 	error = PVRShellWriteBMPFile(pszFileName, dwWidth, dwHeight, pLines);

  000cc	e59d3004	 ldr         r3, [sp, #4]
  000d0	e59d2008	 ldr         r2, [sp, #8]
  000d4	e1a01004	 mov         r1, r4
  000d8	e1a00008	 mov         r0, r8
  000dc	e58db000	 str         r11, [sp]
  000e0	eb000000	 bl          |?PVRShellWriteBMPFile@PVRShell@@QAAHQBDKKQBX@Z|

; 529  : 	FREE(pszFileName);

  000e4	e3540000	 cmp         r4, #0
  000e8	e1a05000	 mov         r5, r0
  000ec	11a00004	 movne       r0, r4
  000f0	1b000000	 blne        free

; 530  : 	if (error)

  000f4	e3550000	 cmp         r5, #0

; 531  : 	{
; 532  : 		return 10*error+1;

  000f8	10853105	 addne       r3, r5, r5, lsl #2
  000fc	11a03083	 movne       r3, r3, lsl #1
  00100	12830001	 addne       r0, r3, #1

; 533  : 	}
; 534  : 	else
; 535  : 	{
; 536  : 		// No problem occured
; 537  : 		return 0;

  00104	03a00000	 moveq       r0, #0

; 538  : 	}
; 539  : }

  00108	e28dd00c	 add         sp, sp, #0xC
  0010c	e8bd4ff0	 ldmia       sp!, {r4 - r11, lr}
  00110	e12fff1e	 bx          lr
  00114		 |$LN34@PVRShellSc@2|
  00114		 |$LN35@PVRShellSc@2|
  00114	00000000	 DCD         |??_C@_0CG@PIPLNNIL@PVRShell?3?5?$CKWARNING?$CK?5?3?5Overwritin@|
  00118		 |$LN36@PVRShellSc@2|
  00118	00000000	 DCD         |??_C@_0N@GALALBKJ@?$CFs?$CFs0000?4bmp?$AA@|
  0011c		 |$LN37@PVRShellSc@2|
  0011c	00000000	 DCD         |??_C@_01KDCPPGHE@r?$AA@|
  00120		 |$LN38@PVRShellSc@2|
  00120	00000000	 DCD         |??_C@_0N@OFLHNIGF@?$CFs?$CFs?$CF04d?4bmp?$AA@|
  00124		 |$M34344|

			 ENDP  ; |?PVRShellScreenSave@PVRShell@@QAAHQBDQBEQAD@Z|, PVRShell::PVRShellScreenSave

	EXPORT	|?PVRShellIsKeyPressed@PVRShell@@QAA_NW4PVRShellKeyName@@@Z| ; PVRShell::PVRShellIsKeyPressed

  00000			 AREA	 |.pdata|, PDATA
|$T34371| DCD	|$LN10@PVRShellIs|
	DCD	0x40000b00
; Function compile flags: /Ogspy

  00000			 AREA	 |.text|, CODE, ARM

  00000		 |?PVRShellIsKeyPressed@PVRShell@@QAA_NW4PVRShellKeyName@@@Z| PROC ; PVRShell::PVRShellIsKeyPressed

; 723  : {

  00000		 |$LN10@PVRShellIs|
  00000		 |$M34368|

; 724  : 	if(!m_pShellInit)

  00000	e5903008	 ldr         r3, [r0, #8]
  00004	e1b02003	 movs        r2, r3

; 725  : 		return false;

  00008	0a000005	 beq         |$LN5@PVRShellIs|

; 726  : 
; 727  : 	return m_pShellInit->DoIsKeyPressed(key);

  0000c	e5923060	 ldr         r3, [r2, #0x60]
  00010	e1510003	 cmp         r1, r3
  00014	03a03000	 moveq       r3, #0
  00018	05823060	 streq       r3, [r2, #0x60]
  0001c	03a00001	 moveq       r0, #1

; 728  : }

  00020	012fff1e	 bxeq        lr

; 726  : 
; 727  : 	return m_pShellInit->DoIsKeyPressed(key);

  00024		 |$LN5@PVRShellIs|
  00024	e3a00000	 mov         r0, #0

; 728  : }

  00028	e12fff1e	 bx          lr
  0002c		 |$M34369|

			 ENDP  ; |?PVRShellIsKeyPressed@PVRShell@@QAA_NW4PVRShellKeyName@@@Z|, PVRShell::PVRShellIsKeyPressed

	EXPORT	|?Apply@PVRShellCommandLine@@QAAXAAVPVRShell@@@Z| ; PVRShellCommandLine::Apply
	EXPORT	|??_C@_05BEOLBNEC@?9info?$AA@| [ DATA ]	; `string'
	EXPORT	|??_C@_04EOCCAJON@?9fps?$AA@| [ DATA ]	; `string'
	EXPORT	|??_C@_0P@LKMABNDH@Version?3?5?$CC?$CFs?$CC?6?$AA@| [ DATA ] ; `string'
	EXPORT	|??_C@_08NPLKDBJI@?9version?$AA@| [ DATA ] ; `string'
	EXPORT	|??_C@_03NMAABFGF@?9ps?$AA@| [ DATA ]	; `string'
	EXPORT	|??_C@_0N@EJMKBNPO@?9powersaving?$AA@| [ DATA ] ; `string'
	EXPORT	|??_C@_06LFFODNEG@?9vsync?$AA@| [ DATA ] ; `string'
	EXPORT	|??_C@_05MHNCFLJI@?9posy?$AA@| [ DATA ]	; `string'
	EXPORT	|??_C@_05NOMJGKNJ@?9posx?$AA@| [ DATA ]	; `string'
	EXPORT	|??_C@_04NBEJDJEL@?9qat?$AA@| [ DATA ]	; `string'
	EXPORT	|??_C@_0P@MDIHKEFD@?9quitaftertime?$AA@| [ DATA ] ; `string'
	EXPORT	|??_C@_04KJLNEJJI@?9qaf?$AA@| [ DATA ]	; `string'
	EXPORT	|??_C@_0BA@PHMAPDAL@?9quitafterframe?$AA@| [ DATA ] ; `string'
	EXPORT	|??_C@_03LKCKGODI@?9sw?$AA@| [ DATA ]	; `string'
	EXPORT	|??_C@_0M@POMOHKFL@?9fullscreen?$AA@| [ DATA ] ; `string'
	EXPORT	|??_C@_03LJBAKMPB@?9aa?$AA@| [ DATA ]	; `string'
	EXPORT	|??_C@_09GCPNLBPG@?9FSAAMode?$AA@| [ DATA ] ; `string'
	EXPORT	|??_C@_07CHIKDHJG@?9height?$AA@| [ DATA ] ; `string'
	EXPORT	|??_C@_06EGEBBOP@?9width?$AA@| [ DATA ]	; `string'
	IMPORT	|atof|
	IMPORT	|atoi|
	IMPORT	|_stricmp|
	IMPORT	|__imp___dtos|

  00000			 AREA	 |.pdata|, PDATA
|$T34529| DCD	|$LN163@Apply|
	DCD	0x4000cb01

  00000			 AREA	 |.rdata|, DATA, READONLY
|??_C@_05BEOLBNEC@?9info?$AA@| DCB "-info", 0x0		; `string'

  00000			 AREA	 |.rdata|, DATA, READONLY
|??_C@_04EOCCAJON@?9fps?$AA@| DCB "-fps", 0x0		; `string'

  00000			 AREA	 |.rdata|, DATA, READONLY
|??_C@_0P@LKMABNDH@Version?3?5?$CC?$CFs?$CC?6?$AA@| DCB "Version: ""%s""", 0xa
	DCB	0x0					; `string'

  00000			 AREA	 |.rdata|, DATA, READONLY
|??_C@_08NPLKDBJI@?9version?$AA@| DCB "-version", 0x0	; `string'

  00000			 AREA	 |.rdata|, DATA, READONLY
|??_C@_03NMAABFGF@?9ps?$AA@| DCB "-ps", 0x0		; `string'

  00000			 AREA	 |.rdata|, DATA, READONLY
|??_C@_0N@EJMKBNPO@?9powersaving?$AA@| DCB "-powersaving", 0x0 ; `string'

  00000			 AREA	 |.rdata|, DATA, READONLY
|??_C@_06LFFODNEG@?9vsync?$AA@| DCB "-vsync", 0x0	; `string'

  00000			 AREA	 |.rdata|, DATA, READONLY
|??_C@_05MHNCFLJI@?9posy?$AA@| DCB "-posy", 0x0		; `string'

  00000			 AREA	 |.rdata|, DATA, READONLY
|??_C@_05NOMJGKNJ@?9posx?$AA@| DCB "-posx", 0x0		; `string'

  00000			 AREA	 |.rdata|, DATA, READONLY
|??_C@_04NBEJDJEL@?9qat?$AA@| DCB "-qat", 0x0		; `string'

  00000			 AREA	 |.rdata|, DATA, READONLY
|??_C@_0P@MDIHKEFD@?9quitaftertime?$AA@| DCB "-quitaftertime", 0x0 ; `string'

  00000			 AREA	 |.rdata|, DATA, READONLY
|??_C@_04KJLNEJJI@?9qaf?$AA@| DCB "-qaf", 0x0		; `string'

  00000			 AREA	 |.rdata|, DATA, READONLY
|??_C@_0BA@PHMAPDAL@?9quitafterframe?$AA@| DCB "-quitafterframe", 0x0 ; `string'

  00000			 AREA	 |.rdata|, DATA, READONLY
|??_C@_03LKCKGODI@?9sw?$AA@| DCB "-sw", 0x0		; `string'

  00000			 AREA	 |.rdata|, DATA, READONLY
|??_C@_0M@POMOHKFL@?9fullscreen?$AA@| DCB "-fullscreen", 0x0 ; `string'

  00000			 AREA	 |.rdata|, DATA, READONLY
|??_C@_03LJBAKMPB@?9aa?$AA@| DCB "-aa", 0x0		; `string'

  00000			 AREA	 |.rdata|, DATA, READONLY
|??_C@_09GCPNLBPG@?9FSAAMode?$AA@| DCB "-FSAAMode", 0x0	; `string'

  00000			 AREA	 |.rdata|, DATA, READONLY
|??_C@_07CHIKDHJG@?9height?$AA@| DCB "-height", 0x0	; `string'

  00000			 AREA	 |.rdata|, DATA, READONLY
|??_C@_06EGEBBOP@?9width?$AA@| DCB "-width", 0x0	; `string'
; Function compile flags: /Ogspy

  00000			 AREA	 |.text|, CODE, ARM

  00000		 |?Apply@PVRShellCommandLine@@QAAXAAVPVRShell@@@Z| PROC ; PVRShellCommandLine::Apply

; 842  : {

  00000		 |$LN163@Apply|
  00000	e92d47f0	 stmdb       sp!, {r4 - r10, lr}
  00004		 |$M34526|
  00004	e1a06001	 mov         r6, r1
  00008	e1a07000	 mov         r7, r0

; 843  : 	int i;
; 844  : 	const char *arg, *val;
; 845  : 
; 846  : 	for(i = 0; i < m_nOptLen; ++i)

  0000c	e597300c	 ldr         r3, [r7, #0xC]
  00010	e3a08000	 mov         r8, #0
  00014	e3530000	 cmp         r3, #0
  00018	da0000ac	 ble         |$LN34@Apply|
  0001c	e59f9304	 ldr         r9, [pc, #0x304]
  00020	e3a0a001	 mov         r10, #1
  00024		 |$LL36@Apply|
  00024	e5973008	 ldr         r3, [r7, #8]

; 847  : 	{
; 848  : 		arg = m_pOpt[i].pArg;

  00028	e7b32188	 ldr         r2, [r3, +r8, lsl #3]!

; 849  : 		val = m_pOpt[i].pVal;

  0002c	e5935004	 ldr         r5, [r3, #4]
  00030	e1b04002	 movs        r4, r2

; 850  : 
; 851  : 		if(!arg)

  00034	0a0000a1	 beq         |$LN35@Apply|

; 852  : 			continue;
; 853  : 
; 854  : 		if(val)

  00038	e3550000	 cmp         r5, #0

; 855  : 		{
; 856  : 			if(_stricmp(arg, "-width") == 0)

  0003c	e1a00004	 mov         r0, r4
  00040	0a000088	 beq         |$LN32@Apply|
  00044	e59f12d8	 ldr         r1, [pc, #0x2D8]
  00048	eb000000	 bl          _stricmp
  0004c	e3500000	 cmp         r0, #0
  00050	1a000003	 bne         |$LN31@Apply|

; 857  : 			{
; 858  : 				shell.PVRShellSet(prefWidth, atoi(val));

  00054	e1a00005	 mov         r0, r5
  00058	eb000000	 bl          atoi
  0005c	e3a01002	 mov         r1, #2
  00060	ea00007c	 b           |$LN160@Apply|
  00064		 |$LN31@Apply|

; 859  : 			}
; 860  : 			else if(_stricmp(arg, "-height") == 0)

  00064	e59f12b4	 ldr         r1, [pc, #0x2B4]
  00068	e1a00004	 mov         r0, r4
  0006c	eb000000	 bl          _stricmp
  00070	e3500000	 cmp         r0, #0
  00074	1a000003	 bne         |$LN29@Apply|

; 861  : 			{
; 862  : 				shell.PVRShellSet(prefHeight, atoi(val));

  00078	e1a00005	 mov         r0, r5
  0007c	eb000000	 bl          atoi
  00080	e3a01003	 mov         r1, #3
  00084	ea000073	 b           |$LN160@Apply|
  00088		 |$LN29@Apply|

; 863  : 			}
; 864  : 			else if(_stricmp(arg, "-FSAAMode") == 0 || _stricmp(arg, "-aa") == 0)

  00088	e59f128c	 ldr         r1, [pc, #0x28C]
  0008c	e1a00004	 mov         r0, r4
  00090	eb000000	 bl          _stricmp
  00094	e3500000	 cmp         r0, #0
  00098	0a00006b	 beq         |$LN26@Apply|
  0009c	e59f1274	 ldr         r1, [pc, #0x274]
  000a0	e1a00004	 mov         r0, r4
  000a4	eb000000	 bl          _stricmp
  000a8	e3500000	 cmp         r0, #0
  000ac	0a000066	 beq         |$LN26@Apply|

; 867  : 			}
; 868  : 			else if(_stricmp(arg, "-fullscreen") == 0)

  000b0	e59f125c	 ldr         r1, [pc, #0x25C]
  000b4	e1a00004	 mov         r0, r4
  000b8	eb000000	 bl          _stricmp
  000bc	e3500000	 cmp         r0, #0
  000c0	1a000007	 bne         |$LN24@Apply|

; 869  : 			{
; 870  : 				shell.PVRShellSet(prefFullScreen, (atoi(val) != 0));

  000c4	e1a00005	 mov         r0, r5
  000c8	eb000000	 bl          atoi
  000cc	e5963004	 ldr         r3, [r6, #4]
  000d0	e3500000	 cmp         r0, #0
  000d4	13a02001	 movne       r2, #1
  000d8	03a02000	 moveq       r2, #0
  000dc	e5c32018	 strb        r2, [r3, #0x18]
  000e0	ea000076	 b           |$LN35@Apply|
  000e4		 |$LN24@Apply|

; 871  : 			}
; 872  : 			else if(_stricmp(arg, "-sw") == 0)

  000e4	e59f1224	 ldr         r1, [pc, #0x224]
  000e8	e1a00004	 mov         r0, r4
  000ec	eb000000	 bl          _stricmp
  000f0	e3500000	 cmp         r0, #0
  000f4	1a000007	 bne         |$LN22@Apply|

; 873  : 			{
; 874  : 				shell.PVRShellSet(prefSoftwareRendering, (atoi(val) != 0));

  000f8	e1a00005	 mov         r0, r5
  000fc	eb000000	 bl          atoi
  00100	e5963004	 ldr         r3, [r6, #4]
  00104	e3500000	 cmp         r0, #0
  00108	13a02001	 movne       r2, #1
  0010c	03a02000	 moveq       r2, #0
  00110	e5c3201f	 strb        r2, [r3, #0x1F]
  00114	ea000069	 b           |$LN35@Apply|
  00118		 |$LN22@Apply|

; 875  : 			}
; 876  : 			else if(_stricmp(arg, "-quitafterframe") == 0 || _stricmp(arg, "-qaf") == 0)

  00118	e59f11ec	 ldr         r1, [pc, #0x1EC]
  0011c	e1a00004	 mov         r0, r4
  00120	eb000000	 bl          _stricmp
  00124	e3500000	 cmp         r0, #0
  00128	0a000043	 beq         |$LN19@Apply|
  0012c	e59f11d4	 ldr         r1, [pc, #0x1D4]
  00130	e1a00004	 mov         r0, r4
  00134	eb000000	 bl          _stricmp
  00138	e3500000	 cmp         r0, #0
  0013c	0a00003e	 beq         |$LN19@Apply|

; 879  : 			}
; 880  : 			else if(_stricmp(arg, "-quitaftertime") == 0 || _stricmp(arg, "-qat") == 0)

  00140	e59f11bc	 ldr         r1, [pc, #0x1BC]
  00144	e1a00004	 mov         r0, r4
  00148	eb000000	 bl          _stricmp
  0014c	e3500000	 cmp         r0, #0
  00150	0a000031	 beq         |$LN89@Apply|
  00154	e59f11a4	 ldr         r1, [pc, #0x1A4]
  00158	e1a00004	 mov         r0, r4
  0015c	eb000000	 bl          _stricmp
  00160	e3500000	 cmp         r0, #0
  00164	0a00002c	 beq         |$LN89@Apply|

; 881  : 			{
; 882  : 				shell.PVRShellSet(prefQuitAfterTime, (float)atof(val));
; 883  : 			}
; 884  : 			else if(_stricmp(arg, "-posx") == 0)

  00168	e59f118c	 ldr         r1, [pc, #0x18C]
  0016c	e1a00004	 mov         r0, r4
  00170	eb000000	 bl          _stricmp
  00174	e3500000	 cmp         r0, #0
  00178	1a000003	 bne         |$LN14@Apply|

; 885  : 			{
; 886  : 				shell.PVRShellSet(prefPositionX, atoi(val));

  0017c	e1a00005	 mov         r0, r5
  00180	eb000000	 bl          atoi
  00184	e3a01004	 mov         r1, #4
  00188	ea000032	 b           |$LN160@Apply|
  0018c		 |$LN14@Apply|

; 887  : 			}
; 888  : 			else if(_stricmp(arg, "-posy") == 0)

  0018c	e59f1164	 ldr         r1, [pc, #0x164]
  00190	e1a00004	 mov         r0, r4
  00194	eb000000	 bl          _stricmp
  00198	e3500000	 cmp         r0, #0
  0019c	1a000003	 bne         |$LN12@Apply|

; 889  : 			{
; 890  : 				shell.PVRShellSet(prefPositionY, atoi(val));

  001a0	e1a00005	 mov         r0, r5
  001a4	eb000000	 bl          atoi
  001a8	e3a01005	 mov         r1, #5
  001ac	ea000029	 b           |$LN160@Apply|
  001b0		 |$LN12@Apply|

; 891  : 			}
; 892  : 			else if(_stricmp(arg, "-vsync") == 0)

  001b0	e59f113c	 ldr         r1, [pc, #0x13C]
  001b4	e1a00004	 mov         r0, r4
  001b8	eb000000	 bl          _stricmp
  001bc	e3500000	 cmp         r0, #0
  001c0	1a000003	 bne         |$LN10@Apply|

; 893  : 			{
; 894  : 				shell.PVRShellSet(prefSwapInterval, atoi(val));

  001c4	e1a00005	 mov         r0, r5
  001c8	eb000000	 bl          atoi
  001cc	e3a01007	 mov         r1, #7
  001d0	ea000020	 b           |$LN160@Apply|
  001d4		 |$LN10@Apply|

; 895  : 			}
; 896  : 			else if(_stricmp(arg, "-powersaving") == 0 || _stricmp(arg, "-ps") == 0)

  001d4	e59f1114	 ldr         r1, [pc, #0x114]
  001d8	e1a00004	 mov         r0, r4
  001dc	eb000000	 bl          _stricmp
  001e0	e3500000	 cmp         r0, #0
  001e4	0a000004	 beq         |$LN7@Apply|
  001e8	e59f10fc	 ldr         r1, [pc, #0xFC]
  001ec	e1a00004	 mov         r0, r4
  001f0	eb000000	 bl          _stricmp
  001f4	e3500000	 cmp         r0, #0
  001f8	1a000030	 bne         |$LN35@Apply|
  001fc		 |$LN7@Apply|

; 897  : 			{
; 898  : 				shell.PVRShellSet(prefPowerSaving, (atoi(val) != 0));

  001fc	e1a00005	 mov         r0, r5
  00200	eb000000	 bl          atoi
  00204	e5963004	 ldr         r3, [r6, #4]
  00208	e3500000	 cmp         r0, #0
  0020c	13a02001	 movne       r2, #1
  00210	03a02000	 moveq       r2, #0
  00214	e5c32022	 strb        r2, [r3, #0x22]
  00218	ea000028	 b           |$LN35@Apply|
  0021c		 |$LN89@Apply|
  0021c	e1a00005	 mov         r0, r5
  00220	eb000000	 bl          atof
  00224	e5993000	 ldr         r3, [r9]
  00228	e1a0e00f	 mov         lr, pc
  0022c	e12fff13	 bx          r3
  00230	e5963004	 ldr         r3, [r6, #4]
  00234	e5830030	 str         r0, [r3, #0x30]
  00238	ea000020	 b           |$LN35@Apply|
  0023c		 |$LN19@Apply|

; 877  : 			{
; 878  : 				shell.PVRShellSet(prefQuitAfterFrame, atoi(val));

  0023c	e1a00005	 mov         r0, r5
  00240	eb000000	 bl          atoi
  00244	e3a01006	 mov         r1, #6
  00248	ea000002	 b           |$LN160@Apply|
  0024c		 |$LN26@Apply|

; 865  : 			{
; 866  : 				shell.PVRShellSet(prefFSAAMode, atoi(val));

  0024c	e1a00005	 mov         r0, r5
  00250	eb000000	 bl          atoi
  00254	e3a01009	 mov         r1, #9
  00258		 |$LN160@Apply|
  00258	e1a02000	 mov         r2, r0
  0025c	e1a00006	 mov         r0, r6
  00260	eb000000	 bl          |?PVRShellSet@PVRShell@@QAA_NW4prefNameIntEnum@@H@Z|

; 899  : 			}
; 900  : 		}
; 901  : 		else

  00264	ea000015	 b           |$LN35@Apply|
  00268		 |$LN32@Apply|

; 902  : 		{
; 903  : 			if(_stricmp(arg, "-version") == 0)

  00268	e59f1078	 ldr         r1, [pc, #0x78]
  0026c	eb000000	 bl          _stricmp
  00270	e3500000	 cmp         r0, #0
  00274	1a000004	 bne         |$LN5@Apply|

; 904  : 			{
; 905  : 				shell.PVRShellOutputDebug("Version: \"%s\"\n", shell.PVRShellGet(prefVersion));

  00278	e59f2064	 ldr         r2, [pc, #0x64]
  0027c	e59f105c	 ldr         r1, [pc, #0x5C]
  00280	e1a00006	 mov         r0, r6
  00284	eb000000	 bl          |?PVRShellOutputDebug@PVRShell@@QBAXQBDZZ|
  00288	ea00000c	 b           |$LN35@Apply|
  0028c		 |$LN5@Apply|

; 906  : 			}
; 907  : #ifdef PVRSHELL_FPS_OUTPUT
; 908  : 			else if(_stricmp(arg, "-fps") == 0)

  0028c	e59f1048	 ldr         r1, [pc, #0x48]
  00290	e1a00004	 mov         r0, r4
  00294	eb000000	 bl          _stricmp
  00298	e3500000	 cmp         r0, #0

; 909  : 			{
; 910  : 				shell.PVRShellSet(prefOutputFPS, true);

  0029c	05963004	 ldreq       r3, [r6, #4]
  002a0	05c3a040	 streqb      r10, [r3, #0x40]
  002a4	0a000005	 beq         |$LN35@Apply|

; 911  : 			}
; 912  : #endif
; 913  : 			else if(_stricmp(arg, "-info") == 0)

  002a8	e59f1028	 ldr         r1, [pc, #0x28]
  002ac	e1a00004	 mov         r0, r4
  002b0	eb000000	 bl          _stricmp
  002b4	e3500000	 cmp         r0, #0

; 914  : 			{
; 915  : 				shell.PVRShellSet(prefOutputInfo, true);

  002b8	05963004	 ldreq       r3, [r6, #4]
  002bc	05c3a023	 streqb      r10, [r3, #0x23]
  002c0		 |$LN35@Apply|
  002c0	e597300c	 ldr         r3, [r7, #0xC]
  002c4	e2888001	 add         r8, r8, #1
  002c8	e1580003	 cmp         r8, r3
  002cc	baffff54	 blt         |$LL36@Apply|
  002d0		 |$LN34@Apply|

; 916  : 			}
; 917  : 		}
; 918  : 	}
; 919  : }

  002d0	e8bd47f0	 ldmia       sp!, {r4 - r10, lr}
  002d4	e12fff1e	 bx          lr
  002d8		 |$LN164@Apply|
  002d8		 |$LN165@Apply|
  002d8	00000000	 DCD         |??_C@_05BEOLBNEC@?9info?$AA@|
  002dc		 |$LN166@Apply|
  002dc	00000000	 DCD         |??_C@_04EOCCAJON@?9fps?$AA@|
  002e0		 |$LN167@Apply|
  002e0	00000000	 DCD         |??_C@_0P@LKMABNDH@Version?3?5?$CC?$CFs?$CC?6?$AA@|
  002e4		 |$LN168@Apply|
  002e4	00000000	 DCD         |??_C@_0N@PNLGIOMB@2?403?423?41162?$AA@|
  002e8		 |$LN169@Apply|
  002e8	00000000	 DCD         |??_C@_08NPLKDBJI@?9version?$AA@|
  002ec		 |$LN170@Apply|
  002ec	00000000	 DCD         |??_C@_03NMAABFGF@?9ps?$AA@|
  002f0		 |$LN171@Apply|
  002f0	00000000	 DCD         |??_C@_0N@EJMKBNPO@?9powersaving?$AA@|
  002f4		 |$LN172@Apply|
  002f4	00000000	 DCD         |??_C@_06LFFODNEG@?9vsync?$AA@|
  002f8		 |$LN173@Apply|
  002f8	00000000	 DCD         |??_C@_05MHNCFLJI@?9posy?$AA@|
  002fc		 |$LN174@Apply|
  002fc	00000000	 DCD         |??_C@_05NOMJGKNJ@?9posx?$AA@|
  00300		 |$LN175@Apply|
  00300	00000000	 DCD         |??_C@_04NBEJDJEL@?9qat?$AA@|
  00304		 |$LN176@Apply|
  00304	00000000	 DCD         |??_C@_0P@MDIHKEFD@?9quitaftertime?$AA@|
  00308		 |$LN177@Apply|
  00308	00000000	 DCD         |??_C@_04KJLNEJJI@?9qaf?$AA@|
  0030c		 |$LN178@Apply|
  0030c	00000000	 DCD         |??_C@_0BA@PHMAPDAL@?9quitafterframe?$AA@|
  00310		 |$LN179@Apply|
  00310	00000000	 DCD         |??_C@_03LKCKGODI@?9sw?$AA@|
  00314		 |$LN180@Apply|
  00314	00000000	 DCD         |??_C@_0M@POMOHKFL@?9fullscreen?$AA@|
  00318		 |$LN181@Apply|
  00318	00000000	 DCD         |??_C@_03LJBAKMPB@?9aa?$AA@|
  0031c		 |$LN182@Apply|
  0031c	00000000	 DCD         |??_C@_09GCPNLBPG@?9FSAAMode?$AA@|
  00320		 |$LN183@Apply|
  00320	00000000	 DCD         |??_C@_07CHIKDHJG@?9height?$AA@|
  00324		 |$LN184@Apply|
  00324	00000000	 DCD         |??_C@_06EGEBBOP@?9width?$AA@|
  00328		 |$LN185@Apply|
  00328	00000000	 DCD         |__imp___dtos|
  0032c		 |$M34527|

			 ENDP  ; |?Apply@PVRShellCommandLine@@QAAXAAVPVRShell@@@Z|, PVRShellCommandLine::Apply

	EXPORT	|?SetAppName@PVRShellInit@@QAAXQBD@Z|	; PVRShellInit::SetAppName

  00000			 AREA	 |.pdata|, PDATA
|$T34572| DCD	|$LN14@SetAppName|
	DCD	0x40000e01
; Function compile flags: /Ogspy

  00000			 AREA	 |.text|, CODE, ARM

  00000		 |?SetAppName@PVRShellInit@@QAAXQBD@Z| PROC ; PVRShellInit::SetAppName

; 1076 : {

  00000		 |$LN14@SetAppName|
  00000	e92d4030	 stmdb       sp!, {r4, r5, lr}
  00004		 |$M34569|
  00004	e1a04001	 mov         r4, r1
  00008	e1a05000	 mov         r5, r0

; 1077 : 	const char *pName = strrchr(str, PVRSHELL_DIR_SYM);

  0000c	e3a0105c	 mov         r1, #0x5C
  00010	e1a00004	 mov         r0, r4
  00014	eb000000	 bl          strrchr

; 1078 : 
; 1079 : 	if(pName)
; 1080 : 	{
; 1081 : 		++pName;
; 1082 : 	}
; 1083 : 	else
; 1084 : 	{
; 1085 : 		pName = str;
; 1086 : 	}
; 1087 : 	m_pShell->PVRShellSet(prefAppName, pName);

  00018	e5953040	 ldr         r3, [r5, #0x40]
  0001c	e3500000	 cmp         r0, #0
  00020	12804001	 addne       r4, r0, #1
  00024	e5930004	 ldr         r0, [r3, #4]
  00028	e1a01004	 mov         r1, r4
  0002c	eb000000	 bl          |?StringCopy@@YA_NAAPADQBD@Z|

; 1088 : }

  00030	e8bd4030	 ldmia       sp!, {r4, r5, lr}
  00034	e12fff1e	 bx          lr
  00038		 |$M34570|

			 ENDP  ; |?SetAppName@PVRShellInit@@QAAXQBD@Z|, PVRShellInit::SetAppName

	EXPORT	|?OutputInfo@PVRShellInit@@QAAXXZ|	; PVRShellInit::OutputInfo
	EXPORT	|??_C@_0BI@LOLHHLDL@Quit?5after?5time?3?5?5?5?5?$CFf?6?$AA@| [ DATA ] ; `string'
	EXPORT	|??_C@_0BI@EFGHBHBC@Quit?5after?5frame?3?5?5?5?$CFi?6?$AA@| [ DATA ] ; `string'
	EXPORT	|??_C@_0BI@MFNOEBCK@No?5of?5Init?5repeats?3?5?$CFi?6?$AA@| [ DATA ] ; `string'
	EXPORT	|??_C@_0BG@DGPCLCAH@OpenVG?5requested?3?5?$CFs?6?$AA@| [ DATA ] ; `string'
	EXPORT	|??_C@_0BN@FONDHIDE@Swap?5Interval?5requested?3?5?$CFi?6?$AA@| [ DATA ] ; `string'
	EXPORT	|??_C@_0CC@HLFGIHJK@Software?5rendering?5requested?3?5?$CFs@| [ DATA ] ; `string'
	EXPORT	|??_C@_0BO@KAOJCIFK@Stencil?5buffer?5requested?3?5?$CFs?6?$AA@| [ DATA ] ; `string'
	EXPORT	|??_C@_0BH@IIDCFAPL@ZBuffer?5requested?3?5?$CFs?6?$AA@| [ DATA ] ; `string'
	EXPORT	|??_C@_0BH@GFBNMADE@PBuffer?5requested?3?5?$CFs?6?$AA@| [ DATA ] ; `string'
	EXPORT	|??_C@_0BA@LKNPDGG@Fullscreen?3?5?$CFs?6?$AA@| [ DATA ] ; `string'
	EXPORT	|??_C@_02JINPPBEP@No?$AA@| [ DATA ]	; `string'
	EXPORT	|??_C@_03CCLAEDDF@Yes?$AA@| [ DATA ]	; `string'
	EXPORT	|??_C@_0BC@EPAJIGHG@Power?5saving?3?5?$CFs?6?$AA@| [ DATA ] ; `string'
	EXPORT	|??_C@_0BI@JMDIACJI@FSAAMode?5requested?3?5?$CFi?6?$AA@| [ DATA ] ; `string'
	EXPORT	|??_C@_03GCDBBDDL@Off?$AA@| [ DATA ]	; `string'
	EXPORT	|??_C@_02IAAGKKDJ@On?$AA@| [ DATA ]	; `string'
	EXPORT	|??_C@_0O@KDBCPPFE@App?5name?3?5?$CFs?6?$AA@| [ DATA ] ; `string'
	EXPORT	|??_C@_0BB@GAHPADJB@SDK?5version?3?5?$CFs?6?$AA@| [ DATA ] ; `string'
	EXPORT	|??_C@_0BA@HFCBACGB@Read?5path?3?5?5?$CFs?6?$AA@| [ DATA ] ; `string'
	EXPORT	|??_C@_0BA@JEBDPKOF@Write?5path?3?5?$CFs?6?$AA@| [ DATA ] ; `string'
	EXPORT	|??_C@_0BC@IEIEEMG@Command?9line?3?5?$CFs?6?$AA@| [ DATA ] ; `string'
	EXPORT	|??_C@_01EEMJAFIK@?6?$AA@| [ DATA ]	; `string'
	IMPORT	|__imp___nes|

  00000			 AREA	 |.pdata|, PDATA
|$T34982| DCD	|$LN283@OutputInfo|
	DCD	0x4000ba01

  00000			 AREA	 |.rdata|, DATA, READONLY
|??_C@_0BI@LOLHHLDL@Quit?5after?5time?3?5?5?5?5?$CFf?6?$AA@| DCB "Quit af"
	DCB	"ter time:    %f", 0xa, 0x0		; `string'

  00000			 AREA	 |.rdata|, DATA, READONLY
|??_C@_0BI@EFGHBHBC@Quit?5after?5frame?3?5?5?5?$CFi?6?$AA@| DCB "Quit aft"
	DCB	"er frame:   %i", 0xa, 0x0		; `string'

  00000			 AREA	 |.rdata|, DATA, READONLY
|??_C@_0BI@MFNOEBCK@No?5of?5Init?5repeats?3?5?$CFi?6?$AA@| DCB "No of Ini"
	DCB	"t repeats: %i", 0xa, 0x0		; `string'

  00000			 AREA	 |.rdata|, DATA, READONLY
|??_C@_0BG@DGPCLCAH@OpenVG?5requested?3?5?$CFs?6?$AA@| DCB "OpenVG reques"
	DCB	"ted: %s", 0xa, 0x0			; `string'

  00000			 AREA	 |.rdata|, DATA, READONLY
|??_C@_0BN@FONDHIDE@Swap?5Interval?5requested?3?5?$CFi?6?$AA@| DCB "Swap "
	DCB	"Interval requested: %i", 0xa, 0x0	; `string'

  00000			 AREA	 |.rdata|, DATA, READONLY
|??_C@_0CC@HLFGIHJK@Software?5rendering?5requested?3?5?$CFs@| DCB "Softwa"
	DCB	"re rendering requested: %s", 0xa, 0x0	; `string'

  00000			 AREA	 |.rdata|, DATA, READONLY
|??_C@_0BO@KAOJCIFK@Stencil?5buffer?5requested?3?5?$CFs?6?$AA@| DCB "Sten"
	DCB	"cil buffer requested: %s", 0xa, 0x0	; `string'

  00000			 AREA	 |.rdata|, DATA, READONLY
|??_C@_0BH@IIDCFAPL@ZBuffer?5requested?3?5?$CFs?6?$AA@| DCB "ZBuffer requ"
	DCB	"ested: %s", 0xa, 0x0			; `string'

  00000			 AREA	 |.rdata|, DATA, READONLY
|??_C@_0BH@GFBNMADE@PBuffer?5requested?3?5?$CFs?6?$AA@| DCB "PBuffer requ"
	DCB	"ested: %s", 0xa, 0x0			; `string'

  00000			 AREA	 |.rdata|, DATA, READONLY
|??_C@_0BA@LKNPDGG@Fullscreen?3?5?$CFs?6?$AA@| DCB "Fullscreen: %s", 0xa, 0x0 ; `string'

  00000			 AREA	 |.rdata|, DATA, READONLY
|??_C@_02JINPPBEP@No?$AA@| DCB "No", 0x0		; `string'

  00000			 AREA	 |.rdata|, DATA, READONLY
|??_C@_03CCLAEDDF@Yes?$AA@| DCB "Yes", 0x0		; `string'

  00000			 AREA	 |.rdata|, DATA, READONLY
|??_C@_0BC@EPAJIGHG@Power?5saving?3?5?$CFs?6?$AA@| DCB "Power saving: %s", 0xa
	DCB	0x0					; `string'

  00000			 AREA	 |.rdata|, DATA, READONLY
|??_C@_0BI@JMDIACJI@FSAAMode?5requested?3?5?$CFi?6?$AA@| DCB "FSAAMode re"
	DCB	"quested: %i", 0xa, 0x0			; `string'

  00000			 AREA	 |.rdata|, DATA, READONLY
|??_C@_03GCDBBDDL@Off?$AA@| DCB "Off", 0x0		; `string'

  00000			 AREA	 |.rdata|, DATA, READONLY
|??_C@_02IAAGKKDJ@On?$AA@| DCB "On", 0x0		; `string'

  00000			 AREA	 |.rdata|, DATA, READONLY
|??_C@_0O@KDBCPPFE@App?5name?3?5?$CFs?6?$AA@| DCB "App name: %s", 0xa, 0x0 ; `string'

  00000			 AREA	 |.rdata|, DATA, READONLY
|??_C@_0BB@GAHPADJB@SDK?5version?3?5?$CFs?6?$AA@| DCB "SDK version: %s", 0xa
	DCB	0x0					; `string'

  00000			 AREA	 |.rdata|, DATA, READONLY
|??_C@_0BA@HFCBACGB@Read?5path?3?5?5?$CFs?6?$AA@| DCB "Read path:  %s", 0xa
	DCB	0x0					; `string'

  00000			 AREA	 |.rdata|, DATA, READONLY
|??_C@_0BA@JEBDPKOF@Write?5path?3?5?$CFs?6?$AA@| DCB "Write path: %s", 0xa
	DCB	0x0					; `string'

  00000			 AREA	 |.rdata|, DATA, READONLY
|??_C@_0BC@IEIEEMG@Command?9line?3?5?$CFs?6?$AA@| DCB "Command-line: %s", 0xa
	DCB	0x0					; `string'

  00000			 AREA	 |.rdata|, DATA, READONLY
|??_C@_01EEMJAFIK@?6?$AA@| DCB 0xa, 0x0			; `string'
; Function compile flags: /Ogspy

  00000			 AREA	 |.text|, CODE, ARM

  00000		 |?OutputInfo@PVRShellInit@@QAAXXZ| PROC ; PVRShellInit::OutputInfo

; 1296 : {

  00000		 |$LN283@OutputInfo|
  00000	e92d4030	 stmdb       sp!, {r4, r5, lr}
  00004		 |$M34979|
  00004	e1a04000	 mov         r4, r0

; 1297 : 	if(m_pShell->PVRShellGet(prefOutputInfo))

  00008	e5940040	 ldr         r0, [r4, #0x40]
  0000c	e5903004	 ldr         r3, [r0, #4]
  00010	e5d33023	 ldrb        r3, [r3, #0x23]
  00014	e3530000	 cmp         r3, #0
  00018	0a000097	 beq         |$LN1@OutputInfo|

; 1298 : 	{
; 1299 : 		m_pShell->PVRShellOutputDebug("\n");

  0001c	e59f12a8	 ldr         r1, [pc, #0x2A8]
  00020	eb000000	 bl          |?PVRShellOutputDebug@PVRShell@@QBAXQBDZZ|

; 1300 : 		m_pShell->PVRShellOutputDebug("App name: %s\n"     , m_pShell->PVRShellGet(prefAppName));

  00024	e5940040	 ldr         r0, [r4, #0x40]
  00028	e59f12b4	 ldr         r1, [pc, #0x2B4]
  0002c	e5903004	 ldr         r3, [r0, #4]
  00030	e5932000	 ldr         r2, [r3]
  00034	eb000000	 bl          |?PVRShellOutputDebug@PVRShell@@QBAXQBDZZ|

; 1301 : 		m_pShell->PVRShellOutputDebug("SDK version: %s\n"  , m_pShell->PVRShellGet(prefVersion));

  00038	e59f22a0	 ldr         r2, [pc, #0x2A0]
  0003c	e59f1298	 ldr         r1, [pc, #0x298]
  00040	e5940040	 ldr         r0, [r4, #0x40]
  00044	eb000000	 bl          |?PVRShellOutputDebug@PVRShell@@QBAXQBDZZ|

; 1302 : 		m_pShell->PVRShellOutputDebug("\n");

  00048	e5940040	 ldr         r0, [r4, #0x40]
  0004c	e59f1278	 ldr         r1, [pc, #0x278]
  00050	eb000000	 bl          |?PVRShellOutputDebug@PVRShell@@QBAXQBDZZ|

; 1303 : 		m_pShell->PVRShellOutputDebug("Read path:  %s\n"    , m_pShell->PVRShellGet(prefReadPath));

  00054	e5940040	 ldr         r0, [r4, #0x40]
  00058	e59f1278	 ldr         r1, [pc, #0x278]
  0005c	e5903008	 ldr         r3, [r0, #8]
  00060	e5932064	 ldr         r2, [r3, #0x64]
  00064	eb000000	 bl          |?PVRShellOutputDebug@PVRShell@@QBAXQBDZZ|

; 1304 : 		m_pShell->PVRShellOutputDebug("Write path: %s\n"   , m_pShell->PVRShellGet(prefWritePath));

  00068	e5940040	 ldr         r0, [r4, #0x40]
  0006c	e59f1260	 ldr         r1, [pc, #0x260]
  00070	e5903008	 ldr         r3, [r0, #8]
  00074	e5932068	 ldr         r2, [r3, #0x68]
  00078	eb000000	 bl          |?PVRShellOutputDebug@PVRShell@@QBAXQBDZZ|

; 1305 : 		m_pShell->PVRShellOutputDebug("\n");

  0007c	e5940040	 ldr         r0, [r4, #0x40]
  00080	e59f1244	 ldr         r1, [pc, #0x244]
  00084	eb000000	 bl          |?PVRShellOutputDebug@PVRShell@@QBAXQBDZZ|

; 1306 : 		m_pShell->PVRShellOutputDebug("Command-line: %s\n" , m_pShell->PVRShellGet(prefCommandLine));

  00088	e5940040	 ldr         r0, [r4, #0x40]
  0008c	e59f123c	 ldr         r1, [pc, #0x23C]
  00090	e5903008	 ldr         r3, [r0, #8]
  00094	e5932044	 ldr         r2, [r3, #0x44]
  00098	eb000000	 bl          |?PVRShellOutputDebug@PVRShell@@QBAXQBDZZ|

; 1307 : 		m_pShell->PVRShellOutputDebug("\n");

  0009c	e5940040	 ldr         r0, [r4, #0x40]
  000a0	e59f1224	 ldr         r1, [pc, #0x224]
  000a4	eb000000	 bl          |?PVRShellOutputDebug@PVRShell@@QBAXQBDZZ|

; 1308 : 		m_pShell->PVRShellOutputDebug("Power saving: %s\n" , m_pShell->PVRShellGet(prefPowerSaving) ? "On" : "Off");

  000a8	e5940040	 ldr         r0, [r4, #0x40]
  000ac	e59f1214	 ldr         r1, [pc, #0x214]
  000b0	e5903004	 ldr         r3, [r0, #4]
  000b4	e5d33022	 ldrb        r3, [r3, #0x22]
  000b8	e3530000	 cmp         r3, #0
  000bc	159f2200	 ldrne       r2, [pc, #0x200]
  000c0	059f21f8	 ldreq       r2, [pc, #0x1F8]
  000c4	eb000000	 bl          |?PVRShellOutputDebug@PVRShell@@QBAXQBDZZ|

; 1309 : 		m_pShell->PVRShellOutputDebug("FSAAMode requested: %i\n", m_pShell->PVRShellGet(prefFSAAMode));

  000c8	e5940040	 ldr         r0, [r4, #0x40]
  000cc	e3a01009	 mov         r1, #9
  000d0	eb000000	 bl          |?PVRShellGet@PVRShell@@QBAHW4prefNameIntEnum@@@Z|
  000d4	e59f11e0	 ldr         r1, [pc, #0x1E0]
  000d8	e1a02000	 mov         r2, r0
  000dc	e5940040	 ldr         r0, [r4, #0x40]
  000e0	eb000000	 bl          |?PVRShellOutputDebug@PVRShell@@QBAXQBDZZ|

; 1310 : 		m_pShell->PVRShellOutputDebug("Fullscreen: %s\n", m_pShell->PVRShellGet(prefFullScreen) ? "Yes" : "No");

  000e4	e5940040	 ldr         r0, [r4, #0x40]
  000e8	e59f51c8	 ldr         r5, [pc, #0x1C8]
  000ec	e59f11c0	 ldr         r1, [pc, #0x1C0]
  000f0	e5903004	 ldr         r3, [r0, #4]
  000f4	e5d33018	 ldrb        r3, [r3, #0x18]
  000f8	e3530000	 cmp         r3, #0
  000fc	11a02005	 movne       r2, r5
  00100	059f2194	 ldreq       r2, [pc, #0x194]
  00104	eb000000	 bl          |?PVRShellOutputDebug@PVRShell@@QBAXQBDZZ|

; 1311 : 		m_pShell->PVRShellOutputDebug("PBuffer requested: %s\n", m_pShell->PVRShellGet(prefPBufferContext) ? "Yes" : "No");

  00108	e5940040	 ldr         r0, [r4, #0x40]
  0010c	e59f119c	 ldr         r1, [pc, #0x19C]
  00110	e5903004	 ldr         r3, [r0, #4]
  00114	e5d33019	 ldrb        r3, [r3, #0x19]
  00118	e3530000	 cmp         r3, #0
  0011c	11a02005	 movne       r2, r5
  00120	059f2174	 ldreq       r2, [pc, #0x174]
  00124	eb000000	 bl          |?PVRShellOutputDebug@PVRShell@@QBAXQBDZZ|

; 1312 : 		m_pShell->PVRShellOutputDebug("ZBuffer requested: %s\n", m_pShell->PVRShellGet(prefZbufferContext) ? "Yes" : "No");

  00128	e5940040	 ldr         r0, [r4, #0x40]
  0012c	e59f1178	 ldr         r1, [pc, #0x178]
  00130	e5903004	 ldr         r3, [r0, #4]
  00134	e5d3301a	 ldrb        r3, [r3, #0x1A]
  00138	e3530000	 cmp         r3, #0
  0013c	11a02005	 movne       r2, r5
  00140	059f2154	 ldreq       r2, [pc, #0x154]
  00144	eb000000	 bl          |?PVRShellOutputDebug@PVRShell@@QBAXQBDZZ|

; 1313 : 		m_pShell->PVRShellOutputDebug("Stencil buffer requested: %s\n", m_pShell->PVRShellGet(prefStencilBufferContext) ? "Yes" : "No");

  00148	e5940040	 ldr         r0, [r4, #0x40]
  0014c	e5903004	 ldr         r3, [r0, #4]
  00150	e5d3301b	 ldrb        r3, [r3, #0x1B]
  00154	e3530000	 cmp         r3, #0
  00158	11a02005	 movne       r2, r5
  0015c	059f2138	 ldreq       r2, [pc, #0x138]
  00160	e59f1140	 ldr         r1, [pc, #0x140]
  00164	eb000000	 bl          |?PVRShellOutputDebug@PVRShell@@QBAXQBDZZ|

; 1314 : 		m_pShell->PVRShellOutputDebug("Software rendering requested: %s\n", m_pShell->PVRShellGet(prefSoftwareRendering) ? "Yes" : "No");

  00168	e5940040	 ldr         r0, [r4, #0x40]
  0016c	e59f1130	 ldr         r1, [pc, #0x130]
  00170	e5903004	 ldr         r3, [r0, #4]
  00174	e5d3301f	 ldrb        r3, [r3, #0x1F]
  00178	e3530000	 cmp         r3, #0
  0017c	11a02005	 movne       r2, r5
  00180	059f2114	 ldreq       r2, [pc, #0x114]
  00184	eb000000	 bl          |?PVRShellOutputDebug@PVRShell@@QBAXQBDZZ|

; 1315 : 		m_pShell->PVRShellOutputDebug("OpenVG requested: %s\n", m_pShell->PVRShellGet(prefOpenVGContext) ? "Yes" : "No");

  00188	e5940040	 ldr         r0, [r4, #0x40]
  0018c	e59f110c	 ldr         r1, [pc, #0x10C]
  00190	e5903004	 ldr         r3, [r0, #4]
  00194	e5d33020	 ldrb        r3, [r3, #0x20]
  00198	e3530000	 cmp         r3, #0
  0019c	059f50f8	 ldreq       r5, [pc, #0xF8]
  001a0	e1a02005	 mov         r2, r5
  001a4	eb000000	 bl          |?PVRShellOutputDebug@PVRShell@@QBAXQBDZZ|

; 1316 : 		m_pShell->PVRShellOutputDebug("Swap Interval requested: %i\n", m_pShell->PVRShellGet(prefSwapInterval));

  001a8	e5940040	 ldr         r0, [r4, #0x40]
  001ac	e3a01007	 mov         r1, #7
  001b0	eb000000	 bl          |?PVRShellGet@PVRShell@@QBAHW4prefNameIntEnum@@@Z|
  001b4	e59f10dc	 ldr         r1, [pc, #0xDC]
  001b8	e1a02000	 mov         r2, r0
  001bc	e5940040	 ldr         r0, [r4, #0x40]
  001c0	eb000000	 bl          |?PVRShellOutputDebug@PVRShell@@QBAXQBDZZ|

; 1317 : 
; 1318 : 		if(m_pShell->PVRShellGet(prefInitRepeats) > 0)

  001c4	e5940040	 ldr         r0, [r4, #0x40]
  001c8	e3a01008	 mov         r1, #8
  001cc	eb000000	 bl          |?PVRShellGet@PVRShell@@QBAHW4prefNameIntEnum@@@Z|
  001d0	e3500000	 cmp         r0, #0
  001d4	da000006	 ble         |$LN3@OutputInfo|

; 1319 : 			m_pShell->PVRShellOutputDebug("No of Init repeats: %i\n", m_pShell->PVRShellGet(prefInitRepeats));

  001d8	e5940040	 ldr         r0, [r4, #0x40]
  001dc	e3a01008	 mov         r1, #8
  001e0	eb000000	 bl          |?PVRShellGet@PVRShell@@QBAHW4prefNameIntEnum@@@Z|
  001e4	e59f10a8	 ldr         r1, [pc, #0xA8]
  001e8	e1a02000	 mov         r2, r0
  001ec	e5940040	 ldr         r0, [r4, #0x40]
  001f0	eb000000	 bl          |?PVRShellOutputDebug@PVRShell@@QBAXQBDZZ|
  001f4		 |$LN3@OutputInfo|

; 1320 : 
; 1321 : 		if(m_pShell->PVRShellGet(prefQuitAfterFrame) != -1)

  001f4	e5940040	 ldr         r0, [r4, #0x40]
  001f8	e3a01006	 mov         r1, #6
  001fc	eb000000	 bl          |?PVRShellGet@PVRShell@@QBAHW4prefNameIntEnum@@@Z|
  00200	e3700001	 cmn         r0, #1
  00204	0a000006	 beq         |$LN2@OutputInfo|

; 1322 : 			m_pShell->PVRShellOutputDebug("Quit after frame:   %i\n", m_pShell->PVRShellGet(prefQuitAfterFrame));

  00208	e5940040	 ldr         r0, [r4, #0x40]
  0020c	e3a01006	 mov         r1, #6
  00210	eb000000	 bl          |?PVRShellGet@PVRShell@@QBAHW4prefNameIntEnum@@@Z|
  00214	e59f1074	 ldr         r1, [pc, #0x74]
  00218	e1a02000	 mov         r2, r0
  0021c	e5940040	 ldr         r0, [r4, #0x40]
  00220	eb000000	 bl          |?PVRShellOutputDebug@PVRShell@@QBAXQBDZZ|
  00224		 |$LN2@OutputInfo|

; 1323 : 
; 1324 : 		if(m_pShell->PVRShellGet(prefQuitAfterTime)  != -1.0f)

  00224	e5944040	 ldr         r4, [r4, #0x40]
  00228	e59f305c	 ldr         r3, [pc, #0x5C]
  0022c	e3e01080	 mvn         r1, #0x80
  00230	e5942004	 ldr         r2, [r4, #4]
  00234	e5933000	 ldr         r3, [r3]
  00238	e1a01b81	 mov         r1, r1, lsl #23
  0023c	e5925030	 ldr         r5, [r2, #0x30]
  00240	e1a00005	 mov         r0, r5
  00244	e1a0e00f	 mov         lr, pc
  00248	e12fff13	 bx          r3
  0024c	e3500000	 cmp         r0, #0
  00250	0a000009	 beq         |$LN1@OutputInfo|

; 1325 : 			m_pShell->PVRShellOutputDebug("Quit after time:    %f\n", m_pShell->PVRShellGet(prefQuitAfterTime));

  00254	e59f302c	 ldr         r3, [pc, #0x2C]
  00258	e1a00005	 mov         r0, r5
  0025c	e5933000	 ldr         r3, [r3]
  00260	e1a0e00f	 mov         lr, pc
  00264	e12fff13	 bx          r3
  00268	e1a03001	 mov         r3, r1
  0026c	e59f1010	 ldr         r1, [pc, #0x10]
  00270	e1a02000	 mov         r2, r0
  00274	e1a00004	 mov         r0, r4
  00278	eb000000	 bl          |?PVRShellOutputDebug@PVRShell@@QBAXQBDZZ|
  0027c		 |$LN1@OutputInfo|

; 1326 : 	}
; 1327 : }

  0027c	e8bd4030	 ldmia       sp!, {r4, r5, lr}
  00280	e12fff1e	 bx          lr
  00284		 |$LN284@OutputInfo|
  00284		 |$LN285@OutputInfo|
  00284	00000000	 DCD         |??_C@_0BI@LOLHHLDL@Quit?5after?5time?3?5?5?5?5?$CFf?6?$AA@|
  00288		 |$LN286@OutputInfo|
  00288	00000000	 DCD         |__imp___stod|
  0028c		 |$LN287@OutputInfo|
  0028c	00000000	 DCD         |__imp___nes|
  00290		 |$LN288@OutputInfo|
  00290	00000000	 DCD         |??_C@_0BI@EFGHBHBC@Quit?5after?5frame?3?5?5?5?$CFi?6?$AA@|
  00294		 |$LN289@OutputInfo|
  00294	00000000	 DCD         |??_C@_0BI@MFNOEBCK@No?5of?5Init?5repeats?3?5?$CFi?6?$AA@|
  00298		 |$LN290@OutputInfo|
  00298	00000000	 DCD         |??_C@_0BN@FONDHIDE@Swap?5Interval?5requested?3?5?$CFi?6?$AA@|
  0029c		 |$LN291@OutputInfo|
  0029c	00000000	 DCD         |??_C@_02JINPPBEP@No?$AA@|
  002a0		 |$LN292@OutputInfo|
  002a0	00000000	 DCD         |??_C@_0BG@DGPCLCAH@OpenVG?5requested?3?5?$CFs?6?$AA@|
  002a4		 |$LN293@OutputInfo|
  002a4	00000000	 DCD         |??_C@_0CC@HLFGIHJK@Software?5rendering?5requested?3?5?$CFs@|
  002a8		 |$LN294@OutputInfo|
  002a8	00000000	 DCD         |??_C@_0BO@KAOJCIFK@Stencil?5buffer?5requested?3?5?$CFs?6?$AA@|
  002ac		 |$LN295@OutputInfo|
  002ac	00000000	 DCD         |??_C@_0BH@IIDCFAPL@ZBuffer?5requested?3?5?$CFs?6?$AA@|
  002b0		 |$LN296@OutputInfo|
  002b0	00000000	 DCD         |??_C@_0BH@GFBNMADE@PBuffer?5requested?3?5?$CFs?6?$AA@|
  002b4		 |$LN297@OutputInfo|
  002b4	00000000	 DCD         |??_C@_0BA@LKNPDGG@Fullscreen?3?5?$CFs?6?$AA@|
  002b8		 |$LN298@OutputInfo|
  002b8	00000000	 DCD         |??_C@_03CCLAEDDF@Yes?$AA@|
  002bc		 |$LN299@OutputInfo|
  002bc	00000000	 DCD         |??_C@_0BI@JMDIACJI@FSAAMode?5requested?3?5?$CFi?6?$AA@|
  002c0		 |$LN300@OutputInfo|
  002c0	00000000	 DCD         |??_C@_03GCDBBDDL@Off?$AA@|
  002c4		 |$LN301@OutputInfo|
  002c4	00000000	 DCD         |??_C@_02IAAGKKDJ@On?$AA@|
  002c8		 |$LN302@OutputInfo|
  002c8	00000000	 DCD         |??_C@_0BC@EPAJIGHG@Power?5saving?3?5?$CFs?6?$AA@|
  002cc		 |$LN303@OutputInfo|
  002cc	00000000	 DCD         |??_C@_01EEMJAFIK@?6?$AA@|
  002d0		 |$LN304@OutputInfo|
  002d0	00000000	 DCD         |??_C@_0BC@IEIEEMG@Command?9line?3?5?$CFs?6?$AA@|
  002d4		 |$LN305@OutputInfo|
  002d4	00000000	 DCD         |??_C@_0BA@JEBDPKOF@Write?5path?3?5?$CFs?6?$AA@|
  002d8		 |$LN306@OutputInfo|
  002d8	00000000	 DCD         |??_C@_0BA@HFCBACGB@Read?5path?3?5?5?$CFs?6?$AA@|
  002dc		 |$LN307@OutputInfo|
  002dc	00000000	 DCD         |??_C@_0BB@GAHPADJB@SDK?5version?3?5?$CFs?6?$AA@|
  002e0		 |$LN308@OutputInfo|
  002e0	00000000	 DCD         |??_C@_0N@PNLGIOMB@2?403?423?41162?$AA@|
  002e4		 |$LN309@OutputInfo|
  002e4	00000000	 DCD         |??_C@_0O@KDBCPPFE@App?5name?3?5?$CFs?6?$AA@|
  002e8		 |$M34980|

			 ENDP  ; |?OutputInfo@PVRShellInit@@QAAXXZ|, PVRShellInit::OutputInfo

	EXPORT	|?Run@PVRShellInit@@QAA_NXZ|		; PVRShellInit::Run
	EXPORT	|??_C@_0BI@JNCPGGJG@Screen?5capture?5failed?4?6?$AA@| [ DATA ] ; `string'
	EXPORT	|??_C@_0BK@IHNEIHAH@Screen?9shot?5save?5failed?4?6?$AA@| [ DATA ] ; `string'
	EXPORT	|??_C@_08OLICPPPD@PVRShell?$AA@| [ DATA ] ; `string'
	EXPORT	|??_C@_0BC@IKHNAGDM@InitView?5failed?$CB?6?$AA@| [ DATA ] ; `string'
	EXPORT	|??_C@_0BB@BOECAOCF@InitAPI?5failed?$CB?6?$AA@| [ DATA ] ; `string'
	EXPORT	|??_C@_0BA@IPOKCFDP@InitOS?5failed?$CB?6?$AA@| [ DATA ] ; `string'
	IMPORT	|?OsExit@PVRShellInit@@QAAXXZ|		; PVRShellInit::OsExit
	IMPORT	|?OsReleaseOS@PVRShellInit@@QAAXXZ|	; PVRShellInit::OsReleaseOS
	IMPORT	|?OsDoReleaseAPI@PVRShellInit@@QAAXXZ|	; PVRShellInit::OsDoReleaseAPI
	IMPORT	|?OsRenderComplete@PVRShellInit@@QAAXXZ| ; PVRShellInit::OsRenderComplete
	IMPORT	|?ApiRenderComplete@PVRShellInit@@QAAXXZ| ; PVRShellInit::ApiRenderComplete
	IMPORT	|?OutputAPIInfo@PVRShellInit@@QAAXXZ|	; PVRShellInit::OutputAPIInfo
	IMPORT	|?OsDoInitAPI@PVRShellInit@@QAA_NXZ|	; PVRShellInit::OsDoInitAPI
	IMPORT	|?OsInitOS@PVRShellInit@@QAA_NXZ|	; PVRShellInit::OsInitOS
	IMPORT	|__imp___ges|

  00000			 AREA	 |.bss|, NOINIT
|?StartTime@?1??Run@PVRShellInit@@QAA_NXZ@4KA| % 0x4	; `PVRShellInit::Run'::`2'::StartTime

  00000			 AREA	 |.pdata|, PDATA
|$T35090| DCD	|$LN78@Run|
	DCD	0x40010502

  00000			 AREA	 |.rdata|, DATA, READONLY
|??_C@_0BI@JNCPGGJG@Screen?5capture?5failed?4?6?$AA@| DCB "Screen capture"
	DCB	" failed.", 0xa, 0x0			; `string'

  00000			 AREA	 |.rdata|, DATA, READONLY
|??_C@_0BK@IHNEIHAH@Screen?9shot?5save?5failed?4?6?$AA@| DCB "Screen-shot"
	DCB	" save failed.", 0xa, 0x0		; `string'

  00000			 AREA	 |.rdata|, DATA, READONLY
|??_C@_08OLICPPPD@PVRShell?$AA@| DCB "PVRShell", 0x0	; `string'

  00000			 AREA	 |.rdata|, DATA, READONLY
|??_C@_0BC@IKHNAGDM@InitView?5failed?$CB?6?$AA@| DCB "InitView failed!", 0xa
	DCB	0x0					; `string'

  00000			 AREA	 |.rdata|, DATA, READONLY
|??_C@_0BB@BOECAOCF@InitAPI?5failed?$CB?6?$AA@| DCB "InitAPI failed!", 0xa
	DCB	0x0					; `string'

  00000			 AREA	 |.rdata|, DATA, READONLY
|??_C@_0BA@IPOKCFDP@InitOS?5failed?$CB?6?$AA@| DCB "InitOS failed!", 0xa, 0x0 ; `string'
; Function compile flags: /Ogspy

  00000			 AREA	 |.text|, CODE, ARM

  00000		 |?Run@PVRShellInit@@QAA_NXZ| PROC	; PVRShellInit::Run

; 1156 : {

  00000		 |$LN78@Run|
  00000	e92d40f0	 stmdb       sp!, {r4 - r7, lr}
  00004	e24dd004	 sub         sp, sp, #4
  00008		 |$M35087|
  00008	e1a05000	 mov         r5, r0

; 1157 : 	static unsigned long StartTime = 0;
; 1158 : 
; 1159 : 	switch(m_eState)

  0000c	e595205c	 ldr         r2, [r5, #0x5C]
  00010	e3520007	 cmp         r2, #7
  00014	8a0000eb	 bhi         |$LN26@Run|
  00018	e1a03082	 mov         r3, r2, lsl #1
  0001c	e083300f	 add         r3, r3, pc
  00020	e1d330b4	 ldrh        r3, [r3, #4]
  00024	e08ff003	 add         pc, pc, r3
  00028		 |$LN67@Run|
  00028		 |$LN66@Run|
  00028		 |$LN68@Run|
  00028	000c		 DCW         0xc
  0002a		 |$LN69@Run|
  0002a	002c		 DCW         0x2c
  0002c		 |$LN70@Run|
  0002c	00ec		 DCW         0xec
  0002e		 |$LN71@Run|
  0002e	02d8		 DCW         0x2d8
  00030		 |$LN72@Run|
  00030	02ec		 DCW         0x2ec
  00032		 |$LN73@Run|
  00032	02f4		 DCW         0x2f4
  00034		 |$LN74@Run|
  00034	0334		 DCW         0x334
  00036		 |$LN75@Run|
  00036	0348		 DCW         0x348
  00038		 |$LN25@Run|

; 1160 : 	{
; 1161 : 	case ePVRShellInitApp:
; 1162 : 		if(!m_pShell->InitApplication())

  00038	e5950040	 ldr         r0, [r5, #0x40]
  0003c	e5903000	 ldr         r3, [r0]
  00040	e5933004	 ldr         r3, [r3, #4]
  00044	e1a0e00f	 mov         lr, pc
  00048	e12fff13	 bx          r3
  0004c	e3500000	 cmp         r0, #0

; 1163 : 		{
; 1164 : 			m_eState = ePVRShellExit;

  00050	03a03007	 moveq       r3, #7
  00054	0a0000dd	 beq         |$LN62@Run|
  00058		 |$LN24@Run|

; 1165 : 			return true;
; 1166 : 		}
; 1167 : 
; 1168 : 	case ePVRShellInitInstance:
; 1169 : 		m_CommandLine.Apply(*m_pShell);

  00058	e5951040	 ldr         r1, [r5, #0x40]
  0005c	e2850044	 add         r0, r5, #0x44
  00060	eb000000	 bl          |?Apply@PVRShellCommandLine@@QAAXAAVPVRShell@@@Z|

; 1170 : 
; 1171 : 		// Output non-api specific data if required
; 1172 : 		OutputInfo();

  00064	e1a00005	 mov         r0, r5
  00068	eb000000	 bl          |?OutputInfo@PVRShellInit@@QAAXXZ|

; 1173 : 
; 1174 : 		// Perform OS initialisation
; 1175 : 		if(!OsInitOS())

  0006c	e1a00005	 mov         r0, r5
  00070	eb000000	 bl          |?OsInitOS@PVRShellInit@@QAA_NXZ|
  00074	e3500000	 cmp         r0, #0
  00078	1a000004	 bne         |$LN22@Run|

; 1176 : 		{
; 1177 : 			m_pShell->PVRShellOutputDebug("InitOS failed!\n");

  0007c	e59f138c	 ldr         r1, [pc, #0x38C]
  00080	e5950040	 ldr         r0, [r5, #0x40]
  00084	eb000000	 bl          |?PVRShellOutputDebug@PVRShell@@QBAXQBDZZ|

; 1178 : 			m_eState = ePVRShellQuitApp;

  00088	e3a03006	 mov         r3, #6

; 1179 : 			return true;

  0008c	ea0000cf	 b           |$LN62@Run|
  00090		 |$LN22@Run|

; 1180 : 		}
; 1181 : 
; 1182 : 		// Initialize the 3D API
; 1183 : 		if(!OsDoInitAPI())

  00090	e1a00005	 mov         r0, r5
  00094	eb000000	 bl          |?OsDoInitAPI@PVRShellInit@@QAA_NXZ|
  00098	e3500000	 cmp         r0, #0
  0009c	1a000006	 bne         |$LN21@Run|

; 1184 : 		{
; 1185 : 			m_pShell->PVRShellOutputDebug("InitAPI failed!\n");

  000a0	e59f1364	 ldr         r1, [pc, #0x364]
  000a4	e5950040	 ldr         r0, [r5, #0x40]
  000a8	eb000000	 bl          |?PVRShellOutputDebug@PVRShell@@QBAXQBDZZ|

; 1186 : 			m_eState = ePVRShellReleaseOS;

  000ac	e3a03005	 mov         r3, #5
  000b0		 |$LN65@Run|

; 1187 : 			gShellDone = true;

  000b0	e3a02001	 mov         r2, #1
  000b4	e5c52058	 strb        r2, [r5, #0x58]

; 1188 : 			return true;

  000b8	ea0000c4	 b           |$LN62@Run|
  000bc		 |$LN21@Run|

; 1189 : 		}
; 1190 : 
; 1191 : 		// Output api specific data if required
; 1192 : 		OutputAPIInfo();

  000bc	e1a00005	 mov         r0, r5
  000c0	eb000000	 bl          |?OutputAPIInfo@PVRShellInit@@QAAXXZ|

; 1193 : 
; 1194 : 		// Initialise the app
; 1195 : 		if(!m_pShell->InitView())

  000c4	e5950040	 ldr         r0, [r5, #0x40]
  000c8	e5903000	 ldr         r3, [r0]
  000cc	e593300c	 ldr         r3, [r3, #0xC]
  000d0	e1a0e00f	 mov         lr, pc
  000d4	e12fff13	 bx          r3
  000d8	e3500000	 cmp         r0, #0
  000dc	1a000004	 bne         |$LN20@Run|

; 1196 : 		{
; 1197 : 			m_pShell->PVRShellOutputDebug("InitView failed!\n");

  000e0	e59f1320	 ldr         r1, [pc, #0x320]
  000e4	e5950040	 ldr         r0, [r5, #0x40]
  000e8	eb000000	 bl          |?PVRShellOutputDebug@PVRShell@@QBAXQBDZZ|

; 1198 : 			m_eState = ePVRShellReleaseAPI;

  000ec	e3a03004	 mov         r3, #4

; 1199 : 			gShellDone = true;
; 1200 : 			return true;

  000f0	eaffffee	 b           |$LN65@Run|
  000f4		 |$LN20@Run|

; 1201 : 		}
; 1202 : 
; 1203 : 		if(StartTime==0)

  000f4	e59f42f8	 ldr         r4, [pc, #0x2F8]
  000f8	e5943000	 ldr         r3, [r4]
  000fc	e3530000	 cmp         r3, #0
  00100	1a000002	 bne         |$LN19@Run|

; 1204 : 		{
; 1205 : 			StartTime = OsGetTime();

  00104	e1a00005	 mov         r0, r5
  00108	eb000000	 bl          |?OsGetTime@PVRShellInit@@QAAKXZ|
  0010c	e5840000	 str         r0, [r4]
  00110		 |$LN19@Run|

; 1206 : 		}
; 1207 : 
; 1208 : 		m_eState = ePVRShellRender;

  00110	e3a03002	 mov         r3, #2

; 1209 : 		return true;

  00114	ea0000ad	 b           |$LN62@Run|
  00118		 |$LN18@Run|

; 1210 : 	case ePVRShellRender:
; 1211 : 		{
; 1212 : 			// Main message loop:
; 1213 : 			if(!m_pShell->RenderScene())

  00118	e5950040	 ldr         r0, [r5, #0x40]
  0011c	e5903000	 ldr         r3, [r0]
  00120	e5933014	 ldr         r3, [r3, #0x14]
  00124	e1a0e00f	 mov         lr, pc
  00128	e12fff13	 bx          r3
  0012c	e3500000	 cmp         r0, #0
  00130	0a0000a4	 beq         |$LN26@Run|

; 1214 : 				break;
; 1215 : 
; 1216 : 			ApiRenderComplete();

  00134	e1a00005	 mov         r0, r5
  00138	eb000000	 bl          |?ApiRenderComplete@PVRShellInit@@QAAXXZ|

; 1217 : 			OsRenderComplete();

  0013c	e1a00005	 mov         r0, r5
  00140	eb000000	 bl          |?OsRenderComplete@PVRShellInit@@QAAXXZ|

; 1218 : 
; 1219 : #ifdef PVRSHELL_FPS_OUTPUT
; 1220 : 			if(m_pShell->m_pShellData->bOutputFPS)

  00144	e5953040	 ldr         r3, [r5, #0x40]
  00148	e5933004	 ldr         r3, [r3, #4]
  0014c	e5d33040	 ldrb        r3, [r3, #0x40]
  00150	e3530000	 cmp         r3, #0

; 1221 : 				FpsUpdate();

  00154	11a00005	 movne       r0, r5
  00158	1b000000	 blne        |?FpsUpdate@PVRShellInit@@QAAXXZ|

; 1222 : #endif
; 1223 : 			if(DoIsKeyPressed(PVRShellKeyNameScreenshot))

  0015c	e5953060	 ldr         r3, [r5, #0x60]
  00160	e3a06000	 mov         r6, #0
  00164	e3530009	 cmp         r3, #9
  00168	03a03001	 moveq       r3, #1
  0016c	13a03000	 movne       r3, #0
  00170	05856060	 streq       r6, [r5, #0x60]
  00174	e3530000	 cmp         r3, #0
  00178	0a000028	 beq         |$LN11@Run|

; 1224 : 			{
; 1225 : 				unsigned char *pBuf;
; 1226 : 				if(m_pShell->PVRShellScreenCaptureBuffer(m_pShell->PVRShellGet(prefWidth), m_pShell->PVRShellGet(prefHeight), &pBuf))

  0017c	e5950040	 ldr         r0, [r5, #0x40]
  00180	e3a01003	 mov         r1, #3
  00184	eb000000	 bl          |?PVRShellGet@PVRShell@@QBAHW4prefNameIntEnum@@@Z|
  00188	e1a04000	 mov         r4, r0
  0018c	e5950040	 ldr         r0, [r5, #0x40]
  00190	e3a01002	 mov         r1, #2
  00194	eb000000	 bl          |?PVRShellGet@PVRShell@@QBAHW4prefNameIntEnum@@@Z|
  00198	e1a01000	 mov         r1, r0
  0019c	e5950040	 ldr         r0, [r5, #0x40]
  001a0	e28d3000	 add         r3, sp, #0
  001a4	e1a02004	 mov         r2, r4
  001a8	eb000000	 bl          |?PVRShellScreenCaptureBuffer@PVRShell@@QAA_NHHPAPAE@Z|
  001ac	e59d7000	 ldr         r7, [sp]
  001b0	e3500000	 cmp         r0, #0
  001b4	0a00000d	 beq         |$LN14@Run|

; 1227 : 				{
; 1228 : 					if(m_pShell->PVRShellScreenSave(PVRSHELL_SCREENSHOT_NAME, pBuf) != 0)

  001b8	e59f1244	 ldr         r1, [pc, #0x244]
  001bc	e5950040	 ldr         r0, [r5, #0x40]
  001c0	e3a03000	 mov         r3, #0
  001c4	e1a02007	 mov         r2, r7
  001c8	eb000000	 bl          |?PVRShellScreenSave@PVRShell@@QAAHQBDQBEQAD@Z|
  001cc	e3500000	 cmp         r0, #0
  001d0	0a00000f	 beq         |$LN44@Run|

; 1229 : 					{
; 1230 : 						m_pShell->PVRShellSet(prefExitMessage, "Screen-shot save failed.\n");

  001d4	e5954040	 ldr         r4, [r5, #0x40]
  001d8	e59f1220	 ldr         r1, [pc, #0x220]
  001dc	e5943004	 ldr         r3, [r4, #4]
  001e0	e2830004	 add         r0, r3, #4
  001e4	eb000000	 bl          |?StringCopy@@YA_NAAPADQBD@Z|
  001e8	e59f2210	 ldr         r2, [pc, #0x210]

; 1231 : 					}
; 1232 : 				}
; 1233 : 				else

  001ec	ea000005	 b           |$LN63@Run|
  001f0		 |$LN14@Run|

; 1234 : 				{
; 1235 : 					m_pShell->PVRShellSet(prefExitMessage, "Screen capture failed.\n");

  001f0	e5954040	 ldr         r4, [r5, #0x40]
  001f4	e59f1200	 ldr         r1, [pc, #0x200]
  001f8	e5943004	 ldr         r3, [r4, #4]
  001fc	e2830004	 add         r0, r3, #4
  00200	eb000000	 bl          |?StringCopy@@YA_NAAPADQBD@Z|
  00204	e59f21f0	 ldr         r2, [pc, #0x1F0]
  00208		 |$LN63@Run|
  00208	e59f11e8	 ldr         r1, [pc, #0x1E8]
  0020c	e1a00004	 mov         r0, r4
  00210	eb000000	 bl          |?PVRShellOutputDebug@PVRShell@@QBAXQBDZZ|
  00214		 |$LN44@Run|

; 1236 : 				}
; 1237 : 				FREE(pBuf);

  00214	e3570000	 cmp         r7, #0
  00218	11a00007	 movne       r0, r7
  0021c	1b000000	 blne        free
  00220		 |$LN11@Run|

; 1238 : 			}
; 1239 : 
; 1240 : 			if(DoIsKeyPressed(PVRShellKeyNameQUIT))

  00220	e5953060	 ldr         r3, [r5, #0x60]
  00224	e3530001	 cmp         r3, #1
  00228	03a03001	 moveq       r3, #1
  0022c	13a03000	 movne       r3, #0
  00230	05856060	 streq       r6, [r5, #0x60]
  00234	e3530000	 cmp         r3, #0

; 1241 : 				gShellDone = true;

  00238	13a03001	 movne       r3, #1
  0023c	15c53058	 strneb      r3, [r5, #0x58]

; 1242 : 
; 1243 : 			if(gShellDone)

  00240	e5d53058	 ldrb        r3, [r5, #0x58]
  00244	e3530000	 cmp         r3, #0
  00248	1a00005e	 bne         |$LN26@Run|

; 1244 : 				break;
; 1245 : 
; 1246 : 			/* Quit if maximum number of allowed frames is reached */
; 1247 : 			if((m_pShell->m_pShellData->nDieAfterFrames>=0) && (m_pShell->m_pShellData->nShellCurFrameNum >= m_pShell->m_pShellData->nDieAfterFrames))

  0024c	e5954040	 ldr         r4, [r5, #0x40]
  00250	e5941004	 ldr         r1, [r4, #4]
  00254	e591302c	 ldr         r3, [r1, #0x2C]
  00258	e3530000	 cmp         r3, #0
  0025c	ba000004	 blt         |$LN8@Run|
  00260	e1a03001	 mov         r3, r1
  00264	e593203c	 ldr         r2, [r3, #0x3C]
  00268	e593302c	 ldr         r3, [r3, #0x2C]
  0026c	e1520003	 cmp         r2, r3
  00270	aa000054	 bge         |$LN26@Run|
  00274		 |$LN8@Run|

; 1248 : 				break;
; 1249 : 
; 1250 : 			/* Quit if maximum time is reached */
; 1251 : 			if((m_pShell->m_pShellData->fDieAfterTime>=0.0f) && (((OsGetTime()-StartTime)*0.001f) >= m_pShell->m_pShellData->fDieAfterTime))

  00274	e59f3168	 ldr         r3, [pc, #0x168]
  00278	e5910030	 ldr         r0, [r1, #0x30]
  0027c	e3a01000	 mov         r1, #0
  00280	e5933000	 ldr         r3, [r3]
  00284	e1a0e00f	 mov         lr, pc
  00288	e12fff13	 bx          r3
  0028c	e3500000	 cmp         r0, #0
  00290	0a000016	 beq         |$LN7@Run|
  00294	e1a00005	 mov         r0, r5
  00298	eb000000	 bl          |?OsGetTime@PVRShellInit@@QAAKXZ|
  0029c	e59f3150	 ldr         r3, [pc, #0x150]
  002a0	e59f2148	 ldr         r2, [pc, #0x148]
  002a4	e5954040	 ldr         r4, [r5, #0x40]
  002a8	e5933000	 ldr         r3, [r3]
  002ac	e5922000	 ldr         r2, [r2]
  002b0	e0400003	 sub         r0, r0, r3
  002b4	e1a0e00f	 mov         lr, pc
  002b8	e12fff12	 bx          r2
  002bc	e59f3128	 ldr         r3, [pc, #0x128]
  002c0	e59f1120	 ldr         r1, [pc, #0x120]
  002c4	e5933000	 ldr         r3, [r3]
  002c8	e1a0e00f	 mov         lr, pc
  002cc	e12fff13	 bx          r3
  002d0	e5943004	 ldr         r3, [r4, #4]
  002d4	e59f2108	 ldr         r2, [pc, #0x108]
  002d8	e5931030	 ldr         r1, [r3, #0x30]
  002dc	e5923000	 ldr         r3, [r2]
  002e0	e1a0e00f	 mov         lr, pc
  002e4	e12fff13	 bx          r3
  002e8	e3500000	 cmp         r0, #0
  002ec	1a000035	 bne         |$LN26@Run|
  002f0		 |$LN7@Run|

; 1252 : 				break;
; 1253 : 
; 1254 : 			m_pShell->m_pShellData->nShellCurFrameNum++;

  002f0	e5942004	 ldr         r2, [r4, #4]

; 1255 : 			return true;

  002f4	e592303c	 ldr         r3, [r2, #0x3C]
  002f8	e2833001	 add         r3, r3, #1
  002fc	e582303c	 str         r3, [r2, #0x3C]
  00300	ea000033	 b           |$LN64@Run|
  00304		 |$LN6@Run|

; 1256 : 		}
; 1257 : 
; 1258 : 	case ePVRShellReleaseView:
; 1259 : 		m_pShell->ReleaseView();

  00304	e5950040	 ldr         r0, [r5, #0x40]
  00308	e5903000	 ldr         r3, [r0]
  0030c	e5933010	 ldr         r3, [r3, #0x10]
  00310	e1a0e00f	 mov         lr, pc
  00314	e12fff13	 bx          r3
  00318		 |$LN5@Run|

; 1260 : 
; 1261 : 	case ePVRShellReleaseAPI:
; 1262 : 		OsDoReleaseAPI();

  00318	e1a00005	 mov         r0, r5
  0031c	eb000000	 bl          |?OsDoReleaseAPI@PVRShellInit@@QAAXXZ|
  00320		 |$LN4@Run|

; 1263 : 
; 1264 : 	case ePVRShellReleaseOS:
; 1265 : 		OsReleaseOS();

  00320	e1a00005	 mov         r0, r5
  00324	eb000000	 bl          |?OsReleaseOS@PVRShellInit@@QAAXXZ|

; 1266 : 
; 1267 : 		if(!gShellDone && m_pShell->m_pShellData->nInitRepeats)

  00328	e5d53058	 ldrb        r3, [r5, #0x58]
  0032c	e3530000	 cmp         r3, #0
  00330	1a00000a	 bne         |$LN3@Run|
  00334	e5952040	 ldr         r2, [r5, #0x40]
  00338	e5923004	 ldr         r3, [r2, #4]
  0033c	e5933028	 ldr         r3, [r3, #0x28]
  00340	e3530000	 cmp         r3, #0

; 1268 : 		{
; 1269 : 			--m_pShell->m_pShellData->nInitRepeats;

  00344	15922004	 ldrne       r2, [r2, #4]

; 1270 : 			m_eState = ePVRShellInitInstance;

  00348	13a01001	 movne       r1, #1

; 1271 : 			return true;

  0034c	15923028	 ldrne       r3, [r2, #0x28]
  00350	12433001	 subne       r3, r3, #1
  00354	15823028	 strne       r3, [r2, #0x28]
  00358	1585105c	 strne       r1, [r5, #0x5C]
  0035c	1a00001c	 bne         |$LN64@Run|
  00360		 |$LN3@Run|

; 1272 : 		}
; 1273 : 
; 1274 : 	case ePVRShellQuitApp:
; 1275 : 		// Final app tidy-up
; 1276 : 		m_pShell->QuitApplication();

  00360	e5950040	 ldr         r0, [r5, #0x40]
  00364	e5903000	 ldr         r3, [r0]
  00368	e5933008	 ldr         r3, [r3, #8]
  0036c	e1a0e00f	 mov         lr, pc
  00370	e12fff13	 bx          r3
  00374		 |$LN1@Run|

; 1277 : 
; 1278 : 	case ePVRShellExit:
; 1279 : 		OsExit();

  00374	e1a00005	 mov         r0, r5
  00378	eb000000	 bl          |?OsExit@PVRShellInit@@QAAXXZ|

; 1280 : 		StringCopy(m_pShell->m_pShellData->pszAppName, 0);

  0037c	e5953040	 ldr         r3, [r5, #0x40]
  00380	e3a06000	 mov         r6, #0
  00384	e5934004	 ldr         r4, [r3, #4]
  00388	e5943000	 ldr         r3, [r4]
  0038c	e3530000	 cmp         r3, #0
  00390	0a000002	 beq         |$LN54@Run|
  00394	e1a00003	 mov         r0, r3
  00398	eb000000	 bl          free
  0039c	e5846000	 str         r6, [r4]
  003a0		 |$LN54@Run|

; 1281 : 		StringCopy(m_pShell->m_pShellData->pszExitMessage, 0);

  003a0	e5953040	 ldr         r3, [r5, #0x40]
  003a4	e5934004	 ldr         r4, [r3, #4]
  003a8	e5b43004	 ldr         r3, [r4, #4]!
  003ac	e3530000	 cmp         r3, #0
  003b0	0a000002	 beq         |$LN59@Run|
  003b4	e1a00003	 mov         r0, r3
  003b8	eb000000	 bl          free
  003bc	e5846000	 str         r6, [r4]
  003c0		 |$LN59@Run|

; 1282 : 		return false;

  003c0	e3a00000	 mov         r0, #0
  003c4	ea000003	 b           |$LN28@Run|
  003c8		 |$LN26@Run|

; 1283 : 	}
; 1284 : 
; 1285 : 	m_eState = (EPVRShellState)(m_eState + 1);

  003c8	e595305c	 ldr         r3, [r5, #0x5C]

; 1286 : 	return true;

  003cc	e2833001	 add         r3, r3, #1
  003d0		 |$LN62@Run|
  003d0	e585305c	 str         r3, [r5, #0x5C]
  003d4		 |$LN64@Run|
  003d4	e3a00001	 mov         r0, #1
  003d8		 |$LN28@Run|

; 1287 : }

  003d8	e28dd004	 add         sp, sp, #4
  003dc	e8bd40f0	 ldmia       sp!, {r4 - r7, lr}
  003e0	e12fff1e	 bx          lr
  003e4		 |$LN79@Run|
  003e4		 |$LN80@Run|
  003e4	00000000	 DCD         |__imp___ges|
  003e8		 |$LN81@Run|
  003e8	3a83126f	 DCD         0x3a83126f
  003ec		 |$LN82@Run|
  003ec	00000000	 DCD         |__imp___muls|
  003f0		 |$LN83@Run|
  003f0	00000000	 DCD         |__imp___utos|
  003f4		 |$LN84@Run|
  003f4	00000000	 DCD         |?StartTime@?1??Run@PVRShellInit@@QAA_NXZ@4KA|
  003f8		 |$LN85@Run|
  003f8	00000000	 DCD         |??_C@_0CF@DJPOCLCC@Exit?5message?5has?5been?5set?5to?3?5?$CC?$CF@|
  003fc		 |$LN86@Run|
  003fc	00000000	 DCD         |??_C@_0BI@JNCPGGJG@Screen?5capture?5failed?4?6?$AA@|
  00400		 |$LN87@Run|
  00400	00000000	 DCD         |??_C@_0BK@IHNEIHAH@Screen?9shot?5save?5failed?4?6?$AA@|
  00404		 |$LN88@Run|
  00404	00000000	 DCD         |??_C@_08OLICPPPD@PVRShell?$AA@|
  00408		 |$LN89@Run|
  00408	00000000	 DCD         |??_C@_0BC@IKHNAGDM@InitView?5failed?$CB?6?$AA@|
  0040c		 |$LN90@Run|
  0040c	00000000	 DCD         |??_C@_0BB@BOECAOCF@InitAPI?5failed?$CB?6?$AA@|
  00410		 |$LN91@Run|
  00410	00000000	 DCD         |??_C@_0BA@IPOKCFDP@InitOS?5failed?$CB?6?$AA@|
  00414		 |$M35088|

			 ENDP  ; |?Run@PVRShellInit@@QAA_NXZ|, PVRShellInit::Run

	END
