; Listing generated by Microsoft (R) Optimizing Compiler Version 14.01.60511.01 

	TTL	C:\WINCE600\PUBLIC\PowerVR-SDK\OGLES2\Extras\PVREngine\OGLES2\Texture.cpp
	CODE32

  00000			 AREA	 |.drectve|, DRECTVE
	DCB	"-defaultlib:LIBCMT "
	DCB	"-defaultlib:OLDNAMES "

	EXPORT	|?c_i32DefaultSize@?$dynamicArray@VCPVRTString@@@@2HB| [ DATA ] ; dynamicArray<CPVRTString>::c_i32DefaultSize

  00000			 AREA	 |.rdata|, DATA, READONLY
|?c_i32DefaultSize@?$dynamicArray@VCPVRTString@@@@2HB| DCD 0x8 ; dynamicArray<CPVRTString>::c_i32DefaultSize
	EXPORT	|??__Fobject@?1??inst@?$CPVRTSingleton@VConsoleLog@pvrengine@@@@SAAAVConsoleLog@pvrengine@@XZ@YAXXZ| ; `CPVRTSingleton<pvrengine::ConsoleLog>::inst'::`2'::`dynamic atexit destructor for 'object''
	EXPORT	|??_B?1??inst@?$CPVRTSingleton@VConsoleLog@pvrengine@@@@SAAAVConsoleLog@pvrengine@@XZ@51| [ DATA ] ; `CPVRTSingleton<pvrengine::ConsoleLog>::inst'::`2'::`local static guard'
	EXPORT	|?inst@?$CPVRTSingleton@VConsoleLog@pvrengine@@@@SAAAVConsoleLog@pvrengine@@XZ| ; CPVRTSingleton<pvrengine::ConsoleLog>::inst
	EXPORT	|?object@?1??inst@?$CPVRTSingleton@VConsoleLog@pvrengine@@@@SAAAVConsoleLog@pvrengine@@XZ@4V34@A| [ DATA ] ; `CPVRTSingleton<pvrengine::ConsoleLog>::inst'::`2'::object
	IMPORT	|atexit|
	IMPORT	|??0ConsoleLog@pvrengine@@QAA@XZ|	; pvrengine::ConsoleLog::ConsoleLog
; File c:\wince600\public\powervr-sdk\ogles2\tools\pvrtsingleton.h

  00000			 AREA	 |.bss|, NOINIT
|??_B?1??inst@?$CPVRTSingleton@VConsoleLog@pvrengine@@@@SAAAVConsoleLog@pvrengine@@XZ@51| % 0x4 ; `CPVRTSingleton<pvrengine::ConsoleLog>::inst'::`2'::`local static guard'

  00000			 AREA	 |.bss|, NOINIT
|?object@?1??inst@?$CPVRTSingleton@VConsoleLog@pvrengine@@@@SAAAVConsoleLog@pvrengine@@XZ@4V34@A| % 0x28 ; `CPVRTSingleton<pvrengine::ConsoleLog>::inst'::`2'::object

  00000			 AREA	 |.pdata|, PDATA
|$T36277| DCD	|$LN6@inst|
	DCD	0x40001101
; Function compile flags: /Ogspy

  00000			 AREA	 |.text|, CODE, ARM

  00000		 |?inst@?$CPVRTSingleton@VConsoleLog@pvrengine@@@@SAAAVConsoleLog@pvrengine@@XZ| PROC ; CPVRTSingleton<pvrengine::ConsoleLog>::inst

; 26   : 	{

  00000		 |$LN6@inst|
  00000	e52de004	 str         lr, [sp, #-4]!
  00004		 |$M36274|

; 27   : 		static T object;

  00004	e59f2034	 ldr         r2, [pc, #0x34]
  00008	e5923000	 ldr         r3, [r2]
  0000c	e3130001	 tst         r3, #1
  00010	1a000005	 bne         |$LN1@inst|
  00014	e59f001c	 ldr         r0, [pc, #0x1C]
  00018	e3833001	 orr         r3, r3, #1
  0001c	e5823000	 str         r3, [r2]
  00020	eb000000	 bl          |??0ConsoleLog@pvrengine@@QAA@XZ|
  00024	e59f0010	 ldr         r0, [pc, #0x10]
  00028	eb000000	 bl          atexit
  0002c		 |$LN1@inst|

; 28   : 		return object;
; 29   : 	}

  0002c	e59f0004	 ldr         r0, [pc, #4]
  00030	e49de004	 ldr         lr, [sp], #4
  00034	e12fff1e	 bx          lr
  00038		 |$LN7@inst|
  00038		 |$LN8@inst|
  00038	00000000	 DCD         |?object@?1??inst@?$CPVRTSingleton@VConsoleLog@pvrengine@@@@SAAAVConsoleLog@pvrengine@@XZ@4V34@A|
  0003c		 |$LN9@inst|
  0003c	00000000	 DCD         |??__Fobject@?1??inst@?$CPVRTSingleton@VConsoleLog@pvrengine@@@@SAAAVConsoleLog@pvrengine@@XZ@YAXXZ|
  00040		 |$LN10@inst|
  00040	00000000	 DCD         |??_B?1??inst@?$CPVRTSingleton@VConsoleLog@pvrengine@@@@SAAAVConsoleLog@pvrengine@@XZ@51|
  00044		 |$M36275|

			 ENDP  ; |?inst@?$CPVRTSingleton@VConsoleLog@pvrengine@@@@SAAAVConsoleLog@pvrengine@@XZ|, CPVRTSingleton<pvrengine::ConsoleLog>::inst

	EXPORT	|??0Texture@pvrengine@@QAA@ABVCPVRTString@@@Z| ; pvrengine::Texture::Texture
	EXPORT	|??_C@_0CN@MKFHLIO@PVREngine?3?3Texture?3?5Could?5not?5lo@| [ DATA ] ; `string'
	IMPORT	|?log@ConsoleLog@pvrengine@@QAAXPBDZZ|	; pvrengine::ConsoleLog::log
	IMPORT	|??4CPVRTString@@QAAAAV0@ABV0@@Z|	; CPVRTString::operator=
	IMPORT	|?PVRTTextureLoadFromPVR@@YA?AW4EPVRTError@@QBDQAIPBX_NI@Z| ; PVRTTextureLoadFromPVR
	IMPORT	|?c_str@CPVRTString@@QBAPBDXZ|		; CPVRTString::c_str
	IMPORT	|??0CPVRTString@@QAA@XZ|		; CPVRTString::CPVRTString
; File c:\wince600\public\powervr-sdk\ogles2\extras\pvrengine\ogles2\texture.cpp

  00000			 AREA	 |.pdata|, PDATA
|$T36294| DCD	|$LN9@Texture|
	DCD	0x40002302

  00000			 AREA	 |.rdata|, DATA, READONLY
|??_C@_0CN@MKFHLIO@PVREngine?3?3Texture?3?5Could?5not?5lo@| DCB "PVREngin"
	DCB	"e::Texture: Could not load texture.", 0xa, 0x0 ; `string'
; Function compile flags: /Ogspy

  00000			 AREA	 |.text|, CODE, ARM

  00000		 |??0Texture@pvrengine@@QAA@ABVCPVRTString@@@Z| PROC ; pvrengine::Texture::Texture

; 25   : 	{

  00000		 |$LN9@Texture|
  00000	e92d4030	 stmdb       sp!, {r4, r5, lr}
  00004	e24dd038	 sub         sp, sp, #0x38
  00008		 |$M36291|
  00008	e1a05001	 mov         r5, r1
  0000c	e1a04000	 mov         r4, r0
  00010	e2840004	 add         r0, r4, #4
  00014	eb000000	 bl          |??0CPVRTString@@QAA@XZ|

; 26   : 		PVR_Texture_Header sOldHeader;
; 27   : 		if(PVRTTextureLoadFromPVR(strFilename.c_str(),(GLuint*)&m_u32Handle,&sOldHeader) == PVR_SUCCESS)

  00018	e1a00005	 mov         r0, r5
  0001c	eb000000	 bl          |?c_str@CPVRTString@@QBAPBDXZ|
  00020	e3a0e000	 mov         lr, #0
  00024	e3a03001	 mov         r3, #1
  00028	e28d2004	 add         r2, sp, #4
  0002c	e1a01004	 mov         r1, r4
  00030	e58de000	 str         lr, [sp]
  00034	eb000000	 bl          |?PVRTTextureLoadFromPVR@@YA?AW4EPVRTError@@QBDQAIPBX_NI@Z|
  00038	e3500000	 cmp         r0, #0
  0003c	1a00000a	 bne         |$LN2@Texture|

; 28   : 		{
; 29   : 			m_strFilename = strFilename;

  00040	e1a01005	 mov         r1, r5
  00044	e2840004	 add         r0, r4, #4
  00048	eb000000	 bl          |??4CPVRTString@@QAAAAV0@ABV0@@Z|

; 30   : 			m_bIsCubeMap = (sOldHeader.dwpfFlags&PVRTEX_CUBEMAP)!=0;

  0004c	e59d3014	 ldr         r3, [sp, #0x14]
  00050	e3130a01	 tst         r3, #1, 20
  00054	13a03001	 movne       r3, #1
  00058	15c43014	 strneb      r3, [r4, #0x14]
  0005c	1a000005	 bne         |$LN1@Texture|
  00060	e3a03000	 mov         r3, #0
  00064	e5c43014	 strb        r3, [r4, #0x14]

; 31   : 		}
; 32   : 		else

  00068	ea000002	 b           |$LN1@Texture|
  0006c		 |$LN2@Texture|

; 33   : 		{
; 34   : 			ConsoleLog::inst().log("PVREngine::Texture: Could not load texture.\n");

  0006c	eb000000	 bl          |?inst@?$CPVRTSingleton@VConsoleLog@pvrengine@@@@SAAAVConsoleLog@pvrengine@@XZ|
  00070	e59f1010	 ldr         r1, [pc, #0x10]
  00074	eb000000	 bl          |?log@ConsoleLog@pvrengine@@QAAXPBDZZ|
  00078		 |$LN1@Texture|

; 35   : 			return;
; 36   : 		}
; 37   : 	}

  00078	e1a00004	 mov         r0, r4
  0007c	e28dd038	 add         sp, sp, #0x38
  00080	e8bd4030	 ldmia       sp!, {r4, r5, lr}
  00084	e12fff1e	 bx          lr
  00088		 |$LN10@Texture|
  00088		 |$LN11@Texture|
  00088	00000000	 DCD         |??_C@_0CN@MKFHLIO@PVREngine?3?3Texture?3?5Could?5not?5lo@|
  0008c		 |$M36292|

			 ENDP  ; |??0Texture@pvrengine@@QAA@ABVCPVRTString@@@Z|, pvrengine::Texture::Texture

	IMPORT	|??1ConsoleLog@pvrengine@@UAA@XZ|	; pvrengine::ConsoleLog::~ConsoleLog

  00000			 AREA	 |.pdata|, PDATA
|$T36303| DCD	|$LN5@dynamic|
	DCD	0x40000601
; Function compile flags: /Ogspy

  00000			 AREA	 |.text$yd|, CODE, ARM

  00000		 |??__Fobject@?1??inst@?$CPVRTSingleton@VConsoleLog@pvrengine@@@@SAAAVConsoleLog@pvrengine@@XZ@YAXXZ| PROC ; `CPVRTSingleton<pvrengine::ConsoleLog>::inst'::`2'::`dynamic atexit destructor for 'object''
  00000		 |$LN5@dynamic|
  00000	e52de004	 str         lr, [sp, #-4]!
  00004		 |$M36300|
  00004	e59f0008	 ldr         r0, [pc, #8]
  00008	eb000000	 bl          |??1ConsoleLog@pvrengine@@UAA@XZ|
  0000c	e49de004	 ldr         lr, [sp], #4
  00010	e12fff1e	 bx          lr
  00014		 |$LN6@dynamic|
  00014		 |$LN7@dynamic|
  00014	00000000	 DCD         |?object@?1??inst@?$CPVRTSingleton@VConsoleLog@pvrengine@@@@SAAAVConsoleLog@pvrengine@@XZ@4V34@A|
  00018		 |$M36301|

			 ENDP  ; |??__Fobject@?1??inst@?$CPVRTSingleton@VConsoleLog@pvrengine@@@@SAAAVConsoleLog@pvrengine@@XZ@YAXXZ|, `CPVRTSingleton<pvrengine::ConsoleLog>::inst'::`2'::`dynamic atexit destructor for 'object''

	END
