; Listing generated by Microsoft (R) Optimizing Compiler Version 14.01.60511.01 

	TTL	C:\WINCE600\PUBLIC\PowerVR-SDK\OGLES2\Extras\PVREngine\TextureManager.cpp
	CODE32

  00000			 AREA	 |.drectve|, DRECTVE
	DCB	"-defaultlib:LIBCMT "
	DCB	"-defaultlib:OLDNAMES "

	EXPORT	|?c_i32DefaultSize@?$dynamicArray@PAVTexture@pvrengine@@@@2HB| [ DATA ] ; dynamicArray<pvrengine::Texture *>::c_i32DefaultSize
	EXPORT	|?c_i32DefaultSize@?$dynamicArray@VCPVRTString@@@@2HB| [ DATA ] ; dynamicArray<CPVRTString>::c_i32DefaultSize

  00000			 AREA	 |.rdata|, DATA, READONLY
|?c_i32DefaultSize@?$dynamicArray@VCPVRTString@@@@2HB| DCD 0x8 ; dynamicArray<CPVRTString>::c_i32DefaultSize

  00000			 AREA	 |.rdata|, DATA, READONLY
|?c_i32DefaultSize@?$dynamicArray@PAVTexture@pvrengine@@@@2HB| DCD 0x8 ; dynamicArray<pvrengine::Texture *>::c_i32DefaultSize
	EXPORT	|?getFilename@Texture@pvrengine@@QAA?AVCPVRTString@@XZ| ; pvrengine::Texture::getFilename
	IMPORT	|??0CPVRTString@@QAA@ABV0@II@Z|		; CPVRTString::CPVRTString
	IMPORT	|?npos@CPVRTString@@2IB|		; CPVRTString::npos
; File c:\wince600\public\powervr-sdk\ogles2\extras\pvrengine\include\ogles2\texture.h

  00000			 AREA	 |.pdata|, PDATA
|$T36511| DCD	|$LN5@getFilenam|
	DCD	0x40000c01
; Function compile flags: /Ogspy

  00000			 AREA	 |.text|, CODE, ARM

  00000		 |?getFilename@Texture@pvrengine@@QAA?AVCPVRTString@@XZ| PROC ; pvrengine::Texture::getFilename

; 51   : 		CPVRTString getFilename(){return m_strFilename;}

  00000		 |$LN5@getFilenam|
  00000	e92d4010	 stmdb       sp!, {r4, lr}
  00004		 |$M36508|
  00004	e1a04001	 mov         r4, r1
  00008	e59f301c	 ldr         r3, [pc, #0x1C]
  0000c	e2801004	 add         r1, r0, #4
  00010	e3a02000	 mov         r2, #0
  00014	e5933000	 ldr         r3, [r3]
  00018	e1a00004	 mov         r0, r4
  0001c	eb000000	 bl          |??0CPVRTString@@QAA@ABV0@II@Z|
  00020	e1a00004	 mov         r0, r4
  00024	e8bd4010	 ldmia       sp!, {r4, lr}
  00028	e12fff1e	 bx          lr
  0002c		 |$LN6@getFilenam|
  0002c		 |$LN7@getFilenam|
  0002c	00000000	 DCD         |?npos@CPVRTString@@2IB|
  00030		 |$M36509|

			 ENDP  ; |?getFilename@Texture@pvrengine@@QAA?AVCPVRTString@@XZ|, pvrengine::Texture::getFilename

	EXPORT	|??1Texture@pvrengine@@QAA@XZ|		; pvrengine::Texture::~Texture
	IMPORT	|??1CPVRTString@@UAA@XZ|		; CPVRTString::~CPVRTString

  00000			 AREA	 |.pdata|, PDATA
|$T36521| DCD	|$LN5@Texture|
	DCD	0x40000501
; Function compile flags: /Ogspy

  00000			 AREA	 |.text|, CODE, ARM

  00000		 |??1Texture@pvrengine@@QAA@XZ| PROC	; pvrengine::Texture::~Texture
  00000		 |$LN5@Texture|
  00000	e52de004	 str         lr, [sp, #-4]!
  00004		 |$M36518|
  00004	e2800004	 add         r0, r0, #4
  00008	eb000000	 bl          |??1CPVRTString@@UAA@XZ|
  0000c	e49de004	 ldr         lr, [sp], #4
  00010	e12fff1e	 bx          lr
  00014		 |$M36519|

			 ENDP  ; |??1Texture@pvrengine@@QAA@XZ|, pvrengine::Texture::~Texture

	EXPORT	|??0?$CPVRTSingleton@VTextureManager@pvrengine@@@@IAA@XZ| ; CPVRTSingleton<pvrengine::TextureManager>::CPVRTSingleton<pvrengine::TextureManager>
	EXPORT	|??_7?$CPVRTSingleton@VTextureManager@pvrengine@@@@6B@| [ DATA ] ; CPVRTSingleton<pvrengine::TextureManager>::`vftable'
	IMPORT	|??_E?$CPVRTSingleton@VTextureManager@pvrengine@@@@MAAPAXI@Z|, WEAK |??_G?$CPVRTSingleton@VTextureManager@pvrengine@@@@MAAPAXI@Z| ; CPVRTSingleton<pvrengine::TextureManager>::`vector deleting destructor', CPVRTSingleton<pvrengine::TextureManager>::`scalar deleting destructor'
; File c:\wince600\public\powervr-sdk\ogles2\tools\pvrtsingleton.h

  00000			 AREA	 |.pdata|, PDATA
|$T36531| DCD	|$LN5@CPVRTSingl|
	DCD	0x40000500

  00000			 AREA	 |.rdata|, DATA, READONLY
|??_7?$CPVRTSingleton@VTextureManager@pvrengine@@@@6B@| DCD |??_E?$CPVRTSingleton@VTextureManager@pvrengine@@@@MAAPAXI@Z| ; CPVRTSingleton<pvrengine::TextureManager>::`vftable'
; Function compile flags: /Ogspy

  00000			 AREA	 |.text|, CODE, ARM

  00000		 |??0?$CPVRTSingleton@VTextureManager@pvrengine@@@@IAA@XZ| PROC ; CPVRTSingleton<pvrengine::TextureManager>::CPVRTSingleton<pvrengine::TextureManager>

; 37   : 	CPVRTSingleton() {};

  00000		 |$LN5@CPVRTSingl|
  00000		 |$M36528|
  00000	e1a02000	 mov         r2, r0
  00004	e59f3004	 ldr         r3, [pc, #4]
  00008	e5823000	 str         r3, [r2]
  0000c	e12fff1e	 bx          lr
  00010		 |$LN6@CPVRTSingl|
  00010		 |$LN7@CPVRTSingl|
  00010	00000000	 DCD         |??_7?$CPVRTSingleton@VTextureManager@pvrengine@@@@6B@|
  00014		 |$M36529|

			 ENDP  ; |??0?$CPVRTSingleton@VTextureManager@pvrengine@@@@IAA@XZ|, CPVRTSingleton<pvrengine::TextureManager>::CPVRTSingleton<pvrengine::TextureManager>

	EXPORT	|??1?$CPVRTSingleton@VTextureManager@pvrengine@@@@MAA@XZ| ; CPVRTSingleton<pvrengine::TextureManager>::~CPVRTSingleton<pvrengine::TextureManager>

  00000			 AREA	 |.pdata|, PDATA
|$T36541| DCD	|$LN5@CPVRTSingl@2|
	DCD	0x40000400
; Function compile flags: /Ogspy

  00000			 AREA	 |.text|, CODE, ARM

  00000		 |??1?$CPVRTSingleton@VTextureManager@pvrengine@@@@MAA@XZ| PROC ; CPVRTSingleton<pvrengine::TextureManager>::~CPVRTSingleton<pvrengine::TextureManager>

; 38   : 	virtual ~CPVRTSingleton() {};

  00000		 |$LN5@CPVRTSingl@2|
  00000		 |$M36538|
  00000	e59f3004	 ldr         r3, [pc, #4]
  00004	e5803000	 str         r3, [r0]
  00008	e12fff1e	 bx          lr
  0000c		 |$LN6@CPVRTSingl@2|
  0000c		 |$LN7@CPVRTSingl@2|
  0000c	00000000	 DCD         |??_7?$CPVRTSingleton@VTextureManager@pvrengine@@@@6B@|
  00010		 |$M36539|

			 ENDP  ; |??1?$CPVRTSingleton@VTextureManager@pvrengine@@@@MAA@XZ|, CPVRTSingleton<pvrengine::TextureManager>::~CPVRTSingleton<pvrengine::TextureManager>

	EXPORT	|??0?$dynamicArray@PAVTexture@pvrengine@@@@QAA@XZ| ; dynamicArray<pvrengine::Texture *>::dynamicArray<pvrengine::Texture *>
	IMPORT	|??2@YAPAXI@Z|				; operator new
; File c:\wince600\public\powervr-sdk\ogles2\extras\pvrengine\include\dynamicarray.h

  00000			 AREA	 |.pdata|, PDATA
|$T36554| DCD	|$LN5@dynamicArr|
	DCD	0x40000c01
; Function compile flags: /Ogspy

  00000			 AREA	 |.text|, CODE, ARM

  00000		 |??0?$dynamicArray@PAVTexture@pvrengine@@@@QAA@XZ| PROC ; dynamicArray<pvrengine::Texture *>::dynamicArray<pvrengine::Texture *>

; 57   : 	{

  00000		 |$LN5@dynamicArr|
  00000	e92d4010	 stmdb       sp!, {r4, lr}
  00004		 |$M36551|
  00004	e1a04000	 mov         r4, r0
  00008	e3a03000	 mov         r3, #0
  0000c	e3a02008	 mov         r2, #8

; 58   : 		m_pArray = new T[c_i32DefaultSize];

  00010	e3a00020	 mov         r0, #0x20
  00014	e5843000	 str         r3, [r4]
  00018	e5842004	 str         r2, [r4, #4]
  0001c	eb000000	 bl          |??2@YAPAXI@Z|
  00020	e5840008	 str         r0, [r4, #8]

; 59   : 	}

  00024	e1a00004	 mov         r0, r4
  00028	e8bd4010	 ldmia       sp!, {r4, lr}
  0002c	e12fff1e	 bx          lr
  00030		 |$M36552|

			 ENDP  ; |??0?$dynamicArray@PAVTexture@pvrengine@@@@QAA@XZ|, dynamicArray<pvrengine::Texture *>::dynamicArray<pvrengine::Texture *>

	EXPORT	|??1?$dynamicArray@PAVTexture@pvrengine@@@@QAA@XZ| ; dynamicArray<pvrengine::Texture *>::~dynamicArray<pvrengine::Texture *>
	IMPORT	|??3@YAXPAX@Z|				; operator delete

  00000			 AREA	 |.pdata|, PDATA
|$T36563| DCD	|$LN6@dynamicArr@2|
	DCD	0x40000701
; Function compile flags: /Ogspy

  00000			 AREA	 |.text|, CODE, ARM

  00000		 |??1?$dynamicArray@PAVTexture@pvrengine@@@@QAA@XZ| PROC ; dynamicArray<pvrengine::Texture *>::~dynamicArray<pvrengine::Texture *>

; 113  : 	{

  00000		 |$LN6@dynamicArr@2|
  00000	e52de004	 str         lr, [sp, #-4]!
  00004		 |$M36560|

; 114  : 		if(m_pArray)

  00004	e5903008	 ldr         r3, [r0, #8]
  00008	e3530000	 cmp         r3, #0

; 115  : 			delete[](m_pArray);

  0000c	11a00003	 movne       r0, r3
  00010	1b000000	 blne        |??3@YAXPAX@Z|

; 116  : 	}

  00014	e49de004	 ldr         lr, [sp], #4
  00018	e12fff1e	 bx          lr
  0001c		 |$M36561|

			 ENDP  ; |??1?$dynamicArray@PAVTexture@pvrengine@@@@QAA@XZ|, dynamicArray<pvrengine::Texture *>::~dynamicArray<pvrengine::Texture *>

	EXPORT	|?append@?$dynamicArray@PAVTexture@pvrengine@@@@QAAXPAVTexture@pvrengine@@@Z| ; dynamicArray<pvrengine::Texture *>::append

  00000			 AREA	 |.pdata|, PDATA
|$T36581| DCD	|$LN13@append|
	DCD	0x40002401
; Function compile flags: /Ogspy

  00000			 AREA	 |.text|, CODE, ARM

  00000		 |?append@?$dynamicArray@PAVTexture@pvrengine@@@@QAAXPAVTexture@pvrengine@@@Z| PROC ; dynamicArray<pvrengine::Texture *>::append

; 126  : 	{

  00000		 |$LN13@append|
  00000	e92d4030	 stmdb       sp!, {r4, r5, lr}
  00004		 |$M36578|
  00004	e1a05001	 mov         r5, r1
  00008	e1a04000	 mov         r4, r0

; 127  : 		if(m_i32Size==m_i32Capacity)		// should never be >

  0000c	e5942004	 ldr         r2, [r4, #4]
  00010	e5943000	 ldr         r3, [r4]
  00014	e1530002	 cmp         r3, r2
  00018	1a000014	 bne         |$LN4@append|

; 128  : 		{	// expand array: expensive
; 129  : 
; 130  : 			m_i32Capacity*=2;	// array doubles in size for each expansion

  0001c	e1a03082	 mov         r3, r2, lsl #1

; 131  : 			T *pDeadArray,*pNewArray = new T[m_i32Capacity]; // make new array

  00020	e3730107	 cmn         r3, #7, 2
  00024	91a00103	 movls       r0, r3, lsl #2
  00028	83e00000	 mvnhi       r0, #0
  0002c	e5843004	 str         r3, [r4, #4]
  00030	eb000000	 bl          |??2@YAPAXI@Z|

; 132  : 
; 133  : 			// copy old values to new array
; 134  : 			for(int i=0;i<m_i32Size;i++)

  00034	e5943000	 ldr         r3, [r4]
  00038	e1a01000	 mov         r1, r0
  0003c	e3a02000	 mov         r2, #0
  00040	e3530000	 cmp         r3, #0
  00044	da000006	 ble         |$LN1@append|
  00048		 |$LL3@append|

; 135  : 			{
; 136  : 				pNewArray[i]=m_pArray[i];

  00048	e5943008	 ldr         r3, [r4, #8]
  0004c	e7933102	 ldr         r3, [r3, +r2, lsl #2]
  00050	e7813102	 str         r3, [r1, +r2, lsl #2]
  00054	e5943000	 ldr         r3, [r4]
  00058	e2822001	 add         r2, r2, #1
  0005c	e1520003	 cmp         r2, r3
  00060	bafffff8	 blt         |$LL3@append|
  00064		 |$LN1@append|

; 137  : 			}
; 138  : 
; 139  : 
; 140  : 			pDeadArray = m_pArray;

  00064	e5940008	 ldr         r0, [r4, #8]

; 141  : 			m_pArray = pNewArray;

  00068	e5841008	 str         r1, [r4, #8]

; 142  : 			delete[](pDeadArray);

  0006c	eb000000	 bl          |??3@YAXPAX@Z|
  00070		 |$LN4@append|

; 143  : 		}
; 144  : 		// add new element to end of array
; 145  : 
; 146  : 		m_pArray[m_i32Size] = addT;

  00070	e5942000	 ldr         r2, [r4]
  00074	e5943008	 ldr         r3, [r4, #8]
  00078	e7835102	 str         r5, [r3, +r2, lsl #2]

; 147  : 		m_i32Size++;

  0007c	e5943000	 ldr         r3, [r4]
  00080	e2833001	 add         r3, r3, #1
  00084	e5843000	 str         r3, [r4]

; 148  : 	}

  00088	e8bd4030	 ldmia       sp!, {r4, r5, lr}
  0008c	e12fff1e	 bx          lr
  00090		 |$M36579|

			 ENDP  ; |?append@?$dynamicArray@PAVTexture@pvrengine@@@@QAAXPAVTexture@pvrengine@@@Z|, dynamicArray<pvrengine::Texture *>::append

	EXPORT	|??A?$dynamicArray@PAVTexture@pvrengine@@@@QAAAAPAVTexture@pvrengine@@H@Z| ; dynamicArray<pvrengine::Texture *>::operator[]

  00000			 AREA	 |.pdata|, PDATA
|$T36592| DCD	|$LN5@operator|
	DCD	0x40000300
; Function compile flags: /Ogspy

  00000			 AREA	 |.text|, CODE, ARM

  00000		 |??A?$dynamicArray@PAVTexture@pvrengine@@@@QAAAAPAVTexture@pvrengine@@H@Z| PROC ; dynamicArray<pvrengine::Texture *>::operator[]

; 216  : 	{

  00000		 |$LN5@operator|
  00000		 |$M36589|

; 217  : 		_ASSERT(i32Index<m_i32Capacity);
; 218  : 		return m_pArray[i32Index];

  00000	e5903008	 ldr         r3, [r0, #8]
  00004	e0830101	 add         r0, r3, r1, lsl #2

; 219  : 	}

  00008	e12fff1e	 bx          lr
  0000c		 |$M36590|

			 ENDP  ; |??A?$dynamicArray@PAVTexture@pvrengine@@@@QAAAAPAVTexture@pvrengine@@H@Z|, dynamicArray<pvrengine::Texture *>::operator[]

	EXPORT	|?getSize@?$dynamicArray@PAVTexture@pvrengine@@@@QBAIXZ| ; dynamicArray<pvrengine::Texture *>::getSize

  00000			 AREA	 |.pdata|, PDATA
|$T36602| DCD	|$LN5@getSize|
	DCD	0x40000200
; Function compile flags: /Ogspy

  00000			 AREA	 |.text|, CODE, ARM

  00000		 |?getSize@?$dynamicArray@PAVTexture@pvrengine@@@@QBAIXZ| PROC ; dynamicArray<pvrengine::Texture *>::getSize

; 240  : 	{

  00000		 |$LN5@getSize|
  00000		 |$M36599|

; 241  : 		return m_i32Size;

  00000	e5900000	 ldr         r0, [r0]

; 242  : 	}

  00004	e12fff1e	 bx          lr
  00008		 |$M36600|

			 ENDP  ; |?getSize@?$dynamicArray@PAVTexture@pvrengine@@@@QBAIXZ|, dynamicArray<pvrengine::Texture *>::getSize

	EXPORT	|?expandToSize@?$dynamicArray@PAVTexture@pvrengine@@@@QAAXH@Z| ; dynamicArray<pvrengine::Texture *>::expandToSize

  00000			 AREA	 |.pdata|, PDATA
|$T36620| DCD	|$LN13@expandToSi|
	DCD	0x40001c01
; Function compile flags: /Ogspy

  00000			 AREA	 |.text|, CODE, ARM

  00000		 |?expandToSize@?$dynamicArray@PAVTexture@pvrengine@@@@QAAXH@Z| PROC ; dynamicArray<pvrengine::Texture *>::expandToSize

; 260  : 	{

  00000		 |$LN13@expandToSi|
  00000	e92d4030	 stmdb       sp!, {r4, r5, lr}
  00004		 |$M36617|
  00004	e1a05001	 mov         r5, r1
  00008	e1a04000	 mov         r4, r0

; 261  : 		if(i32Size<=m_i32Capacity)

  0000c	e5943004	 ldr         r3, [r4, #4]
  00010	e1550003	 cmp         r5, r3
  00014	da000013	 ble         |$LN5@expandToSi|

; 262  : 			return;	// nothing to be done
; 263  : 
; 264  : 		T *pDeadArray,*pNewArray = new T[i32Size]; // make new array

  00018	e3750107	 cmn         r5, #7, 2
  0001c	91a00105	 movls       r0, r5, lsl #2
  00020	83e00000	 mvnhi       r0, #0
  00024	eb000000	 bl          |??2@YAPAXI@Z|

; 265  : 
; 266  : 		// copy old values to new array
; 267  : 		for(int i=0;i<m_i32Size;i++)

  00028	e5943000	 ldr         r3, [r4]
  0002c	e1a01000	 mov         r1, r0
  00030	e3a02000	 mov         r2, #0
  00034	e3530000	 cmp         r3, #0
  00038	da000006	 ble         |$LN1@expandToSi|
  0003c		 |$LL3@expandToSi|

; 268  : 		{
; 269  : 			pNewArray[i]=m_pArray[i];

  0003c	e5943008	 ldr         r3, [r4, #8]
  00040	e7933102	 ldr         r3, [r3, +r2, lsl #2]
  00044	e7813102	 str         r3, [r1, +r2, lsl #2]
  00048	e5943000	 ldr         r3, [r4]
  0004c	e2822001	 add         r2, r2, #1
  00050	e1520003	 cmp         r2, r3
  00054	bafffff8	 blt         |$LL3@expandToSi|
  00058		 |$LN1@expandToSi|

; 270  : 		}
; 271  : 
; 272  : 		m_i32Capacity=i32Size;
; 273  : 		pDeadArray = m_pArray;

  00058	e5940008	 ldr         r0, [r4, #8]
  0005c	e5845004	 str         r5, [r4, #4]

; 274  : 		m_pArray = pNewArray;

  00060	e5841008	 str         r1, [r4, #8]

; 275  : 		delete[](pDeadArray);

  00064	eb000000	 bl          |??3@YAXPAX@Z|
  00068		 |$LN5@expandToSi|

; 276  : 	}

  00068	e8bd4030	 ldmia       sp!, {r4, r5, lr}
  0006c	e12fff1e	 bx          lr
  00070		 |$M36618|

			 ENDP  ; |?expandToSize@?$dynamicArray@PAVTexture@pvrengine@@@@QAAXH@Z|, dynamicArray<pvrengine::Texture *>::expandToSize


  00000			 AREA	 |.pdata|, PDATA
|$T36634| DCD	|$LN8@scalar|
	DCD	0x40000a01
; Function compile flags: /Ogspy

  00000			 AREA	 |.text|, CODE, ARM

  00000		 |??_G?$CPVRTSingleton@VTextureManager@pvrengine@@@@MAAPAXI@Z| PROC ; CPVRTSingleton<pvrengine::TextureManager>::`scalar deleting destructor'
  00000		 |$LN8@scalar|
  00000	e92d4010	 stmdb       sp!, {r4, lr}
  00004		 |$M36631|
  00004	e1a04000	 mov         r4, r0
  00008	e59f3014	 ldr         r3, [pc, #0x14]
  0000c	e3110001	 tst         r1, #1
  00010	e5843000	 str         r3, [r4]
  00014	1b000000	 blne        |??3@YAXPAX@Z|
  00018	e1a00004	 mov         r0, r4
  0001c	e8bd4010	 ldmia       sp!, {r4, lr}
  00020	e12fff1e	 bx          lr
  00024		 |$LN9@scalar|
  00024		 |$LN10@scalar|
  00024	00000000	 DCD         |??_7?$CPVRTSingleton@VTextureManager@pvrengine@@@@6B@|
  00028		 |$M36632|

			 ENDP  ; |??_G?$CPVRTSingleton@VTextureManager@pvrengine@@@@MAAPAXI@Z|, CPVRTSingleton<pvrengine::TextureManager>::`scalar deleting destructor'

	EXPORT	|??_GTexture@pvrengine@@QAAPAXI@Z|	; pvrengine::Texture::`scalar deleting destructor'

  00000			 AREA	 |.pdata|, PDATA
|$T36650| DCD	|$LN8@scalar@2|
	DCD	0x40000b01
; Function compile flags: /Ogspy

  00000			 AREA	 |.text|, CODE, ARM

  00000		 |??_GTexture@pvrengine@@QAAPAXI@Z| PROC ; pvrengine::Texture::`scalar deleting destructor'
  00000		 |$LN8@scalar@2|
  00000	e92d4030	 stmdb       sp!, {r4, r5, lr}
  00004		 |$M36647|
  00004	e1a04001	 mov         r4, r1
  00008	e1a05000	 mov         r5, r0
  0000c	e2850004	 add         r0, r5, #4
  00010	eb000000	 bl          |??1CPVRTString@@UAA@XZ|
  00014	e3140001	 tst         r4, #1
  00018	11a00005	 movne       r0, r5
  0001c	1b000000	 blne        |??3@YAXPAX@Z|
  00020	e1a00005	 mov         r0, r5
  00024	e8bd4030	 ldmia       sp!, {r4, r5, lr}
  00028	e12fff1e	 bx          lr
  0002c		 |$M36648|

			 ENDP  ; |??_GTexture@pvrengine@@QAAPAXI@Z|, pvrengine::Texture::`scalar deleting destructor'

	EXPORT	|??0TextureManager@pvrengine@@QAA@H@Z|	; pvrengine::TextureManager::TextureManager
	EXPORT	|??_7TextureManager@pvrengine@@6B@| [ DATA ] ; pvrengine::TextureManager::`vftable'
	IMPORT	|??_ETextureManager@pvrengine@@UAAPAXI@Z|, WEAK |??_GTextureManager@pvrengine@@UAAPAXI@Z| ; pvrengine::TextureManager::`vector deleting destructor', pvrengine::TextureManager::`scalar deleting destructor'

  00000			 AREA	 |.pdata|, PDATA
|$T36671| DCD	|$LN9@TextureMan|
	DCD	0x40001401

  00000			 AREA	 |.rdata|, DATA, READONLY
|??_7TextureManager@pvrengine@@6B@| DCD |??_ETextureManager@pvrengine@@UAAPAXI@Z| ; pvrengine::TextureManager::`vftable'
; Function compile flags: /Ogspy
; File c:\wince600\public\powervr-sdk\ogles2\extras\pvrengine\texturemanager.cpp

  00000			 AREA	 |.text|, CODE, ARM

  00000		 |??0TextureManager@pvrengine@@QAA@H@Z| PROC ; pvrengine::TextureManager::TextureManager

; 46   : 	{

  00000		 |$LN9@TextureMan|
  00000	e92d4070	 stmdb       sp!, {r4 - r6, lr}
  00004		 |$M36668|
  00004	e1a05001	 mov         r5, r1
  00008	e1a06000	 mov         r6, r0
  0000c	e59f3038	 ldr         r3, [pc, #0x38]
  00010	e1a04006	 mov         r4, r6
  00014	e3a02000	 mov         r2, #0
  00018	e4843004	 str         r3, [r4], #4
  0001c	e3a03008	 mov         r3, #8
  00020	e3a00020	 mov         r0, #0x20
  00024	e884000c	 stmia       r4, {r2, r3}
  00028	eb000000	 bl          |??2@YAPAXI@Z|
  0002c	e1a03000	 mov         r3, r0

; 47   : 		m_daTextures.expandToSize(i32MaxTextures);

  00030	e1a00004	 mov         r0, r4
  00034	e1a01005	 mov         r1, r5
  00038	e5843008	 str         r3, [r4, #8]
  0003c	eb000000	 bl          |?expandToSize@?$dynamicArray@PAVTexture@pvrengine@@@@QAAXH@Z|

; 48   : 	}

  00040	e1a00006	 mov         r0, r6
  00044	e8bd4070	 ldmia       sp!, {r4 - r6, lr}
  00048	e12fff1e	 bx          lr
  0004c		 |$LN10@TextureMan|
  0004c		 |$LN11@TextureMan|
  0004c	00000000	 DCD         |??_7TextureManager@pvrengine@@6B@|
  00050		 |$M36669|

			 ENDP  ; |??0TextureManager@pvrengine@@QAA@H@Z|, pvrengine::TextureManager::TextureManager

	EXPORT	|??__Fobject@?1??inst@?$CPVRTSingleton@VConsoleLog@pvrengine@@@@SAAAVConsoleLog@pvrengine@@XZ@YAXXZ| ; `CPVRTSingleton<pvrengine::ConsoleLog>::inst'::`2'::`dynamic atexit destructor for 'object''
	EXPORT	|??_B?1??inst@?$CPVRTSingleton@VConsoleLog@pvrengine@@@@SAAAVConsoleLog@pvrengine@@XZ@51| [ DATA ] ; `CPVRTSingleton<pvrengine::ConsoleLog>::inst'::`2'::`local static guard'
	EXPORT	|?inst@?$CPVRTSingleton@VConsoleLog@pvrengine@@@@SAAAVConsoleLog@pvrengine@@XZ| ; CPVRTSingleton<pvrengine::ConsoleLog>::inst
	EXPORT	|?object@?1??inst@?$CPVRTSingleton@VConsoleLog@pvrengine@@@@SAAAVConsoleLog@pvrengine@@XZ@4V34@A| [ DATA ] ; `CPVRTSingleton<pvrengine::ConsoleLog>::inst'::`2'::object
	IMPORT	|atexit|
	IMPORT	|??0ConsoleLog@pvrengine@@QAA@XZ|	; pvrengine::ConsoleLog::ConsoleLog
; File c:\wince600\public\powervr-sdk\ogles2\tools\pvrtsingleton.h

  00000			 AREA	 |.bss|, NOINIT
|??_B?1??inst@?$CPVRTSingleton@VConsoleLog@pvrengine@@@@SAAAVConsoleLog@pvrengine@@XZ@51| % 0x4 ; `CPVRTSingleton<pvrengine::ConsoleLog>::inst'::`2'::`local static guard'

  00000			 AREA	 |.bss|, NOINIT
|?object@?1??inst@?$CPVRTSingleton@VConsoleLog@pvrengine@@@@SAAAVConsoleLog@pvrengine@@XZ@4V34@A| % 0x28 ; `CPVRTSingleton<pvrengine::ConsoleLog>::inst'::`2'::object

  00000			 AREA	 |.pdata|, PDATA
|$T36682| DCD	|$LN6@inst|
	DCD	0x40001101
; Function compile flags: /Ogspy

  00000			 AREA	 |.text|, CODE, ARM

  00000		 |?inst@?$CPVRTSingleton@VConsoleLog@pvrengine@@@@SAAAVConsoleLog@pvrengine@@XZ| PROC ; CPVRTSingleton<pvrengine::ConsoleLog>::inst

; 26   : 	{

  00000		 |$LN6@inst|
  00000	e52de004	 str         lr, [sp, #-4]!
  00004		 |$M36679|

; 27   : 		static T object;

  00004	e59f2034	 ldr         r2, [pc, #0x34]
  00008	e5923000	 ldr         r3, [r2]
  0000c	e3130001	 tst         r3, #1
  00010	1a000005	 bne         |$LN1@inst|
  00014	e59f001c	 ldr         r0, [pc, #0x1C]
  00018	e3833001	 orr         r3, r3, #1
  0001c	e5823000	 str         r3, [r2]
  00020	eb000000	 bl          |??0ConsoleLog@pvrengine@@QAA@XZ|
  00024	e59f0010	 ldr         r0, [pc, #0x10]
  00028	eb000000	 bl          atexit
  0002c		 |$LN1@inst|

; 28   : 		return object;
; 29   : 	}

  0002c	e59f0004	 ldr         r0, [pc, #4]
  00030	e49de004	 ldr         lr, [sp], #4
  00034	e12fff1e	 bx          lr
  00038		 |$LN7@inst|
  00038		 |$LN8@inst|
  00038	00000000	 DCD         |?object@?1??inst@?$CPVRTSingleton@VConsoleLog@pvrengine@@@@SAAAVConsoleLog@pvrengine@@XZ@4V34@A|
  0003c		 |$LN9@inst|
  0003c	00000000	 DCD         |??__Fobject@?1??inst@?$CPVRTSingleton@VConsoleLog@pvrengine@@@@SAAAVConsoleLog@pvrengine@@XZ@YAXXZ|
  00040		 |$LN10@inst|
  00040	00000000	 DCD         |??_B?1??inst@?$CPVRTSingleton@VConsoleLog@pvrengine@@@@SAAAVConsoleLog@pvrengine@@XZ@51|
  00044		 |$M36680|

			 ENDP  ; |?inst@?$CPVRTSingleton@VConsoleLog@pvrengine@@@@SAAAVConsoleLog@pvrengine@@XZ|, CPVRTSingleton<pvrengine::ConsoleLog>::inst

	EXPORT	|??1TextureManager@pvrengine@@UAA@XZ|	; pvrengine::TextureManager::~TextureManager

  00000			 AREA	 |.pdata|, PDATA
|$T36759| DCD	|$LN53@TextureMan@2|
	DCD	0x40004101
; Function compile flags: /Ogspy
; File c:\wince600\public\powervr-sdk\ogles2\extras\pvrengine\texturemanager.cpp

  00000			 AREA	 |.text|, CODE, ARM

  00000		 |??1TextureManager@pvrengine@@UAA@XZ| PROC ; pvrengine::TextureManager::~TextureManager

; 24   : 	{

  00000		 |$LN53@TextureMan@2|
  00000	e92d41f0	 stmdb       sp!, {r4 - r8, lr}
  00004		 |$M36756|
  00004	e1a04000	 mov         r4, r0

; 25   : 		for(unsigned int i=0;i<m_daTextures.getSize();++i)

  00008	e5943004	 ldr         r3, [r4, #4]
  0000c	e59f20ec	 ldr         r2, [pc, #0xEC]
  00010	e3a01000	 mov         r1, #0
  00014	e3530000	 cmp         r3, #0
  00018	e5842000	 str         r2, [r4]
  0001c	e3a08000	 mov         r8, #0
  00020	0a000016	 beq         |$LN9@TextureMan@2|
  00024		 |$LL11@TextureMan@2|

; 26   : 		{	// check if Texture is already in manager
; 27   : 			for(unsigned int j=i+1;j<m_daTextures.getSize();++j)

  00024	e5943004	 ldr         r3, [r4, #4]
  00028	e2812001	 add         r2, r1, #1
  0002c	e1a0e002	 mov         lr, r2
  00030	e1520003	 cmp         r2, r3
  00034	2a00000d	 bcs         |$LN10@TextureMan@2|
  00038	e594000c	 ldr         r0, [r4, #0xC]
  0003c	e0803101	 add         r3, r0, r1, lsl #2
  00040	e7b05101	 ldr         r5, [r0, +r1, lsl #2]!
  00044	e2831004	 add         r1, r3, #4
  00048		 |$LL8@TextureMan@2|

; 28   : 			{
; 29   : 				if(m_daTextures[i]==m_daTextures[j])

  00048	e5913000	 ldr         r3, [r1]
  0004c	e1550003	 cmp         r5, r3
  00050	0a000005	 beq         |$LN47@TextureMan@2|
  00054	e5943004	 ldr         r3, [r4, #4]
  00058	e28ee001	 add         lr, lr, #1
  0005c	e2811004	 add         r1, r1, #4
  00060	e15e0003	 cmp         lr, r3
  00064	3afffff7	 bcc         |$LL8@TextureMan@2|
  00068	ea000000	 b           |$LN10@TextureMan@2|
  0006c		 |$LN47@TextureMan@2|

; 30   : 				{
; 31   : 					m_daTextures[i]=NULL;

  0006c	e5808000	 str         r8, [r0]
  00070		 |$LN10@TextureMan@2|

; 25   : 		for(unsigned int i=0;i<m_daTextures.getSize();++i)

  00070	e5943004	 ldr         r3, [r4, #4]
  00074	e1a01002	 mov         r1, r2
  00078	e1520003	 cmp         r2, r3
  0007c	3affffe8	 bcc         |$LL11@TextureMan@2|
  00080		 |$LN9@TextureMan@2|

; 32   : 					break;
; 33   : 				}
; 34   : 			}
; 35   : 		}
; 36   : 
; 37   : 		for(unsigned int i=0;i<m_daTextures.getSize();++i)

  00080	e5943004	 ldr         r3, [r4, #4]
  00084	e3a05000	 mov         r5, #0
  00088	e3530000	 cmp         r3, #0
  0008c	0a000012	 beq         |$LN2@TextureMan@2|
  00090		 |$LL4@TextureMan@2|
  00090	e594300c	 ldr         r3, [r4, #0xC]
  00094	e1a07105	 mov         r7, r5, lsl #2
  00098	e1a02007	 mov         r2, r7

; 38   : 		{
; 39   : 			PVRDELETE(m_daTextures[i]);

  0009c	e7b23003	 ldr         r3, [r2, +r3]!
  000a0	e3530000	 cmp         r3, #0
  000a4	0a000006	 beq         |$LN14@TextureMan@2|
  000a8	e5923000	 ldr         r3, [r2]
  000ac	e1b06003	 movs        r6, r3
  000b0	0a000003	 beq         |$LN14@TextureMan@2|
  000b4	e2860004	 add         r0, r6, #4
  000b8	eb000000	 bl          |??1CPVRTString@@UAA@XZ|
  000bc	e1a00006	 mov         r0, r6
  000c0	eb000000	 bl          |??3@YAXPAX@Z|
  000c4		 |$LN14@TextureMan@2|
  000c4	e594300c	 ldr         r3, [r4, #0xC]
  000c8	e2855001	 add         r5, r5, #1
  000cc	e7878003	 str         r8, [r7, +r3]
  000d0	e5943004	 ldr         r3, [r4, #4]
  000d4	e1550003	 cmp         r5, r3
  000d8	3affffec	 bcc         |$LL4@TextureMan@2|
  000dc		 |$LN2@TextureMan@2|

; 40   : 		}
; 41   : 	}

  000dc	e594300c	 ldr         r3, [r4, #0xC]
  000e0	e3530000	 cmp         r3, #0
  000e4	11a00003	 movne       r0, r3
  000e8	1b000000	 blne        |??3@YAXPAX@Z|
  000ec	e59f3008	 ldr         r3, [pc, #8]
  000f0	e5843000	 str         r3, [r4]
  000f4	e8bd41f0	 ldmia       sp!, {r4 - r8, lr}
  000f8	e12fff1e	 bx          lr
  000fc		 |$LN54@TextureMan@2|
  000fc		 |$LN55@TextureMan@2|
  000fc	00000000	 DCD         |??_7?$CPVRTSingleton@VTextureManager@pvrengine@@@@6B@|
  00100		 |$LN56@TextureMan@2|
  00100	00000000	 DCD         |??_7TextureManager@pvrengine@@6B@|
  00104		 |$M36757|

			 ENDP  ; |??1TextureManager@pvrengine@@UAA@XZ|, pvrengine::TextureManager::~TextureManager

	EXPORT	|?LoadTexture@TextureManager@pvrengine@@QAAPAVTexture@2@ABVCPVRTString@@@Z| ; pvrengine::TextureManager::LoadTexture
	EXPORT	|??_C@_0BI@OCLANDPE@Loading?5texture?5failed?4?$AA@| [ DATA ] ; `string'
	EXPORT	|??_C@_0CA@KPJIEAGM@Texture?5?$CFs?5already?5in?5manager?4?6?$AA@| [ DATA ] ; `string'
	IMPORT	|?log@ConsoleLog@pvrengine@@QAAXPBDZZ|	; pvrengine::ConsoleLog::log
	IMPORT	|?c_str@CPVRTString@@QBAPBDXZ|		; CPVRTString::c_str
	IMPORT	|??0Texture@pvrengine@@QAA@ABVCPVRTString@@@Z| ; pvrengine::Texture::Texture
	IMPORT	|?compare@CPVRTString@@QBAHABV1@@Z|	; CPVRTString::compare
; File c:\wince600\public\powervr-sdk\ogles2\extras\pvrengine\include\dynamicarray.h

  00000			 AREA	 |.pdata|, PDATA
|$T36815| DCD	|$LN35@LoadTextur|
	DCD	0x40004e02

  00000			 AREA	 |.rdata|, DATA, READONLY
|??_C@_0BI@OCLANDPE@Loading?5texture?5failed?4?$AA@| DCB "Loading texture"
	DCB	" failed.", 0x0				; `string'

  00000			 AREA	 |.rdata|, DATA, READONLY
|??_C@_0CA@KPJIEAGM@Texture?5?$CFs?5already?5in?5manager?4?6?$AA@| DCB "T"
	DCB	"exture %s already in manager.", 0xa, 0x0 ; `string'
; Function compile flags: /Ogspy
; File c:\wince600\public\powervr-sdk\ogles2\extras\pvrengine\texturemanager.cpp

  00000			 AREA	 |.text|, CODE, ARM

  00000		 |?LoadTexture@TextureManager@pvrengine@@QAAPAVTexture@2@ABVCPVRTString@@@Z| PROC ; pvrengine::TextureManager::LoadTexture

; 53   : 	{

  00000		 |$LN35@LoadTextur|
  00000	e92d43f0	 stmdb       sp!, {r4 - r9, lr}
  00004	e24dd020	 sub         sp, sp, #0x20
  00008		 |$M36812|
  00008	e1a08001	 mov         r8, r1
  0000c	e1a05000	 mov         r5, r0

; 54   : 		unsigned int u32NumTextures = m_daTextures.getSize();

  00010	e5953004	 ldr         r3, [r5, #4]

; 55   : 		// check if this texture has already been loaded
; 56   : 		for(unsigned int i=0;i<u32NumTextures;i++)

  00014	e3a06000	 mov         r6, #0
  00018	e1b04003	 movs        r4, r3
  0001c	0a000014	 beq         |$LN3@LoadTextur|
  00020	e59f910c	 ldr         r9, [pc, #0x10C]
  00024		 |$LL5@LoadTextur|
  00024	e595e00c	 ldr         lr, [r5, #0xC]

; 57   : 		{
; 58   : 			if(m_daTextures[i]->getFilename().compare(strTextureFile)==0)

  00028	e5993000	 ldr         r3, [r9]
  0002c	e3a02000	 mov         r2, #0
  00030	e79ee106	 ldr         lr, [lr, +r6, lsl #2]
  00034	e28d0000	 add         r0, sp, #0
  00038	e28e1004	 add         r1, lr, #4
  0003c	eb000000	 bl          |??0CPVRTString@@QAA@ABV0@II@Z|
  00040	e1a01008	 mov         r1, r8
  00044	e28d0000	 add         r0, sp, #0
  00048	eb000000	 bl          |?compare@CPVRTString@@QBAHABV1@@Z|
  0004c	e3500000	 cmp         r0, #0
  00050	03a07001	 moveq       r7, #1
  00054	e28d0000	 add         r0, sp, #0
  00058	13a07000	 movne       r7, #0
  0005c	eb000000	 bl          |??1CPVRTString@@UAA@XZ|
  00060	e21730ff	 ands        r3, r7, #0xFF

; 74   : 	}

  00064	1a000009	 bne         |$LN31@LoadTextur|
  00068	e2866001	 add         r6, r6, #1
  0006c	e1560004	 cmp         r6, r4
  00070	3affffeb	 bcc         |$LL5@LoadTextur|
  00074		 |$LN3@LoadTextur|

; 63   : 			}
; 64   : 		}
; 65   : 
; 66   : 		// store filename, handle and header
; 67   : 		m_daTextures.append(new Texture(strTextureFile));

  00074	e3a00018	 mov         r0, #0x18
  00078	eb000000	 bl          |??2@YAPAXI@Z|
  0007c	e3500000	 cmp         r0, #0
  00080	0a000019	 beq         |$LN10@LoadTextur|
  00084	e1a01008	 mov         r1, r8
  00088	eb000000	 bl          |??0Texture@pvrengine@@QAA@ABVCPVRTString@@@Z|
  0008c	ea000017	 b           |$LN11@LoadTextur|
  00090		 |$LN31@LoadTextur|

; 59   : 			{	// file already present so retrieve the texture info and return
; 60   : 				ConsoleLog::inst().log("Texture %s already in manager.\n", m_daTextures[i]->getFilename().c_str());

  00090	e595100c	 ldr         r1, [r5, #0xC]
  00094	e5993000	 ldr         r3, [r9]
  00098	e3a02000	 mov         r2, #0
  0009c	e7911106	 ldr         r1, [r1, +r6, lsl #2]
  000a0	e28d0010	 add         r0, sp, #0x10
  000a4	e2811004	 add         r1, r1, #4
  000a8	eb000000	 bl          |??0CPVRTString@@QAA@ABV0@II@Z|
  000ac	e28d0010	 add         r0, sp, #0x10
  000b0	eb000000	 bl          |?c_str@CPVRTString@@QBAPBDXZ|
  000b4	e1a04000	 mov         r4, r0
  000b8	eb000000	 bl          |?inst@?$CPVRTSingleton@VConsoleLog@pvrengine@@@@SAAAVConsoleLog@pvrengine@@XZ|
  000bc	e59f106c	 ldr         r1, [pc, #0x6C]
  000c0	e1a02004	 mov         r2, r4
  000c4	eb000000	 bl          |?log@ConsoleLog@pvrengine@@QAAXPBDZZ|
  000c8	e28d0010	 add         r0, sp, #0x10
  000cc	eb000000	 bl          |??1CPVRTString@@UAA@XZ|

; 61   : 				m_daTextures.append(m_daTextures[i]);

  000d0	e595300c	 ldr         r3, [r5, #0xC]
  000d4	e2850004	 add         r0, r5, #4
  000d8	e7931106	 ldr         r1, [r3, +r6, lsl #2]
  000dc	eb000000	 bl          |?append@?$dynamicArray@PAVTexture@pvrengine@@@@QAAXPAVTexture@pvrengine@@@Z|

; 62   : 				return m_daTextures[i];

  000e0	e595300c	 ldr         r3, [r5, #0xC]
  000e4	e7930106	 ldr         r0, [r3, +r6, lsl #2]
  000e8	ea00000c	 b           |$LN6@LoadTextur|
  000ec		 |$LN10@LoadTextur|

; 63   : 			}
; 64   : 		}
; 65   : 
; 66   : 		// store filename, handle and header
; 67   : 		m_daTextures.append(new Texture(strTextureFile));

  000ec	e3a00000	 mov         r0, #0
  000f0		 |$LN11@LoadTextur|
  000f0	e1a01000	 mov         r1, r0
  000f4	e2850004	 add         r0, r5, #4
  000f8	eb000000	 bl          |?append@?$dynamicArray@PAVTexture@pvrengine@@@@QAAXPAVTexture@pvrengine@@@Z|

; 68   : 		if(!m_daTextures[u32NumTextures])

  000fc	e595300c	 ldr         r3, [r5, #0xC]
  00100	e7933104	 ldr         r3, [r3, +r4, lsl #2]
  00104	e3530000	 cmp         r3, #0
  00108	1a000002	 bne         |$LN1@LoadTextur|

; 69   : 		{
; 70   : 			ConsoleLog::inst().log("Loading texture failed.");

  0010c	eb000000	 bl          |?inst@?$CPVRTSingleton@VConsoleLog@pvrengine@@@@SAAAVConsoleLog@pvrengine@@XZ|
  00110	e59f1014	 ldr         r1, [pc, #0x14]
  00114	eb000000	 bl          |?log@ConsoleLog@pvrengine@@QAAXPBDZZ|
  00118		 |$LN1@LoadTextur|

; 71   : 		}
; 72   : 
; 73   : 		return m_daTextures[u32NumTextures];

  00118	e595300c	 ldr         r3, [r5, #0xC]
  0011c	e7930104	 ldr         r0, [r3, +r4, lsl #2]
  00120		 |$LN6@LoadTextur|

; 74   : 	}

  00120	e28dd020	 add         sp, sp, #0x20
  00124	e8bd43f0	 ldmia       sp!, {r4 - r9, lr}
  00128	e12fff1e	 bx          lr
  0012c		 |$LN36@LoadTextur|
  0012c		 |$LN37@LoadTextur|
  0012c	00000000	 DCD         |??_C@_0BI@OCLANDPE@Loading?5texture?5failed?4?$AA@|
  00130		 |$LN38@LoadTextur|
  00130	00000000	 DCD         |??_C@_0CA@KPJIEAGM@Texture?5?$CFs?5already?5in?5manager?4?6?$AA@|
  00134		 |$LN39@LoadTextur|
  00134	00000000	 DCD         |?npos@CPVRTString@@2IB|
  00138		 |$M36813|

			 ENDP  ; |?LoadTexture@TextureManager@pvrengine@@QAAPAVTexture@2@ABVCPVRTString@@@Z|, pvrengine::TextureManager::LoadTexture


  00000			 AREA	 |.pdata|, PDATA
|$T36830| DCD	|$LN6@scalar@3|
	DCD	0x40000a01
; Function compile flags: /Ogspy

  00000			 AREA	 |.text|, CODE, ARM

  00000		 |??_GTextureManager@pvrengine@@UAAPAXI@Z| PROC ; pvrengine::TextureManager::`scalar deleting destructor'
  00000		 |$LN6@scalar@3|
  00000	e92d4030	 stmdb       sp!, {r4, r5, lr}
  00004		 |$M36827|
  00004	e1a04001	 mov         r4, r1
  00008	e1a05000	 mov         r5, r0
  0000c	eb000000	 bl          |??1TextureManager@pvrengine@@UAA@XZ|
  00010	e3140001	 tst         r4, #1
  00014	11a00005	 movne       r0, r5
  00018	1b000000	 blne        |??3@YAXPAX@Z|
  0001c	e1a00005	 mov         r0, r5
  00020	e8bd4030	 ldmia       sp!, {r4, r5, lr}
  00024	e12fff1e	 bx          lr
  00028		 |$M36828|

			 ENDP  ; |??_GTextureManager@pvrengine@@UAAPAXI@Z|, pvrengine::TextureManager::`scalar deleting destructor'

	IMPORT	|??1ConsoleLog@pvrengine@@UAA@XZ|	; pvrengine::ConsoleLog::~ConsoleLog

  00000			 AREA	 |.pdata|, PDATA
|$T36837| DCD	|$LN5@dynamic|
	DCD	0x40000601
; Function compile flags: /Ogspy

  00000			 AREA	 |.text$yd|, CODE, ARM

  00000		 |??__Fobject@?1??inst@?$CPVRTSingleton@VConsoleLog@pvrengine@@@@SAAAVConsoleLog@pvrengine@@XZ@YAXXZ| PROC ; `CPVRTSingleton<pvrengine::ConsoleLog>::inst'::`2'::`dynamic atexit destructor for 'object''
  00000		 |$LN5@dynamic|
  00000	e52de004	 str         lr, [sp, #-4]!
  00004		 |$M36834|
  00004	e59f0008	 ldr         r0, [pc, #8]
  00008	eb000000	 bl          |??1ConsoleLog@pvrengine@@UAA@XZ|
  0000c	e49de004	 ldr         lr, [sp], #4
  00010	e12fff1e	 bx          lr
  00014		 |$LN6@dynamic|
  00014		 |$LN7@dynamic|
  00014	00000000	 DCD         |?object@?1??inst@?$CPVRTSingleton@VConsoleLog@pvrengine@@@@SAAAVConsoleLog@pvrengine@@XZ@4V34@A|
  00018		 |$M36835|

			 ENDP  ; |??__Fobject@?1??inst@?$CPVRTSingleton@VConsoleLog@pvrengine@@@@SAAAVConsoleLog@pvrengine@@XZ@YAXXZ|, `CPVRTSingleton<pvrengine::ConsoleLog>::inst'::`2'::`dynamic atexit destructor for 'object''

	END
