; Listing generated by Microsoft (R) Optimizing Compiler Version 14.01.60511.01 

	TTL	C:\WINCE600\PUBLIC\PowerVR-SDK\OGLES2\Extras\PVREngine\TimeController.cpp
	CODE32

  00000			 AREA	 |.drectve|, DRECTVE
	DCB	"-defaultlib:LIBCMT "
	DCB	"-defaultlib:OLDNAMES "

	EXPORT	|?getFrame@TimeController@pvrengine@@QAAMH@Z| ; pvrengine::TimeController::getFrame
	IMPORT	|__imp___divs|
	IMPORT	|__imp___stod|
	IMPORT	|__imp_pow|
	IMPORT	|__imp___dtos|
	IMPORT	|__imp___muls|
	IMPORT	|__imp___subs|
	IMPORT	|__imp___itos|
	IMPORT	|__imp___ges|
	IMPORT	|__imp___adds|
	IMPORT	|__imp___lts|
; File c:\wince600\public\powervr-sdk\ogles2\extras\pvrengine\timecontroller.cpp

  00000			 AREA	 |.pdata|, PDATA
|$T3862| DCD	|$LN18@getFrame|
	DCD	0x4000a001
; Function compile flags: /Ogspy

  00000			 AREA	 |.text|, CODE, ARM

  00000		 |?getFrame@TimeController@pvrengine@@QAAMH@Z| PROC ; pvrengine::TimeController::getFrame

; 33   : 	{

  00000		 |$LN18@getFrame|
  00000	e92d41f0	 stmdb       sp!, {r4 - r8, lr}
  00004		 |$M3859|
  00004	e1a06001	 mov         r6, r1
  00008	e1a05000	 mov         r5, r0

; 34   : 		int i32DeltaTime = iTime - m_iTimePrev;

  0000c	e5953004	 ldr         r3, [r5, #4]

; 35   : 		m_i32DeltaTimeTotal += i32DeltaTime;
; 36   : 		m_fDeltaTime = ((float)i32DeltaTime)/100.f;

  00010	e595e018	 ldr         lr, [r5, #0x18]
  00014	e59f2248	 ldr         r2, [pc, #0x248]
  00018	e0460003	 sub         r0, r6, r3
  0001c	e08e4000	 add         r4, lr, r0
  00020	e5923000	 ldr         r3, [r2]
  00024	e5854018	 str         r4, [r5, #0x18]
  00028	e1a0e00f	 mov         lr, pc
  0002c	e12fff13	 bx          r3
  00030	e59f3244	 ldr         r3, [pc, #0x244]
  00034	e3a02442	 mov         r2, #0x42, 8
  00038	e3821732	 orr         r1, r2, #0x32, 14
  0003c	e5933000	 ldr         r3, [r3]
  00040	e1a0e00f	 mov         lr, pc
  00044	e12fff13	 bx          r3

; 37   : 		m_i32FrameCount++;

  00048	e5953014	 ldr         r3, [r5, #0x14]

; 38   : 		if(m_i32DeltaTimeTotal>=1000)		// a second is 1000 milliseconds

  0004c	e3540ffa	 cmp         r4, #0xFA, 30

; 39   : 		{
; 40   : 			m_i32FPS = m_i32FrameCount;
; 41   : 			m_i32DeltaTimeTotal = 0;

  00050	a3a02000	 movge       r2, #0
  00054	e2833001	 add         r3, r3, #1
  00058	e5853014	 str         r3, [r5, #0x14]

; 42   : 			m_i32FrameCount = 0;

  0005c	a585301c	 strge       r3, [r5, #0x1C]

; 43   : 		}
; 44   : 		m_iTimePrev	= iTime;
; 45   : 		if(!(m_bFrozen))

  00060	e5d53024	 ldrb        r3, [r5, #0x24]
  00064	e1a07000	 mov         r7, r0
  00068	a5852018	 strge       r2, [r5, #0x18]
  0006c	a5852014	 strge       r2, [r5, #0x14]
  00070	e3530000	 cmp         r3, #0
  00074	e585700c	 str         r7, [r5, #0xC]
  00078	e5856004	 str         r6, [r5, #4]
  0007c	1a000038	 bne         |$LN11@getFrame|

; 46   : 		{
; 47   : 			if(m_bForwards)

  00080	e5d53025	 ldrb        r3, [r5, #0x25]

; 48   : 				m_fFrame += m_fDeltaTime*(float)pow(2.0f,m_fAnimationSpeed);

  00084	e5950010	 ldr         r0, [r5, #0x10]
  00088	e3530000	 cmp         r3, #0
  0008c	e59f31e4	 ldr         r3, [pc, #0x1E4]
  00090	e5933000	 ldr         r3, [r3]
  00094	0a000018	 beq         |$LN6@getFrame|
  00098	e1a0e00f	 mov         lr, pc
  0009c	e12fff13	 bx          r3
  000a0	e59fe1cc	 ldr         lr, [pc, #0x1CC]
  000a4	e1a02000	 mov         r2, r0
  000a8	e1a03001	 mov         r3, r1
  000ac	e59e4000	 ldr         r4, [lr]
  000b0	e3a00000	 mov         r0, #0
  000b4	e3a01101	 mov         r1, #1, 2
  000b8	e1a0e00f	 mov         lr, pc
  000bc	e12fff14	 bx          r4
  000c0	e59f31a8	 ldr         r3, [pc, #0x1A8]
  000c4	e5933000	 ldr         r3, [r3]
  000c8	e1a0e00f	 mov         lr, pc
  000cc	e12fff13	 bx          r3
  000d0	e59f3194	 ldr         r3, [pc, #0x194]
  000d4	e1a01007	 mov         r1, r7
  000d8	e5933000	 ldr         r3, [r3]
  000dc	e1a0e00f	 mov         lr, pc
  000e0	e12fff13	 bx          r3
  000e4	e59f3170	 ldr         r3, [pc, #0x170]
  000e8	e5951008	 ldr         r1, [r5, #8]
  000ec	e5933000	 ldr         r3, [r3]
  000f0	e1a0e00f	 mov         lr, pc
  000f4	e12fff13	 bx          r3

; 49   : 			else

  000f8	ea000018	 b           |$LN15@getFrame|
  000fc		 |$LN6@getFrame|

; 50   : 				m_fFrame -= m_fDeltaTime*(float)pow(2.0f,m_fAnimationSpeed);

  000fc	e1a0e00f	 mov         lr, pc
  00100	e12fff13	 bx          r3
  00104	e59fe168	 ldr         lr, [pc, #0x168]
  00108	e1a02000	 mov         r2, r0
  0010c	e1a03001	 mov         r3, r1
  00110	e59e4000	 ldr         r4, [lr]
  00114	e3a00000	 mov         r0, #0
  00118	e3a01101	 mov         r1, #1, 2
  0011c	e1a0e00f	 mov         lr, pc
  00120	e12fff14	 bx          r4
  00124	e59f3144	 ldr         r3, [pc, #0x144]
  00128	e5933000	 ldr         r3, [r3]
  0012c	e1a0e00f	 mov         lr, pc
  00130	e12fff13	 bx          r3
  00134	e59f3130	 ldr         r3, [pc, #0x130]
  00138	e1a01007	 mov         r1, r7
  0013c	e5933000	 ldr         r3, [r3]
  00140	e1a0e00f	 mov         lr, pc
  00144	e12fff13	 bx          r3
  00148	e59f3118	 ldr         r3, [pc, #0x118]
  0014c	e1a01000	 mov         r1, r0
  00150	e5950008	 ldr         r0, [r5, #8]
  00154	e5933000	 ldr         r3, [r3]
  00158	e1a0e00f	 mov         lr, pc
  0015c	e12fff13	 bx          r3
  00160		 |$LN15@getFrame|
  00160	e5850008	 str         r0, [r5, #8]
  00164		 |$LN11@getFrame|

; 51   : 		}
; 52   : 
; 53   : 		// ensure looping of animation is successful and smooth
; 54   : 		while (m_fFrame >= (float)(m_i32NumFrames-1))

  00164	e59f30f8	 ldr         r3, [pc, #0xF8]
  00168	e5952020	 ldr         r2, [r5, #0x20]
  0016c	e5933000	 ldr         r3, [r3]
  00170	e2420001	 sub         r0, r2, #1
  00174	e1a0e00f	 mov         lr, pc
  00178	e12fff13	 bx          r3
  0017c	e59f30dc	 ldr         r3, [pc, #0xDC]
  00180	e1a04000	 mov         r4, r0
  00184	e5950008	 ldr         r0, [r5, #8]
  00188	e5933000	 ldr         r3, [r3]
  0018c	e1a01004	 mov         r1, r4
  00190	e1a0e00f	 mov         lr, pc
  00194	e12fff13	 bx          r3
  00198	e3500000	 cmp         r0, #0
  0019c	0a000014	 beq         |$LN12@getFrame|
  001a0	e59f60c0	 ldr         r6, [pc, #0xC0]
  001a4	e59f70b8	 ldr         r7, [pc, #0xB8]
  001a8	e59f80b0	 ldr         r8, [pc, #0xB0]
  001ac		 |$LL4@getFrame|

; 55   : 		{
; 56   : 			m_fFrame -= (float)(m_i32NumFrames-1);

  001ac	e5950008	 ldr         r0, [r5, #8]
  001b0	e5963000	 ldr         r3, [r6]
  001b4	e1a01004	 mov         r1, r4
  001b8	e1a0e00f	 mov         lr, pc
  001bc	e12fff13	 bx          r3
  001c0	e5850008	 str         r0, [r5, #8]
  001c4	e5953020	 ldr         r3, [r5, #0x20]
  001c8	e5972000	 ldr         r2, [r7]
  001cc	e2430001	 sub         r0, r3, #1
  001d0	e1a0e00f	 mov         lr, pc
  001d4	e12fff12	 bx          r2
  001d8	e5983000	 ldr         r3, [r8]
  001dc	e1a01000	 mov         r1, r0
  001e0	e5950008	 ldr         r0, [r5, #8]
  001e4	e1a0e00f	 mov         lr, pc
  001e8	e12fff13	 bx          r3
  001ec	e3500000	 cmp         r0, #0
  001f0	1affffed	 bne         |$LL4@getFrame|
  001f4		 |$LN12@getFrame|

; 57   : 		}
; 58   : 		while(m_fFrame<0.0f)

  001f4	e59f305c	 ldr         r3, [pc, #0x5C]
  001f8	e5950008	 ldr         r0, [r5, #8]
  001fc	e3a01000	 mov         r1, #0
  00200	e5933000	 ldr         r3, [r3]
  00204	e1a0e00f	 mov         lr, pc
  00208	e12fff13	 bx          r3
  0020c	e3500000	 cmp         r0, #0
  00210	0a00000d	 beq         |$LN1@getFrame|
  00214	e59f6040	 ldr         r6, [pc, #0x40]
  00218	e59f7038	 ldr         r7, [pc, #0x38]
  0021c		 |$LL2@getFrame|

; 59   : 		{
; 60   : 			m_fFrame += (float)(m_i32NumFrames-1);

  0021c	e5951008	 ldr         r1, [r5, #8]
  00220	e5963000	 ldr         r3, [r6]
  00224	e1a00004	 mov         r0, r4
  00228	e1a0e00f	 mov         lr, pc
  0022c	e12fff13	 bx          r3
  00230	e5973000	 ldr         r3, [r7]
  00234	e5850008	 str         r0, [r5, #8]
  00238	e3a01000	 mov         r1, #0
  0023c	e1a0e00f	 mov         lr, pc
  00240	e12fff13	 bx          r3
  00244	e3500000	 cmp         r0, #0
  00248	1afffff3	 bne         |$LL2@getFrame|
  0024c		 |$LN1@getFrame|

; 61   : 		}
; 62   : 		return m_fFrame;

  0024c	e5950008	 ldr         r0, [r5, #8]

; 63   : 	}

  00250	e8bd41f0	 ldmia       sp!, {r4 - r8, lr}
  00254	e12fff1e	 bx          lr
  00258		 |$LN19@getFrame|
  00258		 |$LN20@getFrame|
  00258	00000000	 DCD         |__imp___lts|
  0025c		 |$LN21@getFrame|
  0025c	00000000	 DCD         |__imp___adds|
  00260		 |$LN22@getFrame|
  00260	00000000	 DCD         |__imp___ges|
  00264		 |$LN23@getFrame|
  00264	00000000	 DCD         |__imp___itos|
  00268		 |$LN24@getFrame|
  00268	00000000	 DCD         |__imp___subs|
  0026c		 |$LN25@getFrame|
  0026c	00000000	 DCD         |__imp___muls|
  00270		 |$LN26@getFrame|
  00270	00000000	 DCD         |__imp___dtos|
  00274		 |$LN27@getFrame|
  00274	00000000	 DCD         |__imp_pow|
  00278		 |$LN28@getFrame|
  00278	00000000	 DCD         |__imp___stod|
  0027c		 |$LN29@getFrame|
  0027c	00000000	 DCD         |__imp___divs|
  00280		 |$M3860|

			 ENDP  ; |?getFrame@TimeController@pvrengine@@QAAMH@Z|, pvrengine::TimeController::getFrame

	EXPORT	|?rewind@TimeController@pvrengine@@QAAXXZ| ; pvrengine::TimeController::rewind

  00000			 AREA	 |.pdata|, PDATA
|$T3886| DCD	|$LN5@rewind|
	DCD	0x40002601
; Function compile flags: /Ogspy

  00000			 AREA	 |.text|, CODE, ARM

  00000		 |?rewind@TimeController@pvrengine@@QAAXXZ| PROC ; pvrengine::TimeController::rewind

; 68   : 	{

  00000		 |$LN5@rewind|
  00000	e92d4030	 stmdb       sp!, {r4, r5, lr}
  00004		 |$M3883|
  00004	e1a05000	 mov         r5, r0

; 69   : 		m_fFrame-=8.0f*(float)pow(2.0f,m_fAnimationSpeed);

  00008	e59f3084	 ldr         r3, [pc, #0x84]
  0000c	e5950010	 ldr         r0, [r5, #0x10]
  00010	e5933000	 ldr         r3, [r3]
  00014	e1a0e00f	 mov         lr, pc
  00018	e12fff13	 bx          r3
  0001c	e59fe06c	 ldr         lr, [pc, #0x6C]
  00020	e1a02000	 mov         r2, r0
  00024	e1a03001	 mov         r3, r1
  00028	e59e4000	 ldr         r4, [lr]
  0002c	e3a00000	 mov         r0, #0
  00030	e3a01101	 mov         r1, #1, 2
  00034	e1a0e00f	 mov         lr, pc
  00038	e12fff14	 bx          r4
  0003c	e59f3048	 ldr         r3, [pc, #0x48]
  00040	e5933000	 ldr         r3, [r3]
  00044	e1a0e00f	 mov         lr, pc
  00048	e12fff13	 bx          r3
  0004c	e59f3034	 ldr         r3, [pc, #0x34]
  00050	e3a01441	 mov         r1, #0x41, 8
  00054	e5933000	 ldr         r3, [r3]
  00058	e1a0e00f	 mov         lr, pc
  0005c	e12fff13	 bx          r3
  00060	e59f301c	 ldr         r3, [pc, #0x1C]
  00064	e1a01000	 mov         r1, r0
  00068	e5950008	 ldr         r0, [r5, #8]
  0006c	e5933000	 ldr         r3, [r3]
  00070	e1a0e00f	 mov         lr, pc
  00074	e12fff13	 bx          r3
  00078	e5850008	 str         r0, [r5, #8]

; 70   : 	}

  0007c	e8bd4030	 ldmia       sp!, {r4, r5, lr}
  00080	e12fff1e	 bx          lr
  00084		 |$LN6@rewind|
  00084		 |$LN7@rewind|
  00084	00000000	 DCD         |__imp___subs|
  00088		 |$LN8@rewind|
  00088	00000000	 DCD         |__imp___muls|
  0008c		 |$LN9@rewind|
  0008c	00000000	 DCD         |__imp___dtos|
  00090		 |$LN10@rewind|
  00090	00000000	 DCD         |__imp_pow|
  00094		 |$LN11@rewind|
  00094	00000000	 DCD         |__imp___stod|
  00098		 |$M3884|

			 ENDP  ; |?rewind@TimeController@pvrengine@@QAAXXZ|, pvrengine::TimeController::rewind

	EXPORT	|?fastforward@TimeController@pvrengine@@QAAXXZ| ; pvrengine::TimeController::fastforward

  00000			 AREA	 |.pdata|, PDATA
|$T3905| DCD	|$LN5@fastforwar|
	DCD	0x40002501
; Function compile flags: /Ogspy

  00000			 AREA	 |.text|, CODE, ARM

  00000		 |?fastforward@TimeController@pvrengine@@QAAXXZ| PROC ; pvrengine::TimeController::fastforward

; 75   : 	{

  00000		 |$LN5@fastforwar|
  00000	e92d4030	 stmdb       sp!, {r4, r5, lr}
  00004		 |$M3902|
  00004	e1a05000	 mov         r5, r0

; 76   : 		m_fFrame+=8.0f*(float)pow(2.0f,m_fAnimationSpeed);

  00008	e59f3080	 ldr         r3, [pc, #0x80]
  0000c	e5950010	 ldr         r0, [r5, #0x10]
  00010	e5933000	 ldr         r3, [r3]
  00014	e1a0e00f	 mov         lr, pc
  00018	e12fff13	 bx          r3
  0001c	e59fe068	 ldr         lr, [pc, #0x68]
  00020	e1a02000	 mov         r2, r0
  00024	e1a03001	 mov         r3, r1
  00028	e59e4000	 ldr         r4, [lr]
  0002c	e3a00000	 mov         r0, #0
  00030	e3a01101	 mov         r1, #1, 2
  00034	e1a0e00f	 mov         lr, pc
  00038	e12fff14	 bx          r4
  0003c	e59f3044	 ldr         r3, [pc, #0x44]
  00040	e5933000	 ldr         r3, [r3]
  00044	e1a0e00f	 mov         lr, pc
  00048	e12fff13	 bx          r3
  0004c	e59f3030	 ldr         r3, [pc, #0x30]
  00050	e3a01441	 mov         r1, #0x41, 8
  00054	e5933000	 ldr         r3, [r3]
  00058	e1a0e00f	 mov         lr, pc
  0005c	e12fff13	 bx          r3
  00060	e59f3018	 ldr         r3, [pc, #0x18]
  00064	e5951008	 ldr         r1, [r5, #8]
  00068	e5933000	 ldr         r3, [r3]
  0006c	e1a0e00f	 mov         lr, pc
  00070	e12fff13	 bx          r3
  00074	e5850008	 str         r0, [r5, #8]

; 77   : 	}

  00078	e8bd4030	 ldmia       sp!, {r4, r5, lr}
  0007c	e12fff1e	 bx          lr
  00080		 |$LN6@fastforwar|
  00080		 |$LN7@fastforwar|
  00080	00000000	 DCD         |__imp___adds|
  00084		 |$LN8@fastforwar|
  00084	00000000	 DCD         |__imp___muls|
  00088		 |$LN9@fastforwar|
  00088	00000000	 DCD         |__imp___dtos|
  0008c		 |$LN10@fastforwar|
  0008c	00000000	 DCD         |__imp_pow|
  00090		 |$LN11@fastforwar|
  00090	00000000	 DCD         |__imp___stod|
  00094		 |$M3903|

			 ENDP  ; |?fastforward@TimeController@pvrengine@@QAAXXZ|, pvrengine::TimeController::fastforward

	EXPORT	|??0?$CPVRTSingleton@VTimeController@pvrengine@@@@IAA@XZ| ; CPVRTSingleton<pvrengine::TimeController>::CPVRTSingleton<pvrengine::TimeController>
	EXPORT	|??_7?$CPVRTSingleton@VTimeController@pvrengine@@@@6B@| [ DATA ] ; CPVRTSingleton<pvrengine::TimeController>::`vftable'
	IMPORT	|??_E?$CPVRTSingleton@VTimeController@pvrengine@@@@MAAPAXI@Z|, WEAK |??_G?$CPVRTSingleton@VTimeController@pvrengine@@@@MAAPAXI@Z| ; CPVRTSingleton<pvrengine::TimeController>::`vector deleting destructor', CPVRTSingleton<pvrengine::TimeController>::`scalar deleting destructor'
; File c:\wince600\public\powervr-sdk\ogles2\tools\pvrtsingleton.h

  00000			 AREA	 |.pdata|, PDATA
|$T3921| DCD	|$LN5@CPVRTSingl|
	DCD	0x40000500

  00000			 AREA	 |.rdata|, DATA, READONLY
|??_7?$CPVRTSingleton@VTimeController@pvrengine@@@@6B@| DCD |??_E?$CPVRTSingleton@VTimeController@pvrengine@@@@MAAPAXI@Z| ; CPVRTSingleton<pvrengine::TimeController>::`vftable'
; Function compile flags: /Ogspy

  00000			 AREA	 |.text|, CODE, ARM

  00000		 |??0?$CPVRTSingleton@VTimeController@pvrengine@@@@IAA@XZ| PROC ; CPVRTSingleton<pvrengine::TimeController>::CPVRTSingleton<pvrengine::TimeController>

; 37   : 	CPVRTSingleton() {};

  00000		 |$LN5@CPVRTSingl|
  00000		 |$M3918|
  00000	e1a02000	 mov         r2, r0
  00004	e59f3004	 ldr         r3, [pc, #4]
  00008	e5823000	 str         r3, [r2]
  0000c	e12fff1e	 bx          lr
  00010		 |$LN6@CPVRTSingl|
  00010		 |$LN7@CPVRTSingl|
  00010	00000000	 DCD         |??_7?$CPVRTSingleton@VTimeController@pvrengine@@@@6B@|
  00014		 |$M3919|

			 ENDP  ; |??0?$CPVRTSingleton@VTimeController@pvrengine@@@@IAA@XZ|, CPVRTSingleton<pvrengine::TimeController>::CPVRTSingleton<pvrengine::TimeController>

	EXPORT	|??1?$CPVRTSingleton@VTimeController@pvrengine@@@@MAA@XZ| ; CPVRTSingleton<pvrengine::TimeController>::~CPVRTSingleton<pvrengine::TimeController>

  00000			 AREA	 |.pdata|, PDATA
|$T3931| DCD	|$LN5@CPVRTSingl@2|
	DCD	0x40000400
; Function compile flags: /Ogspy

  00000			 AREA	 |.text|, CODE, ARM

  00000		 |??1?$CPVRTSingleton@VTimeController@pvrengine@@@@MAA@XZ| PROC ; CPVRTSingleton<pvrengine::TimeController>::~CPVRTSingleton<pvrengine::TimeController>

; 38   : 	virtual ~CPVRTSingleton() {};

  00000		 |$LN5@CPVRTSingl@2|
  00000		 |$M3928|
  00000	e59f3004	 ldr         r3, [pc, #4]
  00004	e5803000	 str         r3, [r0]
  00008	e12fff1e	 bx          lr
  0000c		 |$LN6@CPVRTSingl@2|
  0000c		 |$LN7@CPVRTSingl@2|
  0000c	00000000	 DCD         |??_7?$CPVRTSingleton@VTimeController@pvrengine@@@@6B@|
  00010		 |$M3929|

			 ENDP  ; |??1?$CPVRTSingleton@VTimeController@pvrengine@@@@MAA@XZ|, CPVRTSingleton<pvrengine::TimeController>::~CPVRTSingleton<pvrengine::TimeController>

	IMPORT	|??3@YAXPAX@Z|				; operator delete

  00000			 AREA	 |.pdata|, PDATA
|$T3947| DCD	|$LN8@scalar|
	DCD	0x40000a01
; Function compile flags: /Ogspy

  00000			 AREA	 |.text|, CODE, ARM

  00000		 |??_G?$CPVRTSingleton@VTimeController@pvrengine@@@@MAAPAXI@Z| PROC ; CPVRTSingleton<pvrengine::TimeController>::`scalar deleting destructor'
  00000		 |$LN8@scalar|
  00000	e92d4010	 stmdb       sp!, {r4, lr}
  00004		 |$M3944|
  00004	e1a04000	 mov         r4, r0
  00008	e59f3014	 ldr         r3, [pc, #0x14]
  0000c	e3110001	 tst         r1, #1
  00010	e5843000	 str         r3, [r4]
  00014	1b000000	 blne        |??3@YAXPAX@Z|
  00018	e1a00004	 mov         r0, r4
  0001c	e8bd4010	 ldmia       sp!, {r4, lr}
  00020	e12fff1e	 bx          lr
  00024		 |$LN9@scalar|
  00024		 |$LN10@scalar|
  00024	00000000	 DCD         |??_7?$CPVRTSingleton@VTimeController@pvrengine@@@@6B@|
  00028		 |$M3945|

			 ENDP  ; |??_G?$CPVRTSingleton@VTimeController@pvrengine@@@@MAAPAXI@Z|, CPVRTSingleton<pvrengine::TimeController>::`scalar deleting destructor'

	EXPORT	|??0TimeController@pvrengine@@QAA@XZ|	; pvrengine::TimeController::TimeController
	EXPORT	|??_7TimeController@pvrengine@@6B@| [ DATA ] ; pvrengine::TimeController::`vftable'
	IMPORT	|??_ETimeController@pvrengine@@UAAPAXI@Z|, WEAK |??_GTimeController@pvrengine@@UAAPAXI@Z| ; pvrengine::TimeController::`vector deleting destructor', pvrengine::TimeController::`scalar deleting destructor'

  00000			 AREA	 |.pdata|, PDATA
|$T3962| DCD	|$LN7@TimeContro|
	DCD	0x40000c00

  00000			 AREA	 |.rdata|, DATA, READONLY
|??_7TimeController@pvrengine@@6B@| DCD |??_ETimeController@pvrengine@@UAAPAXI@Z| ; pvrengine::TimeController::`vftable'
; Function compile flags: /Ogspy
; File c:\wince600\public\powervr-sdk\ogles2\extras\pvrengine\timecontroller.cpp

  00000			 AREA	 |.text|, CODE, ARM

  00000		 |??0TimeController@pvrengine@@QAA@XZ| PROC ; pvrengine::TimeController::TimeController

; 21   : 	{

  00000		 |$LN7@TimeContro|
  00000		 |$M3959|
  00000	e59f3024	 ldr         r3, [pc, #0x24]

; 22   : 		m_bFrozen= false;
; 23   : 		m_bForwards = true;

  00004	e3a02001	 mov         r2, #1
  00008	e3a01000	 mov         r1, #0
  0000c	e5803000	 str         r3, [r0]
  00010	e5c01024	 strb        r1, [r0, #0x24]
  00014	e5c02025	 strb        r2, [r0, #0x25]

; 24   : 		m_i32DeltaTimeTotal =0;

  00018	e5801018	 str         r1, [r0, #0x18]

; 25   : 		m_i32FrameCount = 0;

  0001c	e5801014	 str         r1, [r0, #0x14]

; 26   : 		m_i32FPS = 0;

  00020	e580101c	 str         r1, [r0, #0x1C]

; 27   : 		m_fAnimationSpeed = 0.f;

  00024	e5801010	 str         r1, [r0, #0x10]

; 28   : 	}

  00028	e12fff1e	 bx          lr
  0002c		 |$LN8@TimeContro|
  0002c		 |$LN9@TimeContro|
  0002c	00000000	 DCD         |??_7TimeController@pvrengine@@6B@|
  00030		 |$M3960|

			 ENDP  ; |??0TimeController@pvrengine@@QAA@XZ|, pvrengine::TimeController::TimeController

	EXPORT	|??1TimeController@pvrengine@@UAA@XZ|	; pvrengine::TimeController::~TimeController

  00000			 AREA	 |.pdata|, PDATA
|$T3975| DCD	|$LN7@TimeContro@2|
	DCD	0x40000400
; Function compile flags: /Ogspy

  00000			 AREA	 |.text|, CODE, ARM

  00000		 |??1TimeController@pvrengine@@UAA@XZ| PROC ; pvrengine::TimeController::~TimeController
  00000		 |$LN7@TimeContro@2|
  00000		 |$M3972|
  00000	e59f3004	 ldr         r3, [pc, #4]
  00004	e5803000	 str         r3, [r0]
  00008	e12fff1e	 bx          lr
  0000c		 |$LN8@TimeContro@2|
  0000c		 |$LN9@TimeContro@2|
  0000c	00000000	 DCD         |??_7?$CPVRTSingleton@VTimeController@pvrengine@@@@6B@|
  00010		 |$M3973|

			 ENDP  ; |??1TimeController@pvrengine@@UAA@XZ|, pvrengine::TimeController::~TimeController


  00000			 AREA	 |.pdata|, PDATA
|$T3996| DCD	|$LN10@scalar@2|
	DCD	0x40000a01
; Function compile flags: /Ogspy

  00000			 AREA	 |.text|, CODE, ARM

  00000		 |??_GTimeController@pvrengine@@UAAPAXI@Z| PROC ; pvrengine::TimeController::`scalar deleting destructor'
  00000		 |$LN10@scalar@2|
  00000	e92d4010	 stmdb       sp!, {r4, lr}
  00004		 |$M3993|
  00004	e1a04000	 mov         r4, r0
  00008	e59f3014	 ldr         r3, [pc, #0x14]
  0000c	e3110001	 tst         r1, #1
  00010	e5843000	 str         r3, [r4]
  00014	1b000000	 blne        |??3@YAXPAX@Z|
  00018	e1a00004	 mov         r0, r4
  0001c	e8bd4010	 ldmia       sp!, {r4, lr}
  00020	e12fff1e	 bx          lr
  00024		 |$LN11@scalar@2|
  00024		 |$LN12@scalar@2|
  00024	00000000	 DCD         |??_7?$CPVRTSingleton@VTimeController@pvrengine@@@@6B@|
  00028		 |$M3994|

			 ENDP  ; |??_GTimeController@pvrengine@@UAAPAXI@Z|, pvrengine::TimeController::`scalar deleting destructor'

	END
