; Listing generated by Microsoft (R) Optimizing Compiler Version 14.01.60511.01 

	TTL	C:\WINCE600\PUBLIC\PowerVR-SDK\OGLES2\Extras\PVREngine\OGLES2\UniformHandler.cpp
	CODE32

  00000			 AREA	 |.drectve|, DRECTVE
	DCB	"-defaultlib:LIBCMT "
	DCB	"-defaultlib:OLDNAMES "

	EXPORT	|?c_i32DefaultSize@?$dynamicArray@PAVLight@pvrengine@@@@2HB| [ DATA ] ; dynamicArray<pvrengine::Light *>::c_i32DefaultSize
	EXPORT	|?c_i32DefaultSize@?$dynamicArray@VUniform@pvrengine@@@@2HB| [ DATA ] ; dynamicArray<pvrengine::Uniform>::c_i32DefaultSize
	EXPORT	|?c_i32DefaultSize@?$dynamicArray@USPVRTContext@@@@2HB| [ DATA ] ; dynamicArray<SPVRTContext>::c_i32DefaultSize
	EXPORT	|?c_i32DefaultSize@?$dynamicArray@VCPVRTString@@@@2HB| [ DATA ] ; dynamicArray<CPVRTString>::c_i32DefaultSize

  00000			 AREA	 |.rdata|, DATA, READONLY
|?c_i32DefaultSize@?$dynamicArray@VCPVRTString@@@@2HB| DCD 0x8 ; dynamicArray<CPVRTString>::c_i32DefaultSize

  00000			 AREA	 |.rdata|, DATA, READONLY
|?c_i32DefaultSize@?$dynamicArray@USPVRTContext@@@@2HB| DCD 0x8 ; dynamicArray<SPVRTContext>::c_i32DefaultSize

  00000			 AREA	 |.rdata|, DATA, READONLY
|?c_i32DefaultSize@?$dynamicArray@VUniform@pvrengine@@@@2HB| DCD 0x8 ; dynamicArray<pvrengine::Uniform>::c_i32DefaultSize

  00000			 AREA	 |.rdata|, DATA, READONLY
|?c_i32DefaultSize@?$dynamicArray@PAVLight@pvrengine@@@@2HB| DCD 0x8 ; dynamicArray<pvrengine::Light *>::c_i32DefaultSize
	EXPORT	|??0PVRTVec3@@QAA@XZ|			; PVRTVec3::PVRTVec3
; File c:\wince600\public\powervr-sdk\ogles2\tools\pvrtvector.h

  00000			 AREA	 |.pdata|, PDATA
|$T37452| DCD	|$LN5@PVRTVec3|
	DCD	0x40000100
; Function compile flags: /Ogspy

  00000			 AREA	 |.text|, CODE, ARM

  00000		 |??0PVRTVec3@@QAA@XZ| PROC		; PVRTVec3::PVRTVec3

; 330  : 	PVRTVec3(){}

  00000		 |$LN5@PVRTVec3|
  00000		 |$M37449|
  00000	e12fff1e	 bx          lr
  00004		 |$M37450|

			 ENDP  ; |??0PVRTVec3@@QAA@XZ|, PVRTVec3::PVRTVec3

	EXPORT	|??GPVRTVec3@@QBA?AU0@ABU0@@Z|		; PVRTVec3::operator-
	IMPORT	|__imp___subs|

  00000			 AREA	 |.pdata|, PDATA
|$T37471| DCD	|$LN7@operator|
	DCD	0x40001f01
; Function compile flags: /Ogspy

  00000			 AREA	 |.text|, CODE, ARM

  00000		 |??GPVRTVec3@@QBA?AU0@ABU0@@Z| PROC	; PVRTVec3::operator-

; 390  : 	{

  00000		 |$LN7@operator|
  00000	e92d40f0	 stmdb       sp!, {r4 - r7, lr}
  00004		 |$M37468|
  00004	e1a06002	 mov         r6, r2
  00008	e1a07001	 mov         r7, r1
  0000c	e1a05000	 mov         r5, r0

; 391  : 		PVRTVec3 out;
; 392  : 		out.x = x-rhs.x;

  00010	e59f3060	 ldr         r3, [pc, #0x60]
  00014	e5950000	 ldr         r0, [r5]
  00018	e5961000	 ldr         r1, [r6]
  0001c	e5933000	 ldr         r3, [r3]
  00020	e1a0e00f	 mov         lr, pc
  00024	e12fff13	 bx          r3

; 393  : 		out.y = y-rhs.y;

  00028	e59f3048	 ldr         r3, [pc, #0x48]
  0002c	e1a04000	 mov         r4, r0
  00030	e5950004	 ldr         r0, [r5, #4]
  00034	e5933000	 ldr         r3, [r3]
  00038	e5961004	 ldr         r1, [r6, #4]
  0003c	e5874000	 str         r4, [r7]
  00040	e1a0e00f	 mov         lr, pc
  00044	e12fff13	 bx          r3

; 394  : 		out.z = z-rhs.z;

  00048	e59f3028	 ldr         r3, [pc, #0x28]
  0004c	e1a04000	 mov         r4, r0
  00050	e5950008	 ldr         r0, [r5, #8]
  00054	e5933000	 ldr         r3, [r3]
  00058	e5961008	 ldr         r1, [r6, #8]
  0005c	e5874004	 str         r4, [r7, #4]
  00060	e1a0e00f	 mov         lr, pc
  00064	e12fff13	 bx          r3
  00068	e5870008	 str         r0, [r7, #8]

; 395  : 		return out;
; 396  : 	}

  0006c	e1a00007	 mov         r0, r7
  00070	e8bd40f0	 ldmia       sp!, {r4 - r7, lr}
  00074	e12fff1e	 bx          lr
  00078		 |$LN8@operator|
  00078		 |$LN9@operator|
  00078	00000000	 DCD         |__imp___subs|
  0007c		 |$M37469|

			 ENDP  ; |??GPVRTVec3@@QBA?AU0@ABU0@@Z|, PVRTVec3::operator-

	EXPORT	|??XPVRTVec3@@QAAAAU0@ABM@Z|		; PVRTVec3::operator*=
	IMPORT	|__imp___muls|

  00000			 AREA	 |.pdata|, PDATA
|$T37488| DCD	|$LN5@operator@2|
	DCD	0x40001c01
; Function compile flags: /Ogspy

  00000			 AREA	 |.text|, CODE, ARM

  00000		 |??XPVRTVec3@@QAAAAU0@ABM@Z| PROC	; PVRTVec3::operator*=

; 505  : 	{

  00000		 |$LN5@operator@2|
  00000	e92d4030	 stmdb       sp!, {r4, r5, lr}
  00004		 |$M37485|
  00004	e1a04001	 mov         r4, r1
  00008	e1a05000	 mov         r5, r0

; 506  : 		x = VERTTYPEMUL(x,rhs);

  0000c	e59f3058	 ldr         r3, [pc, #0x58]
  00010	e5940000	 ldr         r0, [r4]
  00014	e5951000	 ldr         r1, [r5]
  00018	e5933000	 ldr         r3, [r3]
  0001c	e1a0e00f	 mov         lr, pc
  00020	e12fff13	 bx          r3

; 507  : 		y = VERTTYPEMUL(y,rhs);

  00024	e59f3040	 ldr         r3, [pc, #0x40]
  00028	e5951004	 ldr         r1, [r5, #4]
  0002c	e5850000	 str         r0, [r5]
  00030	e5933000	 ldr         r3, [r3]
  00034	e5940000	 ldr         r0, [r4]
  00038	e1a0e00f	 mov         lr, pc
  0003c	e12fff13	 bx          r3

; 508  : 		z = VERTTYPEMUL(z,rhs);

  00040	e59f3024	 ldr         r3, [pc, #0x24]
  00044	e5951008	 ldr         r1, [r5, #8]
  00048	e5850004	 str         r0, [r5, #4]
  0004c	e5933000	 ldr         r3, [r3]
  00050	e5940000	 ldr         r0, [r4]
  00054	e1a0e00f	 mov         lr, pc
  00058	e12fff13	 bx          r3
  0005c	e5850008	 str         r0, [r5, #8]

; 509  : 		return *this;
; 510  : 	}

  00060	e1a00005	 mov         r0, r5
  00064	e8bd4030	 ldmia       sp!, {r4, r5, lr}
  00068	e12fff1e	 bx          lr
  0006c		 |$LN6@operator@2|
  0006c		 |$LN7@operator@2|
  0006c	00000000	 DCD         |__imp___muls|
  00070		 |$M37486|

			 ENDP  ; |??XPVRTVec3@@QAAAAU0@ABM@Z|, PVRTVec3::operator*=

	EXPORT	|?length@PVRTVec3@@QBAMXZ|		; PVRTVec3::length
	IMPORT	|__imp___adds|
	IMPORT	|__imp___stod|
	IMPORT	|__imp_sqrt|
	IMPORT	|__imp___dtos|

  00000			 AREA	 |.pdata|, PDATA
|$T37512| DCD	|$LN5@length|
	DCD	0x40003501
; Function compile flags: /Ogspy

  00000			 AREA	 |.text|, CODE, ARM

  00000		 |?length@PVRTVec3@@QBAMXZ| PROC	; PVRTVec3::length

; 560  : 	{

  00000		 |$LN5@length|
  00000	e92d4030	 stmdb       sp!, {r4, r5, lr}
  00004		 |$M37509|
  00004	e1a05000	 mov         r5, r0

; 561  : 		return (VERTTYPE) f2vt(sqrt(vt2f(x)*vt2f(x) + vt2f(y)*vt2f(y) + vt2f(z)*vt2f(z)));

  00008	e59f30c0	 ldr         r3, [pc, #0xC0]
  0000c	e5951000	 ldr         r1, [r5]
  00010	e5933000	 ldr         r3, [r3]
  00014	e1a00001	 mov         r0, r1
  00018	e1a0e00f	 mov         lr, pc
  0001c	e12fff13	 bx          r3
  00020	e59f30a8	 ldr         r3, [pc, #0xA8]
  00024	e1a04000	 mov         r4, r0
  00028	e5950004	 ldr         r0, [r5, #4]
  0002c	e5933000	 ldr         r3, [r3]
  00030	e1a01000	 mov         r1, r0
  00034	e1a0e00f	 mov         lr, pc
  00038	e12fff13	 bx          r3
  0003c	e59f3088	 ldr         r3, [pc, #0x88]
  00040	e1a01000	 mov         r1, r0
  00044	e1a00004	 mov         r0, r4
  00048	e5933000	 ldr         r3, [r3]
  0004c	e1a0e00f	 mov         lr, pc
  00050	e12fff13	 bx          r3
  00054	e59f3074	 ldr         r3, [pc, #0x74]
  00058	e1a04000	 mov         r4, r0
  0005c	e5950008	 ldr         r0, [r5, #8]
  00060	e5933000	 ldr         r3, [r3]
  00064	e1a01000	 mov         r1, r0
  00068	e1a0e00f	 mov         lr, pc
  0006c	e12fff13	 bx          r3
  00070	e59f3054	 ldr         r3, [pc, #0x54]
  00074	e1a01000	 mov         r1, r0
  00078	e1a00004	 mov         r0, r4
  0007c	e5933000	 ldr         r3, [r3]
  00080	e1a0e00f	 mov         lr, pc
  00084	e12fff13	 bx          r3
  00088	e59f3038	 ldr         r3, [pc, #0x38]
  0008c	e5933000	 ldr         r3, [r3]
  00090	e1a0e00f	 mov         lr, pc
  00094	e12fff13	 bx          r3
  00098	e59f3024	 ldr         r3, [pc, #0x24]
  0009c	e5933000	 ldr         r3, [r3]
  000a0	e1a0e00f	 mov         lr, pc
  000a4	e12fff13	 bx          r3
  000a8	e59f3010	 ldr         r3, [pc, #0x10]
  000ac	e5933000	 ldr         r3, [r3]
  000b0	e1a0e00f	 mov         lr, pc
  000b4	e12fff13	 bx          r3

; 562  : 	}

  000b8	e8bd4030	 ldmia       sp!, {r4, r5, lr}
  000bc	e12fff1e	 bx          lr
  000c0		 |$LN6@length|
  000c0		 |$LN7@length|
  000c0	00000000	 DCD         |__imp___dtos|
  000c4		 |$LN8@length|
  000c4	00000000	 DCD         |__imp_sqrt|
  000c8		 |$LN9@length|
  000c8	00000000	 DCD         |__imp___stod|
  000cc		 |$LN10@length|
  000cc	00000000	 DCD         |__imp___adds|
  000d0		 |$LN11@length|
  000d0	00000000	 DCD         |__imp___muls|
  000d4		 |$M37510|

			 ENDP  ; |?length@PVRTVec3@@QBAMXZ|, PVRTVec3::length

	EXPORT	|?normalize@PVRTVec3@@QAA?AU1@XZ|	; PVRTVec3::normalize
	IMPORT	|__imp___divs|

  00000			 AREA	 |.pdata|, PDATA
|$T37534| DCD	|$LN5@normalize|
	DCD	0x40002601
; Function compile flags: /Ogspy

  00000			 AREA	 |.text|, CODE, ARM

  00000		 |?normalize@PVRTVec3@@QAA?AU1@XZ| PROC	; PVRTVec3::normalize

; 570  : 	{

  00000		 |$LN5@normalize|
  00000	e92d4070	 stmdb       sp!, {r4 - r6, lr}
  00004		 |$M37531|
  00004	e1a06001	 mov         r6, r1
  00008	e1a05000	 mov         r5, r0

; 571  : #if defined(PVRT_FIXED_POINT_ENABLE)
; 572  : 		// Scale vector by uniform value
; 573  : 		int n = PVRTABS(x) + PVRTABS(y) + PVRTABS(z);
; 574  : 		x = VERTTYPEDIV(x, n);
; 575  : 		y = VERTTYPEDIV(y, n);
; 576  : 		z = VERTTYPEDIV(z, n);
; 577  : 
; 578  : 		// Calculate x2+y2+z2/sqrt(x2+y2+z2)
; 579  : 		int f = dot(*this);
; 580  : 		f = VERTTYPEDIV(PVRTF2X(1.0f), PVRTF2X(sqrt(PVRTX2F(f))));
; 581  : 
; 582  : 		// Multiply vector components by f
; 583  : 		x = PVRTXMUL(x, f);
; 584  : 		y = PVRTXMUL(y, f);
; 585  : 		z = PVRTXMUL(z, f);
; 586  : #else
; 587  : 		VERTTYPE len = length();

  0000c	eb000000	 bl          |?length@PVRTVec3@@QBAMXZ|

; 588  : 		x =VERTTYPEDIV(x,len);

  00010	e59f307c	 ldr         r3, [pc, #0x7C]
  00014	e1a04000	 mov         r4, r0
  00018	e5950000	 ldr         r0, [r5]
  0001c	e5933000	 ldr         r3, [r3]
  00020	e1a01004	 mov         r1, r4
  00024	e1a0e00f	 mov         lr, pc
  00028	e12fff13	 bx          r3

; 589  : 		y =VERTTYPEDIV(y,len);

  0002c	e59f3060	 ldr         r3, [pc, #0x60]
  00030	e1a02000	 mov         r2, r0
  00034	e5950004	 ldr         r0, [r5, #4]
  00038	e5933000	 ldr         r3, [r3]
  0003c	e1a01004	 mov         r1, r4
  00040	e5852000	 str         r2, [r5]
  00044	e1a0e00f	 mov         lr, pc
  00048	e12fff13	 bx          r3

; 590  : 		z =VERTTYPEDIV(z,len);

  0004c	e59f3040	 ldr         r3, [pc, #0x40]
  00050	e1a02000	 mov         r2, r0
  00054	e5950008	 ldr         r0, [r5, #8]
  00058	e5933000	 ldr         r3, [r3]
  0005c	e1a01004	 mov         r1, r4
  00060	e5852004	 str         r2, [r5, #4]
  00064	e1a0e00f	 mov         lr, pc
  00068	e12fff13	 bx          r3

; 591  : #endif
; 592  : 		return *this;

  0006c	e5952000	 ldr         r2, [r5]
  00070	e5951004	 ldr         r1, [r5, #4]
  00074	e1a03000	 mov         r3, r0
  00078	e5850008	 str         r0, [r5, #8]
  0007c	e5862000	 str         r2, [r6]
  00080	e5861004	 str         r1, [r6, #4]
  00084	e5863008	 str         r3, [r6, #8]

; 593  : 	}

  00088	e1a00006	 mov         r0, r6
  0008c	e8bd4070	 ldmia       sp!, {r4 - r6, lr}
  00090	e12fff1e	 bx          lr
  00094		 |$LN6@normalize|
  00094		 |$LN7@normalize|
  00094	00000000	 DCD         |__imp___divs|
  00098		 |$M37532|

			 ENDP  ; |?normalize@PVRTVec3@@QAA?AU1@XZ|, PVRTVec3::normalize

	EXPORT	|?normalized@PVRTVec3@@QBA?AU1@XZ|	; PVRTVec3::normalized

  00000			 AREA	 |.pdata|, PDATA
|$T37554| DCD	|$LN7@normalized|
	DCD	0x40002001
; Function compile flags: /Ogspy

  00000			 AREA	 |.text|, CODE, ARM

  00000		 |?normalized@PVRTVec3@@QBA?AU1@XZ| PROC ; PVRTVec3::normalized

; 602  : 	{

  00000		 |$LN7@normalized|
  00000	e92d4070	 stmdb       sp!, {r4 - r6, lr}
  00004		 |$M37551|
  00004	e1a06001	 mov         r6, r1
  00008	e1a05000	 mov         r5, r0

; 603  : 		PVRTVec3 out;
; 604  : #if defined(PVRT_FIXED_POINT_ENABLE)
; 605  : 		// Scale vector by uniform value
; 606  : 		int n = PVRTABS(x) + PVRTABS(y) + PVRTABS(z);
; 607  : 		out.x = VERTTYPEDIV(x, n);
; 608  : 		out.y = VERTTYPEDIV(y, n);
; 609  : 		out.z = VERTTYPEDIV(z, n);
; 610  : 
; 611  : 		// Calculate x2+y2+z2/sqrt(x2+y2+z2)
; 612  : 		int f = out.dot(out);
; 613  : 		f = VERTTYPEDIV(PVRTF2X(1.0f), PVRTF2X(sqrt(PVRTX2F(f))));
; 614  : 
; 615  : 		// Multiply vector components by f
; 616  : 		out.x = PVRTXMUL(out.x, f);
; 617  : 		out.y = PVRTXMUL(out.y, f);
; 618  : 		out.z = PVRTXMUL(out.z, f);
; 619  : #else
; 620  : 		VERTTYPE len = length();

  0000c	eb000000	 bl          |?length@PVRTVec3@@QBAMXZ|

; 621  : 		out.x =VERTTYPEDIV(x,len);

  00010	e59f3064	 ldr         r3, [pc, #0x64]
  00014	e1a04000	 mov         r4, r0
  00018	e5950000	 ldr         r0, [r5]
  0001c	e5933000	 ldr         r3, [r3]
  00020	e1a01004	 mov         r1, r4
  00024	e1a0e00f	 mov         lr, pc
  00028	e12fff13	 bx          r3

; 622  : 		out.y =VERTTYPEDIV(y,len);

  0002c	e59f3048	 ldr         r3, [pc, #0x48]
  00030	e1a02000	 mov         r2, r0
  00034	e5950004	 ldr         r0, [r5, #4]
  00038	e5933000	 ldr         r3, [r3]
  0003c	e1a01004	 mov         r1, r4
  00040	e5862000	 str         r2, [r6]
  00044	e1a0e00f	 mov         lr, pc
  00048	e12fff13	 bx          r3

; 623  : 		out.z =VERTTYPEDIV(z,len);

  0004c	e59f3028	 ldr         r3, [pc, #0x28]
  00050	e1a02000	 mov         r2, r0
  00054	e5950008	 ldr         r0, [r5, #8]
  00058	e5933000	 ldr         r3, [r3]
  0005c	e1a01004	 mov         r1, r4
  00060	e5862004	 str         r2, [r6, #4]
  00064	e1a0e00f	 mov         lr, pc
  00068	e12fff13	 bx          r3
  0006c	e5860008	 str         r0, [r6, #8]

; 624  : #endif
; 625  : 		return out;
; 626  : 	}

  00070	e1a00006	 mov         r0, r6
  00074	e8bd4070	 ldmia       sp!, {r4 - r6, lr}
  00078	e12fff1e	 bx          lr
  0007c		 |$LN8@normalized|
  0007c		 |$LN9@normalized|
  0007c	00000000	 DCD         |__imp___divs|
  00080		 |$M37552|

			 ENDP  ; |?normalized@PVRTVec3@@QBA?AU1@XZ|, PVRTVec3::normalized

	EXPORT	|?cross@PVRTVec3@@QAA?AU1@ABU1@@Z|	; PVRTVec3::cross

  00000			 AREA	 |.pdata|, PDATA
|$T37580| DCD	|$LN7@cross|
	DCD	0x40004701
; Function compile flags: /Ogspy

  00000			 AREA	 |.text|, CODE, ARM

  00000		 |?cross@PVRTVec3@@QAA?AU1@ABU1@@Z| PROC ; PVRTVec3::cross

; 645  : 	{

  00000		 |$LN7@cross|
  00000	e92d40f0	 stmdb       sp!, {r4 - r7, lr}
  00004		 |$M37577|
  00004	e1a05002	 mov         r5, r2
  00008	e1a07001	 mov         r7, r1
  0000c	e1a06000	 mov         r6, r0

; 646  : 		PVRTVec3 out;
; 647  : 		out.x = VERTTYPEMUL(y,rhs.z)-VERTTYPEMUL(z,rhs.y);

  00010	e59f3100	 ldr         r3, [pc, #0x100]
  00014	e5951008	 ldr         r1, [r5, #8]
  00018	e5960004	 ldr         r0, [r6, #4]
  0001c	e5933000	 ldr         r3, [r3]
  00020	e1a0e00f	 mov         lr, pc
  00024	e12fff13	 bx          r3
  00028	e59f30e8	 ldr         r3, [pc, #0xE8]
  0002c	e5951004	 ldr         r1, [r5, #4]
  00030	e1a04000	 mov         r4, r0
  00034	e5933000	 ldr         r3, [r3]
  00038	e5960008	 ldr         r0, [r6, #8]
  0003c	e1a0e00f	 mov         lr, pc
  00040	e12fff13	 bx          r3
  00044	e59f30c8	 ldr         r3, [pc, #0xC8]
  00048	e1a01000	 mov         r1, r0
  0004c	e1a00004	 mov         r0, r4
  00050	e5933000	 ldr         r3, [r3]
  00054	e1a0e00f	 mov         lr, pc
  00058	e12fff13	 bx          r3

; 648  : 		out.y = VERTTYPEMUL(z,rhs.x)-VERTTYPEMUL(x,rhs.z);

  0005c	e59f30b4	 ldr         r3, [pc, #0xB4]
  00060	e1a02000	 mov         r2, r0
  00064	e5950000	 ldr         r0, [r5]
  00068	e5933000	 ldr         r3, [r3]
  0006c	e5961008	 ldr         r1, [r6, #8]
  00070	e5872000	 str         r2, [r7]
  00074	e1a0e00f	 mov         lr, pc
  00078	e12fff13	 bx          r3
  0007c	e59f3094	 ldr         r3, [pc, #0x94]
  00080	e5951008	 ldr         r1, [r5, #8]
  00084	e1a04000	 mov         r4, r0
  00088	e5933000	 ldr         r3, [r3]
  0008c	e5960000	 ldr         r0, [r6]
  00090	e1a0e00f	 mov         lr, pc
  00094	e12fff13	 bx          r3
  00098	e59f3074	 ldr         r3, [pc, #0x74]
  0009c	e1a01000	 mov         r1, r0
  000a0	e1a00004	 mov         r0, r4
  000a4	e5933000	 ldr         r3, [r3]
  000a8	e1a0e00f	 mov         lr, pc
  000ac	e12fff13	 bx          r3

; 649  : 		out.z = VERTTYPEMUL(x,rhs.y)-VERTTYPEMUL(y,rhs.x);

  000b0	e59f3060	 ldr         r3, [pc, #0x60]
  000b4	e1a02000	 mov         r2, r0
  000b8	e5960000	 ldr         r0, [r6]
  000bc	e5933000	 ldr         r3, [r3]
  000c0	e5951004	 ldr         r1, [r5, #4]
  000c4	e5872004	 str         r2, [r7, #4]
  000c8	e1a0e00f	 mov         lr, pc
  000cc	e12fff13	 bx          r3
  000d0	e59f3040	 ldr         r3, [pc, #0x40]
  000d4	e5961004	 ldr         r1, [r6, #4]
  000d8	e1a04000	 mov         r4, r0
  000dc	e5933000	 ldr         r3, [r3]
  000e0	e5950000	 ldr         r0, [r5]
  000e4	e1a0e00f	 mov         lr, pc
  000e8	e12fff13	 bx          r3
  000ec	e59f3020	 ldr         r3, [pc, #0x20]
  000f0	e1a01000	 mov         r1, r0
  000f4	e1a00004	 mov         r0, r4
  000f8	e5933000	 ldr         r3, [r3]
  000fc	e1a0e00f	 mov         lr, pc
  00100	e12fff13	 bx          r3
  00104	e5870008	 str         r0, [r7, #8]

; 650  : 		return out;
; 651  : 	}

  00108	e1a00007	 mov         r0, r7
  0010c	e8bd40f0	 ldmia       sp!, {r4 - r7, lr}
  00110	e12fff1e	 bx          lr
  00114		 |$LN8@cross|
  00114		 |$LN9@cross|
  00114	00000000	 DCD         |__imp___subs|
  00118		 |$LN10@cross|
  00118	00000000	 DCD         |__imp___muls|
  0011c		 |$M37578|

			 ENDP  ; |?cross@PVRTVec3@@QAA?AU1@ABU1@@Z|, PVRTVec3::cross

	EXPORT	|??0PVRTVec4@@QAA@XZ|			; PVRTVec4::PVRTVec4

  00000			 AREA	 |.pdata|, PDATA
|$T37593| DCD	|$LN5@PVRTVec4|
	DCD	0x40000100
; Function compile flags: /Ogspy

  00000			 AREA	 |.text|, CODE, ARM

  00000		 |??0PVRTVec4@@QAA@XZ| PROC		; PVRTVec4::PVRTVec4

; 674  : 	PVRTVec4(){}

  00000		 |$LN5@PVRTVec4|
  00000		 |$M37590|
  00000	e12fff1e	 bx          lr
  00004		 |$M37591|

			 ENDP  ; |??0PVRTVec4@@QAA@XZ|, PVRTVec4::PVRTVec4

	EXPORT	|??0PVRTMat3@@QAA@XZ|			; PVRTMat3::PVRTMat3

  00000			 AREA	 |.pdata|, PDATA
|$T37603| DCD	|$LN5@PVRTMat3|
	DCD	0x40000100
; Function compile flags: /Ogspy

  00000			 AREA	 |.text|, CODE, ARM

  00000		 |??0PVRTMat3@@QAA@XZ| PROC		; PVRTMat3::PVRTMat3

; 979  : 	PVRTMat3(){}

  00000		 |$LN5@PVRTMat3|
  00000		 |$M37600|
  00000	e12fff1e	 bx          lr
  00004		 |$M37601|

			 ENDP  ; |??0PVRTMat3@@QAA@XZ|, PVRTMat3::PVRTMat3

	EXPORT	|?transpose@PVRTMat3@@QBA?AU1@XZ|	; PVRTMat3::transpose

  00000			 AREA	 |.pdata|, PDATA
|$T37617| DCD	|$LN7@transpose|
	DCD	0x40001201
; Function compile flags: /Ogspy

  00000			 AREA	 |.text|, CODE, ARM

  00000		 |?transpose@PVRTMat3@@QBA?AU1@XZ| PROC	; PVRTMat3::transpose

; 1280 : 	{

  00000		 |$LN7@transpose|
  00000	e92d41f0	 stmdb       sp!, {r4 - r8, lr}
  00004		 |$M37614|

; 1281 : 		PVRTMat3 out;
; 1282 : 		out.f[0] = f[0];	out.f[3] = f[1];	out.f[6] = f[2];

  00004	e5903000	 ldr         r3, [r0]
  00008	e5902004	 ldr         r2, [r0, #4]
  0000c	e590e008	 ldr         lr, [r0, #8]

; 1283 : 		out.f[1] = f[3];	out.f[4] = f[4];	out.f[7] = f[5];

  00010	e590400c	 ldr         r4, [r0, #0xC]
  00014	e5905010	 ldr         r5, [r0, #0x10]
  00018	e5906014	 ldr         r6, [r0, #0x14]

; 1284 : 		out.f[2] = f[6];	out.f[5] = f[7];	out.f[8] = f[8];

  0001c	e5907018	 ldr         r7, [r0, #0x18]
  00020	e590801c	 ldr         r8, [r0, #0x1C]
  00024	e5900020	 ldr         r0, [r0, #0x20]
  00028	e8810098	 stmia       r1, {r3, r4, r7}
  0002c	e5810020	 str         r0, [r1, #0x20]
  00030	e281c00c	 add         r12, r1, #0xC
  00034	e88c4124	 stmia       r12, {r2, r5, r8, lr}

; 1285 : 		return out;
; 1286 : 	}

  00038	e1a00001	 mov         r0, r1
  0003c	e581601c	 str         r6, [r1, #0x1C]
  00040	e8bd41f0	 ldmia       sp!, {r4 - r8, lr}
  00044	e12fff1e	 bx          lr
  00048		 |$M37615|

			 ENDP  ; |?transpose@PVRTMat3@@QBA?AU1@XZ|, PVRTMat3::transpose

	EXPORT	|??0PVRTMat4@@QAA@XZ|			; PVRTMat4::PVRTMat4

  00000			 AREA	 |.pdata|, PDATA
|$T37627| DCD	|$LN5@PVRTMat4|
	DCD	0x40000100
; Function compile flags: /Ogspy

  00000			 AREA	 |.text|, CODE, ARM

  00000		 |??0PVRTMat4@@QAA@XZ| PROC		; PVRTMat4::PVRTMat4

; 1377 : 	PVRTMat4(){}

  00000		 |$LN5@PVRTMat4|
  00000		 |$M37624|
  00000	e12fff1e	 bx          lr
  00004		 |$M37625|

			 ENDP  ; |??0PVRTMat4@@QAA@XZ|, PVRTMat4::PVRTMat4

	EXPORT	|??4PVRTMat4@@QAAAAU0@ABU0@@Z|		; PVRTMat4::operator=

  00000			 AREA	 |.pdata|, PDATA
|$T37640| DCD	|$LN10@operator@3|
	DCD	0x40000a01
; Function compile flags: /Ogspy

  00000			 AREA	 |.text|, CODE, ARM

  00000		 |??4PVRTMat4@@QAAAAU0@ABU0@@Z| PROC	; PVRTMat4::operator=

; 1601 : 	{

  00000		 |$LN10@operator@3|
  00000	e52de004	 str         lr, [sp, #-4]!
  00004		 |$M37637|

; 1602 : 		for (int i=0; i<16; ++i)

  00004	e041e000	 sub         lr, r1, r0
  00008	e3a01010	 mov         r1, #0x10
  0000c	e1a02000	 mov         r2, r0
  00010		 |$LL3@operator@3|

; 1603 : 		{
; 1604 : 			f[i] =rhs.f[i];

  00010	e79e3002	 ldr         r3, [lr, +r2]
  00014	e2511001	 subs        r1, r1, #1
  00018	e4823004	 str         r3, [r2], #4
  0001c	1afffffb	 bne         |$LL3@operator@3|

; 1605 : 		}
; 1606 : 		return *this;
; 1607 : 	}

  00020	e49de004	 ldr         lr, [sp], #4
  00024	e12fff1e	 bx          lr
  00028		 |$M37638|

			 ENDP  ; |??4PVRTMat4@@QAAAAU0@ABU0@@Z|, PVRTMat4::operator=

	EXPORT	|??DPVRTMat4@@QBA?AUPVRTVec4@@ABU1@@Z|	; PVRTMat4::operator*

  00000			 AREA	 |.pdata|, PDATA
|$T37683| DCD	|$LN7@operator@4|
	DCD	0x4000c701
; Function compile flags: /Ogspy

  00000			 AREA	 |.text|, CODE, ARM

  00000		 |??DPVRTMat4@@QBA?AUPVRTVec4@@ABU1@@Z| PROC ; PVRTMat4::operator*

; 1615 : 	{

  00000		 |$LN7@operator@4|
  00000	e92d47f0	 stmdb       sp!, {r4 - r10, lr}
  00004		 |$M37680|
  00004	e1a0a001	 mov         r10, r1
  00008	e1a09000	 mov         r9, r0

; 1616 : 		PVRTVec4 out;
; 1617 : 		out.x = VERTTYPEMUL(rhs.x,f[0])+VERTTYPEMUL(rhs.y,f[4])+VERTTYPEMUL(rhs.z,f[8])+VERTTYPEMUL(rhs.w,f[12]);

  0000c	e59f3304	 ldr         r3, [pc, #0x304]
  00010	e5925000	 ldr         r5, [r2]
  00014	e5991000	 ldr         r1, [r9]
  00018	e5933000	 ldr         r3, [r3]
  0001c	e5926004	 ldr         r6, [r2, #4]
  00020	e5927008	 ldr         r7, [r2, #8]
  00024	e592800c	 ldr         r8, [r2, #0xC]
  00028	e1a00005	 mov         r0, r5
  0002c	e1a0e00f	 mov         lr, pc
  00030	e12fff13	 bx          r3
  00034	e59f32dc	 ldr         r3, [pc, #0x2DC]
  00038	e5991010	 ldr         r1, [r9, #0x10]
  0003c	e1a04000	 mov         r4, r0
  00040	e5933000	 ldr         r3, [r3]
  00044	e1a00006	 mov         r0, r6
  00048	e1a0e00f	 mov         lr, pc
  0004c	e12fff13	 bx          r3
  00050	e59f32bc	 ldr         r3, [pc, #0x2BC]
  00054	e1a01000	 mov         r1, r0
  00058	e1a00004	 mov         r0, r4
  0005c	e5933000	 ldr         r3, [r3]
  00060	e1a0e00f	 mov         lr, pc
  00064	e12fff13	 bx          r3
  00068	e59f32a8	 ldr         r3, [pc, #0x2A8]
  0006c	e5991020	 ldr         r1, [r9, #0x20]
  00070	e1a04000	 mov         r4, r0
  00074	e5933000	 ldr         r3, [r3]
  00078	e1a00007	 mov         r0, r7
  0007c	e1a0e00f	 mov         lr, pc
  00080	e12fff13	 bx          r3
  00084	e59f3288	 ldr         r3, [pc, #0x288]
  00088	e1a01000	 mov         r1, r0
  0008c	e1a00004	 mov         r0, r4
  00090	e5933000	 ldr         r3, [r3]
  00094	e1a0e00f	 mov         lr, pc
  00098	e12fff13	 bx          r3
  0009c	e59f3274	 ldr         r3, [pc, #0x274]
  000a0	e5991030	 ldr         r1, [r9, #0x30]
  000a4	e1a04000	 mov         r4, r0
  000a8	e5933000	 ldr         r3, [r3]
  000ac	e1a00008	 mov         r0, r8
  000b0	e1a0e00f	 mov         lr, pc
  000b4	e12fff13	 bx          r3
  000b8	e59f3254	 ldr         r3, [pc, #0x254]
  000bc	e1a01000	 mov         r1, r0
  000c0	e1a00004	 mov         r0, r4
  000c4	e5933000	 ldr         r3, [r3]
  000c8	e1a0e00f	 mov         lr, pc
  000cc	e12fff13	 bx          r3

; 1618 : 		out.y = VERTTYPEMUL(rhs.x,f[1])+VERTTYPEMUL(rhs.y,f[5])+VERTTYPEMUL(rhs.z,f[9])+VERTTYPEMUL(rhs.w,f[13]);

  000d0	e59f3240	 ldr         r3, [pc, #0x240]
  000d4	e5991004	 ldr         r1, [r9, #4]
  000d8	e1a02000	 mov         r2, r0
  000dc	e5933000	 ldr         r3, [r3]
  000e0	e1a00005	 mov         r0, r5
  000e4	e58a2000	 str         r2, [r10]
  000e8	e1a0e00f	 mov         lr, pc
  000ec	e12fff13	 bx          r3
  000f0	e59f3220	 ldr         r3, [pc, #0x220]
  000f4	e5991014	 ldr         r1, [r9, #0x14]
  000f8	e1a04000	 mov         r4, r0
  000fc	e5933000	 ldr         r3, [r3]
  00100	e1a00006	 mov         r0, r6
  00104	e1a0e00f	 mov         lr, pc
  00108	e12fff13	 bx          r3
  0010c	e59f3200	 ldr         r3, [pc, #0x200]
  00110	e1a01000	 mov         r1, r0
  00114	e1a00004	 mov         r0, r4
  00118	e5933000	 ldr         r3, [r3]
  0011c	e1a0e00f	 mov         lr, pc
  00120	e12fff13	 bx          r3
  00124	e59f31ec	 ldr         r3, [pc, #0x1EC]
  00128	e5991024	 ldr         r1, [r9, #0x24]
  0012c	e1a04000	 mov         r4, r0
  00130	e5933000	 ldr         r3, [r3]
  00134	e1a00007	 mov         r0, r7
  00138	e1a0e00f	 mov         lr, pc
  0013c	e12fff13	 bx          r3
  00140	e59f31cc	 ldr         r3, [pc, #0x1CC]
  00144	e5933000	 ldr         r3, [r3]
  00148	e1a01000	 mov         r1, r0
  0014c	e1a00004	 mov         r0, r4
  00150	e1a0e00f	 mov         lr, pc
  00154	e12fff13	 bx          r3
  00158	e59f31b8	 ldr         r3, [pc, #0x1B8]
  0015c	e5991034	 ldr         r1, [r9, #0x34]
  00160	e1a04000	 mov         r4, r0
  00164	e5933000	 ldr         r3, [r3]
  00168	e1a00008	 mov         r0, r8
  0016c	e1a0e00f	 mov         lr, pc
  00170	e12fff13	 bx          r3
  00174	e59f3198	 ldr         r3, [pc, #0x198]
  00178	e1a01000	 mov         r1, r0
  0017c	e1a00004	 mov         r0, r4
  00180	e5933000	 ldr         r3, [r3]
  00184	e1a0e00f	 mov         lr, pc
  00188	e12fff13	 bx          r3

; 1619 : 		out.z = VERTTYPEMUL(rhs.x,f[2])+VERTTYPEMUL(rhs.y,f[6])+VERTTYPEMUL(rhs.z,f[10])+VERTTYPEMUL(rhs.w,f[14]);

  0018c	e59f3184	 ldr         r3, [pc, #0x184]
  00190	e5991008	 ldr         r1, [r9, #8]
  00194	e1a02000	 mov         r2, r0
  00198	e5933000	 ldr         r3, [r3]
  0019c	e1a00005	 mov         r0, r5
  001a0	e58a2004	 str         r2, [r10, #4]
  001a4	e1a0e00f	 mov         lr, pc
  001a8	e12fff13	 bx          r3
  001ac	e59f3164	 ldr         r3, [pc, #0x164]
  001b0	e5991018	 ldr         r1, [r9, #0x18]
  001b4	e1a04000	 mov         r4, r0
  001b8	e5933000	 ldr         r3, [r3]
  001bc	e1a00006	 mov         r0, r6
  001c0	e1a0e00f	 mov         lr, pc
  001c4	e12fff13	 bx          r3
  001c8	e59f3144	 ldr         r3, [pc, #0x144]
  001cc	e1a01000	 mov         r1, r0
  001d0	e1a00004	 mov         r0, r4
  001d4	e5933000	 ldr         r3, [r3]
  001d8	e1a0e00f	 mov         lr, pc
  001dc	e12fff13	 bx          r3
  001e0	e59f3130	 ldr         r3, [pc, #0x130]
  001e4	e5991028	 ldr         r1, [r9, #0x28]
  001e8	e1a04000	 mov         r4, r0
  001ec	e5933000	 ldr         r3, [r3]
  001f0	e1a00007	 mov         r0, r7
  001f4	e1a0e00f	 mov         lr, pc
  001f8	e12fff13	 bx          r3
  001fc	e59f3110	 ldr         r3, [pc, #0x110]
  00200	e1a01000	 mov         r1, r0
  00204	e1a00004	 mov         r0, r4
  00208	e5933000	 ldr         r3, [r3]
  0020c	e1a0e00f	 mov         lr, pc
  00210	e12fff13	 bx          r3
  00214	e59f30fc	 ldr         r3, [pc, #0xFC]
  00218	e5991038	 ldr         r1, [r9, #0x38]
  0021c	e1a04000	 mov         r4, r0
  00220	e5933000	 ldr         r3, [r3]
  00224	e1a00008	 mov         r0, r8
  00228	e1a0e00f	 mov         lr, pc
  0022c	e12fff13	 bx          r3
  00230	e59f30dc	 ldr         r3, [pc, #0xDC]
  00234	e1a01000	 mov         r1, r0
  00238	e1a00004	 mov         r0, r4
  0023c	e5933000	 ldr         r3, [r3]
  00240	e1a0e00f	 mov         lr, pc
  00244	e12fff13	 bx          r3

; 1620 : 		out.w = VERTTYPEMUL(rhs.x,f[3])+VERTTYPEMUL(rhs.y,f[7])+VERTTYPEMUL(rhs.z,f[11])+VERTTYPEMUL(rhs.w,f[15]);

  00248	e59f30c8	 ldr         r3, [pc, #0xC8]
  0024c	e599100c	 ldr         r1, [r9, #0xC]
  00250	e1a02000	 mov         r2, r0
  00254	e5933000	 ldr         r3, [r3]
  00258	e1a00005	 mov         r0, r5
  0025c	e58a2008	 str         r2, [r10, #8]
  00260	e1a0e00f	 mov         lr, pc
  00264	e12fff13	 bx          r3
  00268	e59f30a8	 ldr         r3, [pc, #0xA8]
  0026c	e599101c	 ldr         r1, [r9, #0x1C]
  00270	e1a04000	 mov         r4, r0
  00274	e5933000	 ldr         r3, [r3]
  00278	e1a00006	 mov         r0, r6
  0027c	e1a0e00f	 mov         lr, pc
  00280	e12fff13	 bx          r3
  00284	e59f3088	 ldr         r3, [pc, #0x88]
  00288	e5933000	 ldr         r3, [r3]
  0028c	e1a01000	 mov         r1, r0
  00290	e1a00004	 mov         r0, r4
  00294	e1a0e00f	 mov         lr, pc
  00298	e12fff13	 bx          r3
  0029c	e59f3074	 ldr         r3, [pc, #0x74]
  002a0	e599102c	 ldr         r1, [r9, #0x2C]
  002a4	e1a04000	 mov         r4, r0
  002a8	e5933000	 ldr         r3, [r3]
  002ac	e1a00007	 mov         r0, r7
  002b0	e1a0e00f	 mov         lr, pc
  002b4	e12fff13	 bx          r3
  002b8	e59f3054	 ldr         r3, [pc, #0x54]
  002bc	e1a01000	 mov         r1, r0
  002c0	e1a00004	 mov         r0, r4
  002c4	e5933000	 ldr         r3, [r3]
  002c8	e1a0e00f	 mov         lr, pc
  002cc	e12fff13	 bx          r3
  002d0	e59f3040	 ldr         r3, [pc, #0x40]
  002d4	e599103c	 ldr         r1, [r9, #0x3C]
  002d8	e1a04000	 mov         r4, r0
  002dc	e5933000	 ldr         r3, [r3]
  002e0	e1a00008	 mov         r0, r8
  002e4	e1a0e00f	 mov         lr, pc
  002e8	e12fff13	 bx          r3
  002ec	e59f3020	 ldr         r3, [pc, #0x20]
  002f0	e1a01000	 mov         r1, r0
  002f4	e1a00004	 mov         r0, r4
  002f8	e5933000	 ldr         r3, [r3]
  002fc	e1a0e00f	 mov         lr, pc
  00300	e12fff13	 bx          r3
  00304	e58a000c	 str         r0, [r10, #0xC]

; 1621 : 
; 1622 : 		return out;
; 1623 : 	}

  00308	e1a0000a	 mov         r0, r10
  0030c	e8bd47f0	 ldmia       sp!, {r4 - r10, lr}
  00310	e12fff1e	 bx          lr
  00314		 |$LN8@operator@4|
  00314		 |$LN9@operator@4|
  00314	00000000	 DCD         |__imp___adds|
  00318		 |$LN10@operator@4|
  00318	00000000	 DCD         |__imp___muls|
  0031c		 |$M37681|

			 ENDP  ; |??DPVRTMat4@@QBA?AUPVRTVec4@@ABU1@@Z|, PVRTMat4::operator*

	EXPORT	|?transpose@PVRTMat4@@QBA?AU1@XZ|	; PVRTMat4::transpose

  00000			 AREA	 |.pdata|, PDATA
|$T37700| DCD	|$LN7@transpose@2|
	DCD	0x40002902
; Function compile flags: /Ogspy

  00000			 AREA	 |.text|, CODE, ARM

  00000		 |?transpose@PVRTMat4@@QBA?AU1@XZ| PROC	; PVRTMat4::transpose

; 1698 : 	{

  00000		 |$LN7@transpose@2|
  00000	e92d4ff0	 stmdb       sp!, {r4 - r11, lr}
  00004	e24dd010	 sub         sp, sp, #0x10
  00008		 |$M37697|
  00008	e58d1000	 str         r1, [sp]
  0000c	e58d000c	 str         r0, [sp, #0xC]

; 1699 : 		PVRTMat4 out;
; 1700 : 		out.f[0] = f[0];		out.f[1] = f[4];		out.f[2] = f[8];		out.f[3] = f[12];

  00010	e5902010	 ldr         r2, [r0, #0x10]
  00014	e5903000	 ldr         r3, [r0]
  00018	e590e020	 ldr         lr, [r0, #0x20]
  0001c	e58d2008	 str         r2, [sp, #8]

; 1701 : 		out.f[4] = f[1];		out.f[5] = f[5];		out.f[6] = f[9];		out.f[7] = f[13];
; 1702 : 		out.f[8] = f[2];		out.f[9] = f[6];		out.f[10] = f[10];		out.f[11] = f[14];
; 1703 : 		out.f[12] = f[3];		out.f[13] = f[7];		out.f[14] = f[11];		out.f[15] = f[15];

  00020	e59d2000	 ldr         r2, [sp]
  00024	e58d3004	 str         r3, [sp, #4]
  00028	e5904030	 ldr         r4, [r0, #0x30]
  0002c	e5823000	 str         r3, [r2]
  00030	e59d2008	 ldr         r2, [sp, #8]
  00034	e59d3000	 ldr         r3, [sp]
  00038	e5905004	 ldr         r5, [r0, #4]
  0003c	e5906014	 ldr         r6, [r0, #0x14]
  00040	e5832004	 str         r2, [r3, #4]
  00044	e59d200c	 ldr         r2, [sp, #0xC]
  00048	e5907024	 ldr         r7, [r0, #0x24]
  0004c	e5908034	 ldr         r8, [r0, #0x34]
  00050	e5909008	 ldr         r9, [r0, #8]
  00054	e590a018	 ldr         r10, [r0, #0x18]
  00058	e590b028	 ldr         r11, [r0, #0x28]
  0005c	e5901038	 ldr         r1, [r0, #0x38]
  00060	e590000c	 ldr         r0, [r0, #0xC]
  00064	e583e008	 str         lr, [r3, #8]
  00068	e1a0e003	 mov         lr, r3
  0006c	e592301c	 ldr         r3, [r2, #0x1C]
  00070	e28ec00c	 add         r12, lr, #0xC
  00074	e88c0ff0	 stmia       r12, {r4 - r11}
  00078	e28ec030	 add         r12, lr, #0x30
  0007c	e88c0009	 stmia       r12, {r0, r3}

; 1704 : 		return out;
; 1705 : 	}

  00080	e1a0000e	 mov         r0, lr
  00084	e592302c	 ldr         r3, [r2, #0x2C]
  00088	e58e102c	 str         r1, [lr, #0x2C]
  0008c	e58e3038	 str         r3, [lr, #0x38]
  00090	e592303c	 ldr         r3, [r2, #0x3C]
  00094	e58e303c	 str         r3, [lr, #0x3C]
  00098	e28dd010	 add         sp, sp, #0x10
  0009c	e8bd4ff0	 ldmia       sp!, {r4 - r11, lr}
  000a0	e12fff1e	 bx          lr
  000a4		 |$M37698|

			 ENDP  ; |?transpose@PVRTMat4@@QBA?AU1@XZ|, PVRTMat4::transpose

	EXPORT	|?postTranslate@PVRTMat4@@QAAAAU1@MMM@Z| ; PVRTMat4::postTranslate

  00000			 AREA	 |.pdata|, PDATA
|$T37737| DCD	|$LN5@postTransl|
	DCD	0x4000a301
; Function compile flags: /Ogspy

  00000			 AREA	 |.text|, CODE, ARM

  00000		 |?postTranslate@PVRTMat4@@QAAAAU1@MMM@Z| PROC ; PVRTMat4::postTranslate

; 1716 : 	{

  00000		 |$LN5@postTransl|
  00000	e92d43f0	 stmdb       sp!, {r4 - r9, lr}
  00004		 |$M37734|
  00004	e1a08003	 mov         r8, r3
  00008	e1a07002	 mov         r7, r2
  0000c	e1a06001	 mov         r6, r1
  00010	e1a09000	 mov         r9, r0

; 1717 : 		f[12] += VERTTYPEMUL(tx,f[0])+VERTTYPEMUL(ty,f[4])+VERTTYPEMUL(tz,f[8]);

  00014	e59fe26c	 ldr         lr, [pc, #0x26C]
  00018	e5990000	 ldr         r0, [r9]
  0001c	e59e4000	 ldr         r4, [lr]
  00020	e1a0e00f	 mov         lr, pc
  00024	e12fff14	 bx          r4
  00028	e59fe258	 ldr         lr, [pc, #0x258]
  0002c	e1a05000	 mov         r5, r0
  00030	e5990010	 ldr         r0, [r9, #0x10]
  00034	e59e4000	 ldr         r4, [lr]
  00038	e1a01007	 mov         r1, r7
  0003c	e1a0e00f	 mov         lr, pc
  00040	e12fff14	 bx          r4
  00044	e59fe238	 ldr         lr, [pc, #0x238]
  00048	e1a01000	 mov         r1, r0
  0004c	e1a00005	 mov         r0, r5
  00050	e59e4000	 ldr         r4, [lr]
  00054	e1a0e00f	 mov         lr, pc
  00058	e12fff14	 bx          r4
  0005c	e59fe224	 ldr         lr, [pc, #0x224]
  00060	e1a04000	 mov         r4, r0
  00064	e5990020	 ldr         r0, [r9, #0x20]
  00068	e59e3000	 ldr         r3, [lr]
  0006c	e1a01008	 mov         r1, r8
  00070	e1a0e00f	 mov         lr, pc
  00074	e12fff13	 bx          r3
  00078	e59f3204	 ldr         r3, [pc, #0x204]
  0007c	e1a01000	 mov         r1, r0
  00080	e1a00004	 mov         r0, r4
  00084	e5933000	 ldr         r3, [r3]
  00088	e1a0e00f	 mov         lr, pc
  0008c	e12fff13	 bx          r3
  00090	e59f31ec	 ldr         r3, [pc, #0x1EC]
  00094	e5991030	 ldr         r1, [r9, #0x30]
  00098	e5933000	 ldr         r3, [r3]
  0009c	e1a0e00f	 mov         lr, pc
  000a0	e12fff13	 bx          r3

; 1718 : 		f[13] += VERTTYPEMUL(tx,f[1])+VERTTYPEMUL(ty,f[5])+VERTTYPEMUL(tz,f[9]);

  000a4	e59f31dc	 ldr         r3, [pc, #0x1DC]
  000a8	e1a02000	 mov         r2, r0
  000ac	e5990004	 ldr         r0, [r9, #4]
  000b0	e5933000	 ldr         r3, [r3]
  000b4	e1a01006	 mov         r1, r6
  000b8	e5892030	 str         r2, [r9, #0x30]
  000bc	e1a0e00f	 mov         lr, pc
  000c0	e12fff13	 bx          r3
  000c4	e59f31bc	 ldr         r3, [pc, #0x1BC]
  000c8	e1a04000	 mov         r4, r0
  000cc	e5990014	 ldr         r0, [r9, #0x14]
  000d0	e5933000	 ldr         r3, [r3]
  000d4	e1a01007	 mov         r1, r7
  000d8	e1a0e00f	 mov         lr, pc
  000dc	e12fff13	 bx          r3
  000e0	e59f319c	 ldr         r3, [pc, #0x19C]
  000e4	e1a01000	 mov         r1, r0
  000e8	e1a00004	 mov         r0, r4
  000ec	e5933000	 ldr         r3, [r3]
  000f0	e1a0e00f	 mov         lr, pc
  000f4	e12fff13	 bx          r3
  000f8	e59f3188	 ldr         r3, [pc, #0x188]
  000fc	e1a04000	 mov         r4, r0
  00100	e5990024	 ldr         r0, [r9, #0x24]
  00104	e5933000	 ldr         r3, [r3]
  00108	e1a01008	 mov         r1, r8
  0010c	e1a0e00f	 mov         lr, pc
  00110	e12fff13	 bx          r3
  00114	e59f3168	 ldr         r3, [pc, #0x168]
  00118	e1a01000	 mov         r1, r0
  0011c	e1a00004	 mov         r0, r4
  00120	e5933000	 ldr         r3, [r3]
  00124	e1a0e00f	 mov         lr, pc
  00128	e12fff13	 bx          r3
  0012c	e59f3150	 ldr         r3, [pc, #0x150]
  00130	e5991034	 ldr         r1, [r9, #0x34]
  00134	e5933000	 ldr         r3, [r3]
  00138	e1a0e00f	 mov         lr, pc
  0013c	e12fff13	 bx          r3
  00140	e5890034	 str         r0, [r9, #0x34]

; 1719 : 		f[14] += VERTTYPEMUL(tx,f[2])+VERTTYPEMUL(ty,f[6])+VERTTYPEMUL(tz,f[10]);

  00144	e59f313c	 ldr         r3, [pc, #0x13C]
  00148	e5990008	 ldr         r0, [r9, #8]
  0014c	e1a01006	 mov         r1, r6
  00150	e5933000	 ldr         r3, [r3]
  00154	e1a0e00f	 mov         lr, pc
  00158	e12fff13	 bx          r3
  0015c	e59f3124	 ldr         r3, [pc, #0x124]
  00160	e1a04000	 mov         r4, r0
  00164	e5990018	 ldr         r0, [r9, #0x18]
  00168	e5933000	 ldr         r3, [r3]
  0016c	e1a01007	 mov         r1, r7
  00170	e1a0e00f	 mov         lr, pc
  00174	e12fff13	 bx          r3
  00178	e59f3104	 ldr         r3, [pc, #0x104]
  0017c	e1a01000	 mov         r1, r0
  00180	e1a00004	 mov         r0, r4
  00184	e5933000	 ldr         r3, [r3]
  00188	e1a0e00f	 mov         lr, pc
  0018c	e12fff13	 bx          r3
  00190	e59f30f0	 ldr         r3, [pc, #0xF0]
  00194	e1a04000	 mov         r4, r0
  00198	e5990028	 ldr         r0, [r9, #0x28]
  0019c	e5933000	 ldr         r3, [r3]
  001a0	e1a01008	 mov         r1, r8
  001a4	e1a0e00f	 mov         lr, pc
  001a8	e12fff13	 bx          r3
  001ac	e59f30d0	 ldr         r3, [pc, #0xD0]
  001b0	e1a01000	 mov         r1, r0
  001b4	e1a00004	 mov         r0, r4
  001b8	e5933000	 ldr         r3, [r3]
  001bc	e1a0e00f	 mov         lr, pc
  001c0	e12fff13	 bx          r3
  001c4	e59f30b8	 ldr         r3, [pc, #0xB8]
  001c8	e5991038	 ldr         r1, [r9, #0x38]
  001cc	e5933000	 ldr         r3, [r3]
  001d0	e1a0e00f	 mov         lr, pc
  001d4	e12fff13	 bx          r3

; 1720 : 		f[15] += VERTTYPEMUL(tx,f[3])+VERTTYPEMUL(ty,f[7])+VERTTYPEMUL(tz,f[11]);

  001d8	e59f30a8	 ldr         r3, [pc, #0xA8]
  001dc	e1a02000	 mov         r2, r0
  001e0	e599000c	 ldr         r0, [r9, #0xC]
  001e4	e5933000	 ldr         r3, [r3]
  001e8	e1a01006	 mov         r1, r6
  001ec	e5892038	 str         r2, [r9, #0x38]
  001f0	e1a0e00f	 mov         lr, pc
  001f4	e12fff13	 bx          r3
  001f8	e59f3088	 ldr         r3, [pc, #0x88]
  001fc	e1a04000	 mov         r4, r0
  00200	e599001c	 ldr         r0, [r9, #0x1C]
  00204	e5933000	 ldr         r3, [r3]
  00208	e1a01007	 mov         r1, r7
  0020c	e1a0e00f	 mov         lr, pc
  00210	e12fff13	 bx          r3
  00214	e59f3068	 ldr         r3, [pc, #0x68]
  00218	e1a01000	 mov         r1, r0
  0021c	e1a00004	 mov         r0, r4
  00220	e5933000	 ldr         r3, [r3]
  00224	e1a0e00f	 mov         lr, pc
  00228	e12fff13	 bx          r3
  0022c	e59f3054	 ldr         r3, [pc, #0x54]
  00230	e1a04000	 mov         r4, r0
  00234	e599002c	 ldr         r0, [r9, #0x2C]
  00238	e5933000	 ldr         r3, [r3]
  0023c	e1a01008	 mov         r1, r8
  00240	e1a0e00f	 mov         lr, pc
  00244	e12fff13	 bx          r3
  00248	e59f3034	 ldr         r3, [pc, #0x34]
  0024c	e1a01000	 mov         r1, r0
  00250	e1a00004	 mov         r0, r4
  00254	e5933000	 ldr         r3, [r3]
  00258	e1a0e00f	 mov         lr, pc
  0025c	e12fff13	 bx          r3
  00260	e59f301c	 ldr         r3, [pc, #0x1C]
  00264	e599103c	 ldr         r1, [r9, #0x3C]
  00268	e5933000	 ldr         r3, [r3]
  0026c	e1a0e00f	 mov         lr, pc
  00270	e12fff13	 bx          r3
  00274	e589003c	 str         r0, [r9, #0x3C]

; 1721 : 
; 1722 : //			col(3) += tx * col(0) + ty * col(1) + tz * col(2);
; 1723 : 		return *this;
; 1724 : 	}

  00278	e1a00009	 mov         r0, r9
  0027c	e8bd43f0	 ldmia       sp!, {r4 - r9, lr}
  00280	e12fff1e	 bx          lr
  00284		 |$LN6@postTransl|
  00284		 |$LN7@postTransl|
  00284	00000000	 DCD         |__imp___adds|
  00288		 |$LN8@postTransl|
  00288	00000000	 DCD         |__imp___muls|
  0028c		 |$M37735|

			 ENDP  ; |?postTranslate@PVRTMat4@@QAAAAU1@MMM@Z|, PVRTMat4::postTranslate

	EXPORT	|?postTranslate@PVRTMat4@@QAAAAU1@ABUPVRTVec3@@@Z| ; PVRTMat4::postTranslate

  00000			 AREA	 |.pdata|, PDATA
|$T37751| DCD	|$LN5@postTransl@2|
	DCD	0x40000701
; Function compile flags: /Ogspy

  00000			 AREA	 |.text|, CODE, ARM

  00000		 |?postTranslate@PVRTMat4@@QAAAAU1@ABUPVRTVec3@@@Z| PROC ; PVRTMat4::postTranslate

; 1733 : 	{

  00000		 |$LN5@postTransl@2|
  00000	e52de004	 str         lr, [sp, #-4]!
  00004		 |$M37748|

; 1734 : 		return postTranslate(tvec.x, tvec.y, tvec.z);

  00004	e5913008	 ldr         r3, [r1, #8]
  00008	e5912004	 ldr         r2, [r1, #4]
  0000c	e5911000	 ldr         r1, [r1]
  00010	eb000000	 bl          |?postTranslate@PVRTMat4@@QAAAAU1@MMM@Z|

; 1735 : 	}

  00014	e49de004	 ldr         lr, [sp], #4
  00018	e12fff1e	 bx          lr
  0001c		 |$M37749|

			 ENDP  ; |?postTranslate@PVRTMat4@@QAAAAU1@ABUPVRTVec3@@@Z|, PVRTMat4::postTranslate

	EXPORT	|?Perspective@PVRTMat4@@SA?AU1@MMMMW4eClipspace@1@_N1@Z| ; PVRTMat4::Perspective
	IMPORT	|__imp___negs|

  00000			 AREA	 |.pdata|, PDATA
|$T37788| DCD	|$LN14@Perspectiv|
	DCD	0x40008e01
; Function compile flags: /Ogspy

  00000			 AREA	 |.text|, CODE, ARM

  00000		 |?Perspective@PVRTMat4@@SA?AU1@MMMMW4eClipspace@1@_N1@Z| PROC ; PVRTMat4::Perspective

; 2081 : 	{

  00000		 |$LN14@Perspectiv|
  00000	e92d47f0	 stmdb       sp!, {r4 - r10, lr}
  00004		 |$M37785|
  00004	e1a0a003	 mov         r10, r3
  00008	e1a07002	 mov         r7, r2
  0000c	e1a08001	 mov         r8, r1
  00010	e1a05000	 mov         r5, r0

; 2082 : 		VERTTYPE n2 = VERTTYPEMUL(f2vt(2),nearPlane);

  00014	e59fe208	 ldr         lr, [pc, #0x208]
  00018	e1a0000a	 mov         r0, r10
  0001c	e3a01101	 mov         r1, #1, 2
  00020	e59e4000	 ldr         r4, [lr]
  00024	e1a0e00f	 mov         lr, pc
  00028	e12fff14	 bx          r4

; 2083 : 		VERTTYPE rcpnmf = VERTTYPEDIV(f2vt(1),(nearPlane - farPlane));

  0002c	e59fe200	 ldr         lr, [pc, #0x200]
  00030	e59d1020	 ldr         r1, [sp, #0x20]
  00034	e1a06000	 mov         r6, r0
  00038	e59e4000	 ldr         r4, [lr]
  0003c	e1a0000a	 mov         r0, r10
  00040	e1a0e00f	 mov         lr, pc
  00044	e12fff14	 bx          r4
  00048	e59fe1dc	 ldr         lr, [pc, #0x1DC]
  0004c	e1a01000	 mov         r1, r0
  00050	e3a005fe	 mov         r0, #0xFE, 10
  00054	e59e4000	 ldr         r4, [lr]
  00058	e1a0e00f	 mov         lr, pc
  0005c	e12fff14	 bx          r4

; 2084 : 
; 2085 : 		PVRTMat4 result;
; 2086 : 		if (bRotate)

  00060	e5dd302c	 ldrb        r3, [sp, #0x2C]
  00064	e1a09000	 mov         r9, r0

; 2087 : 		{
; 2088 : 			result.f[0] = 0;	result.f[4]=VERTTYPEDIV(-n2,width);	result.f[8]=0;	result.f[12]=0;

  00068	e1a00006	 mov         r0, r6
  0006c	e3530000	 cmp         r3, #0
  00070	0a000017	 beq         |$LN5@Perspectiv|
  00074	e59f31b4	 ldr         r3, [pc, #0x1B4]
  00078	e3a04000	 mov         r4, #0
  0007c	e5854000	 str         r4, [r5]
  00080	e5933000	 ldr         r3, [r3]
  00084	e1a0e00f	 mov         lr, pc
  00088	e12fff13	 bx          r3
  0008c	e59f3198	 ldr         r3, [pc, #0x198]
  00090	e1a01008	 mov         r1, r8
  00094	e5933000	 ldr         r3, [r3]
  00098	e1a0e00f	 mov         lr, pc
  0009c	e12fff13	 bx          r3

; 2089 : 			result.f[1] = VERTTYPEDIV(n2,height);	result.f[5]=0;	result.f[9]=0;	result.f[13]=0;

  000a0	e59f3184	 ldr         r3, [pc, #0x184]
  000a4	e1a02000	 mov         r2, r0
  000a8	e1a00006	 mov         r0, r6
  000ac	e5933000	 ldr         r3, [r3]
  000b0	e1a01007	 mov         r1, r7
  000b4	e5852010	 str         r2, [r5, #0x10]
  000b8	e5854020	 str         r4, [r5, #0x20]
  000bc	e5854030	 str         r4, [r5, #0x30]
  000c0	e1a0e00f	 mov         lr, pc
  000c4	e12fff13	 bx          r3
  000c8	e5850004	 str         r0, [r5, #4]
  000cc	e5854014	 str         r4, [r5, #0x14]

; 2090 : 		}
; 2091 : 		else

  000d0	ea000012	 b           |$LN10@Perspectiv|
  000d4		 |$LN5@Perspectiv|

; 2092 : 		{
; 2093 : 			result.f[0] = VERTTYPEDIV(n2,width);	result.f[4]=0;	result.f[8]=0;	result.f[12]=0;

  000d4	e59f3150	 ldr         r3, [pc, #0x150]
  000d8	e1a01008	 mov         r1, r8
  000dc	e5933000	 ldr         r3, [r3]
  000e0	e1a0e00f	 mov         lr, pc
  000e4	e12fff13	 bx          r3

; 2094 : 			result.f[1] = 0;	result.f[5]=VERTTYPEDIV(n2,height);	result.f[9]=0;	result.f[13]=0;

  000e8	e59f313c	 ldr         r3, [pc, #0x13C]
  000ec	e1a02000	 mov         r2, r0
  000f0	e3a04000	 mov         r4, #0
  000f4	e5933000	 ldr         r3, [r3]
  000f8	e1a00006	 mov         r0, r6
  000fc	e1a01007	 mov         r1, r7
  00100	e5852000	 str         r2, [r5]
  00104	e5854010	 str         r4, [r5, #0x10]
  00108	e5854020	 str         r4, [r5, #0x20]
  0010c	e5854030	 str         r4, [r5, #0x30]
  00110	e5854004	 str         r4, [r5, #4]
  00114	e1a0e00f	 mov         lr, pc
  00118	e12fff13	 bx          r3
  0011c	e5850014	 str         r0, [r5, #0x14]
  00120		 |$LN10@Perspectiv|

; 2095 : 		}
; 2096 : 		if (cs == D3D)

  00120	e59d3024	 ldr         r3, [sp, #0x24]

; 2097 : 		{
; 2098 : 			result.f[2] = 0;	result.f[6]=0;	result.f[10]=VERTTYPEMUL(farPlane,rcpnmf);	result.f[14]=VERTTYPEMUL(VERTTYPEMUL(farPlane,rcpnmf),nearPlane);

  00124	e59d1020	 ldr         r1, [sp, #0x20]
  00128	e5854034	 str         r4, [r5, #0x34]
  0012c	e3530001	 cmp         r3, #1
  00130	e5854024	 str         r4, [r5, #0x24]
  00134	e5854008	 str         r4, [r5, #8]
  00138	e5854018	 str         r4, [r5, #0x18]
  0013c	1a00000c	 bne         |$LN3@Perspectiv|
  00140	e59f30dc	 ldr         r3, [pc, #0xDC]
  00144	e1a00009	 mov         r0, r9
  00148	e5933000	 ldr         r3, [r3]
  0014c	e1a0e00f	 mov         lr, pc
  00150	e12fff13	 bx          r3
  00154	e59f30c8	 ldr         r3, [pc, #0xC8]
  00158	e1a02000	 mov         r2, r0
  0015c	e1a0100a	 mov         r1, r10
  00160	e5933000	 ldr         r3, [r3]
  00164	e5852028	 str         r2, [r5, #0x28]
  00168	e1a0e00f	 mov         lr, pc
  0016c	e12fff13	 bx          r3

; 2099 : 		}
; 2100 : 		else

  00170	ea000016	 b           |$LN11@Perspectiv|
  00174		 |$LN3@Perspectiv|

; 2101 : 		{
; 2102 : 			result.f[2] = 0;	result.f[6]=0;	result.f[10]=VERTTYPEMUL(farPlane+nearPlane,rcpnmf);	result.f[14]=VERTTYPEMUL(VERTTYPEMUL(farPlane,rcpnmf),n2);

  00174	e59f30ac	 ldr         r3, [pc, #0xAC]
  00178	e1a0000a	 mov         r0, r10
  0017c	e5933000	 ldr         r3, [r3]
  00180	e1a0e00f	 mov         lr, pc
  00184	e12fff13	 bx          r3
  00188	e59f3094	 ldr         r3, [pc, #0x94]
  0018c	e1a01009	 mov         r1, r9
  00190	e5933000	 ldr         r3, [r3]
  00194	e1a0e00f	 mov         lr, pc
  00198	e12fff13	 bx          r3
  0019c	e59f3080	 ldr         r3, [pc, #0x80]
  001a0	e1a02000	 mov         r2, r0
  001a4	e59d1020	 ldr         r1, [sp, #0x20]
  001a8	e5933000	 ldr         r3, [r3]
  001ac	e1a00009	 mov         r0, r9
  001b0	e5852028	 str         r2, [r5, #0x28]
  001b4	e1a0e00f	 mov         lr, pc
  001b8	e12fff13	 bx          r3
  001bc	e59f3060	 ldr         r3, [pc, #0x60]
  001c0	e1a01006	 mov         r1, r6
  001c4	e5933000	 ldr         r3, [r3]
  001c8	e1a0e00f	 mov         lr, pc
  001cc	e12fff13	 bx          r3
  001d0		 |$LN11@Perspectiv|

; 2103 : 		}
; 2104 : 		result.f[3] = 0;	result.f[7]=0;	result.f[11]=f2vt(-1);	result.f[15]=0;
; 2105 : 
; 2106 : 		if (!bRightHanded)

  001d0	e5dd3028	 ldrb        r3, [sp, #0x28]
  001d4	e3e02080	 mvn         r2, #0x80
  001d8	e1a01b82	 mov         r1, r2, lsl #23
  001dc	e3530000	 cmp         r3, #0
  001e0	e585102c	 str         r1, [r5, #0x2C]
  001e4	e5850038	 str         r0, [r5, #0x38]
  001e8	e585400c	 str         r4, [r5, #0xC]
  001ec	e585401c	 str         r4, [r5, #0x1C]
  001f0	e585403c	 str         r4, [r5, #0x3C]
  001f4	1a000007	 bne         |$LN1@Perspectiv|

; 2107 : 		{
; 2108 : 			result.f[10] = VERTTYPEMUL(result.f[10], f2vt(-1));

  001f8	e59f3024	 ldr         r3, [pc, #0x24]
  001fc	e5950028	 ldr         r0, [r5, #0x28]
  00200	e5933000	 ldr         r3, [r3]
  00204	e1a0e00f	 mov         lr, pc
  00208	e12fff13	 bx          r3

; 2109 : 			result.f[11] = f2vt(1);

  0020c	e3a035fe	 mov         r3, #0xFE, 10
  00210	e585302c	 str         r3, [r5, #0x2C]
  00214	e5850028	 str         r0, [r5, #0x28]
  00218		 |$LN1@Perspectiv|

; 2110 : 		}
; 2111 : 
; 2112 : 		return result;
; 2113 : 	}

  00218	e1a00005	 mov         r0, r5
  0021c	e8bd47f0	 ldmia       sp!, {r4 - r10, lr}
  00220	e12fff1e	 bx          lr
  00224		 |$LN15@Perspectiv|
  00224		 |$LN16@Perspectiv|
  00224	00000000	 DCD         |__imp___muls|
  00228		 |$LN17@Perspectiv|
  00228	00000000	 DCD         |__imp___adds|
  0022c		 |$LN18@Perspectiv|
  0022c	00000000	 DCD         |__imp___divs|
  00230		 |$LN19@Perspectiv|
  00230	00000000	 DCD         |__imp___negs|
  00234		 |$LN20@Perspectiv|
  00234	00000000	 DCD         |__imp___subs|
  00238		 |$M37786|

			 ENDP  ; |?Perspective@PVRTMat4@@SA?AU1@MMMMW4eClipspace@1@_N1@Z|, PVRTMat4::Perspective

	EXPORT	|?PerspectiveFov@PVRTMat4@@SA?AU1@MMMMW4eClipspace@1@_N1@Z| ; PVRTMat4::PerspectiveFov
	IMPORT	|__imp_tan|

  00000			 AREA	 |.pdata|, PDATA
|$T37818| DCD	|$LN6@Perspectiv@2|
	DCD	0x40005402
; Function compile flags: /Ogspy

  00000			 AREA	 |.text|, CODE, ARM

  00000		 |?PerspectiveFov@PVRTMat4@@SA?AU1@MMMMW4eClipspace@1@_N1@Z| PROC ; PVRTMat4::PerspectiveFov

; 2178 : 	{

  00000		 |$LN6@Perspectiv@2|
  00000	e92d47f0	 stmdb       sp!, {r4 - r10, lr}
  00004	e24dd010	 sub         sp, sp, #0x10
  00008		 |$M37815|
  00008	e1a08003	 mov         r8, r3
  0000c	e1a0a002	 mov         r10, r2
  00010	e1a07000	 mov         r7, r0

; 2179 : 		VERTTYPE height = VERTTYPEMUL(VERTTYPEMUL(f2vt(2.0f),nearPlane),PVRTTAN(VERTTYPEMUL(fovy,f2vt(0.5f))));

  00014	e59fe120	 ldr         lr, [pc, #0x120]
  00018	e1a00001	 mov         r0, r1
  0001c	e3a0143f	 mov         r1, #0x3F, 8
  00020	e59e4000	 ldr         r4, [lr]
  00024	e1a0e00f	 mov         lr, pc
  00028	e12fff14	 bx          r4
  0002c	e59f1118	 ldr         r1, [pc, #0x118]
  00030	e5911000	 ldr         r1, [r1]
  00034	e1a0e00f	 mov         lr, pc
  00038	e12fff11	 bx          r1
  0003c	e59f4104	 ldr         r4, [pc, #0x104]
  00040	e5944000	 ldr         r4, [r4]
  00044	e1a0e00f	 mov         lr, pc
  00048	e12fff14	 bx          r4
  0004c	e59fe0e8	 ldr         lr, [pc, #0xE8]
  00050	e1a06001	 mov         r6, r1
  00054	e1a05000	 mov         r5, r0
  00058	e59e4000	 ldr         r4, [lr]
  0005c	e1a00008	 mov         r0, r8
  00060	e3a01101	 mov         r1, #1, 2
  00064	e1a0e00f	 mov         lr, pc
  00068	e12fff14	 bx          r4
  0006c	e59f30d0	 ldr         r3, [pc, #0xD0]
  00070	e1a04000	 mov         r4, r0
  00074	e1a00005	 mov         r0, r5
  00078	e5933000	 ldr         r3, [r3]
  0007c	e1a01006	 mov         r1, r6
  00080	e1a0e00f	 mov         lr, pc
  00084	e12fff13	 bx          r3
  00088	e59f30ac	 ldr         r3, [pc, #0xAC]
  0008c	e1a01000	 mov         r1, r0
  00090	e1a00004	 mov         r0, r4
  00094	e5933000	 ldr         r3, [r3]
  00098	e1a0e00f	 mov         lr, pc
  0009c	e12fff13	 bx          r3

; 2180 : 		if (bRotate) return Perspective(height, VERTTYPEDIV(height,aspect), nearPlane, farPlane, cs, bRightHanded, bRotate);

  000a0	e5dd903c	 ldrb        r9, [sp, #0x3C]
  000a4	e5dd2038	 ldrb        r2, [sp, #0x38]
  000a8	e59d4034	 ldr         r4, [sp, #0x34]
  000ac	e59d5030	 ldr         r5, [sp, #0x30]
  000b0	e3590000	 cmp         r9, #0
  000b4	e1a06000	 mov         r6, r0
  000b8	e1a0100a	 mov         r1, r10
  000bc	0a00000d	 beq         |$LN1@Perspectiv@2|
  000c0	e59f3078	 ldr         r3, [pc, #0x78]
  000c4	e58d900c	 str         r9, [sp, #0xC]
  000c8	e58d2008	 str         r2, [sp, #8]
  000cc	e5933000	 ldr         r3, [r3]
  000d0	e58d4004	 str         r4, [sp, #4]
  000d4	e58d5000	 str         r5, [sp]
  000d8	e1a0e00f	 mov         lr, pc
  000dc	e12fff13	 bx          r3
  000e0	e1a02000	 mov         r2, r0
  000e4	e1a00007	 mov         r0, r7
  000e8	e1a01006	 mov         r1, r6
  000ec	e1a03008	 mov         r3, r8
  000f0	eb000000	 bl          |?Perspective@PVRTMat4@@SA?AU1@MMMMW4eClipspace@1@_N1@Z|
  000f4	ea00000c	 b           |$LN2@Perspectiv@2|
  000f8		 |$LN1@Perspectiv@2|

; 2181 : 		return Perspective(VERTTYPEMUL(height,aspect), height, nearPlane, farPlane, cs, bRightHanded, bRotate);

  000f8	e59f303c	 ldr         r3, [pc, #0x3C]
  000fc	e58d900c	 str         r9, [sp, #0xC]
  00100	e58d2008	 str         r2, [sp, #8]
  00104	e5933000	 ldr         r3, [r3]
  00108	e58d4004	 str         r4, [sp, #4]
  0010c	e58d5000	 str         r5, [sp]
  00110	e1a0e00f	 mov         lr, pc
  00114	e12fff13	 bx          r3
  00118	e1a01000	 mov         r1, r0
  0011c	e1a00007	 mov         r0, r7
  00120	e1a02006	 mov         r2, r6
  00124	e1a03008	 mov         r3, r8
  00128	eb000000	 bl          |?Perspective@PVRTMat4@@SA?AU1@MMMMW4eClipspace@1@_N1@Z|
  0012c		 |$LN2@Perspectiv@2|

; 2182 : 	}

  0012c	e1a00007	 mov         r0, r7
  00130	e28dd010	 add         sp, sp, #0x10
  00134	e8bd47f0	 ldmia       sp!, {r4 - r10, lr}
  00138	e12fff1e	 bx          lr
  0013c		 |$LN7@Perspectiv@2|
  0013c		 |$LN8@Perspectiv@2|
  0013c	00000000	 DCD         |__imp___muls|
  00140		 |$LN9@Perspectiv@2|
  00140	00000000	 DCD         |__imp___divs|
  00144		 |$LN10@Perspectiv@2|
  00144	00000000	 DCD         |__imp___dtos|
  00148		 |$LN11@Perspectiv@2|
  00148	00000000	 DCD         |__imp_tan|
  0014c		 |$LN12@Perspectiv@2|
  0014c	00000000	 DCD         |__imp___stod|
  00150		 |$M37816|

			 ENDP  ; |?PerspectiveFov@PVRTMat4@@SA?AU1@MMMMW4eClipspace@1@_N1@Z|, PVRTMat4::PerspectiveFov

	EXPORT	|??_H@YAXPAXIHP6APAX0@Z@Z|		; `vector constructor iterator'

  00000			 AREA	 |.pdata|, PDATA
|$T37838| DCD	|$LN9@vector|
	DCD	0x40000e01
; Function compile flags: /Ogspy

  00000			 AREA	 |.text|, CODE, ARM

  00000		 |??_H@YAXPAXIHP6APAX0@Z@Z| PROC	; `vector constructor iterator'
  00000		 |$LN9@vector|
  00000	e92d40f0	 stmdb       sp!, {r4 - r7, lr}
  00004		 |$M37835|
  00004	e1a06003	 mov         r6, r3
  00008	e1a07001	 mov         r7, r1
  0000c	e1a04000	 mov         r4, r0
  00010	e2525001	 subs        r5, r2, #1
  00014	4a000005	 bmi         |$LN1@vector|
  00018		 |$LL2@vector|
  00018	e1a00004	 mov         r0, r4
  0001c	e1a0e00f	 mov         lr, pc
  00020	e12fff16	 bx          r6
  00024	e0844007	 add         r4, r4, r7
  00028	e2555001	 subs        r5, r5, #1
  0002c	5afffff9	 bpl         |$LL2@vector|
  00030		 |$LN1@vector|
  00030	e8bd40f0	 ldmia       sp!, {r4 - r7, lr}
  00034	e12fff1e	 bx          lr
  00038		 |$M37836|

			 ENDP  ; |??_H@YAXPAXIHP6APAX0@Z@Z|, `vector constructor iterator'

	EXPORT	|?getSemantic@Uniform@pvrengine@@QBA?AW4EUniformSemantic@2@XZ| ; pvrengine::Uniform::getSemantic
; File c:\wince600\public\powervr-sdk\ogles2\extras\pvrengine\include\ogles2\uniform.h

  00000			 AREA	 |.pdata|, PDATA
|$T37848| DCD	|$LN5@getSemanti|
	DCD	0x40000200
; Function compile flags: /Ogspy

  00000			 AREA	 |.text|, CODE, ARM

  00000		 |?getSemantic@Uniform@pvrengine@@QBA?AW4EUniformSemantic@2@XZ| PROC ; pvrengine::Uniform::getSemantic

; 53   : 		EUniformSemantic getSemantic() const{return m_eSemantic;}

  00000		 |$LN5@getSemanti|
  00000		 |$M37845|
  00000	e5900004	 ldr         r0, [r0, #4]
  00004	e12fff1e	 bx          lr
  00008		 |$M37846|

			 ENDP  ; |?getSemantic@Uniform@pvrengine@@QBA?AW4EUniformSemantic@2@XZ|, pvrengine::Uniform::getSemantic

	EXPORT	|?getLocation@Uniform@pvrengine@@QBAIXZ| ; pvrengine::Uniform::getLocation

  00000			 AREA	 |.pdata|, PDATA
|$T37858| DCD	|$LN5@getLocatio|
	DCD	0x40000200
; Function compile flags: /Ogspy

  00000			 AREA	 |.text|, CODE, ARM

  00000		 |?getLocation@Uniform@pvrengine@@QBAIXZ| PROC ; pvrengine::Uniform::getLocation

; 60   : 		unsigned int getLocation() const{return m_u32Location;}

  00000		 |$LN5@getLocatio|
  00000		 |$M37855|
  00000	e5900000	 ldr         r0, [r0]
  00004	e12fff1e	 bx          lr
  00008		 |$M37856|

			 ENDP  ; |?getLocation@Uniform@pvrengine@@QBAIXZ|, pvrengine::Uniform::getLocation

	EXPORT	|?getIdx@Uniform@pvrengine@@QBAIXZ|	; pvrengine::Uniform::getIdx

  00000			 AREA	 |.pdata|, PDATA
|$T37868| DCD	|$LN5@getIdx|
	DCD	0x40000200
; Function compile flags: /Ogspy

  00000			 AREA	 |.text|, CODE, ARM

  00000		 |?getIdx@Uniform@pvrengine@@QBAIXZ| PROC ; pvrengine::Uniform::getIdx

; 67   : 		unsigned int getIdx() const	{return m_u32Idx;}

  00000		 |$LN5@getIdx|
  00000		 |$M37865|
  00000	e5900008	 ldr         r0, [r0, #8]
  00004	e12fff1e	 bx          lr
  00008		 |$M37866|

			 ENDP  ; |?getIdx@Uniform@pvrengine@@QBAIXZ|, pvrengine::Uniform::getIdx

	EXPORT	|?getOpacity@Material@pvrengine@@QAAMXZ| ; pvrengine::Material::getOpacity
; File c:\wince600\public\powervr-sdk\ogles2\extras\pvrengine\include\ogles2\material.h

  00000			 AREA	 |.pdata|, PDATA
|$T37878| DCD	|$LN5@getOpacity|
	DCD	0x40000200
; Function compile flags: /Ogspy

  00000			 AREA	 |.text|, CODE, ARM

  00000		 |?getOpacity@Material@pvrengine@@QAAMXZ| PROC ; pvrengine::Material::getOpacity

; 166  : 		VERTTYPE			getOpacity(){return m_fOpacity;}

  00000		 |$LN5@getOpacity|
  00000		 |$M37875|
  00000	e59000dc	 ldr         r0, [r0, #0xDC]
  00004	e12fff1e	 bx          lr
  00008		 |$M37876|

			 ENDP  ; |?getOpacity@Material@pvrengine@@QAAMXZ|, pvrengine::Material::getOpacity

	EXPORT	|?getAmbient@Material@pvrengine@@QAA?AUPVRTVec3@@XZ| ; pvrengine::Material::getAmbient

  00000			 AREA	 |.pdata|, PDATA
|$T37889| DCD	|$LN5@getAmbient|
	DCD	0x40000800
; Function compile flags: /Ogspy

  00000			 AREA	 |.text|, CODE, ARM

  00000		 |?getAmbient@Material@pvrengine@@QAA?AUPVRTVec3@@XZ| PROC ; pvrengine::Material::getAmbient

; 173  : 		PVRTVec3		getAmbient(){return m_vAmbient;}

  00000		 |$LN5@getAmbient|
  00000		 |$M37886|
  00000	e59030e0	 ldr         r3, [r0, #0xE0]
  00004	e59020e4	 ldr         r2, [r0, #0xE4]
  00008	e59000e8	 ldr         r0, [r0, #0xE8]
  0000c	e5813000	 str         r3, [r1]
  00010	e5812004	 str         r2, [r1, #4]
  00014	e5810008	 str         r0, [r1, #8]
  00018	e1a00001	 mov         r0, r1
  0001c	e12fff1e	 bx          lr
  00020		 |$M37887|

			 ENDP  ; |?getAmbient@Material@pvrengine@@QAA?AUPVRTVec3@@XZ|, pvrengine::Material::getAmbient

	EXPORT	|?getDiffuse@Material@pvrengine@@QAA?AUPVRTVec3@@XZ| ; pvrengine::Material::getDiffuse

  00000			 AREA	 |.pdata|, PDATA
|$T37900| DCD	|$LN5@getDiffuse|
	DCD	0x40000800
; Function compile flags: /Ogspy

  00000			 AREA	 |.text|, CODE, ARM

  00000		 |?getDiffuse@Material@pvrengine@@QAA?AUPVRTVec3@@XZ| PROC ; pvrengine::Material::getDiffuse

; 180  : 		PVRTVec3		getDiffuse(){return m_vDiffuse;}

  00000		 |$LN5@getDiffuse|
  00000		 |$M37897|
  00000	e59030ec	 ldr         r3, [r0, #0xEC]
  00004	e59020f0	 ldr         r2, [r0, #0xF0]
  00008	e59000f4	 ldr         r0, [r0, #0xF4]
  0000c	e5813000	 str         r3, [r1]
  00010	e5812004	 str         r2, [r1, #4]
  00014	e5810008	 str         r0, [r1, #8]
  00018	e1a00001	 mov         r0, r1
  0001c	e12fff1e	 bx          lr
  00020		 |$M37898|

			 ENDP  ; |?getDiffuse@Material@pvrengine@@QAA?AUPVRTVec3@@XZ|, pvrengine::Material::getDiffuse

	EXPORT	|?getSpecular@Material@pvrengine@@QAA?AUPVRTVec3@@XZ| ; pvrengine::Material::getSpecular

  00000			 AREA	 |.pdata|, PDATA
|$T37911| DCD	|$LN5@getSpecula|
	DCD	0x40000800
; Function compile flags: /Ogspy

  00000			 AREA	 |.text|, CODE, ARM

  00000		 |?getSpecular@Material@pvrengine@@QAA?AUPVRTVec3@@XZ| PROC ; pvrengine::Material::getSpecular

; 187  : 		PVRTVec3		getSpecular(){return m_vSpecular;}

  00000		 |$LN5@getSpecula|
  00000		 |$M37908|
  00000	e59030f8	 ldr         r3, [r0, #0xF8]
  00004	e59020fc	 ldr         r2, [r0, #0xFC]
  00008	e5900100	 ldr         r0, [r0, #0x100]
  0000c	e5813000	 str         r3, [r1]
  00010	e5812004	 str         r2, [r1, #4]
  00014	e5810008	 str         r0, [r1, #8]
  00018	e1a00001	 mov         r0, r1
  0001c	e12fff1e	 bx          lr
  00020		 |$M37909|

			 ENDP  ; |?getSpecular@Material@pvrengine@@QAA?AUPVRTVec3@@XZ|, pvrengine::Material::getSpecular

	EXPORT	|?getShininess@Material@pvrengine@@QAAMXZ| ; pvrengine::Material::getShininess

  00000			 AREA	 |.pdata|, PDATA
|$T37921| DCD	|$LN5@getShinine|
	DCD	0x40000200
; Function compile flags: /Ogspy

  00000			 AREA	 |.text|, CODE, ARM

  00000		 |?getShininess@Material@pvrengine@@QAAMXZ| PROC ; pvrengine::Material::getShininess

; 194  : 		VERTTYPE			getShininess(){return m_fShininess;}

  00000		 |$LN5@getShinine|
  00000		 |$M37918|
  00000	e5900104	 ldr         r0, [r0, #0x104]
  00004	e12fff1e	 bx          lr
  00008		 |$M37919|

			 ENDP  ; |?getShininess@Material@pvrengine@@QAAMXZ|, pvrengine::Material::getShininess

	EXPORT	|?setFlag@UniformHandler@pvrengine@@AAAXII@Z| ; pvrengine::UniformHandler::setFlag
; File c:\wince600\public\powervr-sdk\ogles2\extras\pvrengine\include\ogles2\uniformhandler.h

  00000			 AREA	 |.pdata|, PDATA
|$T37931| DCD	|$LN5@setFlag|
	DCD	0x40000600
; Function compile flags: /Ogspy

  00000			 AREA	 |.text|, CODE, ARM

  00000		 |?setFlag@UniformHandler@pvrengine@@AAAXII@Z| PROC ; pvrengine::UniformHandler::setFlag

; 255  : 		{

  00000		 |$LN5@setFlag|
  00000		 |$M37928|

; 256  : 			m_pu32FrameUniformFlags[u32Semantic]|=1<<u32Index;

  00000	e0801101	 add         r1, r0, r1, lsl #2
  00004	e5913024	 ldr         r3, [r1, #0x24]
  00008	e3a00001	 mov         r0, #1
  0000c	e1833210	 orr         r3, r3, r0, lsl r2
  00010	e5813024	 str         r3, [r1, #0x24]

; 257  : 		}

  00014	e12fff1e	 bx          lr
  00018		 |$M37929|

			 ENDP  ; |?setFlag@UniformHandler@pvrengine@@AAAXII@Z|, pvrengine::UniformHandler::setFlag

	EXPORT	|?getFlag@UniformHandler@pvrengine@@ABA_NW4EUniformSemantic@2@I@Z| ; pvrengine::UniformHandler::getFlag

  00000			 AREA	 |.pdata|, PDATA
|$T37945| DCD	|$LN7@getFlag|
	DCD	0x40000900
; Function compile flags: /Ogspy

  00000			 AREA	 |.text|, CODE, ARM

  00000		 |?getFlag@UniformHandler@pvrengine@@ABA_NW4EUniformSemantic@2@I@Z| PROC ; pvrengine::UniformHandler::getFlag

; 276  : 		{

  00000		 |$LN7@getFlag|
  00000		 |$M37942|

; 277  : 			return (m_pu32FrameUniformFlags[u32Semantic]&1<<u32Index)!=0;

  00000	e0803101	 add         r3, r0, r1, lsl #2
  00004	e5933024	 ldr         r3, [r3, #0x24]
  00008	e3a01001	 mov         r1, #1
  0000c	e1130211	 tst         r3, r1, lsl r2
  00010	13a03001	 movne       r3, #1
  00014	120300ff	 andne       r0, r3, #0xFF
  00018	03a03000	 moveq       r3, #0
  0001c	020300ff	 andeq       r0, r3, #0xFF

; 278  : 		}

  00020	e12fff1e	 bx          lr
  00024		 |$M37943|

			 ENDP  ; |?getFlag@UniformHandler@pvrengine@@ABA_NW4EUniformSemantic@2@I@Z|, pvrengine::UniformHandler::getFlag

	EXPORT	|?getPositionPVRTVec4@LightPoint@pvrengine@@QAA?AUPVRTVec4@@XZ| ; pvrengine::LightPoint::getPositionPVRTVec4
; File c:\wince600\public\powervr-sdk\ogles2\extras\pvrengine\include\ogles2\light.h

  00000			 AREA	 |.pdata|, PDATA
|$T37956| DCD	|$LN5@getPositio|
	DCD	0x40000c01
; Function compile flags: /Ogspy

  00000			 AREA	 |.text|, CODE, ARM

  00000		 |?getPositionPVRTVec4@LightPoint@pvrengine@@QAA?AUPVRTVec4@@XZ| PROC ; pvrengine::LightPoint::getPositionPVRTVec4

; 118  : 		PVRTVec4 getPositionPVRTVec4(){return m_v4Position;}

  00000		 |$LN5@getPositio|
  00000	e52de004	 str         lr, [sp, #-4]!
  00004		 |$M37953|
  00004	e5903010	 ldr         r3, [r0, #0x10]
  00008	e5902014	 ldr         r2, [r0, #0x14]
  0000c	e590e018	 ldr         lr, [r0, #0x18]
  00010	e590001c	 ldr         r0, [r0, #0x1C]
  00014	e5813000	 str         r3, [r1]
  00018	e5812004	 str         r2, [r1, #4]
  0001c	e581000c	 str         r0, [r1, #0xC]
  00020	e1a00001	 mov         r0, r1
  00024	e581e008	 str         lr, [r1, #8]
  00028	e49de004	 ldr         lr, [sp], #4
  0002c	e12fff1e	 bx          lr
  00030		 |$M37954|

			 ENDP  ; |?getPositionPVRTVec4@LightPoint@pvrengine@@QAA?AUPVRTVec4@@XZ|, pvrengine::LightPoint::getPositionPVRTVec4

	EXPORT	|?getDirectionPVRTVec4@LightDirectional@pvrengine@@QAA?AUPVRTVec4@@XZ| ; pvrengine::LightDirectional::getDirectionPVRTVec4

  00000			 AREA	 |.pdata|, PDATA
|$T37967| DCD	|$LN5@getDirecti|
	DCD	0x40000c01
; Function compile flags: /Ogspy

  00000			 AREA	 |.text|, CODE, ARM

  00000		 |?getDirectionPVRTVec4@LightDirectional@pvrengine@@QAA?AUPVRTVec4@@XZ| PROC ; pvrengine::LightDirectional::getDirectionPVRTVec4

; 188  : 		PVRTVec4 getDirectionPVRTVec4(){return m_v4Direction;}

  00000		 |$LN5@getDirecti|
  00000	e52de004	 str         lr, [sp, #-4]!
  00004		 |$M37964|
  00004	e5903010	 ldr         r3, [r0, #0x10]
  00008	e5902014	 ldr         r2, [r0, #0x14]
  0000c	e590e018	 ldr         lr, [r0, #0x18]
  00010	e590001c	 ldr         r0, [r0, #0x1C]
  00014	e5813000	 str         r3, [r1]
  00018	e5812004	 str         r2, [r1, #4]
  0001c	e581000c	 str         r0, [r1, #0xC]
  00020	e1a00001	 mov         r0, r1
  00024	e581e008	 str         lr, [r1, #8]
  00028	e49de004	 ldr         lr, [sp], #4
  0002c	e12fff1e	 bx          lr
  00030		 |$M37965|

			 ENDP  ; |?getDirectionPVRTVec4@LightDirectional@pvrengine@@QAA?AUPVRTVec4@@XZ|, pvrengine::LightDirectional::getDirectionPVRTVec4

	EXPORT	|?ResetFrameUniforms@UniformHandler@pvrengine@@QAAXXZ| ; pvrengine::UniformHandler::ResetFrameUniforms
	IMPORT	|memset|
; File c:\wince600\public\powervr-sdk\ogles2\extras\pvrengine\ogles2\uniformhandler.cpp

  00000			 AREA	 |.pdata|, PDATA
|$T37976| DCD	|$LN5@ResetFrame|
	DCD	0x40000701
; Function compile flags: /Ogspy

  00000			 AREA	 |.text|, CODE, ARM

  00000		 |?ResetFrameUniforms@UniformHandler@pvrengine@@QAAXXZ| PROC ; pvrengine::UniformHandler::ResetFrameUniforms

; 37   : 	{

  00000		 |$LN5@ResetFrame|
  00000	e52de004	 str         lr, [sp, #-4]!
  00004		 |$M37973|

; 38   : 		memset(m_pu32FrameUniformFlags,0,eNumSemantics*sizeof(unsigned int));

  00004	e3a02c01	 mov         r2, #1, 24
  00008	e3a01000	 mov         r1, #0
  0000c	e2800024	 add         r0, r0, #0x24
  00010	eb000000	 bl          memset

; 39   : 	}

  00014	e49de004	 ldr         lr, [sp], #4
  00018	e12fff1e	 bx          lr
  0001c		 |$M37974|

			 ENDP  ; |?ResetFrameUniforms@UniformHandler@pvrengine@@QAAXXZ|, pvrengine::UniformHandler::ResetFrameUniforms

	EXPORT	|??A?$dynamicArray@PAVLight@pvrengine@@@@QBAABQAVLight@pvrengine@@H@Z| ; dynamicArray<pvrengine::Light *>::operator[]
; File c:\wince600\public\powervr-sdk\ogles2\extras\pvrengine\include\dynamicarray.h

  00000			 AREA	 |.pdata|, PDATA
|$T37987| DCD	|$LN5@operator@5|
	DCD	0x40000300
; Function compile flags: /Ogspy

  00000			 AREA	 |.text|, CODE, ARM

  00000		 |??A?$dynamicArray@PAVLight@pvrengine@@@@QBAABQAVLight@pvrengine@@H@Z| PROC ; dynamicArray<pvrengine::Light *>::operator[]

; 229  : 	{

  00000		 |$LN5@operator@5|
  00000		 |$M37984|

; 230  : 		_ASSERT(i32Index<m_i32Capacity);
; 231  : 		return m_pArray[i32Index];

  00000	e5903008	 ldr         r3, [r0, #8]
  00004	e0830101	 add         r0, r3, r1, lsl #2

; 232  : 	}

  00008	e12fff1e	 bx          lr
  0000c		 |$M37985|

			 ENDP  ; |??A?$dynamicArray@PAVLight@pvrengine@@@@QBAABQAVLight@pvrengine@@H@Z|, dynamicArray<pvrengine::Light *>::operator[]

	EXPORT	|??G@YA?AUPVRTVec3@@ABU0@@Z|		; operator-
; File c:\wince600\public\powervr-sdk\ogles2\tools\pvrtvector.h

  00000			 AREA	 |.pdata|, PDATA
|$T38000| DCD	|$LN5@operator@6|
	DCD	0x40001902
; Function compile flags: /Ogspy

  00000			 AREA	 |.text|, CODE, ARM

  00000		 |??G@YA?AUPVRTVec3@@ABU0@@Z| PROC	; operator-

; 432  : 	friend PVRTVec3 operator - (const PVRTVec3& rhs) { return PVRTVec3(rhs) *= f2vt(-1); }

  00000		 |$LN5@operator@6|
  00000	e92d4010	 stmdb       sp!, {r4, lr}
  00004	e24dd010	 sub         sp, sp, #0x10
  00008		 |$M37997|
  00008	e1a04000	 mov         r4, r0
  0000c	e5912000	 ldr         r2, [r1]
  00010	e591e004	 ldr         lr, [r1, #4]
  00014	e5911008	 ldr         r1, [r1, #8]
  00018	e3e03080	 mvn         r3, #0x80
  0001c	e1a03b83	 mov         r3, r3, lsl #23
  00020	e58d100c	 str         r1, [sp, #0xC]
  00024	e28d1000	 add         r1, sp, #0
  00028	e28d0004	 add         r0, sp, #4
  0002c	e58d3000	 str         r3, [sp]
  00030	e58d2004	 str         r2, [sp, #4]
  00034	e58de008	 str         lr, [sp, #8]
  00038	eb000000	 bl          |??XPVRTVec3@@QAAAAU0@ABM@Z|
  0003c	e5903000	 ldr         r3, [r0]
  00040	e5902004	 ldr         r2, [r0, #4]
  00044	e5901008	 ldr         r1, [r0, #8]
  00048	e5843000	 str         r3, [r4]
  0004c	e5842004	 str         r2, [r4, #4]
  00050	e5841008	 str         r1, [r4, #8]
  00054	e1a00004	 mov         r0, r4
  00058	e28dd010	 add         sp, sp, #0x10
  0005c	e8bd4010	 ldmia       sp!, {r4, lr}
  00060	e12fff1e	 bx          lr
  00064		 |$M37998|

			 ENDP  ; |??G@YA?AUPVRTVec3@@ABU0@@Z|, operator-

	EXPORT	|?PerspectiveFovRH@PVRTMat4@@SA?AU1@MMMMW4eClipspace@1@_N@Z| ; PVRTMat4::PerspectiveFovRH

  00000			 AREA	 |.pdata|, PDATA
|$T38013| DCD	|$LN5@Perspectiv@3|
	DCD	0x40001002
; Function compile flags: /Ogspy

  00000			 AREA	 |.text|, CODE, ARM

  00000		 |?PerspectiveFovRH@PVRTMat4@@SA?AU1@MMMMW4eClipspace@1@_N@Z| PROC ; PVRTMat4::PerspectiveFovRH

; 1989 : 		{ return PerspectiveFov(fovy, aspect, nearPlane, farPlane, cs, true, bRotate); }

  00000		 |$LN5@Perspectiv@3|
  00000	e92d40f0	 stmdb       sp!, {r4 - r7, lr}
  00004	e24dd010	 sub         sp, sp, #0x10
  00008		 |$M38010|
  00008	e1a06000	 mov         r6, r0
  0000c	e5dde02c	 ldrb        lr, [sp, #0x2C]
  00010	e59d4028	 ldr         r4, [sp, #0x28]
  00014	e59d5024	 ldr         r5, [sp, #0x24]
  00018	e3a07001	 mov         r7, #1
  0001c	e58de00c	 str         lr, [sp, #0xC]
  00020	e58d4004	 str         r4, [sp, #4]
  00024	e58d5000	 str         r5, [sp]
  00028	e58d7008	 str         r7, [sp, #8]
  0002c	eb000000	 bl          |?PerspectiveFov@PVRTMat4@@SA?AU1@MMMMW4eClipspace@1@_N1@Z|
  00030	e1a00006	 mov         r0, r6
  00034	e28dd010	 add         sp, sp, #0x10
  00038	e8bd40f0	 ldmia       sp!, {r4 - r7, lr}
  0003c	e12fff1e	 bx          lr
  00040		 |$M38011|

			 ENDP  ; |?PerspectiveFovRH@PVRTMat4@@SA?AU1@MMMMW4eClipspace@1@_N@Z|, PVRTMat4::PerspectiveFovRH

	EXPORT	|?LookAt@PVRTMat4@@SA?AU1@ABUPVRTVec3@@00_N@Z| ; PVRTMat4::LookAt

  00000			 AREA	 |.pdata|, PDATA
|$T38061| DCD	|$LN18@LookAt|
	DCD	0x40004f02
; Function compile flags: /Ogspy

  00000			 AREA	 |.text|, CODE, ARM

  00000		 |?LookAt@PVRTMat4@@SA?AU1@ABUPVRTVec3@@00_N@Z| PROC ; PVRTMat4::LookAt

; 2042 : 	{

  00000		 |$LN18@LookAt|
  00000	e92d4ff0	 stmdb       sp!, {r4 - r11, lr}
  00004	e24dd024	 sub         sp, sp, #0x24
  00008		 |$M38058|
  00008	e1a05003	 mov         r5, r3
  0000c	e1a04002	 mov         r4, r2
  00010	e1a09001	 mov         r9, r1
  00014	e1a0a000	 mov         r10, r0

; 2043 : 		PVRTVec3 vForward, vUpNorm, vSide;
; 2044 : 		PVRTMat4 result;
; 2045 : 
; 2046 : 		vForward = (bRightHanded) ? vEye - vAt : vAt - vEye;

  00018	e5dde048	 ldrb        lr, [sp, #0x48]
  0001c	e28d100c	 add         r1, sp, #0xC
  00020	e35e0000	 cmp         lr, #0
  00024	11a00009	 movne       r0, r9
  00028	01a00004	 moveq       r0, r4
  0002c	01a02009	 moveq       r2, r9
  00030	eb000000	 bl          |??GPVRTVec3@@QBA?AU0@ABU0@@Z|
  00034	e5901008	 ldr         r1, [r0, #8]
  00038	e5903000	 ldr         r3, [r0]
  0003c	e5902004	 ldr         r2, [r0, #4]
  00040	e58d1008	 str         r1, [sp, #8]

; 2047 : 
; 2048 : 		vForward.normalize();

  00044	e28d100c	 add         r1, sp, #0xC
  00048	e28d0000	 add         r0, sp, #0
  0004c	e58d3000	 str         r3, [sp]
  00050	e58d2004	 str         r2, [sp, #4]
  00054	eb000000	 bl          |?normalize@PVRTVec3@@QAA?AU1@XZ|

; 2049 : 		vUpNorm = vUp.normalized();

  00058	e28d100c	 add         r1, sp, #0xC
  0005c	e1a00005	 mov         r0, r5
  00060	eb000000	 bl          |?normalized@PVRTVec3@@QBA?AU1@XZ|
  00064	e5902004	 ldr         r2, [r0, #4]
  00068	e5901008	 ldr         r1, [r0, #8]
  0006c	e5903000	 ldr         r3, [r0]
  00070	e58d2010	 str         r2, [sp, #0x10]
  00074	e58d1014	 str         r1, [sp, #0x14]

; 2050 : 		vSide   = vUpNorm.cross( vForward);

  00078	e28d2000	 add         r2, sp, #0
  0007c	e28d1018	 add         r1, sp, #0x18
  00080	e28d000c	 add         r0, sp, #0xC
  00084	e58d300c	 str         r3, [sp, #0xC]
  00088	eb000000	 bl          |?cross@PVRTVec3@@QAA?AU1@ABU1@@Z|
  0008c	e5906000	 ldr         r6, [r0]
  00090	e5907004	 ldr         r7, [r0, #4]
  00094	e5908008	 ldr         r8, [r0, #8]

; 2051 : 		vUpNorm = vForward.cross(vSide);

  00098	e28d200c	 add         r2, sp, #0xC
  0009c	e28d1018	 add         r1, sp, #0x18
  000a0	e28d0000	 add         r0, sp, #0
  000a4	e58d600c	 str         r6, [sp, #0xC]
  000a8	e58d7010	 str         r7, [sp, #0x10]
  000ac	e58d8014	 str         r8, [sp, #0x14]
  000b0	eb000000	 bl          |?cross@PVRTVec3@@QAA?AU1@ABU1@@Z|
  000b4	e5903000	 ldr         r3, [r0]

; 2052 : 
; 2053 : 		result.f[0]=vSide.x;	result.f[4]=vSide.y;	result.f[8]=vSide.z;		result.f[12]=0;
; 2054 : 		result.f[1]=vUpNorm.x;	result.f[5]=vUpNorm.y;	result.f[9]=vUpNorm.z;		result.f[13]=0;
; 2055 : 		result.f[2]=vForward.x; result.f[6]=vForward.y;	result.f[10]=vForward.z;	result.f[14]=0;

  000b8	e59de000	 ldr         lr, [sp]
  000bc	e5901008	 ldr         r1, [r0, #8]
  000c0	e59d5008	 ldr         r5, [sp, #8]
  000c4	e5902004	 ldr         r2, [r0, #4]
  000c8	e59d4004	 ldr         r4, [sp, #4]

; 2056 : 		result.f[3]=0;			result.f[7]=0;			result.f[11]=0;				result.f[15]=f2vt(1);

  000cc	e3a0b000	 mov         r11, #0
  000d0	e28ac004	 add         r12, r10, #4
  000d4	e88c4008	 stmia       r12, {r3, lr}

; 2057 : 
; 2058 : 		// TODO
; 2059 : 		result.postTranslate(-vEye);

  000d8	e3a035fe	 mov         r3, #0xFE, 10
  000dc	e28d0018	 add         r0, sp, #0x18
  000e0	e28ac024	 add         r12, r10, #0x24
  000e4	e88c0822	 stmia       r12, {r1, r5, r11}
  000e8	e1a01009	 mov         r1, r9
  000ec	e58a303c	 str         r3, [r10, #0x3C]
  000f0	e28ac014	 add         r12, r10, #0x14
  000f4	e88c0814	 stmia       r12, {r2, r4, r11}
  000f8	e58a6000	 str         r6, [r10]
  000fc	e58a7010	 str         r7, [r10, #0x10]
  00100	e58a8020	 str         r8, [r10, #0x20]
  00104	e58ab030	 str         r11, [r10, #0x30]
  00108	e58ab034	 str         r11, [r10, #0x34]
  0010c	e58ab038	 str         r11, [r10, #0x38]
  00110	e58ab00c	 str         r11, [r10, #0xC]
  00114	eb000000	 bl          |??G@YA?AUPVRTVec3@@ABU0@@Z|
  00118	e5903008	 ldr         r3, [r0, #8]
  0011c	e5902004	 ldr         r2, [r0, #4]
  00120	e5901000	 ldr         r1, [r0]
  00124	e1a0000a	 mov         r0, r10
  00128	eb000000	 bl          |?postTranslate@PVRTMat4@@QAAAAU1@MMM@Z|

; 2060 : 		return result;
; 2061 : 	}

  0012c	e1a0000a	 mov         r0, r10
  00130	e28dd024	 add         sp, sp, #0x24
  00134	e8bd4ff0	 ldmia       sp!, {r4 - r11, lr}
  00138	e12fff1e	 bx          lr
  0013c		 |$M38059|

			 ENDP  ; |?LookAt@PVRTMat4@@SA?AU1@ABUPVRTVec3@@00_N@Z|, PVRTMat4::LookAt

	EXPORT	|?getLight@LightManager@pvrengine@@QBAPAVLight@2@I@Z| ; pvrengine::LightManager::getLight
; File c:\wince600\public\powervr-sdk\ogles2\extras\pvrengine\include\dynamicarray.h

  00000			 AREA	 |.pdata|, PDATA
|$T38075| DCD	|$LN7@getLight|
	DCD	0x40000300
; Function compile flags: /Ogspy
; File c:\wince600\public\powervr-sdk\ogles2\extras\pvrengine\include\lightmanager.h

  00000			 AREA	 |.text|, CODE, ARM

  00000		 |?getLight@LightManager@pvrengine@@QBAPAVLight@2@I@Z| PROC ; pvrengine::LightManager::getLight

; 74   : 		{

  00000		 |$LN7@getLight|
  00000		 |$M38072|

; 75   : 			return m_daLights[u32Light];

  00000	e590300c	 ldr         r3, [r0, #0xC]
  00004	e7930101	 ldr         r0, [r3, +r1, lsl #2]

; 76   : 		}

  00008	e12fff1e	 bx          lr
  0000c		 |$M38073|

			 ENDP  ; |?getLight@LightManager@pvrengine@@QBAPAVLight@2@I@Z|, pvrengine::LightManager::getLight

	EXPORT	|?setProjection@UniformHandler@pvrengine@@QAAXMMMM_N@Z| ; pvrengine::UniformHandler::setProjection
; File c:\wince600\public\powervr-sdk\ogles2\tools\pvrtvector.h

  00000			 AREA	 |.pdata|, PDATA
|$T38106| DCD	|$LN16@setProject|
	DCD	0x40001e02
; Function compile flags: /Ogspy
; File c:\wince600\public\powervr-sdk\ogles2\extras\pvrengine\ogles2\uniformhandler.cpp

  00000			 AREA	 |.text|, CODE, ARM

  00000		 |?setProjection@UniformHandler@pvrengine@@QAAXMMMM_N@Z| PROC ; pvrengine::UniformHandler::setProjection

; 56   : 	{

  00000		 |$LN16@setProject|
  00000	e92d47f0	 stmdb       sp!, {r4 - r10, lr}
  00004	e24dd050	 sub         sp, sp, #0x50
  00008		 |$M38103|
  00008	e1a07003	 mov         r7, r3
  0000c	e1a06002	 mov         r6, r2
  00010	e1a05001	 mov         r5, r1
  00014	e1a08000	 mov         r8, r0

; 57   : 		m_fFOV = fFOV;
; 58   : 		m_fAspectRatio = fAspectRatio;
; 59   : 		m_fNear = fNear;
; 60   : 		m_fFar = fFar;

  00018	e59d4070	 ldr         r4, [sp, #0x70]

; 61   : 		m_bRotate = bRotate;

  0001c	e5dde074	 ldrb        lr, [sp, #0x74]

; 62   : 		m_mProjection = PVRTMat4::PerspectiveFovRH(fFOV,
; 63   : 				fAspectRatio,
; 64   : 				fNear,
; 65   : 				fFar,
; 66   : 				PVRTMat4::OGL,
; 67   : 				bRotate);

  00020	e3a09001	 mov         r9, #1
  00024	e3a0a000	 mov         r10, #0
  00028	e28d0010	 add         r0, sp, #0x10
  0002c	e288c008	 add         r12, r8, #8
  00030	e88c0070	 stmia       r12, {r4 - r6}
  00034	e5c8e014	 strb        lr, [r8, #0x14]
  00038	e58de00c	 str         lr, [sp, #0xC]
  0003c	e58d4000	 str         r4, [sp]
  00040	e5887004	 str         r7, [r8, #4]
  00044	e58d9008	 str         r9, [sp, #8]
  00048	e58da004	 str         r10, [sp, #4]
  0004c	eb000000	 bl          |?PerspectiveFov@PVRTMat4@@SA?AU1@MMMMW4eClipspace@1@_N1@Z|
  00050	e2882f72	 add         r2, r8, #0x72, 30
  00054	e2820040	 add         r0, r2, #0x40
  00058	e28d1010	 add         r1, sp, #0x10
  0005c		 |$LN12@setProject|
  0005c	e4913004	 ldr         r3, [r1], #4
  00060	e4823004	 str         r3, [r2], #4
  00064	e1520000	 cmp         r2, r0
  00068	1afffffb	 bne         |$LN12@setProject|

; 68   : 	}

  0006c	e28dd050	 add         sp, sp, #0x50
  00070	e8bd47f0	 ldmia       sp!, {r4 - r10, lr}
  00074	e12fff1e	 bx          lr
  00078		 |$M38104|

			 ENDP  ; |?setProjection@UniformHandler@pvrengine@@QAAXMMMM_N@Z|, pvrengine::UniformHandler::setProjection

	EXPORT	|??__Fobject@?1??inst@?$CPVRTSingleton@VConsoleLog@pvrengine@@@@SAAAVConsoleLog@pvrengine@@XZ@YAXXZ| ; `CPVRTSingleton<pvrengine::ConsoleLog>::inst'::`2'::`dynamic atexit destructor for 'object''
	EXPORT	|??_B?1??inst@?$CPVRTSingleton@VConsoleLog@pvrengine@@@@SAAAVConsoleLog@pvrengine@@XZ@51| [ DATA ] ; `CPVRTSingleton<pvrengine::ConsoleLog>::inst'::`2'::`local static guard'
	EXPORT	|?inst@?$CPVRTSingleton@VConsoleLog@pvrengine@@@@SAAAVConsoleLog@pvrengine@@XZ| ; CPVRTSingleton<pvrengine::ConsoleLog>::inst
	EXPORT	|?object@?1??inst@?$CPVRTSingleton@VConsoleLog@pvrengine@@@@SAAAVConsoleLog@pvrengine@@XZ@4V34@A| [ DATA ] ; `CPVRTSingleton<pvrengine::ConsoleLog>::inst'::`2'::object
	IMPORT	|atexit|
	IMPORT	|??0ConsoleLog@pvrengine@@QAA@XZ|	; pvrengine::ConsoleLog::ConsoleLog
; File c:\wince600\public\powervr-sdk\ogles2\tools\pvrtsingleton.h

  00000			 AREA	 |.bss|, NOINIT
|??_B?1??inst@?$CPVRTSingleton@VConsoleLog@pvrengine@@@@SAAAVConsoleLog@pvrengine@@XZ@51| % 0x4 ; `CPVRTSingleton<pvrengine::ConsoleLog>::inst'::`2'::`local static guard'

  00000			 AREA	 |.bss|, NOINIT
|?object@?1??inst@?$CPVRTSingleton@VConsoleLog@pvrengine@@@@SAAAVConsoleLog@pvrengine@@XZ@4V34@A| % 0x28 ; `CPVRTSingleton<pvrengine::ConsoleLog>::inst'::`2'::object

  00000			 AREA	 |.pdata|, PDATA
|$T38115| DCD	|$LN6@inst|
	DCD	0x40001101
; Function compile flags: /Ogspy

  00000			 AREA	 |.text|, CODE, ARM

  00000		 |?inst@?$CPVRTSingleton@VConsoleLog@pvrengine@@@@SAAAVConsoleLog@pvrengine@@XZ| PROC ; CPVRTSingleton<pvrengine::ConsoleLog>::inst

; 26   : 	{

  00000		 |$LN6@inst|
  00000	e52de004	 str         lr, [sp, #-4]!
  00004		 |$M38112|

; 27   : 		static T object;

  00004	e59f2034	 ldr         r2, [pc, #0x34]
  00008	e5923000	 ldr         r3, [r2]
  0000c	e3130001	 tst         r3, #1
  00010	1a000005	 bne         |$LN1@inst|
  00014	e59f001c	 ldr         r0, [pc, #0x1C]
  00018	e3833001	 orr         r3, r3, #1
  0001c	e5823000	 str         r3, [r2]
  00020	eb000000	 bl          |??0ConsoleLog@pvrengine@@QAA@XZ|
  00024	e59f0010	 ldr         r0, [pc, #0x10]
  00028	eb000000	 bl          atexit
  0002c		 |$LN1@inst|

; 28   : 		return object;
; 29   : 	}

  0002c	e59f0004	 ldr         r0, [pc, #4]
  00030	e49de004	 ldr         lr, [sp], #4
  00034	e12fff1e	 bx          lr
  00038		 |$LN7@inst|
  00038		 |$LN8@inst|
  00038	00000000	 DCD         |?object@?1??inst@?$CPVRTSingleton@VConsoleLog@pvrengine@@@@SAAAVConsoleLog@pvrengine@@XZ@4V34@A|
  0003c		 |$LN9@inst|
  0003c	00000000	 DCD         |??__Fobject@?1??inst@?$CPVRTSingleton@VConsoleLog@pvrengine@@@@SAAAVConsoleLog@pvrengine@@XZ@YAXXZ|
  00040		 |$LN10@inst|
  00040	00000000	 DCD         |??_B?1??inst@?$CPVRTSingleton@VConsoleLog@pvrengine@@@@SAAAVConsoleLog@pvrengine@@XZ@51|
  00044		 |$M38113|

			 ENDP  ; |?inst@?$CPVRTSingleton@VConsoleLog@pvrengine@@@@SAAAVConsoleLog@pvrengine@@XZ|, CPVRTSingleton<pvrengine::ConsoleLog>::inst

	EXPORT	|?LookAtRH@PVRTMat4@@SA?AU1@ABUPVRTVec3@@00@Z| ; PVRTMat4::LookAtRH
; File c:\wince600\public\powervr-sdk\ogles2\tools\pvrtvector.h

  00000			 AREA	 |.pdata|, PDATA
|$T38132| DCD	|$LN5@LookAtRH|
	DCD	0x40000b02
; Function compile flags: /Ogspy

  00000			 AREA	 |.text|, CODE, ARM

  00000		 |?LookAtRH@PVRTMat4@@SA?AU1@ABUPVRTVec3@@00@Z| PROC ; PVRTMat4::LookAtRH

; 1904 : 		{ return LookAt(vEye, vAt, vUp, true); }

  00000		 |$LN5@LookAtRH|
  00000	e92d4010	 stmdb       sp!, {r4, lr}
  00004	e24dd004	 sub         sp, sp, #4
  00008		 |$M38129|
  00008	e1a04000	 mov         r4, r0
  0000c	e3a00001	 mov         r0, #1
  00010	e58d0000	 str         r0, [sp]
  00014	e1a00004	 mov         r0, r4
  00018	eb000000	 bl          |?LookAt@PVRTMat4@@SA?AU1@ABUPVRTVec3@@00_N@Z|
  0001c	e1a00004	 mov         r0, r4
  00020	e28dd004	 add         sp, sp, #4
  00024	e8bd4010	 ldmia       sp!, {r4, lr}
  00028	e12fff1e	 bx          lr
  0002c		 |$M38130|

			 ENDP  ; |?LookAtRH@PVRTMat4@@SA?AU1@ABUPVRTVec3@@00@Z|, PVRTMat4::LookAtRH

	EXPORT	|?setView@UniformHandler@pvrengine@@QAAXABUPVRTVec3@@00@Z| ; pvrengine::UniformHandler::setView
	IMPORT	|??DPVRTMat4@@QBA?AU0@ABU0@@Z|		; PVRTMat4::operator*

  00000			 AREA	 |.pdata|, PDATA
|$T38175| DCD	|$LN23@setView|
	DCD	0x40001c02
; Function compile flags: /Ogspy
; File c:\wince600\public\powervr-sdk\ogles2\extras\pvrengine\ogles2\uniformhandler.cpp

  00000			 AREA	 |.text|, CODE, ARM

  00000		 |?setView@UniformHandler@pvrengine@@QAAXABUPVRTVec3@@00@Z| PROC ; pvrengine::UniformHandler::setView

; 44   : 	{

  00000		 |$LN23@setView|
  00000	e92d4010	 stmdb       sp!, {r4, lr}
  00004	e24dd084	 sub         sp, sp, #0x84
  00008		 |$M38172|
  00008	e1a04000	 mov         r4, r0

; 45   : 		m_mView = PVRTMat4::LookAtRH(vFrom, vTo, vUp);

  0000c	e3a00001	 mov         r0, #1
  00010	e58d0000	 str         r0, [sp]
  00014	e28d0004	 add         r0, sp, #4
  00018	eb000000	 bl          |?LookAt@PVRTMat4@@SA?AU1@ABUPVRTVec3@@00_N@Z|
  0001c	e2842f49	 add         r2, r4, #0x49, 30
  00020	e1a01002	 mov         r1, r2
  00024	e2820040	 add         r0, r2, #0x40
  00028	e28de004	 add         lr, sp, #4
  0002c		 |$LN19@setView|
  0002c	e49e3004	 ldr         r3, [lr], #4
  00030	e4813004	 str         r3, [r1], #4
  00034	e1510000	 cmp         r1, r0
  00038	1afffffb	 bne         |$LN19@setView|

; 46   : 		m_mViewProjection = m_mProjection *m_mView;

  0003c	e28d1044	 add         r1, sp, #0x44
  00040	e2840f72	 add         r0, r4, #0x72, 30
  00044	eb000000	 bl          |??DPVRTMat4@@QBA?AU0@ABU0@@Z|
  00048	e2842f9b	 add         r2, r4, #0x9B, 30
  0004c	e0400002	 sub         r0, r0, r2
  00050	e3a01010	 mov         r1, #0x10
  00054		 |$LL12@setView|
  00054	e7903002	 ldr         r3, [r0, +r2]
  00058	e2511001	 subs        r1, r1, #1
  0005c	e4823004	 str         r3, [r2], #4
  00060	1afffffb	 bne         |$LL12@setView|

; 47   : 	}

  00064	e28dd084	 add         sp, sp, #0x84
  00068	e8bd4010	 ldmia       sp!, {r4, lr}
  0006c	e12fff1e	 bx          lr
  00070		 |$M38173|

			 ENDP  ; |?setView@UniformHandler@pvrengine@@QAAXABUPVRTVec3@@00@Z|, pvrengine::UniformHandler::setView

	EXPORT	|?CalculateMeshUniform@UniformHandler@pvrengine@@QAAXABVUniform@2@PAUSPODMesh@@PAUSPODNode@@@Z| ; pvrengine::UniformHandler::CalculateMeshUniform
	EXPORT	|??_C@_0DL@EJMJFGBC@Error?3?5non?9mesh?5uniform?5being?5in@| [ DATA ] ; `string'
	IMPORT	|?log@ConsoleLog@pvrengine@@QAAXPBDZZ|	; pvrengine::ConsoleLog::log
	IMPORT	|?GetTranslationMatrix@CPVRTModelPOD@@QBA?AUPVRTMat4@@ABUSPODNode@@@Z| ; CPVRTModelPOD::GetTranslationMatrix
	IMPORT	|?GetRotationMatrix@CPVRTModelPOD@@QBA?AUPVRTMat4@@ABUSPODNode@@@Z| ; CPVRTModelPOD::GetRotationMatrix
	IMPORT	|?GetScalingMatrix@CPVRTModelPOD@@QBA?AUPVRTMat4@@ABUSPODNode@@@Z| ; CPVRTModelPOD::GetScalingMatrix
	IMPORT	|??DPVRTVec4@@QBA?AU0@ABUPVRTMat4@@@Z|	; PVRTVec4::operator*
	IMPORT	|??0PVRTMat3@@QAA@ABUPVRTMat4@@@Z|	; PVRTMat3::PVRTMat3
	IMPORT	|?inverse@PVRTMat4@@QBA?AU1@XZ|		; PVRTMat4::inverse
	IMPORT	|__imp_glUniform3f|
	IMPORT	|__imp_glUniformMatrix3fv|
	IMPORT	|__imp_glUniformMatrix4fv|
	IMPORT	|__imp_glVertexAttribPointer|
	IMPORT	|__imp_glEnableVertexAttribArray|
	IMPORT	|memcpy|
; File c:\wince600\public\powervr-sdk\ogles2\extras\pvrengine\include\ogles2\uniform.h

  00000			 AREA	 |.pdata|, PDATA
|$T38633| DCD	|$LN270@CalculateM|
	DCD	0x40028803

  00000			 AREA	 |.rdata|, DATA, READONLY
|??_C@_0DL@EJMJFGBC@Error?3?5non?9mesh?5uniform?5being?5in@| DCB "Error: "
	DCB	"non-mesh uniform being interpreted as mesh uniform", 0xa
	DCB	0x0					; `string'
; Function compile flags: /Ogspy
; File c:\wince600\public\powervr-sdk\ogles2\extras\pvrengine\ogles2\uniformhandler.cpp

  00000			 AREA	 |.text|, CODE, ARM

  00000		 |?CalculateMeshUniform@UniformHandler@pvrengine@@QAAXABVUniform@2@PAUSPODMesh@@PAUSPODNode@@@Z| PROC ; pvrengine::UniformHandler::CalculateMeshUniform

; 73   : 	{

  00000		 |$LN270@CalculateM|
  00000	e92d43f0	 stmdb       sp!, {r4 - r9, lr}
  00004	e59fca10	 ldr         r12, [pc, #0xA10]
  00008	e08dd00c	 add         sp, sp, r12
  0000c		 |$M38630|
  0000c	e1a05003	 mov         r5, r3
  00010	e1a09001	 mov         r9, r1
  00014	e1a08000	 mov         r8, r0

; 74   : 		switch(sUniform.getSemantic())

  00018	e599e004	 ldr         lr, [r9, #4]
  0001c	e24e3001	 sub         r3, lr, #1
  00020	e353002c	 cmp         r3, #0x2C
  00024	8a00026d	 bhi         |$LN1@CalculateM|
  00028	e1a0e083	 mov         lr, r3, lsl #1
  0002c	e08ee00f	 add         lr, lr, pc
  00030	e1dee0b4	 ldrh        lr, [lr, #4]
  00034	e08ff00e	 add         pc, pc, lr
  00038		 |$LN222@CalculateM|
  00038		 |$LN221@CalculateM|
  00038		 |$LN223@CalculateM|
  00038	0058		 DCW         0x58
  0003a		 |$LN224@CalculateM|
  0003a	00a4		 DCW         0xa4
  0003c		 |$LN225@CalculateM|
  0003c	00f0		 DCW         0xf0
  0003e		 |$LN226@CalculateM|
  0003e	013c		 DCW         0x13c
  00040		 |$LN227@CalculateM|
  00040	0188		 DCW         0x188
  00042		 |$LN228@CalculateM|
  00042	01d8		 DCW         0x1d8
  00044		 |$LN229@CalculateM|
  00044	0224		 DCW         0x224
  00046		 |$LN230@CalculateM|
  00046	0270		 DCW         0x270
  00048		 |$LN231@CalculateM|
  00048	0294		 DCW         0x294
  0004a		 |$LN232@CalculateM|
  0004a	02ec		 DCW         0x2ec
  0004c		 |$LN233@CalculateM|
  0004c	09a4		 DCW         0x9a4
  0004e		 |$LN234@CalculateM|
  0004e	09a4		 DCW         0x9a4
  00050		 |$LN235@CalculateM|
  00050	09a4		 DCW         0x9a4
  00052		 |$LN236@CalculateM|
  00052	09a4		 DCW         0x9a4
  00054		 |$LN237@CalculateM|
  00054	09a4		 DCW         0x9a4
  00056		 |$LN238@CalculateM|
  00056	09a4		 DCW         0x9a4
  00058		 |$LN239@CalculateM|
  00058	0348		 DCW         0x348
  0005a		 |$LN240@CalculateM|
  0005a	036c		 DCW         0x36c
  0005c		 |$LN241@CalculateM|
  0005c	03bc		 DCW         0x3bc
  0005e		 |$LN242@CalculateM|
  0005e	0418		 DCW         0x418
  00060		 |$LN243@CalculateM|
  00060	043c		 DCW         0x43c
  00062		 |$LN244@CalculateM|
  00062	0478		 DCW         0x478
  00064		 |$LN245@CalculateM|
  00064	09a4		 DCW         0x9a4
  00066		 |$LN246@CalculateM|
  00066	09a4		 DCW         0x9a4
  00068		 |$LN247@CalculateM|
  00068	09a4		 DCW         0x9a4
  0006a		 |$LN248@CalculateM|
  0006a	053c		 DCW         0x53c
  0006c		 |$LN249@CalculateM|
  0006c	0600		 DCW         0x600
  0006e		 |$LN250@CalculateM|
  0006e	0724		 DCW         0x724
  00070		 |$LN251@CalculateM|
  00070	09a4		 DCW         0x9a4
  00072		 |$LN252@CalculateM|
  00072	09a4		 DCW         0x9a4
  00074		 |$LN253@CalculateM|
  00074	09a4		 DCW         0x9a4
  00076		 |$LN254@CalculateM|
  00076	09a4		 DCW         0x9a4
  00078		 |$LN255@CalculateM|
  00078	09a4		 DCW         0x9a4
  0007a		 |$LN256@CalculateM|
  0007a	09a4		 DCW         0x9a4
  0007c		 |$LN257@CalculateM|
  0007c	09a4		 DCW         0x9a4
  0007e		 |$LN258@CalculateM|
  0007e	09a4		 DCW         0x9a4
  00080		 |$LN259@CalculateM|
  00080	09a4		 DCW         0x9a4
  00082		 |$LN260@CalculateM|
  00082	09a4		 DCW         0x9a4
  00084		 |$LN261@CalculateM|
  00084	04d8		 DCW         0x4d8
  00086		 |$LN262@CalculateM|
  00086	09a4		 DCW         0x9a4
  00088		 |$LN263@CalculateM|
  00088	09a4		 DCW         0x9a4
  0008a		 |$LN264@CalculateM|
  0008a	08e8		 DCW         0x8e8
  0008c		 |$LN265@CalculateM|
  0008c	09a4		 DCW         0x9a4
  0008e		 |$LN266@CalculateM|
  0008e	09a4		 DCW         0x9a4
  00090		 |$LN267@CalculateM|
  00090	09b0		 DCW         0x9b0
  00092		 |$LN280@CalculateM|

; 259  : 				return;
; 260  : 			}
; 261  : 		}
; 262  : 	}

  00092	09b0		 DCW         0x9b0
  00094		 |$LN26@CalculateM|

; 75   : 		{
; 76   : 		case eUsPosition:
; 77   : 			{
; 78   : 				glVertexAttribPointer(sUniform.getLocation(), 3, GL_FLOAT, GL_FALSE, pMesh->sVertex.nStride, pMesh->sVertex.pData);

  00094	e59f397c	 ldr         r3, [pc, #0x97C]
  00098	e5924030	 ldr         r4, [r2, #0x30]
  0009c	e592502c	 ldr         r5, [r2, #0x2C]
  000a0	e5936000	 ldr         r6, [r3]
  000a4	e5990000	 ldr         r0, [r9]
  000a8	e3a02b05	 mov         r2, #5, 22
  000ac	e3a03000	 mov         r3, #0
  000b0	e3822006	 orr         r2, r2, #6
  000b4	e3a01003	 mov         r1, #3
  000b8	e58d4004	 str         r4, [sp, #4]
  000bc	e58d5000	 str         r5, [sp]
  000c0	e1a0e00f	 mov         lr, pc
  000c4	e12fff16	 bx          r6

; 79   : 				glEnableVertexAttribArray(sUniform.getLocation());

  000c8	e59f3944	 ldr         r3, [pc, #0x944]
  000cc	e5990000	 ldr         r0, [r9]
  000d0	e5933000	 ldr         r3, [r3]
  000d4	e1a0e00f	 mov         lr, pc
  000d8	e12fff13	 bx          r3

; 80   : 			}
; 81   : 			break;

  000dc	ea000242	 b           |$LN27@CalculateM|
  000e0		 |$LN25@CalculateM|

; 82   : 		case eUsNormal:
; 83   : 			{
; 84   : 				glVertexAttribPointer(sUniform.getLocation(), 3, GL_FLOAT, GL_FALSE, pMesh->sNormals.nStride, pMesh->sNormals.pData);

  000e0	e59f3930	 ldr         r3, [pc, #0x930]
  000e4	e5924040	 ldr         r4, [r2, #0x40]
  000e8	e592503c	 ldr         r5, [r2, #0x3C]
  000ec	e5936000	 ldr         r6, [r3]
  000f0	e5990000	 ldr         r0, [r9]
  000f4	e3a02b05	 mov         r2, #5, 22
  000f8	e3a03000	 mov         r3, #0
  000fc	e3822006	 orr         r2, r2, #6
  00100	e3a01003	 mov         r1, #3
  00104	e58d4004	 str         r4, [sp, #4]
  00108	e58d5000	 str         r5, [sp]
  0010c	e1a0e00f	 mov         lr, pc
  00110	e12fff16	 bx          r6

; 85   : 				glEnableVertexAttribArray(sUniform.getLocation());

  00114	e59f38f8	 ldr         r3, [pc, #0x8F8]
  00118	e5990000	 ldr         r0, [r9]
  0011c	e5933000	 ldr         r3, [r3]
  00120	e1a0e00f	 mov         lr, pc
  00124	e12fff13	 bx          r3

; 86   : 			}
; 87   : 			break;

  00128	ea00022f	 b           |$LN27@CalculateM|
  0012c		 |$LN24@CalculateM|

; 88   : 		case eUsTangent:
; 89   : 			{
; 90   : 				glVertexAttribPointer(sUniform.getLocation(), 3, GL_FLOAT, GL_FALSE, pMesh->sTangents.nStride, pMesh->sTangents.pData);

  0012c	e59f38e4	 ldr         r3, [pc, #0x8E4]
  00130	e5924050	 ldr         r4, [r2, #0x50]
  00134	e592504c	 ldr         r5, [r2, #0x4C]
  00138	e5936000	 ldr         r6, [r3]
  0013c	e5990000	 ldr         r0, [r9]
  00140	e3a02b05	 mov         r2, #5, 22
  00144	e3a03000	 mov         r3, #0
  00148	e3822006	 orr         r2, r2, #6
  0014c	e3a01003	 mov         r1, #3
  00150	e58d4004	 str         r4, [sp, #4]
  00154	e58d5000	 str         r5, [sp]
  00158	e1a0e00f	 mov         lr, pc
  0015c	e12fff16	 bx          r6

; 91   : 				glEnableVertexAttribArray(sUniform.getLocation());

  00160	e59f38ac	 ldr         r3, [pc, #0x8AC]
  00164	e5990000	 ldr         r0, [r9]
  00168	e5933000	 ldr         r3, [r3]
  0016c	e1a0e00f	 mov         lr, pc
  00170	e12fff13	 bx          r3

; 92   : 			}
; 93   : 			break;

  00174	ea00021c	 b           |$LN27@CalculateM|
  00178		 |$LN23@CalculateM|

; 94   : 		case eUsBinormal:
; 95   : 			{
; 96   : 				glVertexAttribPointer(sUniform.getLocation(), 2, GL_FLOAT, GL_FALSE, pMesh->sBinormals.nStride, pMesh->sBinormals.pData);

  00178	e59f3898	 ldr         r3, [pc, #0x898]
  0017c	e5924060	 ldr         r4, [r2, #0x60]
  00180	e592505c	 ldr         r5, [r2, #0x5C]
  00184	e5936000	 ldr         r6, [r3]
  00188	e5990000	 ldr         r0, [r9]
  0018c	e3a02b05	 mov         r2, #5, 22
  00190	e3a03000	 mov         r3, #0
  00194	e3822006	 orr         r2, r2, #6
  00198	e3a01002	 mov         r1, #2
  0019c	e58d4004	 str         r4, [sp, #4]
  001a0	e58d5000	 str         r5, [sp]
  001a4	e1a0e00f	 mov         lr, pc
  001a8	e12fff16	 bx          r6

; 97   : 				glEnableVertexAttribArray(sUniform.getLocation());

  001ac	e59f3860	 ldr         r3, [pc, #0x860]
  001b0	e5990000	 ldr         r0, [r9]
  001b4	e5933000	 ldr         r3, [r3]
  001b8	e1a0e00f	 mov         lr, pc
  001bc	e12fff13	 bx          r3

; 98   : 			}
; 99   : 			break;

  001c0	ea000209	 b           |$LN27@CalculateM|
  001c4		 |$LN22@CalculateM|

; 100  : 		case eUsUV:
; 101  : 			{
; 102  : 				glVertexAttribPointer(sUniform.getLocation(), 2, GL_FLOAT, GL_FALSE, pMesh->psUVW[0].nStride, pMesh->psUVW[0].pData);

  001c4	e5923064	 ldr         r3, [r2, #0x64]
  001c8	e59f2848	 ldr         r2, [pc, #0x848]
  001cc	e5990000	 ldr         r0, [r9]
  001d0	e593100c	 ldr         r1, [r3, #0xC]
  001d4	e5933008	 ldr         r3, [r3, #8]
  001d8	e5924000	 ldr         r4, [r2]
  001dc	e3a02b05	 mov         r2, #5, 22
  001e0	e58d3000	 str         r3, [sp]
  001e4	e58d1004	 str         r1, [sp, #4]
  001e8	e3a03000	 mov         r3, #0
  001ec	e3822006	 orr         r2, r2, #6
  001f0	e3a01002	 mov         r1, #2
  001f4	e1a0e00f	 mov         lr, pc
  001f8	e12fff14	 bx          r4

; 103  : 				glEnableVertexAttribArray(sUniform.getLocation());

  001fc	e59f3810	 ldr         r3, [pc, #0x810]
  00200	e5990000	 ldr         r0, [r9]
  00204	e5933000	 ldr         r3, [r3]
  00208	e1a0e00f	 mov         lr, pc
  0020c	e12fff13	 bx          r3

; 104  : 			}
; 105  : 			break;

  00210	ea0001f5	 b           |$LN27@CalculateM|
  00214		 |$LN21@CalculateM|

; 106  : 		case eUsBoneIndex:
; 107  : 			{
; 108  : 				glVertexAttribPointer(sUniform.getLocation(), pMesh->sBoneIdx.n, GL_UNSIGNED_BYTE, GL_FALSE, pMesh->sBoneIdx.nStride, pMesh->sBoneIdx.pData);

  00214	e59f37fc	 ldr         r3, [pc, #0x7FC]
  00218	e5924084	 ldr         r4, [r2, #0x84]
  0021c	e5925080	 ldr         r5, [r2, #0x80]
  00220	e592107c	 ldr         r1, [r2, #0x7C]
  00224	e5936000	 ldr         r6, [r3]
  00228	e5990000	 ldr         r0, [r9]
  0022c	e3a02b05	 mov         r2, #5, 22
  00230	e3a03000	 mov         r3, #0
  00234	e3822001	 orr         r2, r2, #1
  00238	e58d4004	 str         r4, [sp, #4]
  0023c	e58d5000	 str         r5, [sp]
  00240	e1a0e00f	 mov         lr, pc
  00244	e12fff16	 bx          r6

; 109  : 				glEnableVertexAttribArray(sUniform.getLocation());

  00248	e59f37c4	 ldr         r3, [pc, #0x7C4]
  0024c	e5990000	 ldr         r0, [r9]
  00250	e5933000	 ldr         r3, [r3]
  00254	e1a0e00f	 mov         lr, pc
  00258	e12fff13	 bx          r3

; 110  : 			}
; 111  : 			break;

  0025c	ea0001e2	 b           |$LN27@CalculateM|
  00260		 |$LN20@CalculateM|

; 112  : 		case eUsBoneWeight:
; 113  : 			{
; 114  : 				glVertexAttribPointer(sUniform.getLocation(), pMesh->sBoneWeight.n, GL_FLOAT, GL_FALSE, pMesh->sBoneWeight.nStride, pMesh->sBoneWeight.pData);

  00260	e59f37b0	 ldr         r3, [pc, #0x7B0]
  00264	e5924094	 ldr         r4, [r2, #0x94]
  00268	e5925090	 ldr         r5, [r2, #0x90]
  0026c	e592108c	 ldr         r1, [r2, #0x8C]
  00270	e5936000	 ldr         r6, [r3]
  00274	e5990000	 ldr         r0, [r9]
  00278	e3a02b05	 mov         r2, #5, 22
  0027c	e3a03000	 mov         r3, #0
  00280	e3822006	 orr         r2, r2, #6
  00284	e58d4004	 str         r4, [sp, #4]
  00288	e58d5000	 str         r5, [sp]
  0028c	e1a0e00f	 mov         lr, pc
  00290	e12fff16	 bx          r6

; 115  : 				glEnableVertexAttribArray(sUniform.getLocation());

  00294	e59f3778	 ldr         r3, [pc, #0x778]
  00298	e5990000	 ldr         r0, [r9]
  0029c	e5933000	 ldr         r3, [r3]
  002a0	e1a0e00f	 mov         lr, pc
  002a4	e12fff13	 bx          r3

; 116  : 			}
; 117  : 			break;

  002a8	ea0001cf	 b           |$LN27@CalculateM|
  002ac		 |$LN19@CalculateM|

; 118  : 		case eUsWORLD:
; 119  : 			{
; 120  : 				glUniformMatrix4fv(sUniform.getLocation(), 1, GL_FALSE, m_mWorld.f);

  002ac	e59f275c	 ldr         r2, [pc, #0x75C]
  002b0	e5990000	 ldr         r0, [r9]
  002b4	e2883e31	 add         r3, r8, #0x31, 28
  002b8	e5924000	 ldr         r4, [r2]
  002bc	e3a02000	 mov         r2, #0
  002c0	e3a01001	 mov         r1, #1
  002c4	e1a0e00f	 mov         lr, pc
  002c8	e12fff14	 bx          r4

; 121  : 			}
; 122  : 			break;

  002cc	ea0001c6	 b           |$LN27@CalculateM|
  002d0		 |$LN18@CalculateM|

; 123  : 		case eUsWORLDI:
; 124  : 			{
; 125  : 				PVRTMat4 mWorldI;
; 126  : 				mWorldI =  m_mWorld.inverse();

  002d0	e3a01c05	 mov         r1, #5, 24
  002d4	e38110fc	 orr         r1, r1, #0xFC
  002d8	e08d1001	 add         r1, sp, r1
  002dc	e2880e31	 add         r0, r8, #0x31, 28
  002e0	eb000000	 bl          |?inverse@PVRTMat4@@QBA?AU1@XZ|
  002e4	e28d3f66	 add         r3, sp, #0x66, 30
  002e8	e0400003	 sub         r0, r0, r3
  002ec	e28d2f66	 add         r2, sp, #0x66, 30
  002f0	e3a01010	 mov         r1, #0x10
  002f4		 |$LL67@CalculateM|
  002f4	e7903002	 ldr         r3, [r0, +r2]
  002f8	e2511001	 subs        r1, r1, #1
  002fc	e4823004	 str         r3, [r2], #4
  00300	1afffffb	 bne         |$LL67@CalculateM|

; 127  : 				glUniformMatrix4fv(sUniform.getLocation(), 1, GL_FALSE, mWorldI.f);

  00304	e59f2704	 ldr         r2, [pc, #0x704]
  00308	e5990000	 ldr         r0, [r9]
  0030c	e28d3f66	 add         r3, sp, #0x66, 30
  00310	e5924000	 ldr         r4, [r2]
  00314	e3a02000	 mov         r2, #0
  00318	e3a01001	 mov         r1, #1
  0031c	e1a0e00f	 mov         lr, pc
  00320	e12fff14	 bx          r4

; 128  : 			}
; 129  : 			break;

  00324	ea0001b0	 b           |$LN27@CalculateM|
  00328		 |$LN17@CalculateM|

; 130  : 		case eUsWORLDIT:
; 131  : 			{
; 132  : 				PVRTMat3 mWorldIT;
; 133  : 				mWorldIT = m_mWorld.inverse().transpose();

  00328	e28d1f9f	 add         r1, sp, #0x9F, 30
  0032c	e2880e31	 add         r0, r8, #0x31, 28
  00330	eb000000	 bl          |?inverse@PVRTMat4@@QBA?AU1@XZ|
  00334	e3a01c05	 mov         r1, #5, 24
  00338	e381107c	 orr         r1, r1, #0x7C
  0033c	e08d1001	 add         r1, sp, r1
  00340	eb000000	 bl          |?transpose@PVRTMat4@@QBA?AU1@XZ|
  00344	e1a01000	 mov         r1, r0
  00348	e28d0e11	 add         r0, sp, #0x11, 28
  0034c	eb000000	 bl          |??0PVRTMat3@@QAA@ABUPVRTMat4@@@Z|
  00350	e28d00c8	 add         r0, sp, #0xC8
  00354	e28d1e11	 add         r1, sp, #0x11, 28
  00358	e3a02024	 mov         r2, #0x24
  0035c	eb000000	 bl          memcpy

; 134  : 				glUniformMatrix3fv(sUniform.getLocation(), 1, GL_FALSE, mWorldIT.f);

  00360	e59f26a4	 ldr         r2, [pc, #0x6A4]
  00364	e5990000	 ldr         r0, [r9]
  00368	e28d30c8	 add         r3, sp, #0xC8
  0036c	e5924000	 ldr         r4, [r2]
  00370	e3a02000	 mov         r2, #0
  00374	e3a01001	 mov         r1, #1
  00378	e1a0e00f	 mov         lr, pc
  0037c	e12fff14	 bx          r4

; 135  : 			}
; 136  : 			break;

  00380	ea000199	 b           |$LN27@CalculateM|
  00384		 |$LN16@CalculateM|

; 137  : 		case eUsWORLDVIEW:
; 138  : 			{
; 139  : 				glUniformMatrix4fv(sUniform.getLocation(), 1, GL_FALSE, m_mWorldView.f);

  00384	e59f2684	 ldr         r2, [pc, #0x684]
  00388	e5990000	 ldr         r0, [r9]
  0038c	e2883e35	 add         r3, r8, #0x35, 28
  00390	e5924000	 ldr         r4, [r2]
  00394	e3a02000	 mov         r2, #0
  00398	e3a01001	 mov         r1, #1
  0039c	e1a0e00f	 mov         lr, pc
  003a0	e12fff14	 bx          r4

; 140  : 			}
; 141  : 			break;

  003a4	ea000190	 b           |$LN27@CalculateM|
  003a8		 |$LN15@CalculateM|

; 142  : 		case eUsWORLDVIEWI:
; 143  : 			{
; 144  : 				PVRTMat4 mWorldViewI;
; 145  : 				mWorldViewI = m_mWorldView.inverse();

  003a8	e28d1fbf	 add         r1, sp, #0xBF, 30
  003ac	e2880e35	 add         r0, r8, #0x35, 28
  003b0	eb000000	 bl          |?inverse@PVRTMat4@@QBA?AU1@XZ|
  003b4	e28d3f56	 add         r3, sp, #0x56, 30
  003b8	e0400003	 sub         r0, r0, r3
  003bc	e28d2f56	 add         r2, sp, #0x56, 30
  003c0	e3a01010	 mov         r1, #0x10
  003c4		 |$LL82@CalculateM|
  003c4	e7903002	 ldr         r3, [r0, +r2]
  003c8	e2511001	 subs        r1, r1, #1
  003cc	e4823004	 str         r3, [r2], #4
  003d0	1afffffb	 bne         |$LL82@CalculateM|

; 146  : 				glUniformMatrix4fv(sUniform.getLocation(), 1, GL_FALSE, mWorldViewI.f);

  003d4	e59f2634	 ldr         r2, [pc, #0x634]
  003d8	e5990000	 ldr         r0, [r9]
  003dc	e28d3f56	 add         r3, sp, #0x56, 30
  003e0	e5924000	 ldr         r4, [r2]
  003e4	e3a02000	 mov         r2, #0
  003e8	e3a01001	 mov         r1, #1
  003ec	e1a0e00f	 mov         lr, pc
  003f0	e12fff14	 bx          r4

; 147  : 			}
; 148  : 			break;

  003f4	ea00017c	 b           |$LN27@CalculateM|
  003f8		 |$LN14@CalculateM|

; 149  : 		case eUsWORLDVIEWIT:
; 150  : 			{
; 151  : 				PVRTMat3 mWorldViewIT;
; 152  : 				mWorldViewIT = m_mWorldView.inverse().transpose();

  003f8	e3a01c06	 mov         r1, #6, 24
  003fc	e38110fc	 orr         r1, r1, #0xFC
  00400	e08d1001	 add         r1, sp, r1
  00404	e2880e35	 add         r0, r8, #0x35, 28
  00408	eb000000	 bl          |?inverse@PVRTMat4@@QBA?AU1@XZ|
  0040c	e28d1fdf	 add         r1, sp, #0xDF, 30
  00410	eb000000	 bl          |?transpose@PVRTMat4@@QBA?AU1@XZ|
  00414	e1a01000	 mov         r1, r0
  00418	e28d00ec	 add         r0, sp, #0xEC
  0041c	eb000000	 bl          |??0PVRTMat3@@QAA@ABUPVRTMat4@@@Z|
  00420	e28d0f4d	 add         r0, sp, #0x4D, 30
  00424	e28d10ec	 add         r1, sp, #0xEC
  00428	e3a02024	 mov         r2, #0x24
  0042c	eb000000	 bl          memcpy

; 153  : 				glUniformMatrix3fv(sUniform.getLocation(), 1, GL_FALSE, mWorldViewIT.f);

  00430	e59f25d4	 ldr         r2, [pc, #0x5D4]
  00434	e5990000	 ldr         r0, [r9]
  00438	e28d3f4d	 add         r3, sp, #0x4D, 30
  0043c	e5924000	 ldr         r4, [r2]
  00440	e3a02000	 mov         r2, #0
  00444	e3a01001	 mov         r1, #1
  00448	e1a0e00f	 mov         lr, pc
  0044c	e12fff14	 bx          r4

; 154  : 			}
; 155  : 			break;

  00450	ea000165	 b           |$LN27@CalculateM|
  00454		 |$LN13@CalculateM|

; 156  : 		case eUsWORLDVIEWPROJECTION:
; 157  : 			{
; 158  : 				glUniformMatrix4fv(sUniform.getLocation(), 1, GL_FALSE, m_mWorldViewProjection.f);

  00454	e59f25b4	 ldr         r2, [pc, #0x5B4]
  00458	e5990000	 ldr         r0, [r9]
  0045c	e2883e39	 add         r3, r8, #0x39, 28
  00460	e5924000	 ldr         r4, [r2]
  00464	e3a02000	 mov         r2, #0
  00468	e3a01001	 mov         r1, #1
  0046c	e1a0e00f	 mov         lr, pc
  00470	e12fff14	 bx          r4

; 159  : 			}
; 160  : 			break;

  00474	ea00015c	 b           |$LN27@CalculateM|
  00478		 |$LN12@CalculateM|

; 161  : 		case eUsWORLDVIEWPROJECTIONI:
; 162  : 			{
; 163  : 				PVRTMat4 mWorldViewProjectionI = (m_mProjection * m_mWorldView ).inverse();

  00478	e2882e35	 add         r2, r8, #0x35, 28
  0047c	e28d1f7f	 add         r1, sp, #0x7F, 30
  00480	e2880f72	 add         r0, r8, #0x72, 30
  00484	eb000000	 bl          |??DPVRTMat4@@QBA?AU0@ABU0@@Z|
  00488	e28d1038	 add         r1, sp, #0x38
  0048c	eb000000	 bl          |?inverse@PVRTMat4@@QBA?AU1@XZ|

; 164  : 				glUniformMatrix4fv(sUniform.getLocation(), 1, GL_FALSE, mWorldViewProjectionI.f);

  00490	e59f2578	 ldr         r2, [pc, #0x578]
  00494	e5990000	 ldr         r0, [r9]
  00498	e28d3038	 add         r3, sp, #0x38
  0049c	e5924000	 ldr         r4, [r2]
  004a0	e3a02000	 mov         r2, #0
  004a4	e3a01001	 mov         r1, #1
  004a8	e1a0e00f	 mov         lr, pc
  004ac	e12fff14	 bx          r4

; 165  : 			}
; 166  : 			break;

  004b0	ea00014d	 b           |$LN27@CalculateM|
  004b4		 |$LN11@CalculateM|

; 167  : 		case eUsWORLDVIEWPROJECTIONIT:
; 168  : 			{
; 169  : 				PVRTMat3 mWorldViewProjectionIT = (m_mProjection * m_mWorldView).inverse().transpose();

  004b4	e2882e35	 add         r2, r8, #0x35, 28
  004b8	e28d1fff	 add         r1, sp, #0xFF, 30
  004bc	e2880f72	 add         r0, r8, #0x72, 30
  004c0	eb000000	 bl          |??DPVRTMat4@@QBA?AU0@ABU0@@Z|
  004c4	e3a01c07	 mov         r1, #7, 24
  004c8	e38110fc	 orr         r1, r1, #0xFC
  004cc	e08d1001	 add         r1, sp, r1
  004d0	eb000000	 bl          |?inverse@PVRTMat4@@QBA?AU1@XZ|
  004d4	e3a01b01	 mov         r1, #1, 22
  004d8	e381107c	 orr         r1, r1, #0x7C
  004dc	e08d1001	 add         r1, sp, r1
  004e0	eb000000	 bl          |?transpose@PVRTMat4@@QBA?AU1@XZ|
  004e4	e1a01000	 mov         r1, r0
  004e8	e28d0038	 add         r0, sp, #0x38
  004ec	eb000000	 bl          |??0PVRTMat3@@QAA@ABUPVRTMat4@@@Z|

; 170  : 				glUniformMatrix3fv(sUniform.getLocation(), 1, GL_FALSE, mWorldViewProjectionIT.f);

  004f0	e59f2514	 ldr         r2, [pc, #0x514]
  004f4	e5990000	 ldr         r0, [r9]
  004f8	e28d3038	 add         r3, sp, #0x38
  004fc	e5924000	 ldr         r4, [r2]
  00500	e3a02000	 mov         r2, #0
  00504	e3a01001	 mov         r1, #1
  00508	e1a0e00f	 mov         lr, pc
  0050c	e12fff14	 bx          r4

; 171  : 			}
; 172  : 			break;

  00510	ea000135	 b           |$LN27@CalculateM|
  00514		 |$LN10@CalculateM|

; 173  : 		case eUsLIGHTPOSMODEL:
; 174  : 			{
; 175  : 				// Passes the light position in eye space to the shader
; 176  : 				PVRTVec4 vLightPosModel = ((LightPoint*)m_pLightManager->getLight(sUniform.getIdx()))->getPositionPVRTVec4() *m_mWorld ;

  00514	e5983d00	 ldr         r3, [r8, #0xD00]
  00518	e599e008	 ldr         lr, [r9, #8]
  0051c	e2882e31	 add         r2, r8, #0x31, 28
  00520	e593300c	 ldr         r3, [r3, #0xC]
  00524	e28d1018	 add         r1, sp, #0x18
  00528	e28d0028	 add         r0, sp, #0x28
  0052c	e793e10e	 ldr         lr, [r3, +lr, lsl #2]
  00530	e59e3010	 ldr         r3, [lr, #0x10]
  00534	e58d3028	 str         r3, [sp, #0x28]
  00538	e59e3014	 ldr         r3, [lr, #0x14]
  0053c	e58d302c	 str         r3, [sp, #0x2C]
  00540	e59e3018	 ldr         r3, [lr, #0x18]
  00544	e58d3030	 str         r3, [sp, #0x30]
  00548	e59e301c	 ldr         r3, [lr, #0x1C]
  0054c	e58d3034	 str         r3, [sp, #0x34]
  00550	eb000000	 bl          |??DPVRTVec4@@QBA?AU0@ABUPVRTMat4@@@Z|

; 177  : 				glUniform3f(sUniform.getLocation(),
; 178  : 					vLightPosModel.x,
; 179  : 					vLightPosModel.y,
; 180  : 					vLightPosModel.z);

  00554	e59f14a8	 ldr         r1, [pc, #0x4A8]
  00558	e59d3020	 ldr         r3, [sp, #0x20]
  0055c	e59d201c	 ldr         r2, [sp, #0x1C]
  00560	e5914000	 ldr         r4, [r1]
  00564	e59d1018	 ldr         r1, [sp, #0x18]
  00568	e5990000	 ldr         r0, [r9]
  0056c	e1a0e00f	 mov         lr, pc
  00570	e12fff14	 bx          r4

; 181  : 			}
; 182  : 			break;

  00574	ea00011c	 b           |$LN27@CalculateM|
  00578		 |$LN9@CalculateM|

; 183  : 		case eUsOBJECT:
; 184  : 			{
; 185  : 				// Scale
; 186  : 				PVRTMat4 mObject = m_psScene->GetScalingMatrix(*pNode);

  00578	e5980018	 ldr         r0, [r8, #0x18]
  0057c	e1a02005	 mov         r2, r5
  00580	e28d1078	 add         r1, sp, #0x78
  00584	eb000000	 bl          |?GetScalingMatrix@CPVRTModelPOD@@QBA?AUPVRTMat4@@ABUSPODNode@@@Z|

; 187  : 				// Rotation
; 188  : 				mObject = m_psScene->GetRotationMatrix(*pNode) * mObject;

  00588	e5980018	 ldr         r0, [r8, #0x18]
  0058c	e1a02005	 mov         r2, r5
  00590	e3a01c06	 mov         r1, #6, 24
  00594	e381107c	 orr         r1, r1, #0x7C
  00598	e08d1001	 add         r1, sp, r1
  0059c	eb000000	 bl          |?GetRotationMatrix@CPVRTModelPOD@@QBA?AUPVRTMat4@@ABUSPODNode@@@Z|
  005a0	e28d2078	 add         r2, sp, #0x78
  005a4	e3a01b01	 mov         r1, #1, 22
  005a8	e38110fc	 orr         r1, r1, #0xFC
  005ac	e08d1001	 add         r1, sp, r1
  005b0	eb000000	 bl          |??DPVRTMat4@@QBA?AU0@ABU0@@Z|
  005b4	e28d3078	 add         r3, sp, #0x78
  005b8	e0400003	 sub         r0, r0, r3
  005bc	e28d2078	 add         r2, sp, #0x78
  005c0	e3a01010	 mov         r1, #0x10
  005c4		 |$LL109@CalculateM|
  005c4	e7903002	 ldr         r3, [r0, +r2]
  005c8	e2511001	 subs        r1, r1, #1
  005cc	e4823004	 str         r3, [r2], #4
  005d0	1afffffb	 bne         |$LL109@CalculateM|

; 189  : 				// Translation
; 190  : 				mObject = m_psScene->GetTranslationMatrix(*pNode) * mObject;

  005d4	e5980018	 ldr         r0, [r8, #0x18]
  005d8	e1a02005	 mov         r2, r5
  005dc	e3a01c07	 mov         r1, #7, 24
  005e0	e381107c	 orr         r1, r1, #0x7C
  005e4	e08d1001	 add         r1, sp, r1
  005e8	eb000000	 bl          |?GetTranslationMatrix@CPVRTModelPOD@@QBA?AUPVRTMat4@@ABUSPODNode@@@Z|
  005ec	e28d2078	 add         r2, sp, #0x78
  005f0	e28d1f8f	 add         r1, sp, #0x8F, 30
  005f4	eb000000	 bl          |??DPVRTMat4@@QBA?AU0@ABU0@@Z|
  005f8	e28d3078	 add         r3, sp, #0x78
  005fc	e0400003	 sub         r0, r0, r3
  00600	e28d2078	 add         r2, sp, #0x78
  00604	e3a01010	 mov         r1, #0x10
  00608		 |$LL114@CalculateM|
  00608	e7903002	 ldr         r3, [r0, +r2]
  0060c	e2511001	 subs        r1, r1, #1
  00610	e4823004	 str         r3, [r2], #4
  00614	1afffffb	 bne         |$LL114@CalculateM|

; 191  : 
; 192  : 				glUniformMatrix4fv(sUniform.getLocation(), 1, GL_FALSE, mObject.f);

  00618	e59f23f0	 ldr         r2, [pc, #0x3F0]
  0061c	e5990000	 ldr         r0, [r9]
  00620	e28d3078	 add         r3, sp, #0x78
  00624	e5924000	 ldr         r4, [r2]
  00628	e3a02000	 mov         r2, #0
  0062c	e3a01001	 mov         r1, #1
  00630	e1a0e00f	 mov         lr, pc
  00634	e12fff14	 bx          r4

; 193  : 			}
; 194  : 			break;

  00638	ea0000eb	 b           |$LN27@CalculateM|
  0063c		 |$LN8@CalculateM|

; 195  : 		case eUsOBJECTI:
; 196  : 			{
; 197  : 				if(!getFlag(eUsOBJECT))

  0063c	e598308c	 ldr         r3, [r8, #0x8C]
  00640	e3130001	 tst         r3, #1
  00644	13a03001	 movne       r3, #1
  00648	03a03000	 moveq       r3, #0
  0064c	e21330ff	 ands        r3, r3, #0xFF

; 247  : 		case eUsEYEPOSMODEL:
; 248  : 			{	//TODO: Fix this to work with where the camera actually is and ignore that POD stuff
; 249  : 				//PVRTVec3 vFrom, vTo;
; 250  : 				//m_psScene->GetCameraPos(vFrom,vTo,0);	// unsure about 3rd param
; 251  : 				//PVRTVECTOR4	vPos;
; 252  : 				//PVRTTransformBack(&vPos, (PVRTVECTOR4*)&vFrom, &m_mWorld);	// cast is a bit dodgy
; 253  : 				//glExtensions->glUniform3fARB(sUniform.getLocation(), vPos.x, vPos.y, vPos.z);
; 254  : 			}
; 255  : 			break;
; 256  : 		default:
; 257  : 			{	// something went wrong
; 258  : 				ConsoleLog::inst().log("Error: non-mesh uniform being interpreted as mesh uniform\n");

  00650	1a00002d	 bne         |$LN138@CalculateM|
  00654	e5980018	 ldr         r0, [r8, #0x18]
  00658	e1a02005	 mov         r2, r5
  0065c	e28d1faf	 add         r1, sp, #0xAF, 30
  00660	eb000000	 bl          |?GetScalingMatrix@CPVRTModelPOD@@QBA?AUPVRTMat4@@ABUSPODNode@@@Z|
  00664	e2884e3d	 add         r4, r8, #0x3D, 28
  00668	e0400004	 sub         r0, r0, r4
  0066c	e1a02004	 mov         r2, r4
  00670	e3a01010	 mov         r1, #0x10
  00674		 |$LL125@CalculateM|
  00674	e7903002	 ldr         r3, [r0, +r2]
  00678	e2511001	 subs        r1, r1, #1
  0067c	e4823004	 str         r3, [r2], #4
  00680	1afffffb	 bne         |$LL125@CalculateM|
  00684	e5980018	 ldr         r0, [r8, #0x18]
  00688	e1a02005	 mov         r2, r5
  0068c	e28d1fcf	 add         r1, sp, #0xCF, 30
  00690	eb000000	 bl          |?GetRotationMatrix@CPVRTModelPOD@@QBA?AUPVRTMat4@@ABUSPODNode@@@Z|
  00694	e1a02004	 mov         r2, r4
  00698	e28d1fef	 add         r1, sp, #0xEF, 30
  0069c	eb000000	 bl          |??DPVRTMat4@@QBA?AU0@ABU0@@Z|
  006a0	e0400004	 sub         r0, r0, r4
  006a4	e1a02004	 mov         r2, r4
  006a8	e3a01010	 mov         r1, #0x10
  006ac		 |$LL130@CalculateM|
  006ac	e7903002	 ldr         r3, [r0, +r2]
  006b0	e2511001	 subs        r1, r1, #1
  006b4	e4823004	 str         r3, [r2], #4
  006b8	1afffffb	 bne         |$LL130@CalculateM|
  006bc	e5980018	 ldr         r0, [r8, #0x18]
  006c0	e1a02005	 mov         r2, r5
  006c4	e3a01b01	 mov         r1, #1, 22
  006c8	e381103c	 orr         r1, r1, #0x3C
  006cc	e08d1001	 add         r1, sp, r1
  006d0	eb000000	 bl          |?GetTranslationMatrix@CPVRTModelPOD@@QBA?AUPVRTMat4@@ABUSPODNode@@@Z|
  006d4	e1a02004	 mov         r2, r4
  006d8	e3a01b01	 mov         r1, #1, 22
  006dc	e38110bc	 orr         r1, r1, #0xBC
  006e0	e08d1001	 add         r1, sp, r1
  006e4	eb000000	 bl          |??DPVRTMat4@@QBA?AU0@ABU0@@Z|
  006e8	e0401004	 sub         r1, r0, r4
  006ec	e3a02010	 mov         r2, #0x10
  006f0		 |$LL135@CalculateM|
  006f0	e7913004	 ldr         r3, [r1, +r4]
  006f4	e2522001	 subs        r2, r2, #1
  006f8	e4843004	 str         r3, [r4], #4
  006fc	1afffffb	 bne         |$LL135@CalculateM|
  00700	e598308c	 ldr         r3, [r8, #0x8C]
  00704	e3833001	 orr         r3, r3, #1
  00708	e588308c	 str         r3, [r8, #0x8C]
  0070c		 |$LN138@CalculateM|
  0070c	e3a01c05	 mov         r1, #5, 24
  00710	e381103c	 orr         r1, r1, #0x3C
  00714	e08d1001	 add         r1, sp, r1
  00718	e2880e3d	 add         r0, r8, #0x3D, 28
  0071c	eb000000	 bl          |?inverse@PVRTMat4@@QBA?AU1@XZ|
  00720	e2883e41	 add         r3, r8, #0x41, 28
  00724	e040e003	 sub         lr, r0, r3
  00728	e3a00010	 mov         r0, #0x10
  0072c	e1a01003	 mov         r1, r3
  00730		 |$LL142@CalculateM|
  00730	e79e2001	 ldr         r2, [lr, +r1]
  00734	e2500001	 subs        r0, r0, #1
  00738	e4812004	 str         r2, [r1], #4
  0073c	1afffffb	 bne         |$LL142@CalculateM|
  00740	e59f22c8	 ldr         r2, [pc, #0x2C8]
  00744	e5990000	 ldr         r0, [r9]
  00748	e3a01001	 mov         r1, #1
  0074c	e5924000	 ldr         r4, [r2]
  00750	e3a02000	 mov         r2, #0
  00754	e1a0e00f	 mov         lr, pc
  00758	e12fff14	 bx          r4
  0075c	ea0000a2	 b           |$LN27@CalculateM|
  00760		 |$LN6@CalculateM|

; 198  : 				{
; 199  : 					// Scale
; 200  : 					m_mObject = m_psScene->GetScalingMatrix(*pNode);
; 201  : 					// Rotation
; 202  : 					m_mObject = m_psScene->GetRotationMatrix(*pNode) * m_mObject;
; 203  : 					// Translation
; 204  : 					m_mObject = (m_psScene->GetTranslationMatrix(*pNode) * m_mObject);
; 205  : 					setFlag(eUsOBJECT);
; 206  : 				}
; 207  : 				m_mObjectI = m_mObject.inverse();
; 208  : 
; 209  : 				glUniformMatrix4fv(sUniform.getLocation(), 1, GL_FALSE, m_mObjectI.f);
; 210  : 			}
; 211  : 			break;
; 212  : 		case eUsOBJECTIT:
; 213  : 			{
; 214  : 				if(!getFlag(eUsOBJECTI))

  00760	e5983090	 ldr         r3, [r8, #0x90]
  00764	e3130001	 tst         r3, #1
  00768	13a03001	 movne       r3, #1
  0076c	03a03000	 moveq       r3, #0
  00770	e21330ff	 ands        r3, r3, #0xFF

; 247  : 		case eUsEYEPOSMODEL:
; 248  : 			{	//TODO: Fix this to work with where the camera actually is and ignore that POD stuff
; 249  : 				//PVRTVec3 vFrom, vTo;
; 250  : 				//m_psScene->GetCameraPos(vFrom,vTo,0);	// unsure about 3rd param
; 251  : 				//PVRTVECTOR4	vPos;
; 252  : 				//PVRTTransformBack(&vPos, (PVRTVECTOR4*)&vFrom, &m_mWorld);	// cast is a bit dodgy
; 253  : 				//glExtensions->glUniform3fARB(sUniform.getLocation(), vPos.x, vPos.y, vPos.z);
; 254  : 			}
; 255  : 			break;
; 256  : 		default:
; 257  : 			{	// something went wrong
; 258  : 				ConsoleLog::inst().log("Error: non-mesh uniform being interpreted as mesh uniform\n");

  00774	1a000048	 bne         |$LN177@CalculateM|
  00778	e598308c	 ldr         r3, [r8, #0x8C]
  0077c	e3130001	 tst         r3, #1
  00780	13a03001	 movne       r3, #1
  00784	03a03000	 moveq       r3, #0
  00788	e21330ff	 ands        r3, r3, #0xFF
  0078c	1a000033	 bne         |$LN170@CalculateM|
  00790	e5980018	 ldr         r0, [r8, #0x18]
  00794	e1a02005	 mov         r2, r5
  00798	e3a01c05	 mov         r1, #5, 24
  0079c	e38110bc	 orr         r1, r1, #0xBC
  007a0	e08d1001	 add         r1, sp, r1
  007a4	eb000000	 bl          |?GetScalingMatrix@CPVRTModelPOD@@QBA?AUPVRTMat4@@ABUSPODNode@@@Z|
  007a8	e2884e3d	 add         r4, r8, #0x3D, 28
  007ac	e0400004	 sub         r0, r0, r4
  007b0	e1a02004	 mov         r2, r4
  007b4	e3a01010	 mov         r1, #0x10
  007b8		 |$LL157@CalculateM|
  007b8	e7903002	 ldr         r3, [r0, +r2]
  007bc	e2511001	 subs        r1, r1, #1
  007c0	e4823004	 str         r3, [r2], #4
  007c4	1afffffb	 bne         |$LL157@CalculateM|
  007c8	e5980018	 ldr         r0, [r8, #0x18]
  007cc	e1a02005	 mov         r2, r5
  007d0	e3a01c06	 mov         r1, #6, 24
  007d4	e381103c	 orr         r1, r1, #0x3C
  007d8	e08d1001	 add         r1, sp, r1
  007dc	eb000000	 bl          |?GetRotationMatrix@CPVRTModelPOD@@QBA?AUPVRTMat4@@ABUSPODNode@@@Z|
  007e0	e1a02004	 mov         r2, r4
  007e4	e3a01c06	 mov         r1, #6, 24
  007e8	e38110bc	 orr         r1, r1, #0xBC
  007ec	e08d1001	 add         r1, sp, r1
  007f0	eb000000	 bl          |??DPVRTMat4@@QBA?AU0@ABU0@@Z|
  007f4	e0400004	 sub         r0, r0, r4
  007f8	e1a02004	 mov         r2, r4
  007fc	e3a01010	 mov         r1, #0x10
  00800		 |$LL162@CalculateM|
  00800	e7903002	 ldr         r3, [r0, +r2]
  00804	e2511001	 subs        r1, r1, #1
  00808	e4823004	 str         r3, [r2], #4
  0080c	1afffffb	 bne         |$LL162@CalculateM|
  00810	e5980018	 ldr         r0, [r8, #0x18]
  00814	e1a02005	 mov         r2, r5
  00818	e3a01c07	 mov         r1, #7, 24
  0081c	e381103c	 orr         r1, r1, #0x3C
  00820	e08d1001	 add         r1, sp, r1
  00824	eb000000	 bl          |?GetTranslationMatrix@CPVRTModelPOD@@QBA?AUPVRTMat4@@ABUSPODNode@@@Z|
  00828	e1a02004	 mov         r2, r4
  0082c	e3a01c07	 mov         r1, #7, 24
  00830	e38110bc	 orr         r1, r1, #0xBC
  00834	e08d1001	 add         r1, sp, r1
  00838	eb000000	 bl          |??DPVRTMat4@@QBA?AU0@ABU0@@Z|
  0083c	e0401004	 sub         r1, r0, r4
  00840	e3a02010	 mov         r2, #0x10
  00844		 |$LL167@CalculateM|
  00844	e7913004	 ldr         r3, [r1, +r4]
  00848	e2522001	 subs        r2, r2, #1
  0084c	e4843004	 str         r3, [r4], #4
  00850	1afffffb	 bne         |$LL167@CalculateM|
  00854	e598308c	 ldr         r3, [r8, #0x8C]
  00858	e3833001	 orr         r3, r3, #1
  0085c	e588308c	 str         r3, [r8, #0x8C]
  00860		 |$LN170@CalculateM|
  00860	e3a01b02	 mov         r1, #2, 22
  00864	e381103c	 orr         r1, r1, #0x3C
  00868	e08d1001	 add         r1, sp, r1
  0086c	e2880e3d	 add         r0, r8, #0x3D, 28
  00870	eb000000	 bl          |?inverse@PVRTMat4@@QBA?AU1@XZ|
  00874	e2882e41	 add         r2, r8, #0x41, 28
  00878	e0400002	 sub         r0, r0, r2
  0087c	e3a01010	 mov         r1, #0x10
  00880		 |$LL174@CalculateM|
  00880	e7903002	 ldr         r3, [r0, +r2]
  00884	e2511001	 subs        r1, r1, #1
  00888	e4823004	 str         r3, [r2], #4
  0088c	1afffffb	 bne         |$LL174@CalculateM|
  00890	e5983090	 ldr         r3, [r8, #0x90]
  00894	e3833001	 orr         r3, r3, #1
  00898	e5883090	 str         r3, [r8, #0x90]
  0089c		 |$LN177@CalculateM|
  0089c	e2881e41	 add         r1, r8, #0x41, 28
  008a0	e28d0f76	 add         r0, sp, #0x76, 30
  008a4	eb000000	 bl          |??0PVRTMat3@@QAA@ABUPVRTMat4@@@Z|
  008a8	e5903000	 ldr         r3, [r0]
  008ac	e5902004	 ldr         r2, [r0, #4]
  008b0	e5901008	 ldr         r1, [r0, #8]
  008b4	e590e00c	 ldr         lr, [r0, #0xC]
  008b8	e5904010	 ldr         r4, [r0, #0x10]
  008bc	e5905014	 ldr         r5, [r0, #0x14]
  008c0	e5906018	 ldr         r6, [r0, #0x18]
  008c4	e590701c	 ldr         r7, [r0, #0x1C]
  008c8	e5900020	 ldr         r0, [r0, #0x20]
  008cc	e58d2044	 str         r2, [sp, #0x44]
  008d0	e58d1050	 str         r1, [sp, #0x50]
  008d4	e58d0058	 str         r0, [sp, #0x58]
  008d8	e2880e45	 add         r0, r8, #0x45, 28
  008dc	e28d1038	 add         r1, sp, #0x38
  008e0	e3a02024	 mov         r2, #0x24
  008e4	e58d3038	 str         r3, [sp, #0x38]
  008e8	e58de03c	 str         lr, [sp, #0x3C]
  008ec	e58d4048	 str         r4, [sp, #0x48]
  008f0	e58d5054	 str         r5, [sp, #0x54]
  008f4	e58d6040	 str         r6, [sp, #0x40]
  008f8	e58d704c	 str         r7, [sp, #0x4C]
  008fc	eb000000	 bl          memcpy
  00900	e59f2104	 ldr         r2, [pc, #0x104]
  00904	e5990000	 ldr         r0, [r9]
  00908	e2883e45	 add         r3, r8, #0x45, 28
  0090c	e5924000	 ldr         r4, [r2]
  00910	e3a02000	 mov         r2, #0
  00914	e3a01001	 mov         r1, #1
  00918	e1a0e00f	 mov         lr, pc
  0091c	e12fff14	 bx          r4
  00920	ea000031	 b           |$LN27@CalculateM|
  00924		 |$LN3@CalculateM|

; 215  : 				{
; 216  : 					if(!getFlag(eUsOBJECT))
; 217  : 					{
; 218  : 						// Scale
; 219  : 						m_mObject = m_psScene->GetScalingMatrix(*pNode);
; 220  : 						// Rotation
; 221  : 						m_mObject = m_psScene->GetRotationMatrix(*pNode) * m_mObject;
; 222  : 						// Translation
; 223  : 						m_mObject = (m_psScene->GetTranslationMatrix(*pNode) * m_mObject);
; 224  : 						setFlag(eUsOBJECT);
; 225  : 					}
; 226  : 					m_mObjectI = m_mObject.inverse();
; 227  : 					setFlag(eUsOBJECTI);
; 228  : 				}
; 229  : 
; 230  : 				m_mObjectIT = PVRTMat3(m_mObjectI).transpose();
; 231  : 
; 232  : 				glUniformMatrix3fv(sUniform.getLocation(), 1, GL_FALSE, m_mObjectIT.f);
; 233  : 			}
; 234  : 			break;
; 235  : 		case eUsLIGHTDIRMODEL:
; 236  : 			{
; 237  : 				// Passes the light direction in model space to the shader
; 238  : 				PVRTVec4 vLightDirectionModel,
; 239  : 					vLightDirection =((LightDirectional*)m_pLightManager->getLight(sUniform.getIdx()))->getDirectionPVRTVec4();

  00924	e5983d00	 ldr         r3, [r8, #0xD00]
  00928	e5991008	 ldr         r1, [r9, #8]

; 240  : 				vLightDirection.x = -vLightDirection.x;

  0092c	e59f20d4	 ldr         r2, [pc, #0xD4]
  00930	e593300c	 ldr         r3, [r3, #0xC]
  00934	e5922000	 ldr         r2, [r2]
  00938	e7933101	 ldr         r3, [r3, +r1, lsl #2]
  0093c	e5930010	 ldr         r0, [r3, #0x10]
  00940	e58d0008	 str         r0, [sp, #8]
  00944	e5934014	 ldr         r4, [r3, #0x14]
  00948	e58d400c	 str         r4, [sp, #0xC]
  0094c	e5935018	 ldr         r5, [r3, #0x18]
  00950	e58d5010	 str         r5, [sp, #0x10]
  00954	e593301c	 ldr         r3, [r3, #0x1C]
  00958	e58d3014	 str         r3, [sp, #0x14]
  0095c	e1a0e00f	 mov         lr, pc
  00960	e12fff12	 bx          r2

; 241  : 				vLightDirection.y = -vLightDirection.y;

  00964	e59f309c	 ldr         r3, [pc, #0x9C]
  00968	e1a02000	 mov         r2, r0
  0096c	e1a00004	 mov         r0, r4
  00970	e5933000	 ldr         r3, [r3]
  00974	e58d2008	 str         r2, [sp, #8]
  00978	e1a0e00f	 mov         lr, pc
  0097c	e12fff13	 bx          r3

; 242  : 				vLightDirection.z = -vLightDirection.z;

  00980	e59f3080	 ldr         r3, [pc, #0x80]
  00984	e1a02000	 mov         r2, r0
  00988	e1a00005	 mov         r0, r5
  0098c	e5933000	 ldr         r3, [r3]
  00990	e58d200c	 str         r2, [sp, #0xC]
  00994	e1a0e00f	 mov         lr, pc
  00998	e12fff13	 bx          r3
  0099c	e1a03000	 mov         r3, r0

; 243  : 				vLightDirectionModel = vLightDirection * m_mWorld ;

  009a0	e28d0008	 add         r0, sp, #8
  009a4	e2882e31	 add         r2, r8, #0x31, 28
  009a8	e28d10b8	 add         r1, sp, #0xB8
  009ac	e58d3010	 str         r3, [sp, #0x10]
  009b0	eb000000	 bl          |??DPVRTVec4@@QBA?AU0@ABUPVRTMat4@@@Z|

; 244  : 				glUniform3f(sUniform.getLocation(), vLightDirectionModel.x, vLightDirectionModel.y, vLightDirectionModel.z);

  009b4	e59f3048	 ldr         r3, [pc, #0x48]
  009b8	e590e00c	 ldr         lr, [r0, #0xC]
  009bc	e5901000	 ldr         r1, [r0]
  009c0	e5934000	 ldr         r4, [r3]
  009c4	e5903008	 ldr         r3, [r0, #8]
  009c8	e5902004	 ldr         r2, [r0, #4]
  009cc	e5990000	 ldr         r0, [r9]
  009d0	e58de024	 str         lr, [sp, #0x24]
  009d4	e1a0e00f	 mov         lr, pc
  009d8	e12fff14	 bx          r4

; 245  : 			}
; 246  : 			break;

  009dc	ea000002	 b           |$LN27@CalculateM|
  009e0		 |$LN1@CalculateM|

; 247  : 		case eUsEYEPOSMODEL:
; 248  : 			{	//TODO: Fix this to work with where the camera actually is and ignore that POD stuff
; 249  : 				//PVRTVec3 vFrom, vTo;
; 250  : 				//m_psScene->GetCameraPos(vFrom,vTo,0);	// unsure about 3rd param
; 251  : 				//PVRTVECTOR4	vPos;
; 252  : 				//PVRTTransformBack(&vPos, (PVRTVECTOR4*)&vFrom, &m_mWorld);	// cast is a bit dodgy
; 253  : 				//glExtensions->glUniform3fARB(sUniform.getLocation(), vPos.x, vPos.y, vPos.z);
; 254  : 			}
; 255  : 			break;
; 256  : 		default:
; 257  : 			{	// something went wrong
; 258  : 				ConsoleLog::inst().log("Error: non-mesh uniform being interpreted as mesh uniform\n");

  009e0	eb000000	 bl          |?inst@?$CPVRTSingleton@VConsoleLog@pvrengine@@@@SAAAVConsoleLog@pvrengine@@XZ|
  009e4	e59f1014	 ldr         r1, [pc, #0x14]
  009e8	eb000000	 bl          |?log@ConsoleLog@pvrengine@@QAAXPBDZZ|
  009ec		 |$LN27@CalculateM|

; 259  : 				return;
; 260  : 			}
; 261  : 		}
; 262  : 	}

  009ec	e3a0cb02	 mov         r12, #2, 22
  009f0	e38cc07c	 orr         r12, r12, #0x7C
  009f4	e08dd00c	 add         sp, sp, r12
  009f8	e8bd43f0	 ldmia       sp!, {r4 - r9, lr}
  009fc	e12fff1e	 bx          lr
  00a00		 |$LN271@CalculateM|
  00a00		 |$LN272@CalculateM|
  00a00	00000000	 DCD         |??_C@_0DL@EJMJFGBC@Error?3?5non?9mesh?5uniform?5being?5in@|
  00a04		 |$LN273@CalculateM|
  00a04	00000000	 DCD         |__imp_glUniform3f|
  00a08		 |$LN274@CalculateM|
  00a08	00000000	 DCD         |__imp___negs|
  00a0c		 |$LN275@CalculateM|
  00a0c	00000000	 DCD         |__imp_glUniformMatrix3fv|
  00a10		 |$LN276@CalculateM|
  00a10	00000000	 DCD         |__imp_glUniformMatrix4fv|
  00a14		 |$LN277@CalculateM|
  00a14	00000000	 DCD         |__imp_glEnableVertexAttribArray|
  00a18		 |$LN278@CalculateM|
  00a18	00000000	 DCD         |__imp_glVertexAttribPointer|
  00a1c		 |$LN279@CalculateM|
  00a1c	fffff784	 DCD         0xfffff784
  00a20		 |$M38631|

			 ENDP  ; |?CalculateMeshUniform@UniformHandler@pvrengine@@QAAXABVUniform@2@PAUSPODMesh@@PAUSPODNode@@@Z|, pvrengine::UniformHandler::CalculateMeshUniform

	EXPORT	|?CalculateFrameUniform@UniformHandler@pvrengine@@QAAXABVUniform@2@@Z| ; pvrengine::UniformHandler::CalculateFrameUniform
	EXPORT	|??_C@_0DN@GFFIBEGN@Error?3?5non?9frame?5uniform?5being?5i@| [ DATA ] ; `string'
	IMPORT	|__imp___utod|
	IMPORT	|__imp___gtd|
	IMPORT	|__imp___gts|
	IMPORT	|__imp___utos|
; File c:\wince600\public\powervr-sdk\ogles2\extras\pvrengine\include\ogles2\uniformhandler.h

  00000			 AREA	 |.pdata|, PDATA
|$T38966| DCD	|$LN196@CalculateF|
	DCD	0x40017a02

  00000			 AREA	 |.rdata|, DATA, READONLY
|??_C@_0DN@GFFIBEGN@Error?3?5non?9frame?5uniform?5being?5i@| DCB "Error: "
	DCB	"non-frame uniform being interpreted as frame uniform", 0xa
	DCB	0x0					; `string'
; Function compile flags: /Ogspy
; File c:\wince600\public\powervr-sdk\ogles2\extras\pvrengine\ogles2\uniformhandler.cpp

  00000			 AREA	 |.text|, CODE, ARM

  00000		 |?CalculateFrameUniform@UniformHandler@pvrengine@@QAAXABVUniform@2@@Z| PROC ; pvrengine::UniformHandler::CalculateFrameUniform

; 267  : 	{

  00000		 |$LN196@CalculateF|
  00000	e92d40f0	 stmdb       sp!, {r4 - r7, lr}
  00004	e24ddfd3	 sub         sp, sp, #0xD3, 30
  00008		 |$M38963|
  00008	e1a05000	 mov         r5, r0

; 268  : 		unsigned int u32Semantic = sUniform.getSemantic();

  0000c	e5913004	 ldr         r3, [r1, #4]

; 269  : 		unsigned int index = sUniform.getIdx();

  00010	e5916008	 ldr         r6, [r1, #8]

; 270  : 		setFlag(u32Semantic,index);

  00014	e3a07001	 mov         r7, #1
  00018	e0852103	 add         r2, r5, r3, lsl #2
  0001c	e5923024	 ldr         r3, [r2, #0x24]
  00020	e1833617	 orr         r3, r3, r7, lsl r6
  00024	e5823024	 str         r3, [r2, #0x24]

; 271  : 		switch(sUniform.getSemantic())

  00028	e5913004	 ldr         r3, [r1, #4]
  0002c	e243200b	 sub         r2, r3, #0xB
  00030	e3520025	 cmp         r2, #0x25
  00034	8a00015e	 bhi         |$LN1@CalculateF|
  00038	e1a03082	 mov         r3, r2, lsl #1
  0003c	e083300f	 add         r3, r3, pc
  00040	e1d330b4	 ldrh        r3, [r3, #4]
  00044	e08ff003	 add         pc, pc, r3
  00048		 |$LN155@CalculateF|
  00048		 |$LN154@CalculateF|
  00048		 |$LN156@CalculateF|
  00048	0574		 DCW         0x574
  0004a		 |$LN157@CalculateF|
  0004a	0048		 DCW         0x48
  0004c		 |$LN158@CalculateF|
  0004c	0074		 DCW         0x74
  0004e		 |$LN159@CalculateF|
  0004e	0574		 DCW         0x574
  00050		 |$LN160@CalculateF|
  00050	00ec		 DCW         0xec
  00052		 |$LN161@CalculateF|
  00052	0118		 DCW         0x118
  00054		 |$LN162@CalculateF|
  00054	0568		 DCW         0x568
  00056		 |$LN163@CalculateF|
  00056	0568		 DCW         0x568
  00058		 |$LN164@CalculateF|
  00058	0568		 DCW         0x568
  0005a		 |$LN165@CalculateF|
  0005a	0568		 DCW         0x568
  0005c		 |$LN166@CalculateF|
  0005c	0568		 DCW         0x568
  0005e		 |$LN167@CalculateF|
  0005e	0568		 DCW         0x568
  00060		 |$LN168@CalculateF|
  00060	0574		 DCW         0x574
  00062		 |$LN169@CalculateF|
  00062	0188		 DCW         0x188
  00064		 |$LN170@CalculateF|
  00064	0204		 DCW         0x204
  00066		 |$LN171@CalculateF|
  00066	0568		 DCW         0x568
  00068		 |$LN172@CalculateF|
  00068	0568		 DCW         0x568
  0006a		 |$LN173@CalculateF|
  0006a	0568		 DCW         0x568
  0006c		 |$LN174@CalculateF|
  0006c	0568		 DCW         0x568
  0006e		 |$LN175@CalculateF|
  0006e	0568		 DCW         0x568
  00070		 |$LN176@CalculateF|
  00070	0568		 DCW         0x568
  00072		 |$LN177@CalculateF|
  00072	0568		 DCW         0x568
  00074		 |$LN178@CalculateF|
  00074	0568		 DCW         0x568
  00076		 |$LN179@CalculateF|
  00076	0568		 DCW         0x568
  00078		 |$LN180@CalculateF|
  00078	0568		 DCW         0x568
  0007a		 |$LN181@CalculateF|
  0007a	0568		 DCW         0x568
  0007c		 |$LN182@CalculateF|
  0007c	0568		 DCW         0x568
  0007e		 |$LN183@CalculateF|
  0007e	02c4		 DCW         0x2c4
  00080		 |$LN184@CalculateF|
  00080	0568		 DCW         0x568
  00082		 |$LN185@CalculateF|
  00082	02e8		 DCW         0x2e8
  00084		 |$LN186@CalculateF|
  00084	031c		 DCW         0x31c
  00086		 |$LN187@CalculateF|
  00086	0568		 DCW         0x568
  00088		 |$LN188@CalculateF|
  00088	0384		 DCW         0x384
  0008a		 |$LN189@CalculateF|
  0008a	0408		 DCW         0x408
  0008c		 |$LN190@CalculateF|
  0008c	0568		 DCW         0x568
  0008e		 |$LN191@CalculateF|
  0008e	0574		 DCW         0x574
  00090		 |$LN192@CalculateF|
  00090	0568		 DCW         0x568
  00092		 |$LN193@CalculateF|
  00092	04cc		 DCW         0x4cc
  00094		 |$LN23@CalculateF|

; 272  : 		{
; 273  : 		case eUsVIEW:
; 274  : 			{
; 275  : 				// not required
; 276  : 			}
; 277  : 			break;
; 278  : 		case eUsVIEWI:
; 279  : 			{
; 280  : 				m_mViewI = m_mView.inverse();

  00094	e28d1f53	 add         r1, sp, #0x53, 30
  00098	e2850f49	 add         r0, r5, #0x49, 30
  0009c	eb000000	 bl          |?inverse@PVRTMat4@@QBA?AU1@XZ|
  000a0	e2852f59	 add         r2, r5, #0x59, 30
  000a4	e0400002	 sub         r0, r0, r2
  000a8	e3a01010	 mov         r1, #0x10
  000ac		 |$LL39@CalculateF|
  000ac	e7903002	 ldr         r3, [r0, +r2]
  000b0	e2511001	 subs        r1, r1, #1
  000b4	e4823004	 str         r3, [r2], #4
  000b8	1afffffb	 bne         |$LL39@CalculateF|

; 281  : 			}
; 282  : 			break;

  000bc	ea00013f	 b           |$LN25@CalculateF|
  000c0		 |$LN22@CalculateF|

; 283  : 		case eUsVIEWIT:
; 284  : 			{
; 285  : 				if(!getFlag(eUsVIEWI))

  000c0	e5953054	 ldr         r3, [r5, #0x54]
  000c4	e3130001	 tst         r3, #1
  000c8	13a03001	 movne       r3, #1
  000cc	03a03000	 moveq       r3, #0
  000d0	e21330ff	 ands        r3, r3, #0xFF

; 407  : 		default:
; 408  : 			{	// something went wrong
; 409  : 				ConsoleLog::inst().log("Error: non-frame uniform being interpreted as frame uniform\n");

  000d4	1a00000c	 bne         |$LN51@CalculateF|
  000d8	e28d1fb3	 add         r1, sp, #0xB3, 30
  000dc	e2850f49	 add         r0, r5, #0x49, 30
  000e0	eb000000	 bl          |?inverse@PVRTMat4@@QBA?AU1@XZ|
  000e4	e2852f59	 add         r2, r5, #0x59, 30
  000e8	e0400002	 sub         r0, r0, r2
  000ec	e3a01010	 mov         r1, #0x10
  000f0		 |$LL48@CalculateF|
  000f0	e7903002	 ldr         r3, [r0, +r2]
  000f4	e2511001	 subs        r1, r1, #1
  000f8	e4823004	 str         r3, [r2], #4
  000fc	1afffffb	 bne         |$LL48@CalculateF|
  00100	e5953054	 ldr         r3, [r5, #0x54]
  00104	e3833001	 orr         r3, r3, #1
  00108	e5853054	 str         r3, [r5, #0x54]
  0010c		 |$LN51@CalculateF|
  0010c	e28d108c	 add         r1, sp, #0x8C
  00110	e2850f59	 add         r0, r5, #0x59, 30
  00114	eb000000	 bl          |?transpose@PVRTMat4@@QBA?AU1@XZ|
  00118	e1a01000	 mov         r1, r0
  0011c	e28d0020	 add         r0, sp, #0x20
  00120	eb000000	 bl          |??0PVRTMat3@@QAA@ABUPVRTMat4@@@Z|
  00124	e2850f69	 add         r0, r5, #0x69, 30
  00128	e28d1020	 add         r1, sp, #0x20
  0012c		 |$LN153@CalculateF|
  0012c	e3a02024	 mov         r2, #0x24
  00130	eb000000	 bl          memcpy
  00134	ea000121	 b           |$LN25@CalculateF|
  00138		 |$LN19@CalculateF|

; 286  : 				{
; 287  : 					m_mViewI = m_mView.inverse();
; 288  : 					setFlag(eUsVIEWI);
; 289  : 				}
; 290  : 				m_mViewIT = m_mViewI.transpose();
; 291  : 			}
; 292  : 			break;
; 293  : 		case eUsPROJECTION:
; 294  : 			{
; 295  : 				// not required
; 296  : 			}
; 297  : 			break;
; 298  : 		case eUsPROJECTIONI:
; 299  : 			{
; 300  : 				m_mProjectionI = m_mProjection.inverse();

  00138	e28d1f93	 add         r1, sp, #0x93, 30
  0013c	e2850f72	 add         r0, r5, #0x72, 30
  00140	eb000000	 bl          |?inverse@PVRTMat4@@QBA?AU1@XZ|
  00144	e2852f82	 add         r2, r5, #0x82, 30
  00148	e0400002	 sub         r0, r0, r2
  0014c	e3a01010	 mov         r1, #0x10
  00150		 |$LL55@CalculateF|
  00150	e7903002	 ldr         r3, [r0, +r2]
  00154	e2511001	 subs        r1, r1, #1
  00158	e4823004	 str         r3, [r2], #4
  0015c	1afffffb	 bne         |$LL55@CalculateF|

; 301  : 			}
; 302  : 			break;

  00160	ea000116	 b           |$LN25@CalculateF|
  00164		 |$LN18@CalculateF|

; 303  : 		case eUsPROJECTIONIT:
; 304  : 			{
; 305  : 				if(!getFlag(eUsPROJECTIONI))

  00164	e5953060	 ldr         r3, [r5, #0x60]
  00168	e3130001	 tst         r3, #1
  0016c	13a03001	 movne       r3, #1
  00170	03a03000	 moveq       r3, #0
  00174	e21330ff	 ands        r3, r3, #0xFF

; 407  : 		default:
; 408  : 			{	// something went wrong
; 409  : 				ConsoleLog::inst().log("Error: non-frame uniform being interpreted as frame uniform\n");

  00178	1a00000c	 bne         |$LN67@CalculateF|
  0017c	e28d1f73	 add         r1, sp, #0x73, 30
  00180	e2850f72	 add         r0, r5, #0x72, 30
  00184	eb000000	 bl          |?inverse@PVRTMat4@@QBA?AU1@XZ|
  00188	e2852f82	 add         r2, r5, #0x82, 30
  0018c	e0400002	 sub         r0, r0, r2
  00190	e3a01010	 mov         r1, #0x10
  00194		 |$LL64@CalculateF|
  00194	e7903002	 ldr         r3, [r0, +r2]
  00198	e2511001	 subs        r1, r1, #1
  0019c	e4823004	 str         r3, [r2], #4
  001a0	1afffffb	 bne         |$LL64@CalculateF|
  001a4	e5953060	 ldr         r3, [r5, #0x60]
  001a8	e3833001	 orr         r3, r3, #1
  001ac	e5853060	 str         r3, [r5, #0x60]
  001b0		 |$LN67@CalculateF|
  001b0	e28d10cc	 add         r1, sp, #0xCC
  001b4	e2850f82	 add         r0, r5, #0x82, 30
  001b8	eb000000	 bl          |?transpose@PVRTMat4@@QBA?AU1@XZ|
  001bc	e1a01000	 mov         r1, r0
  001c0	e28d0044	 add         r0, sp, #0x44
  001c4	eb000000	 bl          |??0PVRTMat3@@QAA@ABUPVRTMat4@@@Z|
  001c8	e2850f92	 add         r0, r5, #0x92, 30
  001cc	e28d1044	 add         r1, sp, #0x44
  001d0	eaffffd5	 b           |$LN153@CalculateF|
  001d4		 |$LN15@CalculateF|

; 306  : 				{
; 307  : 					m_mProjectionI = m_mProjection.inverse();
; 308  : 					setFlag(eUsPROJECTIONI);
; 309  : 				}
; 310  : 				m_mProjectionIT = m_mProjectionI.transpose();
; 311  : 			}
; 312  : 			break;
; 313  : 		case eUsVIEWPROJECTION:
; 314  : 			{
; 315  : 				// not required
; 316  : 			}
; 317  : 			break;
; 318  : 		case eUsVIEWPROJECTIONI:
; 319  : 			{
; 320  : 				if(!getFlag(eUsVIEWPROJECTION))

  001d4	e5953080	 ldr         r3, [r5, #0x80]
  001d8	e3130001	 tst         r3, #1
  001dc	13a03001	 movne       r3, #1
  001e0	03a03000	 moveq       r3, #0
  001e4	e21330ff	 ands        r3, r3, #0xFF

; 407  : 		default:
; 408  : 			{	// something went wrong
; 409  : 				ConsoleLog::inst().log("Error: non-frame uniform being interpreted as frame uniform\n");

  001e8	1a00000d	 bne         |$LN78@CalculateF|
  001ec	e2852f49	 add         r2, r5, #0x49, 30
  001f0	e28d1f43	 add         r1, sp, #0x43, 30
  001f4	e2850f72	 add         r0, r5, #0x72, 30
  001f8	eb000000	 bl          |??DPVRTMat4@@QBA?AU0@ABU0@@Z|
  001fc	e2852f9b	 add         r2, r5, #0x9B, 30
  00200	e0400002	 sub         r0, r0, r2
  00204	e3a01010	 mov         r1, #0x10
  00208		 |$LL75@CalculateF|
  00208	e7903002	 ldr         r3, [r0, +r2]
  0020c	e2511001	 subs        r1, r1, #1
  00210	e4823004	 str         r3, [r2], #4
  00214	1afffffb	 bne         |$LL75@CalculateF|
  00218	e5953080	 ldr         r3, [r5, #0x80]
  0021c	e3833001	 orr         r3, r3, #1
  00220	e5853080	 str         r3, [r5, #0x80]
  00224		 |$LN78@CalculateF|
  00224	e28d1f63	 add         r1, sp, #0x63, 30
  00228	e2850f72	 add         r0, r5, #0x72, 30
  0022c	eb000000	 bl          |?inverse@PVRTMat4@@QBA?AU1@XZ|
  00230	e2852fab	 add         r2, r5, #0xAB, 30
  00234	e0400002	 sub         r0, r0, r2
  00238	e3a01010	 mov         r1, #0x10
  0023c		 |$LL82@CalculateF|
  0023c	e7903002	 ldr         r3, [r0, +r2]
  00240	e2511001	 subs        r1, r1, #1
  00244	e4823004	 str         r3, [r2], #4
  00248	1afffffb	 bne         |$LL82@CalculateF|

; 321  : 				{
; 322  : 					m_mViewProjection = m_mProjection * m_mView;
; 323  : 					setFlag(eUsVIEWPROJECTION);
; 324  : 				}
; 325  : 				m_mViewProjectionI = m_mProjection.inverse();
; 326  : 			}
; 327  : 			break;

  0024c	ea0000db	 b           |$LN25@CalculateF|
  00250		 |$LN13@CalculateF|

; 328  : 		case eUsVIEWPROJECTIONIT:
; 329  : 			{
; 330  : 				if(!getFlag(eUsVIEWPROJECTIONI))

  00250	e5953084	 ldr         r3, [r5, #0x84]
  00254	e3130001	 tst         r3, #1
  00258	13a03001	 movne       r3, #1
  0025c	03a03000	 moveq       r3, #0
  00260	e21330ff	 ands        r3, r3, #0xFF

; 407  : 		default:
; 408  : 			{	// something went wrong
; 409  : 				ConsoleLog::inst().log("Error: non-frame uniform being interpreted as frame uniform\n");

  00264	1a000020	 bne         |$LN105@CalculateF|
  00268	e5953080	 ldr         r3, [r5, #0x80]
  0026c	e3130001	 tst         r3, #1
  00270	13a03001	 movne       r3, #1
  00274	03a03000	 moveq       r3, #0
  00278	e21330ff	 ands        r3, r3, #0xFF
  0027c	1a00000d	 bne         |$LN98@CalculateF|
  00280	e2852f49	 add         r2, r5, #0x49, 30
  00284	e28d1f83	 add         r1, sp, #0x83, 30
  00288	e2850f72	 add         r0, r5, #0x72, 30
  0028c	eb000000	 bl          |??DPVRTMat4@@QBA?AU0@ABU0@@Z|
  00290	e2852f9b	 add         r2, r5, #0x9B, 30
  00294	e0400002	 sub         r0, r0, r2
  00298	e3a01010	 mov         r1, #0x10
  0029c		 |$LL95@CalculateF|
  0029c	e7903002	 ldr         r3, [r0, +r2]
  002a0	e2511001	 subs        r1, r1, #1
  002a4	e4823004	 str         r3, [r2], #4
  002a8	1afffffb	 bne         |$LL95@CalculateF|
  002ac	e5953080	 ldr         r3, [r5, #0x80]
  002b0	e3833001	 orr         r3, r3, #1
  002b4	e5853080	 str         r3, [r5, #0x80]
  002b8		 |$LN98@CalculateF|
  002b8	e28d1fa3	 add         r1, sp, #0xA3, 30
  002bc	e2850f72	 add         r0, r5, #0x72, 30
  002c0	eb000000	 bl          |?inverse@PVRTMat4@@QBA?AU1@XZ|
  002c4	e2852fab	 add         r2, r5, #0xAB, 30
  002c8	e0400002	 sub         r0, r0, r2
  002cc	e3a01010	 mov         r1, #0x10
  002d0		 |$LL102@CalculateF|
  002d0	e7903002	 ldr         r3, [r0, +r2]
  002d4	e2511001	 subs        r1, r1, #1
  002d8	e4823004	 str         r3, [r2], #4
  002dc	1afffffb	 bne         |$LL102@CalculateF|
  002e0	e5953084	 ldr         r3, [r5, #0x84]
  002e4	e3833001	 orr         r3, r3, #1
  002e8	e5853084	 str         r3, [r5, #0x84]
  002ec		 |$LN105@CalculateF|
  002ec	e28d1fc3	 add         r1, sp, #0xC3, 30
  002f0	e2850fab	 add         r0, r5, #0xAB, 30
  002f4	eb000000	 bl          |?transpose@PVRTMat4@@QBA?AU1@XZ|
  002f8	e1a01000	 mov         r1, r0
  002fc	e28d0068	 add         r0, sp, #0x68
  00300	eb000000	 bl          |??0PVRTMat3@@QAA@ABUPVRTMat4@@@Z|
  00304	e2850fbb	 add         r0, r5, #0xBB, 30
  00308	e28d1068	 add         r1, sp, #0x68
  0030c	eaffff86	 b           |$LN153@CalculateF|
  00310		 |$LN10@CalculateF|

; 331  : 				{
; 332  : 					if(!getFlag(eUsVIEWPROJECTION))
; 333  : 					{
; 334  : 						m_mViewProjection = m_mProjection * m_mView;
; 335  : 						setFlag(eUsVIEWPROJECTION);
; 336  : 					}
; 337  : 					m_mViewProjectionI = m_mProjection.inverse();
; 338  : 					setFlag(eUsVIEWPROJECTIONI);
; 339  : 				}
; 340  : 				m_mViewProjectionIT = m_mViewProjectionI.transpose();
; 341  : 			}
; 342  : 			break;
; 343  : 		case eUsLIGHTCOLOR:
; 344  : 			{
; 345  : 				m_pfLightColor[sUniform.getIdx()] = m_psScene->pLight[sUniform.getIdx()].pfColour;

  00310	e5953018	 ldr         r3, [r5, #0x18]
  00314	e5912008	 ldr         r2, [r1, #8]
  00318	e5931024	 ldr         r1, [r3, #0x24]
  0031c	e0823102	 add         r3, r2, r2, lsl #2
  00320	e0852102	 add         r2, r5, r2, lsl #2
  00324	e0813103	 add         r3, r1, r3, lsl #2
  00328	e2833004	 add         r3, r3, #4
  0032c	e5823480	 str         r3, [r2, #0x480]

; 346  : 			}
; 347  : 			break;

  00330	ea0000a2	 b           |$LN25@CalculateF|
  00334		 |$LN9@CalculateF|

; 348  : 
; 349  : 		case eUsLIGHTPOSWORLD:
; 350  : 			{
; 351  : 				m_vLightPosWorld[index] = ((LightPoint*)m_pLightManager->getLight(index))->getPositionPVRTVec4();

  00334	e5953d00	 ldr         r3, [r5, #0xD00]
  00338	e0851206	 add         r1, r5, r6, lsl #4
  0033c	e593300c	 ldr         r3, [r3, #0xC]
  00340	e7932106	 ldr         r2, [r3, +r6, lsl #2]
  00344	e5923010	 ldr         r3, [r2, #0x10]
  00348	e5813500	 str         r3, [r1, #0x500]
  0034c	e5923014	 ldr         r3, [r2, #0x14]
  00350	e5813504	 str         r3, [r1, #0x504]
  00354	e5923018	 ldr         r3, [r2, #0x18]
  00358	e5813508	 str         r3, [r1, #0x508]
  0035c	e592301c	 ldr         r3, [r2, #0x1C]
  00360	e581350c	 str         r3, [r1, #0x50C]

; 352  : 			}
; 353  : 			break;

  00364	ea000095	 b           |$LN25@CalculateF|
  00368		 |$LN8@CalculateF|

; 354  : 		case eUsLIGHTPOSEYE:
; 355  : 			{
; 356  : 				m_vLightPosWorld[index] = ((LightPoint*)m_pLightManager->getLight(index))->getPositionPVRTVec4();

  00368	e5952d00	 ldr         r2, [r5, #0xD00]

; 357  : 
; 358  : 				// Passes the light position in eye space to the shader
; 359  : 				m_vLightPosEye[index] =  m_mView * m_vLightPosWorld[index];

  0036c	e2863050	 add         r3, r6, #0x50
  00370	e0854206	 add         r4, r5, r6, lsl #4
  00374	e592000c	 ldr         r0, [r2, #0xC]
  00378	e0852203	 add         r2, r5, r3, lsl #4
  0037c	e28d1000	 add         r1, sp, #0
  00380	e790e106	 ldr         lr, [r0, +r6, lsl #2]
  00384	e2850f49	 add         r0, r5, #0x49, 30
  00388	e59e3010	 ldr         r3, [lr, #0x10]
  0038c	e5843500	 str         r3, [r4, #0x500]
  00390	e59e3014	 ldr         r3, [lr, #0x14]
  00394	e5843504	 str         r3, [r4, #0x504]
  00398	e59e3018	 ldr         r3, [lr, #0x18]
  0039c	e5843508	 str         r3, [r4, #0x508]
  003a0	e59e301c	 ldr         r3, [lr, #0x1C]
  003a4	e584350c	 str         r3, [r4, #0x50C]
  003a8	eb000000	 bl          |??DPVRTMat4@@QBA?AUPVRTVec4@@ABU1@@Z|
  003ac	e5903000	 ldr         r3, [r0]
  003b0	e5843700	 str         r3, [r4, #0x700]
  003b4	e5903004	 ldr         r3, [r0, #4]
  003b8	e5843704	 str         r3, [r4, #0x704]
  003bc	e5903008	 ldr         r3, [r0, #8]
  003c0	e5843708	 str         r3, [r4, #0x708]
  003c4	e590300c	 ldr         r3, [r0, #0xC]
  003c8	e584370c	 str         r3, [r4, #0x70C]

; 360  : 			}
; 361  : 			break;

  003cc	ea00007b	 b           |$LN25@CalculateF|
  003d0		 |$LN7@CalculateF|

; 362  : 		case eUsLIGHTDIRWORLD:
; 363  : 			{
; 364  : 				// gets the light direction.
; 365  : 				m_vLightDirWorld[index] = ((LightDirectional*)m_pLightManager->getLight(index))->getDirectionPVRTVec4();

  003d0	e5953d00	 ldr         r3, [r5, #0xD00]

; 366  : 
; 367  : 				m_vLightDirWorld[index].x = -m_vLightDirWorld[index].x;

  003d4	e59f2208	 ldr         r2, [pc, #0x208]
  003d8	e0854206	 add         r4, r5, r6, lsl #4
  003dc	e593300c	 ldr         r3, [r3, #0xC]
  003e0	e5921000	 ldr         r1, [r2]
  003e4	e7932106	 ldr         r2, [r3, +r6, lsl #2]
  003e8	e5923010	 ldr         r3, [r2, #0x10]
  003ec	e5843900	 str         r3, [r4, #0x900]
  003f0	e5923014	 ldr         r3, [r2, #0x14]
  003f4	e5940900	 ldr         r0, [r4, #0x900]
  003f8	e5843904	 str         r3, [r4, #0x904]
  003fc	e5923018	 ldr         r3, [r2, #0x18]
  00400	e5843908	 str         r3, [r4, #0x908]
  00404	e592301c	 ldr         r3, [r2, #0x1C]
  00408	e584390c	 str         r3, [r4, #0x90C]
  0040c	e1a0e00f	 mov         lr, pc
  00410	e12fff11	 bx          r1

; 368  : 				m_vLightDirWorld[index].y = -m_vLightDirWorld[index].y;

  00414	e59f31c8	 ldr         r3, [pc, #0x1C8]
  00418	e1a02000	 mov         r2, r0
  0041c	e5940904	 ldr         r0, [r4, #0x904]
  00420	e5933000	 ldr         r3, [r3]
  00424	e5842900	 str         r2, [r4, #0x900]
  00428	e1a0e00f	 mov         lr, pc
  0042c	e12fff13	 bx          r3

; 369  : 				m_vLightDirWorld[index].z = -m_vLightDirWorld[index].z;

  00430	e59f31ac	 ldr         r3, [pc, #0x1AC]
  00434	e1a02000	 mov         r2, r0
  00438	e5940908	 ldr         r0, [r4, #0x908]
  0043c	e5933000	 ldr         r3, [r3]
  00440	e5842904	 str         r2, [r4, #0x904]
  00444	e1a0e00f	 mov         lr, pc
  00448	e12fff13	 bx          r3
  0044c	e5840908	 str         r0, [r4, #0x908]

; 370  : 			}
; 371  : 			break;

  00450	ea00005a	 b           |$LN25@CalculateF|
  00454		 |$LN6@CalculateF|

; 372  : 		case eUsLIGHTDIREYE:
; 373  : 			{
; 374  : 				// Reads the light direction from the scene.
; 375  : 				m_vLightDirWorld[index] = ((LightDirectional*)m_pLightManager->getLight(index))->getDirectionPVRTVec4();

  00454	e5953d00	 ldr         r3, [r5, #0xD00]

; 376  : 
; 377  : 				m_vLightDirWorld[index].x = -m_vLightDirWorld[index].x;

  00458	e59f2184	 ldr         r2, [pc, #0x184]
  0045c	e0854206	 add         r4, r5, r6, lsl #4
  00460	e593300c	 ldr         r3, [r3, #0xC]
  00464	e5921000	 ldr         r1, [r2]
  00468	e7932106	 ldr         r2, [r3, +r6, lsl #2]
  0046c	e5923010	 ldr         r3, [r2, #0x10]
  00470	e5843900	 str         r3, [r4, #0x900]
  00474	e5923014	 ldr         r3, [r2, #0x14]
  00478	e5940900	 ldr         r0, [r4, #0x900]
  0047c	e5843904	 str         r3, [r4, #0x904]
  00480	e5923018	 ldr         r3, [r2, #0x18]
  00484	e5843908	 str         r3, [r4, #0x908]
  00488	e592301c	 ldr         r3, [r2, #0x1C]
  0048c	e584390c	 str         r3, [r4, #0x90C]
  00490	e1a0e00f	 mov         lr, pc
  00494	e12fff11	 bx          r1

; 378  : 				m_vLightDirWorld[index].y = -m_vLightDirWorld[index].y;

  00498	e59f3144	 ldr         r3, [pc, #0x144]
  0049c	e1a02000	 mov         r2, r0
  004a0	e5940904	 ldr         r0, [r4, #0x904]
  004a4	e5933000	 ldr         r3, [r3]
  004a8	e5842900	 str         r2, [r4, #0x900]
  004ac	e1a0e00f	 mov         lr, pc
  004b0	e12fff13	 bx          r3

; 379  : 				m_vLightDirWorld[index].z = -m_vLightDirWorld[index].z;

  004b4	e59f3128	 ldr         r3, [pc, #0x128]
  004b8	e1a02000	 mov         r2, r0
  004bc	e5940908	 ldr         r0, [r4, #0x908]
  004c0	e5933000	 ldr         r3, [r3]
  004c4	e5842904	 str         r2, [r4, #0x904]
  004c8	e1a0e00f	 mov         lr, pc
  004cc	e12fff13	 bx          r3
  004d0	e5840908	 str         r0, [r4, #0x908]

; 380  : 
; 381  : 				setFlag(eUsLIGHTDIRWORLD,index);

  004d4	e59530d0	 ldr         r3, [r5, #0xD0]

; 382  : 
; 383  : 				// Passes the light direction in eye space to the shader
; 384  : 				m_vLightDirEye[index] = m_vLightDirWorld[index] * m_mView;

  004d8	e2860090	 add         r0, r6, #0x90
  004dc	e2852f49	 add         r2, r5, #0x49, 30
  004e0	e1833617	 orr         r3, r3, r7, lsl r6
  004e4	e28d1010	 add         r1, sp, #0x10
  004e8	e0850200	 add         r0, r5, r0, lsl #4
  004ec	e58530d0	 str         r3, [r5, #0xD0]
  004f0	eb000000	 bl          |??DPVRTVec4@@QBA?AU0@ABUPVRTMat4@@@Z|
  004f4	e5903000	 ldr         r3, [r0]
  004f8	e5843b00	 str         r3, [r4, #0xB00]
  004fc	e5903004	 ldr         r3, [r0, #4]
  00500	e5843b04	 str         r3, [r4, #0xB04]
  00504	e5903008	 ldr         r3, [r0, #8]
  00508	e5843b08	 str         r3, [r4, #0xB08]
  0050c	e590300c	 ldr         r3, [r0, #0xC]
  00510	e5843b0c	 str         r3, [r4, #0xB0C]

; 385  : 			}
; 386  : 			break;

  00514	ea000029	 b           |$LN25@CalculateF|
  00518		 |$LN4@CalculateF|

; 387  : 		case eUsEYEPOSWORLD:
; 388  : 			{
; 389  : 				//TODO: FIx me!!!
; 390  : 				//PVRTVec3 vTo;
; 391  : 				//m_psScene->GetCameraPos(m_vEyePositionWorld,vTo,0);	// unsure about 3rd param ; camera num???
; 392  : 			}
; 393  : 			break;
; 394  : 		case eUsANIMATION:
; 395  : 			{
; 396  : 				if(m_psScene->nNumFrame > 0.0 && m_fFrame > 0.0)

  00518	e5953018	 ldr         r3, [r5, #0x18]
  0051c	e59f20bc	 ldr         r2, [pc, #0xBC]
  00520	e593604c	 ldr         r6, [r3, #0x4C]
  00524	e5923000	 ldr         r3, [r2]
  00528	e1a00006	 mov         r0, r6
  0052c	e1a0e00f	 mov         lr, pc
  00530	e12fff13	 bx          r3
  00534	e59fe0a0	 ldr         lr, [pc, #0xA0]
  00538	e3a02000	 mov         r2, #0
  0053c	e3a03000	 mov         r3, #0
  00540	e59e4000	 ldr         r4, [lr]
  00544	e1a0e00f	 mov         lr, pc
  00548	e12fff14	 bx          r4
  0054c	e3500000	 cmp         r0, #0
  00550	0a000014	 beq         |$LN3@CalculateF|
  00554	e59f307c	 ldr         r3, [pc, #0x7C]
  00558	e595001c	 ldr         r0, [r5, #0x1C]
  0055c	e3a01000	 mov         r1, #0
  00560	e5933000	 ldr         r3, [r3]
  00564	e1a0e00f	 mov         lr, pc
  00568	e12fff13	 bx          r3
  0056c	e3500000	 cmp         r0, #0
  00570	0a00000c	 beq         |$LN3@CalculateF|

; 397  : 				{
; 398  : 					// Float in the range 0..1: contains this objects distance through its animation.
; 399  : 					m_fAnimation = (float)m_fFrame / (float)m_psScene->nNumFrame;

  00574	e59f3058	 ldr         r3, [pc, #0x58]
  00578	e1a00006	 mov         r0, r6
  0057c	e5933000	 ldr         r3, [r3]
  00580	e1a0e00f	 mov         lr, pc
  00584	e12fff13	 bx          r3
  00588	e59f3040	 ldr         r3, [pc, #0x40]
  0058c	e1a01000	 mov         r1, r0
  00590	e595001c	 ldr         r0, [r5, #0x1C]
  00594	e5933000	 ldr         r3, [r3]
  00598	e1a0e00f	 mov         lr, pc
  0059c	e12fff13	 bx          r3
  005a0	e5850020	 str         r0, [r5, #0x20]

; 400  : 				}
; 401  : 				else

  005a4	ea000005	 b           |$LN25@CalculateF|
  005a8		 |$LN3@CalculateF|

; 402  : 				{
; 403  : 					m_fAnimation=0.0f;

  005a8	e3a03000	 mov         r3, #0
  005ac	e5853020	 str         r3, [r5, #0x20]

; 404  : 				}
; 405  : 			}
; 406  : 			break;

  005b0	ea000002	 b           |$LN25@CalculateF|
  005b4		 |$LN1@CalculateF|

; 407  : 		default:
; 408  : 			{	// something went wrong
; 409  : 				ConsoleLog::inst().log("Error: non-frame uniform being interpreted as frame uniform\n");

  005b4	eb000000	 bl          |?inst@?$CPVRTSingleton@VConsoleLog@pvrengine@@@@SAAAVConsoleLog@pvrengine@@XZ|
  005b8	e59f100c	 ldr         r1, [pc, #0xC]
  005bc	eb000000	 bl          |?log@ConsoleLog@pvrengine@@QAAXPBDZZ|
  005c0		 |$LN25@CalculateF|

; 410  : 				return;
; 411  : 			}
; 412  : 		}
; 413  : 	}

  005c0	e28ddfd3	 add         sp, sp, #0xD3, 30
  005c4	e8bd40f0	 ldmia       sp!, {r4 - r7, lr}
  005c8	e12fff1e	 bx          lr
  005cc		 |$LN197@CalculateF|
  005cc		 |$LN198@CalculateF|
  005cc	00000000	 DCD         |??_C@_0DN@GFFIBEGN@Error?3?5non?9frame?5uniform?5being?5i@|
  005d0		 |$LN199@CalculateF|
  005d0	00000000	 DCD         |__imp___divs|
  005d4		 |$LN200@CalculateF|
  005d4	00000000	 DCD         |__imp___utos|
  005d8		 |$LN201@CalculateF|
  005d8	00000000	 DCD         |__imp___gts|
  005dc		 |$LN202@CalculateF|
  005dc	00000000	 DCD         |__imp___gtd|
  005e0		 |$LN203@CalculateF|
  005e0	00000000	 DCD         |__imp___utod|
  005e4		 |$LN204@CalculateF|
  005e4	00000000	 DCD         |__imp___negs|
  005e8		 |$M38964|

			 ENDP  ; |?CalculateFrameUniform@UniformHandler@pvrengine@@QAAXABVUniform@2@@Z|, pvrengine::UniformHandler::CalculateFrameUniform

	EXPORT	|?BindFrameUniform@UniformHandler@pvrengine@@QAAXABVUniform@2@@Z| ; pvrengine::UniformHandler::BindFrameUniform
	IMPORT	|__imp_glUniform1f|
; File c:\wince600\public\powervr-sdk\ogles2\extras\pvrengine\include\ogles2\uniform.h

  00000			 AREA	 |.pdata|, PDATA
|$T39100| DCD	|$LN102@BindFrameU|
	DCD	0x4000cd01
; Function compile flags: /Ogspy
; File c:\wince600\public\powervr-sdk\ogles2\extras\pvrengine\ogles2\uniformhandler.cpp

  00000			 AREA	 |.text|, CODE, ARM

  00000		 |?BindFrameUniform@UniformHandler@pvrengine@@QAAXABVUniform@2@@Z| PROC ; pvrengine::UniformHandler::BindFrameUniform

; 418  : 	{

  00000		 |$LN102@BindFrameU|
  00000	e92d4030	 stmdb       sp!, {r4, r5, lr}
  00004		 |$M39097|
  00004	e1a05001	 mov         r5, r1
  00008	e1a0e000	 mov         lr, r0

; 419  : 		EUniformSemantic eSemantic = sUniform.getSemantic();
; 420  : 		unsigned int index = sUniform.getIdx();
; 421  : 		_ASSERT(getFlag(eSemantic,index));
; 422  : 
; 423  : 		switch(sUniform.getSemantic())

  0000c	e5953004	 ldr         r3, [r5, #4]
  00010	e5951008	 ldr         r1, [r5, #8]
  00014	e243200b	 sub         r2, r3, #0xB
  00018	e3520025	 cmp         r2, #0x25
  0001c	8a0000ba	 bhi         |$LN1@BindFrameU|
  00020	e1a03082	 mov         r3, r2, lsl #1
  00024	e083300f	 add         r3, r3, pc
  00028	e1d330b4	 ldrh        r3, [r3, #4]
  0002c	e08ff003	 add         pc, pc, r3
  00030		 |$LN61@BindFrameU|
  00030		 |$LN60@BindFrameU|
  00030		 |$LN62@BindFrameU|
  00030	0048		 DCW         0x48
  00032		 |$LN63@BindFrameU|
  00032	0070		 DCW         0x70
  00034		 |$LN64@BindFrameU|
  00034	0098		 DCW         0x98
  00036		 |$LN65@BindFrameU|
  00036	00c0		 DCW         0xc0
  00038		 |$LN66@BindFrameU|
  00038	00e8		 DCW         0xe8
  0003a		 |$LN67@BindFrameU|
  0003a	0110		 DCW         0x110
  0003c		 |$LN68@BindFrameU|
  0003c	02d8		 DCW         0x2d8
  0003e		 |$LN69@BindFrameU|
  0003e	02d8		 DCW         0x2d8
  00040		 |$LN70@BindFrameU|
  00040	02d8		 DCW         0x2d8
  00042		 |$LN71@BindFrameU|
  00042	02d8		 DCW         0x2d8
  00044		 |$LN72@BindFrameU|
  00044	02d8		 DCW         0x2d8
  00046		 |$LN73@BindFrameU|
  00046	02d8		 DCW         0x2d8
  00048		 |$LN74@BindFrameU|
  00048	0138		 DCW         0x138
  0004a		 |$LN75@BindFrameU|
  0004a	0160		 DCW         0x160
  0004c		 |$LN76@BindFrameU|
  0004c	0188		 DCW         0x188
  0004e		 |$LN77@BindFrameU|
  0004e	02d8		 DCW         0x2d8
  00050		 |$LN78@BindFrameU|
  00050	02d8		 DCW         0x2d8
  00052		 |$LN79@BindFrameU|
  00052	02d8		 DCW         0x2d8
  00054		 |$LN80@BindFrameU|
  00054	02d8		 DCW         0x2d8
  00056		 |$LN81@BindFrameU|
  00056	02d8		 DCW         0x2d8
  00058		 |$LN82@BindFrameU|
  00058	02d8		 DCW         0x2d8
  0005a		 |$LN83@BindFrameU|
  0005a	02d8		 DCW         0x2d8
  0005c		 |$LN84@BindFrameU|
  0005c	02d8		 DCW         0x2d8
  0005e		 |$LN85@BindFrameU|
  0005e	02d8		 DCW         0x2d8
  00060		 |$LN86@BindFrameU|
  00060	02d8		 DCW         0x2d8
  00062		 |$LN87@BindFrameU|
  00062	02d8		 DCW         0x2d8
  00064		 |$LN88@BindFrameU|
  00064	02d8		 DCW         0x2d8
  00066		 |$LN89@BindFrameU|
  00066	01b0		 DCW         0x1b0
  00068		 |$LN90@BindFrameU|
  00068	02d8		 DCW         0x2d8
  0006a		 |$LN91@BindFrameU|
  0006a	01e0		 DCW         0x1e0
  0006c		 |$LN92@BindFrameU|
  0006c	020c		 DCW         0x20c
  0006e		 |$LN93@BindFrameU|
  0006e	02d8		 DCW         0x2d8
  00070		 |$LN94@BindFrameU|
  00070	0238		 DCW         0x238
  00072		 |$LN95@BindFrameU|
  00072	0264		 DCW         0x264
  00074		 |$LN96@BindFrameU|
  00074	02d8		 DCW         0x2d8
  00076		 |$LN97@BindFrameU|
  00076	0290		 DCW         0x290
  00078		 |$LN98@BindFrameU|
  00078	02d8		 DCW         0x2d8
  0007a		 |$LN99@BindFrameU|
  0007a	02b8		 DCW         0x2b8
  0007c		 |$LN17@BindFrameU|

; 424  : 		{
; 425  : 		case eUsVIEW:
; 426  : 			{
; 427  : 				glUniformMatrix4fv(sUniform.getLocation(), 1, GL_FALSE, m_mView.f);

  0007c	e59f22ac	 ldr         r2, [pc, #0x2AC]
  00080	e5950000	 ldr         r0, [r5]
  00084	e28e3f49	 add         r3, lr, #0x49, 30
  00088	e5924000	 ldr         r4, [r2]
  0008c	e3a02000	 mov         r2, #0
  00090	e3a01001	 mov         r1, #1
  00094	e1a0e00f	 mov         lr, pc
  00098	e12fff14	 bx          r4

; 514  : 				return;
; 515  : 			}
; 516  : 		}
; 517  : 	}

  0009c	e8bd4030	 ldmia       sp!, {r4, r5, lr}
  000a0	e12fff1e	 bx          lr
  000a4		 |$LN16@BindFrameU|

; 428  : 			}
; 429  : 			break;
; 430  : 		case eUsVIEWI:
; 431  : 			{
; 432  : 				glUniformMatrix4fv(sUniform.getLocation(), 1, GL_FALSE, m_mViewI.f);

  000a4	e59f2284	 ldr         r2, [pc, #0x284]
  000a8	e5950000	 ldr         r0, [r5]
  000ac	e28e3f59	 add         r3, lr, #0x59, 30
  000b0	e5924000	 ldr         r4, [r2]
  000b4	e3a02000	 mov         r2, #0
  000b8	e3a01001	 mov         r1, #1
  000bc	e1a0e00f	 mov         lr, pc
  000c0	e12fff14	 bx          r4

; 514  : 				return;
; 515  : 			}
; 516  : 		}
; 517  : 	}

  000c4	e8bd4030	 ldmia       sp!, {r4, r5, lr}
  000c8	e12fff1e	 bx          lr
  000cc		 |$LN15@BindFrameU|

; 433  : 			}
; 434  : 			break;
; 435  : 		case eUsVIEWIT:
; 436  : 			{
; 437  : 				glUniformMatrix3fv(sUniform.getLocation(), 1, GL_FALSE, m_mViewIT.f);

  000cc	e59f2258	 ldr         r2, [pc, #0x258]
  000d0	e5950000	 ldr         r0, [r5]
  000d4	e28e3f69	 add         r3, lr, #0x69, 30
  000d8	e5924000	 ldr         r4, [r2]
  000dc	e3a02000	 mov         r2, #0
  000e0	e3a01001	 mov         r1, #1
  000e4	e1a0e00f	 mov         lr, pc
  000e8	e12fff14	 bx          r4

; 514  : 				return;
; 515  : 			}
; 516  : 		}
; 517  : 	}

  000ec	e8bd4030	 ldmia       sp!, {r4, r5, lr}
  000f0	e12fff1e	 bx          lr
  000f4		 |$LN14@BindFrameU|

; 438  : 			}
; 439  : 			break;
; 440  : 		case eUsPROJECTION:
; 441  : 			{
; 442  : 				glUniformMatrix4fv(sUniform.getLocation(), 1, GL_FALSE, m_mProjection.f);

  000f4	e59f2234	 ldr         r2, [pc, #0x234]
  000f8	e5950000	 ldr         r0, [r5]
  000fc	e28e3f72	 add         r3, lr, #0x72, 30
  00100	e5924000	 ldr         r4, [r2]
  00104	e3a02000	 mov         r2, #0
  00108	e3a01001	 mov         r1, #1
  0010c	e1a0e00f	 mov         lr, pc
  00110	e12fff14	 bx          r4

; 514  : 				return;
; 515  : 			}
; 516  : 		}
; 517  : 	}

  00114	e8bd4030	 ldmia       sp!, {r4, r5, lr}
  00118	e12fff1e	 bx          lr
  0011c		 |$LN13@BindFrameU|

; 443  : 			}
; 444  : 			break;
; 445  : 		case eUsPROJECTIONI:
; 446  : 			{
; 447  : 				glUniformMatrix4fv(sUniform.getLocation(), 1, GL_FALSE, m_mProjectionI.f);

  0011c	e59f220c	 ldr         r2, [pc, #0x20C]
  00120	e5950000	 ldr         r0, [r5]
  00124	e28e3f82	 add         r3, lr, #0x82, 30
  00128	e5924000	 ldr         r4, [r2]
  0012c	e3a02000	 mov         r2, #0
  00130	e3a01001	 mov         r1, #1
  00134	e1a0e00f	 mov         lr, pc
  00138	e12fff14	 bx          r4

; 514  : 				return;
; 515  : 			}
; 516  : 		}
; 517  : 	}

  0013c	e8bd4030	 ldmia       sp!, {r4, r5, lr}
  00140	e12fff1e	 bx          lr
  00144		 |$LN12@BindFrameU|

; 448  : 			}
; 449  : 			break;
; 450  : 		case eUsPROJECTIONIT:
; 451  : 			{
; 452  : 				glUniformMatrix3fv(sUniform.getLocation(), 1, GL_FALSE, m_mProjectionIT.f);

  00144	e59f21e0	 ldr         r2, [pc, #0x1E0]
  00148	e5950000	 ldr         r0, [r5]
  0014c	e28e3f92	 add         r3, lr, #0x92, 30
  00150	e5924000	 ldr         r4, [r2]
  00154	e3a02000	 mov         r2, #0
  00158	e3a01001	 mov         r1, #1
  0015c	e1a0e00f	 mov         lr, pc
  00160	e12fff14	 bx          r4

; 514  : 				return;
; 515  : 			}
; 516  : 		}
; 517  : 	}

  00164	e8bd4030	 ldmia       sp!, {r4, r5, lr}
  00168	e12fff1e	 bx          lr
  0016c		 |$LN11@BindFrameU|

; 453  : 			}
; 454  : 			break;
; 455  : 		case eUsVIEWPROJECTION:
; 456  : 			{
; 457  : 				glUniformMatrix4fv(sUniform.getLocation(), 1, GL_FALSE, m_mViewProjection.f);

  0016c	e59f21bc	 ldr         r2, [pc, #0x1BC]
  00170	e5950000	 ldr         r0, [r5]
  00174	e28e3f9b	 add         r3, lr, #0x9B, 30
  00178	e5924000	 ldr         r4, [r2]
  0017c	e3a02000	 mov         r2, #0
  00180	e3a01001	 mov         r1, #1
  00184	e1a0e00f	 mov         lr, pc
  00188	e12fff14	 bx          r4

; 514  : 				return;
; 515  : 			}
; 516  : 		}
; 517  : 	}

  0018c	e8bd4030	 ldmia       sp!, {r4, r5, lr}
  00190	e12fff1e	 bx          lr
  00194		 |$LN10@BindFrameU|

; 458  : 			}
; 459  : 			break;
; 460  : 		case eUsVIEWPROJECTIONI:
; 461  : 			{
; 462  : 				glUniformMatrix4fv(sUniform.getLocation(), 1, GL_FALSE, m_mViewProjectionI.f);

  00194	e59f2194	 ldr         r2, [pc, #0x194]
  00198	e5950000	 ldr         r0, [r5]
  0019c	e28e3fab	 add         r3, lr, #0xAB, 30
  001a0	e5924000	 ldr         r4, [r2]
  001a4	e3a02000	 mov         r2, #0
  001a8	e3a01001	 mov         r1, #1
  001ac	e1a0e00f	 mov         lr, pc
  001b0	e12fff14	 bx          r4

; 514  : 				return;
; 515  : 			}
; 516  : 		}
; 517  : 	}

  001b4	e8bd4030	 ldmia       sp!, {r4, r5, lr}
  001b8	e12fff1e	 bx          lr
  001bc		 |$LN9@BindFrameU|

; 463  : 			}
; 464  : 			break;
; 465  : 		case eUsVIEWPROJECTIONIT:
; 466  : 			{
; 467  : 				glUniformMatrix3fv(sUniform.getLocation(), 1, GL_FALSE, m_mViewProjectionIT.f);

  001bc	e59f2168	 ldr         r2, [pc, #0x168]
  001c0	e5950000	 ldr         r0, [r5]
  001c4	e28e3fbb	 add         r3, lr, #0xBB, 30
  001c8	e5924000	 ldr         r4, [r2]
  001cc	e3a02000	 mov         r2, #0
  001d0	e3a01001	 mov         r1, #1
  001d4	e1a0e00f	 mov         lr, pc
  001d8	e12fff14	 bx          r4

; 514  : 				return;
; 515  : 			}
; 516  : 		}
; 517  : 	}

  001dc	e8bd4030	 ldmia       sp!, {r4, r5, lr}
  001e0	e12fff1e	 bx          lr
  001e4		 |$LN8@BindFrameU|

; 468  : 			}
; 469  : 			break;
; 470  : 		case eUsLIGHTCOLOR:
; 471  : 			{
; 472  : 				glUniform3f(sUniform.getLocation(), m_pfLightColor[index][0],
; 473  : 					m_pfLightColor[index][1], m_pfLightColor[index][2]);

  001e4	e08e3101	 add         r3, lr, r1, lsl #2
  001e8	e5931480	 ldr         r1, [r3, #0x480]
  001ec	e59fe134	 ldr         lr, [pc, #0x134]
  001f0	e5950000	 ldr         r0, [r5]
  001f4	e5913008	 ldr         r3, [r1, #8]
  001f8	e5912004	 ldr         r2, [r1, #4]
  001fc	e5911000	 ldr         r1, [r1]
  00200	e59e4000	 ldr         r4, [lr]
  00204	e1a0e00f	 mov         lr, pc
  00208	e12fff14	 bx          r4

; 514  : 				return;
; 515  : 			}
; 516  : 		}
; 517  : 	}

  0020c	e8bd4030	 ldmia       sp!, {r4, r5, lr}
  00210	e12fff1e	 bx          lr
  00214		 |$LN7@BindFrameU|

; 474  : 			}
; 475  : 			break;
; 476  : 		case eUsLIGHTPOSWORLD:
; 477  : 			{
; 478  : 				glUniform3f(sUniform.getLocation(), m_vLightPosWorld[index].x,
; 479  : 					m_vLightPosWorld[index].y, m_vLightPosWorld[index].z);

  00214	e59f210c	 ldr         r2, [pc, #0x10C]
  00218	e08e1201	 add         r1, lr, r1, lsl #4
  0021c	e5913508	 ldr         r3, [r1, #0x508]
  00220	e5924000	 ldr         r4, [r2]
  00224	e5912504	 ldr         r2, [r1, #0x504]
  00228	e5911500	 ldr         r1, [r1, #0x500]
  0022c	e5950000	 ldr         r0, [r5]
  00230	e1a0e00f	 mov         lr, pc
  00234	e12fff14	 bx          r4

; 514  : 				return;
; 515  : 			}
; 516  : 		}
; 517  : 	}

  00238	e8bd4030	 ldmia       sp!, {r4, r5, lr}
  0023c	e12fff1e	 bx          lr
  00240		 |$LN6@BindFrameU|

; 480  : 			}
; 481  : 			break;
; 482  : 		case eUsLIGHTPOSEYE:
; 483  : 			{
; 484  : 				glUniform3f(sUniform.getLocation(), m_vLightPosEye[index].x,
; 485  : 					m_vLightPosEye[index].y, m_vLightPosEye[index].z);

  00240	e59f20e0	 ldr         r2, [pc, #0xE0]
  00244	e08e1201	 add         r1, lr, r1, lsl #4
  00248	e5913708	 ldr         r3, [r1, #0x708]
  0024c	e5924000	 ldr         r4, [r2]
  00250	e5912704	 ldr         r2, [r1, #0x704]
  00254	e5911700	 ldr         r1, [r1, #0x700]
  00258	e5950000	 ldr         r0, [r5]
  0025c	e1a0e00f	 mov         lr, pc
  00260	e12fff14	 bx          r4

; 514  : 				return;
; 515  : 			}
; 516  : 		}
; 517  : 	}

  00264	e8bd4030	 ldmia       sp!, {r4, r5, lr}
  00268	e12fff1e	 bx          lr
  0026c		 |$LN5@BindFrameU|

; 486  : 			}
; 487  : 			break;
; 488  : 		case eUsLIGHTDIRWORLD:
; 489  : 			{
; 490  : 				glUniform3f(sUniform.getLocation(), m_vLightDirWorld[index].x,
; 491  : 					m_vLightDirWorld[index].y, m_vLightDirWorld[index].z);

  0026c	e59f20b4	 ldr         r2, [pc, #0xB4]
  00270	e08e1201	 add         r1, lr, r1, lsl #4
  00274	e5913908	 ldr         r3, [r1, #0x908]
  00278	e5924000	 ldr         r4, [r2]
  0027c	e5912904	 ldr         r2, [r1, #0x904]
  00280	e5911900	 ldr         r1, [r1, #0x900]
  00284	e5950000	 ldr         r0, [r5]
  00288	e1a0e00f	 mov         lr, pc
  0028c	e12fff14	 bx          r4

; 514  : 				return;
; 515  : 			}
; 516  : 		}
; 517  : 	}

  00290	e8bd4030	 ldmia       sp!, {r4, r5, lr}
  00294	e12fff1e	 bx          lr
  00298		 |$LN4@BindFrameU|

; 492  : 			}
; 493  : 			break;
; 494  : 		case eUsLIGHTDIREYE:
; 495  : 			{
; 496  : 				glUniform3f(sUniform.getLocation(), m_vLightDirEye[index].x,
; 497  : 					m_vLightDirEye[index].y, m_vLightDirEye[index].z);

  00298	e59f2088	 ldr         r2, [pc, #0x88]
  0029c	e08e1201	 add         r1, lr, r1, lsl #4
  002a0	e5913b08	 ldr         r3, [r1, #0xB08]
  002a4	e5924000	 ldr         r4, [r2]
  002a8	e5912b04	 ldr         r2, [r1, #0xB04]
  002ac	e5911b00	 ldr         r1, [r1, #0xB00]
  002b0	e5950000	 ldr         r0, [r5]
  002b4	e1a0e00f	 mov         lr, pc
  002b8	e12fff14	 bx          r4

; 514  : 				return;
; 515  : 			}
; 516  : 		}
; 517  : 	}

  002bc	e8bd4030	 ldmia       sp!, {r4, r5, lr}
  002c0	e12fff1e	 bx          lr
  002c4		 |$LN3@BindFrameU|

; 498  : 			}
; 499  : 			break;
; 500  : 		case eUsEYEPOSWORLD:
; 501  : 			{
; 502  : 				glUniform3f(sUniform.getLocation(),
; 503  : 					m_vEyePositionWorld.x, m_vEyePositionWorld.y, m_vEyePositionWorld.z);

  002c4	e59f105c	 ldr         r1, [pc, #0x5C]
  002c8	e59e347c	 ldr         r3, [lr, #0x47C]
  002cc	e59e2478	 ldr         r2, [lr, #0x478]
  002d0	e5914000	 ldr         r4, [r1]
  002d4	e59e1474	 ldr         r1, [lr, #0x474]
  002d8	e5950000	 ldr         r0, [r5]
  002dc	e1a0e00f	 mov         lr, pc
  002e0	e12fff14	 bx          r4

; 514  : 				return;
; 515  : 			}
; 516  : 		}
; 517  : 	}

  002e4	e8bd4030	 ldmia       sp!, {r4, r5, lr}
  002e8	e12fff1e	 bx          lr
  002ec		 |$LN2@BindFrameU|

; 504  : 			}
; 505  : 			break;
; 506  : 		case eUsANIMATION:
; 507  : 			{
; 508  : 				glUniform1f(sUniform.getLocation(), m_fAnimation);

  002ec	e59f3030	 ldr         r3, [pc, #0x30]
  002f0	e59e1020	 ldr         r1, [lr, #0x20]
  002f4	e5950000	 ldr         r0, [r5]
  002f8	e5933000	 ldr         r3, [r3]
  002fc	e1a0e00f	 mov         lr, pc
  00300	e12fff13	 bx          r3

; 514  : 				return;
; 515  : 			}
; 516  : 		}
; 517  : 	}

  00304	e8bd4030	 ldmia       sp!, {r4, r5, lr}
  00308	e12fff1e	 bx          lr
  0030c		 |$LN1@BindFrameU|

; 509  : 			}
; 510  : 			break;
; 511  : 		default:
; 512  : 			{	// something went wrong
; 513  : 				ConsoleLog::inst().log("Error: non-frame uniform being interpreted as frame uniform\n");

  0030c	eb000000	 bl          |?inst@?$CPVRTSingleton@VConsoleLog@pvrengine@@@@SAAAVConsoleLog@pvrengine@@XZ|
  00310	e59f1008	 ldr         r1, [pc, #8]
  00314	eb000000	 bl          |?log@ConsoleLog@pvrengine@@QAAXPBDZZ|

; 514  : 				return;
; 515  : 			}
; 516  : 		}
; 517  : 	}

  00318	e8bd4030	 ldmia       sp!, {r4, r5, lr}
  0031c	e12fff1e	 bx          lr
  00320		 |$LN103@BindFrameU|
  00320		 |$LN104@BindFrameU|
  00320	00000000	 DCD         |??_C@_0DN@GFFIBEGN@Error?3?5non?9frame?5uniform?5being?5i@|
  00324		 |$LN105@BindFrameU|
  00324	00000000	 DCD         |__imp_glUniform1f|
  00328		 |$LN106@BindFrameU|
  00328	00000000	 DCD         |__imp_glUniform3f|
  0032c		 |$LN107@BindFrameU|
  0032c	00000000	 DCD         |__imp_glUniformMatrix3fv|
  00330		 |$LN108@BindFrameU|
  00330	00000000	 DCD         |__imp_glUniformMatrix4fv|
  00334		 |$M39098|

			 ENDP  ; |?BindFrameUniform@UniformHandler@pvrengine@@QAAXABVUniform@2@@Z|, pvrengine::UniformHandler::BindFrameUniform

	EXPORT	|?CalculateMaterialUniform@UniformHandler@pvrengine@@QAAXABVUniform@2@AAVMaterial@2@@Z| ; pvrengine::UniformHandler::CalculateMaterialUniform
	EXPORT	|??_C@_0ED@HFONEMFN@Error?3?5non?9material?5uniform?5bein@| [ DATA ] ; `string'
	IMPORT	|__imp_glUniform1i|
; File c:\wince600\public\powervr-sdk\ogles2\extras\pvrengine\include\ogles2\uniform.h

  00000			 AREA	 |.pdata|, PDATA
|$T39173| DCD	|$LN40@CalculateM@2|
	DCD	0x40004f01

  00000			 AREA	 |.rdata|, DATA, READONLY
|??_C@_0ED@HFONEMFN@Error?3?5non?9material?5uniform?5bein@| DCB "Error: n"
	DCB	"on-material uniform being interpreted as material unifor"
	DCB	"m", 0xa, 0x0				; `string'
; Function compile flags: /Ogspy
; File c:\wince600\public\powervr-sdk\ogles2\extras\pvrengine\ogles2\uniformhandler.cpp

  00000			 AREA	 |.text|, CODE, ARM

  00000		 |?CalculateMaterialUniform@UniformHandler@pvrengine@@QAAXABVUniform@2@AAVMaterial@2@@Z| PROC ; pvrengine::UniformHandler::CalculateMaterialUniform

; 522  : 	{

  00000		 |$LN40@CalculateM@2|
  00000	e92d4010	 stmdb       sp!, {r4, lr}
  00004		 |$M39170|
  00004	e1a0e002	 mov         lr, r2
  00008	e1a00001	 mov         r0, r1

; 523  : 		switch(sUniform.getSemantic())

  0000c	e5903004	 ldr         r3, [r0, #4]
  00010	e3530021	 cmp         r3, #0x21
  00014	0a00003c	 beq         |$LN7@CalculateM@2|
  00018	e3530022	 cmp         r3, #0x22
  0001c	0a000032	 beq         |$LN6@CalculateM@2|
  00020	e3530023	 cmp         r3, #0x23
  00024	0a000026	 beq         |$LN5@CalculateM@2|
  00028	e3530024	 cmp         r3, #0x24
  0002c	0a00001a	 beq         |$LN4@CalculateM@2|
  00030	e3530025	 cmp         r3, #0x25
  00034	0a00000e	 beq         |$LN3@CalculateM@2|
  00038	e353002f	 cmp         r3, #0x2F
  0003c	0a000004	 beq         |$LN2@CalculateM@2|

; 559  : 			}
; 560  : 			break;
; 561  : 		default:
; 562  : 			{	// something went wrong
; 563  : 				ConsoleLog::inst().log("Error: non-material uniform being interpreted as material uniform\n");

  00040	eb000000	 bl          |?inst@?$CPVRTSingleton@VConsoleLog@pvrengine@@@@SAAAVConsoleLog@pvrengine@@XZ|
  00044	e59f10ec	 ldr         r1, [pc, #0xEC]
  00048	eb000000	 bl          |?log@ConsoleLog@pvrengine@@QAAXPBDZZ|

; 564  : 				return;
; 565  : 			}
; 566  : 		}
; 567  : 	}

  0004c	e8bd4010	 ldmia       sp!, {r4, lr}
  00050	e12fff1e	 bx          lr
  00054		 |$LN2@CalculateM@2|

; 553  : 			}
; 554  : 			break;
; 555  : 		case eUsTEXTURE:
; 556  : 			{
; 557  : 				// Set the sampler variable to the texture unit
; 558  : 				glUniform1i(sUniform.getLocation(), sUniform.getIdx());

  00054	e59f30d8	 ldr         r3, [pc, #0xD8]
  00058	e5901008	 ldr         r1, [r0, #8]
  0005c	e5900000	 ldr         r0, [r0]
  00060	e5933000	 ldr         r3, [r3]
  00064	e1a0e00f	 mov         lr, pc
  00068	e12fff13	 bx          r3

; 564  : 				return;
; 565  : 			}
; 566  : 		}
; 567  : 	}

  0006c	e8bd4010	 ldmia       sp!, {r4, lr}
  00070	e12fff1e	 bx          lr
  00074		 |$LN3@CalculateM@2|

; 547  : 			}
; 548  : 			break;
; 549  : 		case eUsMATERIALCOLORSPECULAR:
; 550  : 			{
; 551  : 				PVRTVec3 vColour = sMaterial.getSpecular();
; 552  : 				glUniform3f(sUniform.getLocation(), vColour.x, vColour.y, vColour.z);

  00074	e59f30b4	 ldr         r3, [pc, #0xB4]
  00078	e59e10f8	 ldr         r1, [lr, #0xF8]
  0007c	e59e20fc	 ldr         r2, [lr, #0xFC]
  00080	e5934000	 ldr         r4, [r3]
  00084	e59e3100	 ldr         r3, [lr, #0x100]
  00088	e5900000	 ldr         r0, [r0]
  0008c	e1a0e00f	 mov         lr, pc
  00090	e12fff14	 bx          r4

; 564  : 				return;
; 565  : 			}
; 566  : 		}
; 567  : 	}

  00094	e8bd4010	 ldmia       sp!, {r4, lr}
  00098	e12fff1e	 bx          lr
  0009c		 |$LN4@CalculateM@2|

; 541  : 			}
; 542  : 			break;
; 543  : 		case eUsMATERIALCOLORDIFFUSE:
; 544  : 			{
; 545  : 				PVRTVec3 vColour = sMaterial.getDiffuse();
; 546  : 				glUniform3f(sUniform.getLocation(), vColour.x, vColour.y, vColour.z);

  0009c	e59f308c	 ldr         r3, [pc, #0x8C]
  000a0	e59e10ec	 ldr         r1, [lr, #0xEC]
  000a4	e59e20f0	 ldr         r2, [lr, #0xF0]
  000a8	e5934000	 ldr         r4, [r3]
  000ac	e59e30f4	 ldr         r3, [lr, #0xF4]
  000b0	e5900000	 ldr         r0, [r0]
  000b4	e1a0e00f	 mov         lr, pc
  000b8	e12fff14	 bx          r4

; 564  : 				return;
; 565  : 			}
; 566  : 		}
; 567  : 	}

  000bc	e8bd4010	 ldmia       sp!, {r4, lr}
  000c0	e12fff1e	 bx          lr
  000c4		 |$LN5@CalculateM@2|

; 535  : 			}
; 536  : 			break;
; 537  : 		case eUsMATERIALCOLORAMBIENT:
; 538  : 			{
; 539  : 				PVRTVec3 vColour = sMaterial.getAmbient();
; 540  : 				glUniform3f(sUniform.getLocation(), vColour.x, vColour.y, vColour.z);

  000c4	e59f3064	 ldr         r3, [pc, #0x64]
  000c8	e59e10e0	 ldr         r1, [lr, #0xE0]
  000cc	e59e20e4	 ldr         r2, [lr, #0xE4]
  000d0	e5934000	 ldr         r4, [r3]
  000d4	e59e30e8	 ldr         r3, [lr, #0xE8]
  000d8	e5900000	 ldr         r0, [r0]
  000dc	e1a0e00f	 mov         lr, pc
  000e0	e12fff14	 bx          r4

; 564  : 				return;
; 565  : 			}
; 566  : 		}
; 567  : 	}

  000e4	e8bd4010	 ldmia       sp!, {r4, lr}
  000e8	e12fff1e	 bx          lr
  000ec		 |$LN6@CalculateM@2|

; 529  : 			}
; 530  : 			break;
; 531  : 		case eUsMATERIALSHININESS:
; 532  : 			{
; 533  : 				glUniform1f(sUniform.getLocation(),
; 534  : 					sMaterial.getShininess());

  000ec	e59f3038	 ldr         r3, [pc, #0x38]
  000f0	e59e1104	 ldr         r1, [lr, #0x104]
  000f4	e5900000	 ldr         r0, [r0]
  000f8	e5933000	 ldr         r3, [r3]
  000fc	e1a0e00f	 mov         lr, pc
  00100	e12fff13	 bx          r3

; 564  : 				return;
; 565  : 			}
; 566  : 		}
; 567  : 	}

  00104	e8bd4010	 ldmia       sp!, {r4, lr}
  00108	e12fff1e	 bx          lr
  0010c		 |$LN7@CalculateM@2|

; 524  : 		{
; 525  : 		case eUsMATERIALOPACITY:
; 526  : 			{
; 527  : 				glUniform1f(sUniform.getLocation(),
; 528  : 					sMaterial.getOpacity());

  0010c	e59f3018	 ldr         r3, [pc, #0x18]
  00110	e59e10dc	 ldr         r1, [lr, #0xDC]
  00114	e5900000	 ldr         r0, [r0]
  00118	e5933000	 ldr         r3, [r3]
  0011c	e1a0e00f	 mov         lr, pc
  00120	e12fff13	 bx          r3

; 564  : 				return;
; 565  : 			}
; 566  : 		}
; 567  : 	}

  00124	e8bd4010	 ldmia       sp!, {r4, lr}
  00128	e12fff1e	 bx          lr
  0012c		 |$LN41@CalculateM@2|
  0012c		 |$LN42@CalculateM@2|
  0012c	00000000	 DCD         |__imp_glUniform1f|
  00130		 |$LN43@CalculateM@2|
  00130	00000000	 DCD         |__imp_glUniform3f|
  00134		 |$LN44@CalculateM@2|
  00134	00000000	 DCD         |__imp_glUniform1i|
  00138		 |$LN45@CalculateM@2|
  00138	00000000	 DCD         |??_C@_0ED@HFONEMFN@Error?3?5non?9material?5uniform?5bein@|
  0013c		 |$M39171|

			 ENDP  ; |?CalculateMaterialUniform@UniformHandler@pvrengine@@QAAXABVUniform@2@AAVMaterial@2@@Z|, pvrengine::UniformHandler::CalculateMaterialUniform

	EXPORT	|?DoFrameUniform@UniformHandler@pvrengine@@QAAXABVUniform@2@@Z| ; pvrengine::UniformHandler::DoFrameUniform
; File c:\wince600\public\powervr-sdk\ogles2\extras\pvrengine\include\ogles2\uniformhandler.h

  00000			 AREA	 |.pdata|, PDATA
|$T39204| DCD	|$LN14@DoFrameUni|
	DCD	0x40001401
; Function compile flags: /Ogspy
; File c:\wince600\public\powervr-sdk\ogles2\extras\pvrengine\ogles2\uniformhandler.cpp

  00000			 AREA	 |.text|, CODE, ARM

  00000		 |?DoFrameUniform@UniformHandler@pvrengine@@QAAXABVUniform@2@@Z| PROC ; pvrengine::UniformHandler::DoFrameUniform

; 28   : 	{

  00000		 |$LN14@DoFrameUni|
  00000	e92d4030	 stmdb       sp!, {r4, r5, lr}
  00004		 |$M39201|
  00004	e1a04001	 mov         r4, r1
  00008	e1a05000	 mov         r5, r0

; 29   : 		if(!getFlag(sUniform.getSemantic(),sUniform.getIdx()))

  0000c	e5943004	 ldr         r3, [r4, #4]
  00010	e5942008	 ldr         r2, [r4, #8]
  00014	e3a01001	 mov         r1, #1
  00018	e0853103	 add         r3, r5, r3, lsl #2
  0001c	e5933024	 ldr         r3, [r3, #0x24]
  00020	e1130211	 tst         r3, r1, lsl r2
  00024	13a03001	 movne       r3, #1
  00028	03a03000	 moveq       r3, #0
  0002c	e21330ff	 ands        r3, r3, #0xFF

; 30   : 			CalculateFrameUniform(sUniform);
; 31   : 		BindFrameUniform(sUniform);

  00030	01a01004	 moveq       r1, r4
  00034	01a00005	 moveq       r0, r5
  00038	0b000000	 bleq        |?CalculateFrameUniform@UniformHandler@pvrengine@@QAAXABVUniform@2@@Z|
  0003c	e1a01004	 mov         r1, r4
  00040	e1a00005	 mov         r0, r5
  00044	eb000000	 bl          |?BindFrameUniform@UniformHandler@pvrengine@@QAAXABVUniform@2@@Z|

; 32   : 	}

  00048	e8bd4030	 ldmia       sp!, {r4, r5, lr}
  0004c	e12fff1e	 bx          lr
  00050		 |$M39202|

			 ENDP  ; |?DoFrameUniform@UniformHandler@pvrengine@@QAAXABVUniform@2@@Z|, pvrengine::UniformHandler::DoFrameUniform

	IMPORT	|??1ConsoleLog@pvrengine@@UAA@XZ|	; pvrengine::ConsoleLog::~ConsoleLog

  00000			 AREA	 |.pdata|, PDATA
|$T39211| DCD	|$LN5@dynamic|
	DCD	0x40000601
; Function compile flags: /Ogspy

  00000			 AREA	 |.text$yd|, CODE, ARM

  00000		 |??__Fobject@?1??inst@?$CPVRTSingleton@VConsoleLog@pvrengine@@@@SAAAVConsoleLog@pvrengine@@XZ@YAXXZ| PROC ; `CPVRTSingleton<pvrengine::ConsoleLog>::inst'::`2'::`dynamic atexit destructor for 'object''
  00000		 |$LN5@dynamic|
  00000	e52de004	 str         lr, [sp, #-4]!
  00004		 |$M39208|
  00004	e59f0008	 ldr         r0, [pc, #8]
  00008	eb000000	 bl          |??1ConsoleLog@pvrengine@@UAA@XZ|
  0000c	e49de004	 ldr         lr, [sp], #4
  00010	e12fff1e	 bx          lr
  00014		 |$LN6@dynamic|
  00014		 |$LN7@dynamic|
  00014	00000000	 DCD         |?object@?1??inst@?$CPVRTSingleton@VConsoleLog@pvrengine@@@@SAAAVConsoleLog@pvrengine@@XZ@4V34@A|
  00018		 |$M39209|

			 ENDP  ; |??__Fobject@?1??inst@?$CPVRTSingleton@VConsoleLog@pvrengine@@@@SAAAVConsoleLog@pvrengine@@XZ@YAXXZ|, `CPVRTSingleton<pvrengine::ConsoleLog>::inst'::`2'::`dynamic atexit destructor for 'object''

	END
