; Listing generated by Microsoft (R) Optimizing Compiler Version 14.01.60511.01 

	TTL	C:\WINCE600\PUBLIC\PowerVR-SDK\OVG\TrainingCourse\20_MaskLayer\OVG\Content\mask2.cpp
	CODE32

  00000			 AREA	 |.drectve|, DRECTVE
	DCB	"-defaultlib:LIBCMT "
	DCB	"-defaultlib:OLDNAMES "


  00000			 AREA	 |.rdata|, DATA, READONLY
|_mask2_pvr| DCD 0x34
	DCD	0x80
	DCD	0x80
	DCD	0x0
	DCD	0x9b
	DCD	0x4000
	DCD	0x8
	DCD	0xffffffff
	DCD	0xffffffff
	DCD	0xffffffff
	DCD	0x0
	DCD	0x21525650
	DCD	0x1
	DCD	0xffffffff
	DCD	0xffffffff
	DCD	0xffffffff
	DCD	0xffffffff
	DCD	0xffffffff
	DCD	0xffffffff
	DCD	0xffffffff
	DCD	0xffffffff
	DCD	0xffffffff
	DCD	0xffffffff
	DCD	0xffffffff
	DCD	0xffffffff
	DCD	0xffffffff
	DCD	0xffffffff
	DCD	0xffffffff
	DCD	0xffffffff
	DCD	0xffffffff
	DCD	0xffffffff
	DCD	0xffffffff
	DCD	0xffffffff
	DCD	0xffffffff
	DCD	0xffffffff
	DCD	0xffffffff
	DCD	0xffffffff
	DCD	0xffffffff
	DCD	0xffffffff
	DCD	0xffffffff
	DCD	0xffffffff
	DCD	0xffffffff
	DCD	0xffffffff
	DCD	0xffffffff
	DCD	0xffffffff
	DCD	0xffffffff
	DCD	0xffffffff
	DCD	0xffffffff
	DCD	0xffffffff
	DCD	0xffffffff
	DCD	0xffffffff
	DCD	0xffffffff
	DCD	0xffffffff
	DCD	0xffffffff
	DCD	0xffffffff
	DCD	0xffffffff
	DCD	0xffffffff
	DCD	0xffffffff
	DCD	0xffffffff
	DCD	0xffffffff
	DCD	0xffffffff
	DCD	0xffffffff
	DCD	0xffffffff
	DCD	0xffffffff
	DCD	0xffffffff
	DCD	0xffffffff
	DCD	0xffffffff
	DCD	0xffffffff
	DCD	0xffffffff
	DCD	0xffffffff
	DCD	0xffffffff
	DCD	0xffffffff
	DCD	0xffffffff
	DCD	0xffffffff
	DCD	0xffffffff
	DCD	0xffffffff
	DCD	0xffffffff
	DCD	0xffffffff
	DCD	0xffffffff
	DCD	0xffffffff
	DCD	0xffffffff
	DCD	0xffffffff
	DCD	0xffffffff
	DCD	0xffffffff
	DCD	0xffffffff
	DCD	0xfeffffff
	DCD	0xfefdfcfd
	DCD	0xffffffff
	DCD	0xffffffff
	DCD	0xffffffff
	DCD	0xffffffff
	DCD	0xffffffff
	DCD	0xffffffff
	DCD	0xffffffff
	DCD	0xffffffff
	DCD	0xffffffff
	DCD	0xffffffff
	DCD	0xffffffff
	DCD	0xffffffff
	DCD	0xffffffff
	DCD	0xffffffff
	DCD	0xffffffff
	DCD	0xffffffff
	DCD	0xffffffff
	DCD	0xffffffff
	DCD	0xffffffff
	DCD	0xffffffff
	DCD	0xffffffff
	DCD	0xffffffff
	DCD	0xffffffff
	DCD	0xffffffff
	DCD	0xffffffff
	DCD	0xffffffff
	DCD	0xffffffff
	DCD	0xffffffff
	DCD	0xffffffff
	DCD	0xffffffff
	DCD	0xf8feffff
	DCD	0xf5ebe7ec
	DCD	0xfffffffc
	DCD	0xffffffff
	DCD	0xffffffff
	DCD	0xffffffff
	DCD	0xffffffff
	DCD	0xffffffff
	DCD	0xffffffff
	DCD	0xffffffff
	DCD	0xffffffff
	DCD	0xffffffff
	DCD	0xffffffff
	DCD	0xffffffff
	DCD	0xffffffff
	DCD	0xffffffff
	DCD	0xffffffff
	DCD	0xffffffff
	DCD	0xffffffff
	DCD	0xffffffff
	DCD	0xffffffff
	DCD	0xffffffff
	DCD	0xffffffff
	DCD	0xffffffff
	DCD	0xffffffff
	DCD	0xffffffff
	DCD	0xffffffff
	DCD	0xffffffff
	DCD	0xffffffff
	DCD	0xffffffff
	DCD	0xffffffff
	DCD	0xffffffff
	DCD	0xe3fbffff
	DCD	0xd8b2a3b7
	DCD	0xfffffef5
	DCD	0xffffffff
	DCD	0xffffffff
	DCD	0xffffffff
	DCD	0xffffffff
	DCD	0xffffffff
	DCD	0xffffffff
	DCD	0xffffffff
	DCD	0xffffffff
	DCD	0xffffffff
	DCD	0xffffffff
	DCD	0xffffffff
	DCD	0xffffffff
	DCD	0xffffffff
	DCD	0xffffffff
	DCD	0xffffffff
	DCD	0xffffffff
	DCD	0xffffffff
	DCD	0xffffffff
	DCD	0xffffffff
	DCD	0xffffffff
	DCD	0xffffffff
	DCD	0xffffffff
	DCD	0xffffffff
	DCD	0xffffffff
	DCD	0xffffffff
	DCD	0xffffffff
	DCD	0xffffffff
	DCD	0xffffffff
	DCD	0xffffffff
	DCD	0xc7f6ffff
	DCD	0xb263476f
	DCD	0xfffffdeb
	DCD	0xffffffff
	DCD	0xffffffff
	DCD	0xffffffff
	DCD	0xffffffff
	DCD	0xffffffff
	DCD	0xffffffff
	DCD	0xffffffff
	DCD	0xffffffff
	DCD	0xffffffff
	DCD	0xffffffff
	DCD	0xffffffff
	DCD	0xffffffff
	DCD	0xffffffff
	DCD	0xffffffff
	DCD	0xffffffff
	DCD	0xffffffff
	DCD	0xffffffff
	DCD	0xffffffff
	DCD	0xffffffff
	DCD	0xffffffff
	DCD	0xffffffff
	DCD	0xffffffff
	DCD	0xffffffff
	DCD	0xffffffff
	DCD	0xffffffff
	DCD	0xffffffff
	DCD	0xffffffff
	DCD	0xffffffff
	DCD	0xffffffff
	DCD	0xbaf4ffff
	DCD	0x9f3e1b4d
	DCD	0xfffffce6
	DCD	0xffffffff
	DCD	0xffffffff
	DCD	0xffffffff
	DCD	0xffffffff
	DCD	0xffffffff
	DCD	0xffffffff
	DCD	0xffffffff
	DCD	0xffffffff
	DCD	0xffffffff
	DCD	0xffffffff
	DCD	0xffffffff
	DCD	0xffffffff
	DCD	0xffffffff
	DCD	0xffffffff
	DCD	0xffffffff
	DCD	0xffffffff
	DCD	0xffffffff
	DCD	0xffffffff
	DCD	0xffffffff
	DCD	0xffffffff
	DCD	0xffffffff
	DCD	0xffffffff
	DCD	0xffffffff
	DCD	0xffffffff
	DCD	0xffffffff
	DCD	0xffffffff
	DCD	0xffffffff
	DCD	0xffffffff
	DCD	0xffffffff
	DCD	0xb8f4ffff
	DCD	0x9c381347
	DCD	0xfffffce5
	DCD	0xffffffff
	DCD	0xffffffff
	DCD	0xffffffff
	DCD	0xffffffff
	DCD	0xffffffff
	DCD	0xffffffff
	DCD	0xffffffff
	DCD	0xffffffff
	DCD	0xffffffff
	DCD	0xffffffff
	DCD	0xffffffff
	DCD	0xffffffff
	DCD	0xffffffff
	DCD	0xffffffff
	DCD	0xffffffff
	DCD	0xffffffff
	DCD	0xffffffff
	DCD	0xffffffff
	DCD	0xffffffff
	DCD	0xffffffff
	DCD	0xffffffff
	DCD	0xffffffff
	DCD	0xffffffff
	DCD	0xffffffff
	DCD	0xffffffff
	DCD	0xffffffff
	DCD	0xffffffff
	DCD	0xffffffff
	DCD	0xffffffff
	DCD	0xb8f4ffff
	DCD	0x9c381347
	DCD	0xfffffce5
	DCD	0xffffffff
	DCD	0xffffffff
	DCD	0xffffffff
	DCD	0xffffffff
	DCD	0xffffffff
	DCD	0xffffffff
	DCD	0xffffffff
	DCD	0xffffffff
	DCD	0xffffffff
	DCD	0xffffffff
	DCD	0xffffffff
	DCD	0xffffffff
	DCD	0xffffffff
	DCD	0xffffffff
	DCD	0xffffffff
	DCD	0xffffffff
	DCD	0xffffffff
	DCD	0xffffffff
	DCD	0xffffffff
	DCD	0xffffffff
	DCD	0xffffffff
	DCD	0xffffffff
	DCD	0xffffffff
	DCD	0xffffffff
	DCD	0xffffffff
	DCD	0xffffffff
	DCD	0xffffffff
	DCD	0xffffffff
	DCD	0xffffffff
	DCD	0xb8f4ffff
	DCD	0x9c381347
	DCD	0xfffffce5
	DCD	0xffffffff
	DCD	0xffffffff
	DCD	0xffffffff
	DCD	0xffffffff
	DCD	0xffffffff
	DCD	0xffffffff
	DCD	0xffffffff
	DCD	0xffffffff
	DCD	0xffffffff
	DCD	0xffffffff
	DCD	0xffffffff
	DCD	0xffffffff
	DCD	0xffffffff
	DCD	0xffffffff
	DCD	0xffffffff
	DCD	0xffffffff
	DCD	0xffffffff
	DCD	0xffffffff
	DCD	0xffffffff
	DCD	0xffffffff
	DCD	0xffffffff
	DCD	0xffffffff
	DCD	0xffffffff
	DCD	0xffffffff
	DCD	0xffffffff
	DCD	0xffffffff
	DCD	0xffffffff
	DCD	0xffffffff
	DCD	0xffffffff
	DCD	0xb8f4ffff
	DCD	0x9c381347
	DCD	0xfffffce5
	DCD	0xffffffff
	DCD	0xffffffff
	DCD	0xffffffff
	DCD	0xffffffff
	DCD	0xffffffff
	DCD	0xffffffff
	DCD	0xffffffff
	DCD	0xffffffff
	DCD	0xffffffff
	DCD	0xffffffff
	DCD	0xffffffff
	DCD	0xffffffff
	DCD	0xffffffff
	DCD	0xffffffff
	DCD	0xffffffff
	DCD	0xffffffff
	DCD	0xffffffff
	DCD	0xffffffff
	DCD	0xffffffff
	DCD	0xffffffff
	DCD	0xffffffff
	DCD	0xffffffff
	DCD	0xffffffff
	DCD	0xffffffff
	DCD	0xffffffff
	DCD	0xffffffff
	DCD	0xffffffff
	DCD	0xffffffff
	DCD	0xffffffff
	DCD	0xb8f4ffff
	DCD	0x9c381347
	DCD	0xfffffce5
	DCD	0xffffffff
	DCD	0xffffffff
	DCD	0xffffffff
	DCD	0xffffffff
	DCD	0xffffffff
	DCD	0xffffffff
	DCD	0xffffffff
	DCD	0xffffffff
	DCD	0xffffffff
	DCD	0xffffffff
	DCD	0xffffffff
	DCD	0xffffffff
	DCD	0xffffffff
	DCD	0xffffffff
	DCD	0xffffffff
	DCD	0xffffffff
	DCD	0xffffffff
	DCD	0xffffffff
	DCD	0xffffffff
	DCD	0xffffffff
	DCD	0xffffffff
	DCD	0xffffffff
	DCD	0xffffffff
	DCD	0xffffffff
	DCD	0xffffffff
	DCD	0xffffffff
	DCD	0xffffffff
	DCD	0xffffffff
	DCD	0xfeffffff
	DCD	0xb8f4fefe
	DCD	0x9c381347
	DCD	0xfffffce5
	DCD	0xffffffff
	DCD	0xffffffff
	DCD	0xffffffff
	DCD	0xffffffff
	DCD	0xffffffff
	DCD	0xffffffff
	DCD	0xffffffff
	DCD	0xffffffff
	DCD	0xffffffff
	DCD	0xffffffff
	DCD	0xffffffff
	DCD	0xffffffff
	DCD	0xffffffff
	DCD	0xffffffff
	DCD	0xffffffff
	DCD	0xffffffff
	DCD	0xffffffff
	DCD	0xffffffff
	DCD	0xffffffff
	DCD	0xffffffff
	DCD	0xffffffff
	DCD	0xffffffff
	DCD	0xffffffff
	DCD	0xffffffff
	DCD	0xffffffff
	DCD	0xffffffff
	DCD	0xffffffff
	DCD	0xffffffff
	DCD	0xf5fcffff
	DCD	0xb7f1f5f1
	DCD	0x9c381347
	DCD	0xfffffce5
	DCD	0xffffffff
	DCD	0xffffffff
	DCD	0xffffffff
	DCD	0xffffffff
	DCD	0xffffffff
	DCD	0xffffffff
	DCD	0xffffffff
	DCD	0xffffffff
	DCD	0xffffffff
	DCD	0xffffffff
	DCD	0xffffffff
	DCD	0xffffffff
	DCD	0xffffffff
	DCD	0xffffffff
	DCD	0xffffffff
	DCD	0xffffffff
	DCD	0xffffffff
	DCD	0xffffffff
	DCD	0xffffffff
	DCD	0xffffffff
	DCD	0xffffffff
	DCD	0xffffffff
	DCD	0xffffffff
	DCD	0xffffffff
	DCD	0xffffffff
	DCD	0xffffffff
	DCD	0xffffffff
	DCD	0xffffffff
	DCD	0xd9f3feff
	DCD	0xb0dacbc1
	DCD	0x9c381345
	DCD	0xfffffce5
	DCD	0xffffffff
	DCD	0xffffffff
	DCD	0xffffffff
	DCD	0xffffffff
	DCD	0xffffffff
	DCD	0xffffffff
	DCD	0xffffffff
	DCD	0xffffffff
	DCD	0xffffffff
	DCD	0xffffffff
	DCD	0xffffffff
	DCD	0xffffffff
	DCD	0xffffffff
	DCD	0xffffffff
	DCD	0xffffffff
	DCD	0xffffffff
	DCD	0xffffffff
	DCD	0xffffffff
	DCD	0xffffffff
	DCD	0xffffffff
	DCD	0xffffffff
	DCD	0xffffffff
	DCD	0xffffffff
	DCD	0xffffffff
	DCD	0xffffffff
	DCD	0xffffffff
	DCD	0xffffffff
	DCD	0xffffffff
	DCD	0xb3eafdff
	DCD	0x939d7573
	DCD	0x9c38123d
	DCD	0xfffffce5
	DCD	0xffffffff
	DCD	0xffffffff
	DCD	0xffffffff
	DCD	0xffffffff
	DCD	0xffffffff
	DCD	0xffffffff
	DCD	0xffffffff
	DCD	0xffffffff
	DCD	0xffffffff
	DCD	0xffffffff
	DCD	0xffffffff
	DCD	0xffffffff
	DCD	0xffffffff
	DCD	0xffffffff
	DCD	0xffffffff
	DCD	0xffffffff
	DCD	0xffffffff
	DCD	0xffffffff
	DCD	0xffffffff
	DCD	0xffffffff
	DCD	0xffffffff
	DCD	0xffffffff
	DCD	0xffffffff
	DCD	0xffffffff
	DCD	0xffffffff
	DCD	0xffffffff
	DCD	0xffffffff
	DCD	0xffffffff
	DCD	0xa5e8fcff
	DCD	0x574c324c
	DCD	0x9c380f27
	DCD	0xfffffce5
	DCD	0xffffffff
	DCD	0xffffffff
	DCD	0xffffffff
	DCD	0xffffffff
	DCD	0xffffffff
	DCD	0xffffffff
	DCD	0xffffffff
	DCD	0xffffffff
	DCD	0xffffffff
	DCD	0xffffffff
	DCD	0xffffffff
	DCD	0xffffffff
	DCD	0xffffffff
	DCD	0xffffffff
	DCD	0xffffffff
	DCD	0xffffffff
	DCD	0xffffffff
	DCD	0xffffffff
	DCD	0xffffffff
	DCD	0xffffffff
	DCD	0xffffffff
	DCD	0xffffffff
	DCD	0xffffffff
	DCD	0xffffffff
	DCD	0xffffffff
	DCD	0xffffffff
	DCD	0xffffffff
	DCD	0xffffffff
	DCD	0xb8eeffff
	DCD	0x20233265
	DCD	0x9c380a0e
	DCD	0xfffffce5
	DCD	0xffffffff
	DCD	0xffffffff
	DCD	0xffffffff
	DCD	0xffffffff
	DCD	0xffffffff
	DCD	0xffffffff
	DCD	0xffffffff
	DCD	0xffffffff
	DCD	0xffffffff
	DCD	0xffffffff
	DCD	0xffffffff
	DCD	0xffffffff
	DCD	0xffffffff
	DCD	0xffffffff
	DCD	0xffffffff
	DCD	0xffffffff
	DCD	0xffffffff
	DCD	0xffffffff
	DCD	0xffffffff
	DCD	0xffffffff
	DCD	0xffffffff
	DCD	0xffffffff
	DCD	0xffffffff
	DCD	0xffffffff
	DCD	0xffffffff
	DCD	0xffffffff
	DCD	0xffffffff
	DCD	0xffffffff
	DCD	0xe1f8ffff
	DCD	0x1b4077b1
	DCD	0x9c380907
	DCD	0xfffffce5
	DCD	0xffffffff
	DCD	0xffffffff
	DCD	0xffffffff
	DCD	0xffffffff
	DCD	0xffffffff
	DCD	0xffffffff
	DCD	0xffffffff
	DCD	0xffffffff
	DCD	0xffffffff
	DCD	0xffffffff
	DCD	0xffffffff
	DCD	0xffffffff
	DCD	0xffffffff
	DCD	0xffffffff
	DCD	0xffffffff
	DCD	0xffffffff
	DCD	0xffffffff
	DCD	0xffffffff
	DCD	0xffffffff
	DCD	0xffffffff
	DCD	0xffffffff
	DCD	0xffffffff
	DCD	0xffffffff
	DCD	0xffffffff
	DCD	0xffffffff
	DCD	0xffffffff
	DCD	0xffffffff
	DCD	0xffffffff
	DCD	0xf9feffff
	DCD	0x498dc6e9
	DCD	0x9c380c17
	DCD	0xfffffce5
	DCD	0xffffffff
	DCD	0xffffffff
	DCD	0xffffffff
	DCD	0xffffffff
	DCD	0xffffffff
	DCD	0xffffffff
	DCD	0xffffffff
	DCD	0xffffffff
	DCD	0xffffffff
	DCD	0xffffffff
	DCD	0xffffffff
	DCD	0xffffffff
	DCD	0xffffffff
	DCD	0xffffffff
	DCD	0xffffffff
	DCD	0xffffffff
	DCD	0xffffffff
	DCD	0xffffffff
	DCD	0xffffffff
	DCD	0xffffffff
	DCD	0xffffffff
	DCD	0xffffffff
	DCD	0xffffffff
	DCD	0xffffffff
	DCD	0xffffffff
	DCD	0xffffffff
	DCD	0xffffffff
	DCD	0xffffffff
	DCD	0xfffffdff
	DCD	0x8fd0f1fc
	DCD	0xa0411e41
	DCD	0xfffffce6
	DCD	0xffffffff
	DCD	0xffffffff
	DCD	0xffffffff
	DCD	0xffffffff
	DCD	0xffffffff
	DCD	0xffffffff
	DCD	0xffffffff
	DCD	0xffffffff
	DCD	0xffffffff
	DCD	0xffffffff
	DCD	0xffffffff
	DCD	0xffffffff
	DCD	0xffffffff
	DCD	0xffffffff
	DCD	0xffffffff
	DCD	0xffffffff
	DCD	0xffffffff
	DCD	0xffffffff
	DCD	0xffffffff
	DCD	0xffffffff
	DCD	0xffffffff
	DCD	0xffffffff
	DCD	0xffffffff
	DCD	0xffffffff
	DCD	0xffffffff
	DCD	0xffffffff
	DCD	0xffffffff
	DCD	0xffffffff
	DCD	0xfffffeff
	DCD	0xcaf1fdff
	DCD	0xb7715e87
	DCD	0xfffffdec
	DCD	0xffffffff
	DCD	0xffffffff
	DCD	0xffffffff
	DCD	0xffffffff
	DCD	0xffffffff
	DCD	0xffffffff
	DCD	0xffffffff
	DCD	0xffffffff
	DCD	0xffffffff
	DCD	0xffffffff
	DCD	0xffffffff
	DCD	0xffffffff
	DCD	0xffffffff
	DCD	0xffffffff
	DCD	0xffffffff
	DCD	0xffffffff
	DCD	0xffffffff
	DCD	0xffffffff
	DCD	0xffffffff
	DCD	0xffffffff
	DCD	0xffffffff
	DCD	0xffffffff
	DCD	0xffffffff
	DCD	0xffffffff
	DCD	0xfeffffff
	DCD	0xfdfcfdfd
	DCD	0xfffffffe
	DCD	0xffffffff
	DCD	0xffffffff
	DCD	0xeffcffff
	DCD	0xe4c9c3d5
	DCD	0xfffffef8
	DCD	0xffffffff
	DCD	0xffffffff
	DCD	0xffffffff
	DCD	0xfeffffff
	DCD	0xfafafafc
	DCD	0xfffffefc
	DCD	0xffffffff
	DCD	0xffffffff
	DCD	0xffffffff
	DCD	0xffffffff
	DCD	0xffffffff
	DCD	0xffffffff
	DCD	0xffffffff
	DCD	0xffffffff
	DCD	0xffffffff
	DCD	0xffffffff
	DCD	0xffffffff
	DCD	0xffffffff
	DCD	0xffffffff
	DCD	0xffffffff
	DCD	0xffffffff
	DCD	0xffffffff
	DCD	0xffffffff
	DCD	0xffffffff
	DCD	0xf9feffff
	DCD	0xe9e6e8ef
	DCD	0xfffffbf2
	DCD	0xffffffff
	DCD	0xffffffff
	DCD	0xfdffffff
	DCD	0xfbf7f6f9
	DCD	0xfffffffe
	DCD	0xffffffff
	DCD	0xffffffff
	DCD	0xffffffff
	DCD	0xeef7fdff
	DCD	0xdad7dae3
	DCD	0xfcf7eee3
	DCD	0xffffffff
	DCD	0xffffffff
	DCD	0xffffffff
	DCD	0xffffffff
	DCD	0xffffffff
	DCD	0xffffffff
	DCD	0xffffffff
	DCD	0xffffffff
	DCD	0xffffffff
	DCD	0xffffffff
	DCD	0xffffffff
	DCD	0xffffffff
	DCD	0xffffffff
	DCD	0xffffffff
	DCD	0xffffffff
	DCD	0xffffffff
	DCD	0xffffffff
	DCD	0xffffffff
	DCD	0xe9fcffff
	DCD	0xac9fa6c2
	DCD	0xfffdefce
	DCD	0xffffffff
	DCD	0xffffffff
	DCD	0xffffffff
	DCD	0xffffffff
	DCD	0xffffffff
	DCD	0xffffffff
	DCD	0xffffffff
	DCD	0xfeffffff
	DCD	0xb3d2ebfa
	DCD	0x87828798
	DCD	0xead0b298
	DCD	0xfffffefa
	DCD	0xffffffff
	DCD	0xffffffff
	DCD	0xffffffff
	DCD	0xffffffff
	DCD	0xffffffff
	DCD	0xffffffff
	DCD	0xffffffff
	DCD	0xffffffff
	DCD	0xffffffff
	DCD	0xffffffff
	DCD	0xffffffff
	DCD	0xffffffff
	DCD	0xffffffff
	DCD	0xffffffff
	DCD	0xffffffff
	DCD	0xfeffffff
	DCD	0xfcfcfcfd
	DCD	0xd1f6fcfc
	DCD	0x573e4c84
	DCD	0xfefadd9a
	DCD	0xffffffff
	DCD	0xffffffff
	DCD	0xffffffff
	DCD	0xffffffff
	DCD	0xffffffff
	DCD	0xffffffff
	DCD	0xffffffff
	DCD	0xfaffffff
	DCD	0x507fb7e5
	DCD	0x2e2b2e38
	DCD	0xb67b4f37
	DCD	0xfffffae5
	DCD	0xffffffff
	DCD	0xffffffff
	DCD	0xffffffff
	DCD	0xffffffff
	DCD	0xffffffff
	DCD	0xffffffff
	DCD	0xffffffff
	DCD	0xffffffff
	DCD	0xffffffff
	DCD	0xffffffff
	DCD	0xffffffff
	DCD	0xffffffff
	DCD	0xffffffff
	DCD	0xffffffff
	DCD	0xffffffff
	DCD	0xf8feffff
	DCD	0xe5e5e6ec
	DCD	0xb5dee5e5
	DCD	0x2c0f1f5e
	DCD	0xf9ebc477
	DCD	0xfffffffe
	DCD	0xffffffff
	DCD	0xffffffff
	DCD	0xffffffff
	DCD	0xffffffff
	DCD	0xffffffff
	DCD	0xffffffff
	DCD	0xebfdffff
	DCD	0x14316bb8
	DCD	0x1418140e
	DCD	0x6a2f130e
	DCD	0xfffdebb7
	DCD	0xffffffff
	DCD	0xffffffff
	DCD	0xffffffff
	DCD	0xffffffff
	DCD	0xffffffff
	DCD	0xffffffff
	DCD	0xffffffff
	DCD	0xfeffffff
	DCD	0xfcfcfcfd
	DCD	0xfcfcfcfc
	DCD	0xfffffefd
	DCD	0xffffffff
	DCD	0xffffffff
	DCD	0xffffffff
	DCD	0xffffffff
	DCD	0xe3fbffff
	DCD	0x9c9ca0b7
	DCD	0x7a979c9c
	DCD	0x1905103c
	DCD	0xe9bf8d4f
	DCD	0xfffffffc
	DCD	0xffffffff
	DCD	0xffffffff
	DCD	0xffffffff
	DCD	0xffffffff
	DCD	0xffffffff
	DCD	0xffffffff
	DCD	0xd2f8ffff
	DCD	0xa0d3180
	DCD	0x4051401f
	DCD	0x300d0a1f
	DCD	0xfff7d17e
	DCD	0xffffffff
	DCD	0xffffffff
	DCD	0xffffffff
	DCD	0xffffffff
	DCD	0xffffffff
	DCD	0xffffffff
	DCD	0xffffffff
	DCD	0xf1fafeff
	DCD	0xe5e5e6e9
	DCD	0xe5e5e5e5
	DCD	0xfef8efe8
	DCD	0xffffffff
	DCD	0xffffffff
	DCD	0xffffffff
	DCD	0xffffffff
	DCD	0xc7f6ffff
	DCD	0x3838406f
	DCD	0x2b363838
	DCD	0x9020616
	DCD	0xd384431e
	DCD	0xfffffff9
	DCD	0xffffffff
	DCD	0xffffffff
	DCD	0xffffffff
	DCD	0xffffffff
	DCD	0xffffffff
	DCD	0xffffffff
	DCD	0xb5effeff
	DCD	0x1a061553
	DCD	0x99b49955
	DCD	0x13051a55
	DCD	0xfeeeb350
	DCD	0xffffffff
	DCD	0xffffffff
	DCD	0xffffffff
	DCD	0xffffffff
	DCD	0xffffffff
	DCD	0xffffffff
	DCD	0xffffffff
	DCD	0xbfe4f9ff
	DCD	0x9c9c9da5
	DCD	0x9c9c9c9c
	DCD	0xf7deb9a2
	DCD	0xfffffffe
	DCD	0xffffffff
	DCD	0xffffffff
	DCD	0xffffffff
	DCD	0xbaf4ffff
	DCD	0x909134d
	DCD	0x90b0b0a
	DCD	0x2000104
	DCD	0xc9692208
	DCD	0xfffffff7
	DCD	0xffffffff
	DCD	0xffffffff
	DCD	0xffffffff
	DCD	0xffffffff
	DCD	0xffffffff
	DCD	0xffffffff
	DCD	0x98e2fcff
	DCD	0x33080a39
	DCD	0xd7eed78e
	DCD	0x908338e
	DCD	0xfce29737
	DCD	0xffffffff
	DCD	0xffffffff
	DCD	0xffffffff
	DCD	0xffffffff
	DCD	0xffffffff
	DCD	0xffffffff
	DCD	0xffffffff
	DCD	0x6bb6ebfd
	DCD	0x38383942
	DCD	0x38383838
	DCD	0xe9b06640
	DCD	0xfffffffc
	DCD	0xffffffff
	DCD	0xffffffff
	DCD	0xffffffff
	DCD	0xb9f4ffff
	DCD	0x9020c48
	DCD	0x14191913
	DCD	0x401030a
	DCD	0xcd722d10
	DCD	0xfffffff8
	DCD	0xffffffff
	DCD	0xffffffff
	DCD	0xffffffff
	DCD	0xffffffff
	DCD	0xffffffff
	DCD	0xffffffff
	DCD	0x81d7faff
	DCD	0x480d072a
	DCD	0xeffdefb1
	DCD	0x70d48b1
	DCD	0xfad68129
	DCD	0xffffffff
	DCD	0xffffffff
	DCD	0xffffffff
	DCD	0xffffffff
	DCD	0xffffffff
	DCD	0xffffffff
	DCD	0xffffffff
	DCD	0x3890ddfb
	DCD	0x11100c11
	DCD	0x12111011
	DCD	0xe4a24d1f
	DCD	0xfffffffc
	DCD	0xffffffff
	DCD	0xffffffff
	DCD	0xffffffff
	DCD	0xbdf5ffff
	DCD	0x1b071150
	DCD	0x4d5f5a40
	DCD	0x10030a27
	DCD	0xdd9e6333
	DCD	0xfffffffa
	DCD	0xffffffff
	DCD	0xffffffff
	DCD	0xffffffff
	DCD	0xffffffff
	DCD	0xffffffff
	DCD	0xffffffff
	DCD	0x6fcdf8ff
	DCD	0x57140620
	DCD	0xf5fff5c0
	DCD	0x61457c0
	DCD	0xf8cd6f20
	DCD	0xffffffff
	DCD	0xffffffff
	DCD	0xffffffff
	DCD	0xffffffff
	DCD	0xffffffff
	DCD	0xffffffff
	DCD	0xffffffff
	DCD	0x2c85d9fa
	DCD	0x3a31180c
	DCD	0x3d383839
	DCD	0xefc48251
	DCD	0xfffffffd
	DCD	0xffffffff
	DCD	0xffffffff
	DCD	0xffffffff
	DCD	0xcdf8ffff
	DCD	0x270e256f
	DCD	0x9bb9a367
	DCD	0x2006144d
	DCD	0xf3d9ad65
	DCD	0xfffffffd
	DCD	0xffffffff
	DCD	0xffffffff
	DCD	0xffffffff
	DCD	0xffffffff
	DCD	0xffffffff
	DCD	0xffffffff
	DCD	0x66c9f7ff
	DCD	0x6018061c
	DCD	0xf7fff7c6
	DCD	0x61860c6
	DCD	0xf7c9661c
	DCD	0xffffffff
	DCD	0xffffffff
	DCD	0xffffffff
	DCD	0xffffffff
	DCD	0xffffffff
	DCD	0xffffffff
	DCD	0xffffffff
	DCD	0x328edefb
	DCD	0x99783613
	DCD	0xa39d9c9d
	DCD	0xfbecd1b5
	DCD	0xffffffff
	DCD	0xffffffff
	DCD	0xffffffff
	DCD	0xffffffff
	DCD	0xe6fcffff
	DCD	0x1c1e55a7
	DCD	0xbbd09d4e
	DCD	0x28081960
	DCD	0xfdf5d07c
	DCD	0xffffffff
	DCD	0xffffffff
	DCD	0xffffffff
	DCD	0xffffffff
	DCD	0xffffffff
	DCD	0xffffffff
	DCD	0xffffffff
	DCD	0x64c7f7ff
	DCD	0x631a061a
	DCD	0xf7fff7c7
	DCD	0x61a63c7
	DCD	0xf7c7641a
	DCD	0xffffffff
	DCD	0xffffffff
	DCD	0xffffffff
	DCD	0xffffffff
	DCD	0xffffffff
	DCD	0xffffffff
	DCD	0xffffffff
	DCD	0x42a5e8fd
	DCD	0xbf803216
	DCD	0xe8e5e3db
	DCD	0xfffcf7f0
	DCD	0xffffffff
	DCD	0xffffffff
	DCD	0xffffffff
	DCD	0xffffffff
	DCD	0xf7feffff
	DCD	0x1c4999da
	DCD	0xafa86125
	DCD	0x29081a5f
	DCD	0xfffad680
	DCD	0xffffffff
	DCD	0xffffffff
	DCD	0xffffffff
	DCD	0xffffffff
	DCD	0xffffffff
	DCD	0xffffffff
	DCD	0xffffffff
	DCD	0x66c9f7ff
	DCD	0x6219061c
	DCD	0xf7fff7c6
	DCD	0x61962c6
	DCD	0xf7c9661c
	DCD	0xffffffff
	DCD	0xffffffff
	DCD	0xffffffff
	DCD	0xffffffff
	DCD	0xffffffff
	DCD	0xffffffff
	DCD	0xffffffff
	DCD	0x67c3f3fe
	DCD	0x934c1d25
	DCD	0xfcf7eaca
	DCD	0xfffffffe
	DCD	0xffffffff
	DCD	0xffffffff
	DCD	0xffffffff
	DCD	0xffffffff
	DCD	0xfeffffff
	DCD	0x3e8ad1f5
	DCD	0x84662d1a
	DCD	0x29081751
	DCD	0xfffad680
	DCD	0xffffffff
	DCD	0xffffffff
	DCD	0xffffffff
	DCD	0xffffffff
	DCD	0xffffffff
	DCD	0xffffffff
	DCD	0xffffffff
	DCD	0x6fcdf8ff
	DCD	0x5b160620
	DCD	0xf6fff6c2
	DCD	0x6165bc2
	DCD	0xf8cd6f20
	DCD	0xffffffff
	DCD	0xffffffff
	DCD	0xffffffff
	DCD	0xffffffff
	DCD	0xffffffff
	DCD	0xffffffff
	DCD	0xffffffff
	DCD	0xa2e2fbff
	DCD	0x45202354
	DCD	0xf3deb67e
	DCD	0xfffffffc
	DCD	0xffffffff
	DCD	0xffffffff
	DCD	0xffffffff
	DCD	0xffffffff
	DCD	0xffffffff
	DCD	0x7cc7f1fd
	DCD	0x452c1a35
	DCD	0x29071132
	DCD	0xfffad680
	DCD	0xffffffff
	DCD	0xffffffff
	DCD	0xffffffff
	DCD	0xffffffff
	DCD	0xffffffff
	DCD	0xffffffff
	DCD	0xffffffff
	DCD	0x81d7faff
	DCD	0x4a0e072a
	DCD	0xf0fdf0b3
	DCD	0x70e4ab3
	DCD	0xfad7812a
	DCD	0xffffffff
	DCD	0xffffffff
	DCD	0xffffffff
	DCD	0xffffffff
	DCD	0xffffffff
	DCD	0xffffffff
	DCD	0xffffffff
	DCD	0xd9f6feff
	DCD	0x1e29589e
	DCD	0xcb975e32
	DCD	0xfffffced
	DCD	0xffffffff
	DCD	0xffffffff
	DCD	0xffffffff
	DCD	0xffffffff
	DCD	0xffffffff
	DCD	0xbcecfcff
	DCD	0x17142d6f
	DCD	0x29070713
	DCD	0xfffad680
	DCD	0xffffffff
	DCD	0xffffffff
	DCD	0xffffffff
	DCD	0xffffffff
	DCD	0xffffffff
	DCD	0xffffffff
	DCD	0xffffffff
	DCD	0x99e2fcff
	DCD	0x35090a39
	DCD	0xd9eed993
	DCD	0xa093593
	DCD	0xfce29939
	DCD	0xffffffff
	DCD	0xffffffff
	DCD	0xffffffff
	DCD	0xffffffff
	DCD	0xffffffff
	DCD	0xffffffff
	DCD	0xffffffff
	DCD	0xf6feffff
	DCD	0x3a6ba8db
	DCD	0x7f442320
	DCD	0xfffcecc0
	DCD	0xffffffff
	DCD	0xffffffff
	DCD	0xffffffff
	DCD	0xffffffff
	DCD	0xffffffff
	DCD	0xe7fbffff
	DCD	0xa2361b1
	DCD	0x29060204
	DCD	0xfffad680
	DCD	0xffffffff
	DCD	0xffffffff
	DCD	0xffffffff
	DCD	0xffffffff
	DCD	0xffffffff
	DCD	0xffffffff
	DCD	0xffffffff
	DCD	0xb6effeff
	DCD	0x1c061655
	DCD	0x9cb59c5a
	DCD	0x16061c5a
	DCD	0xfeefb655
	DCD	0xffffffff
	DCD	0xffffffff
	DCD	0xffffffff
	DCD	0xffffffff
	DCD	0xffffffff
	DCD	0xffffffff
	DCD	0xffffffff
	DCD	0xfeffffff
	DCD	0x8bbfe5f7
	DCD	0x381d2a52
	DCD	0xfdf0c379
	DCD	0xffffffff
	DCD	0xffffffff
	DCD	0xffffffff
	DCD	0xffffffff
	DCD	0xffffffff
	DCD	0xf9feffff
	DCD	0x1a54a5e0
	DCD	0x29060005
	DCD	0xfffad680
	DCD	0xffffffff
	DCD	0xffffffff
	DCD	0xffffffff
	DCD	0xffffffff
	DCD	0xffffffff
	DCD	0xffffffff
	DCD	0xffffffff
	DCD	0xd4f8ffff
	DCD	0xb0e3383
	DCD	0x41514121
	DCD	0x330e0b21
	DCD	0xfff8d483
	DCD	0xffffffff
	DCD	0xffffffff
	DCD	0xffffffff
	DCD	0xffffffff
	DCD	0xffffffff
	DCD	0xffffffff
	DCD	0xffffffff
	DCD	0xfcfeffff
	DCD	0xd6f0fafb
	DCD	0x1b306aa9
	DCD	0xf9d88b3c
	DCD	0xffffffff
	DCD	0xffffffff
	DCD	0xffffffff
	DCD	0xffffffff
	DCD	0xffffffff
	DCD	0xfeffffff
	DCD	0x4999daf7
	DCD	0x300e0a19
	DCD	0xfffad784
	DCD	0xffffffff
	DCD	0xffffffff
	DCD	0xffffffff
	DCD	0xffffffff
	DCD	0xffffffff
	DCD	0xffffffff
	DCD	0xffffffff
	DCD	0xecfdffff
	DCD	0x14316cb9
	DCD	0x1418140f
	DCD	0x6c31140f
	DCD	0xfffdecb9
	DCD	0xffffffff
	DCD	0xffffffff
	DCD	0xffffffff
	DCD	0xffffffff
	DCD	0xffffffff
	DCD	0xffffffff
	DCD	0xffffffff
	DCD	0xe6f3fcff
	DCD	0xf7f9f0e4
	DCD	0x2366b5e5
	DCD	0xf3bf5d1d
	DCD	0xfffffffe
	DCD	0xffffffff
	DCD	0xffffffff
	DCD	0xffffffff
	DCD	0xffffffff
	DCD	0xffffffff
	DCD	0x91d2f5fe
	DCD	0x583d3c55
	DCD	0xfffbdf9c
	DCD	0xffffffff
	DCD	0xffffffff
	DCD	0xffffffff
	DCD	0xffffffff
	DCD	0xffffffff
	DCD	0xffffffff
	DCD	0xffffffff
	DCD	0xfaffffff
	DCD	0x507fb7e5
	DCD	0x2e2b2e38
	DCD	0xb77f5038
	DCD	0xfffffae5
	DCD	0xffffffff
	DCD	0xffffffff
	DCD	0xffffffff
	DCD	0xffffffff
	DCD	0xffffffff
	DCD	0xffffffff
	DCD	0xffffffff
	DCD	0xa7d2f3fe
	DCD	0xf3e1be9f
	DCD	0x3492dbf5
	DCD	0xecaa4314
	DCD	0xfffffffd
	DCD	0xffffffff
	DCD	0xffffffff
	DCD	0xffffffff
	DCD	0xffffffff
	DCD	0xffffffff
	DCD	0xd6f2fdff
	DCD	0xac9ea1b3
	DCD	0xfffdefce
	DCD	0xffffffff
	DCD	0xffffffff
	DCD	0xffffffff
	DCD	0xffffffff
	DCD	0xffffffff
	DCD	0xffffffff
	DCD	0xffffffff
	DCD	0xfeffffff
	DCD	0xb3d2ebfa
	DCD	0x87828798
	DCD	0xebd2b398
	DCD	0xfffffefa
	DCD	0xffffffff
	DCD	0xffffffff
	DCD	0xffffffff
	DCD	0xffffffff
	DCD	0xffffffff
	DCD	0xffffffff
	DCD	0xffffffff
	DCD	0x5ca6e6fc
	DCD	0xc89d6645
	DCD	0x328bcada
	DCD	0xe8a33d11
	DCD	0xfffffffd
	DCD	0xffffffff
	DCD	0xffffffff
	DCD	0xffffffff
	DCD	0xffffffff
	DCD	0xffffffff
	DCD	0xf7fdffff
	DCD	0xe9e6e7ed
	DCD	0xfffffbf2
	DCD	0xffffffff
	DCD	0xffffffff
	DCD	0xffffffff
	DCD	0xffffffff
	DCD	0xffffffff
	DCD	0xffffffff
	DCD	0xffffffff
	DCD	0xffffffff
	DCD	0xeef7fdff
	DCD	0xdad7dae3
	DCD	0xfdf7eee3
	DCD	0xffffffff
	DCD	0xffffffff
	DCD	0xffffffff
	DCD	0xffffffff
	DCD	0xffffffff
	DCD	0xffffffff
	DCD	0xffffffff
	DCD	0xffffffff
	DCD	0x4ca4e6fc
	DCD	0x7147241f
	DCD	0x1c4f7d89
	DCD	0xecad4914
	DCD	0xfffffffd
	DCD	0xffffffff
	DCD	0xffffffff
	DCD	0xffffffff
	DCD	0xffffffff
	DCD	0xffffffff
	DCD	0xfeffffff
	DCD	0xfdfcfdfd
	DCD	0xfffffffe
	DCD	0xffffffff
	DCD	0xfffeffff
	DCD	0xffffffff
	DCD	0xffffffff
	DCD	0xffffffff
	DCD	0xffffffff
	DCD	0xffffffff
	DCD	0xffffffff
	DCD	0xfeffffff
	DCD	0xfafafafc
	DCD	0xfffffefc
	DCD	0xffffffff
	DCD	0xffffffff
	DCD	0xffffffff
	DCD	0xffffffff
	DCD	0xffffffff
	DCD	0xffffffff
	DCD	0xffffffff
	DCD	0xffffffff
	DCD	0x7fc9f3fe
	DCD	0x25191d3e
	DCD	0x141b2a2f
	DCD	0xf5c9732d
	DCD	0xfffffffe
	DCD	0xffffffff
	DCD	0xffffffff
	DCD	0xffffffff
	DCD	0xffffffff
	DCD	0xffffffff
	DCD	0xffffffff
	DCD	0xffffffff
	DCD	0xffffffff
	DCD	0xffffffff
	DCD	0xfef7ffff
	DCD	0xffffffff
	DCD	0xffffffff
	DCD	0xffffffff
	DCD	0xffffffff
	DCD	0xffffffff
	DCD	0xffffffff
	DCD	0xffffffff
	DCD	0xffffffff
	DCD	0xffffffff
	DCD	0xffffffff
	DCD	0xffffffff
	DCD	0xffffffff
	DCD	0xffffffff
	DCD	0xffffffff
	DCD	0xffffffff
	DCD	0xffffffff
	DCD	0xffffffff
	DCD	0xc6edfcff
	DCD	0x1c2e538c
	DCD	0x3b211615
	DCD	0xfce8b36d
	DCD	0xffffffff
	DCD	0xffffffff
	DCD	0xffffffff
	DCD	0xffffffff
	DCD	0xffffffff
	DCD	0xffffffff
	DCD	0xffffffff
	DCD	0xffffffff
	DCD	0xf8fbfdff
	DCD	0xfcf9f8f7
	DCD	0xfffffffe
	DCD	0xffffffff
	DCD	0xffffffff
	DCD	0xffffffff
	DCD	0xffffffff
	DCD	0xffffffff
	DCD	0xffffffff
	DCD	0xffffffff
	DCD	0xffffffff
	DCD	0xffffffff
	DCD	0xffffffff
	DCD	0xffffffff
	DCD	0xffffffff
	DCD	0xffffffff
	DCD	0xffffffff
	DCD	0xffffffff
	DCD	0xffffffff
	DCD	0xffffffff
	DCD	0xf1fcffff
	DCD	0x5d7facd5
	DCD	0x9269514d
	DCD	0xfefae7c0
	DCD	0xffffffff
	DCD	0xffffffff
	DCD	0xffffffff
	DCD	0xffffffff
	DCD	0xffffffff
	DCD	0xffffffff
	DCD	0xffffffff
	DCD	0xfdffffff
	DCD	0xcfdcedf8
	DCD	0xe3d4cbc9
	DCD	0xfffffbf2
	DCD	0xffffffff
	DCD	0xffffffff
	DCD	0xffffffff
	DCD	0xffffffff
	DCD	0xffffffff
	DCD	0xffffffff
	DCD	0xffffffff
	DCD	0xffffffff
	DCD	0xffffffff
	DCD	0xffffffff
	DCD	0xffffffff
	DCD	0xffffffff
	DCD	0xffffffff
	DCD	0xffffffff
	DCD	0xffffffff
	DCD	0xffffffff
	DCD	0xffffffff
	DCD	0xfdffffff
	DCD	0xc4d5e9f7
	DCD	0xdecabebc
	DCD	0xfffefbf1
	DCD	0xffffffff
	DCD	0xffffffff
	DCD	0xffffffff
	DCD	0xffffffff
	DCD	0xffffffff
	DCD	0xffffffff
	DCD	0xffffffff
	DCD	0xf0fcffff
	DCD	0x728db2d6
	DCD	0x9b7d6b67
	DCD	0xffffe3c1
	DCD	0xffffffff
	DCD	0xffffffff
	DCD	0xffffffff
	DCD	0xffffffff
	DCD	0xffffffff
	DCD	0xffffffff
	DCD	0xffffffff
	DCD	0xffffffff
	DCD	0xffffffff
	DCD	0xffffffff
	DCD	0xffffffff
	DCD	0xffffffff
	DCD	0xffffffff
	DCD	0xffffffff
	DCD	0xffffffff
	DCD	0xffffffff
	DCD	0xffffffff
	DCD	0xffffffff
	DCD	0xf6f9fdfe
	DCD	0xfbf7f5f5
	DCD	0xfffffffe
	DCD	0xffffffff
	DCD	0xffffffff
	DCD	0xffffffff
	DCD	0xffffffff
	DCD	0xffffffff
	DCD	0xffffffff
	DCD	0xffffffff
	DCD	0xc4edfcff
	DCD	0x2233558a
	DCD	0x3e281e1c
	DCD	0xf6daa468
	DCD	0xfffffffe
	DCD	0xffffffff
	DCD	0xffffffff
	DCD	0xffffffff
	DCD	0xffffffff
	DCD	0xffffffff
	DCD	0xffffffff
	DCD	0xffffffff
	DCD	0xffffffff
	DCD	0xffffffff
	DCD	0xffffffff
	DCD	0xffffffff
	DCD	0xffffffff
	DCD	0xffffffff
	DCD	0xffffffff
	DCD	0xffffffff
	DCD	0xffffffff
	DCD	0xffffffff
	DCD	0xffffffff
	DCD	0xffffffff
	DCD	0xffffffff
	DCD	0xffffffff
	DCD	0xffffffff
	DCD	0xffffffff
	DCD	0xffffffff
	DCD	0xffffffff
	DCD	0xffffffff
	DCD	0xffffffff
	DCD	0x7dc8f2fe
	DCD	0x90a173c
	DCD	0xe0a0a0a
	DCD	0xdea05523
	DCD	0xfffffff9
	DCD	0xffffffff
	DCD	0xffffffff
	DCD	0xffffffff
	DCD	0xffffffff
	DCD	0xffffffff
	DCD	0xffffffff
	DCD	0xffffffff
	DCD	0xffffffff
	DCD	0xffffffff
	DCD	0xffffffff
	DCD	0xffffffff
	DCD	0xffffffff
	DCD	0xffffffff
	DCD	0xffffffff
	DCD	0xffffffff
	DCD	0xffffffff
	DCD	0xffffffff
	DCD	0xffffffff
	DCD	0xffffffff
	DCD	0xffffffff
	DCD	0xffffffff
	DCD	0xffffffff
	DCD	0xffffffff
	DCD	0xffffffff
	DCD	0xffffffff
	DCD	0xffffffff
	DCD	0xffffffff
	DCD	0x4095defb
	DCD	0x220f0712
	DCD	0xe1f2e2f
	DCD	0xb35c1f0a
	DCD	0xfffffdec
	DCD	0xffffffff
	DCD	0xffffffff
	DCD	0xffffffff
	DCD	0xffffffff
	DCD	0xffffffff
	DCD	0xffffffff
	DCD	0xffffffff
	DCD	0xffffffff
	DCD	0xffffffff
	DCD	0xffffffff
	DCD	0xffffffff
	DCD	0xffffffff
	DCD	0xffffffff
	DCD	0xffffffff
	DCD	0xffffffff
	DCD	0xffffffff
	DCD	0xffffffff
	DCD	0xffffffff
	DCD	0xffffffff
	DCD	0xffffffff
	DCD	0xffffffff
	DCD	0xffffffff
	DCD	0xffffffff
	DCD	0xffffffff
	DCD	0xffffffff
	DCD	0xffffffff
	DCD	0xffffffff
	DCD	0x246bcaf7
	DCD	0x6e3e190e
	DCD	0x3567888b
	DCD	0x822f0b10
	DCD	0xfffff9d6
	DCD	0xffffffff
	DCD	0xffffffff
	DCD	0xffffffff
	DCD	0xffffffff
	DCD	0xffffffff
	DCD	0xffffffff
	DCD	0xffffffff
	DCD	0xffffffff
	DCD	0xffffffff
	DCD	0xffffffff
	DCD	0xffffffff
	DCD	0xffffffff
	DCD	0xffffffff
	DCD	0xffffffff
	DCD	0xffffffff
	DCD	0xffffffff
	DCD	0xffffffff
	DCD	0xffffffff
	DCD	0xffffffff
	DCD	0xfeffffff
	DCD	0xfbfafbfd
	DCD	0xfffffefd
	DCD	0xffffffff
	DCD	0xffffffff
	DCD	0xffffffff
	DCD	0xffffffff
	DCD	0xffffffff
	DCD	0x4476cbf7
	DCD	0xc491583e
	DCD	0x77bbd9dc
	DCD	0x59160a2b
	DCD	0xfffef3bd
	DCD	0xffffffff
	DCD	0xffffffff
	DCD	0xffffffff
	DCD	0xffffffff
	DCD	0xffffffff
	DCD	0xffffffff
	DCD	0xffffffff
	DCD	0xffffffff
	DCD	0xffffffff
	DCD	0xffffffff
	DCD	0xffffffff
	DCD	0xffffffff
	DCD	0xffffffff
	DCD	0xffffffff
	DCD	0xffffffff
	DCD	0xffffffff
	DCD	0xffffffff
	DCD	0xffffffff
	DCD	0xffffffff
	DCD	0xf4fbfeff
	DCD	0xdcd9dee8
	DCD	0xfefbf3e7
	DCD	0xffffffff
	DCD	0xffffffff
	DCD	0xffffffff
	DCD	0xffffffff
	DCD	0xffffffff
	DCD	0xa0b8e4fb
	DCD	0xf1d8b4a1
	DCD	0xabe9f9fa
	DCD	0x420d1048
	DCD	0xfffdeba9
	DCD	0xffffffff
	DCD	0xffffffff
	DCD	0xffffffff
	DCD	0xffffffff
	DCD	0xffffffff
	DCD	0xffffffff
	DCD	0xffffffff
	DCD	0xffffffff
	DCD	0xffffffff
	DCD	0xffffffff
	DCD	0xffffffff
	DCD	0xffffffff
	DCD	0xffffffff
	DCD	0xffffffff
	DCD	0xffffffff
	DCD	0xffffffff
	DCD	0xffffffff
	DCD	0xffffffff
	DCD	0xffffffff
	DCD	0xc4e1f5fd
	DCD	0x8b848ea5
	DCD	0xf4e0c1a3
	DCD	0xfffffffd
	DCD	0xffffffff
	DCD	0xffffffff
	DCD	0xffffffff
	DCD	0xffffffff
	DCD	0xe6ecf8fe
	DCD	0xfdf6ede7
	DCD	0xbff4ffff
	DCD	0x3a0b1558
	DCD	0xfffce7a0
	DCD	0xffffffff
	DCD	0xffffffff
	DCD	0xffffffff
	DCD	0xffffffff
	DCD	0xffffffff
	DCD	0xffffffff
	DCD	0xffffffff
	DCD	0xffffffff
	DCD	0xffffffff
	DCD	0xffffffff
	DCD	0xffffffff
	DCD	0xffffffff
	DCD	0xffffffff
	DCD	0xffffffff
	DCD	0xffffffff
	DCD	0xffffffff
	DCD	0xffffffff
	DCD	0xffffffff
	DCD	0xfdffffff
	DCD	0x679cd1f2
	DCD	0x33303444
	DCD	0xd29b6442
	DCD	0xfffffdf3
	DCD	0xffffffff
	DCD	0xffffffff
	DCD	0xffffffff
	DCD	0xffffffff
	DCD	0xf7fbfeff
	DCD	0xf6efeff3
	DCD	0xb5eefdfc
	DCD	0x3c0b1351
	DCD	0xfffde8a3
	DCD	0xffffffff
	DCD	0xffffffff
	DCD	0xffffffff
	DCD	0xffffffff
	DCD	0xffffffff
	DCD	0xffffffff
	DCD	0xffffffff
	DCD	0xffffffff
	DCD	0xffffffff
	DCD	0xffffffff
	DCD	0xffffffff
	DCD	0xffffffff
	DCD	0xffffffff
	DCD	0xffffffff
	DCD	0xffffffff
	DCD	0xffffffff
	DCD	0xffffffff
	DCD	0xffffffff
	DCD	0xf6feffff
	DCD	0x224a8fd4
	DCD	0x2328231a
	DCD	0x934a211a
	DCD	0xfffff8d9
	DCD	0xffffffff
	DCD	0xffffffff
	DCD	0xffffffff
	DCD	0xffffffff
	DCD	0xddf4feff
	DCD	0xd0b7b5c4
	DCD	0x8aceeae7
	DCD	0x490e0b35
	DCD	0xfffeefb2
	DCD	0xffffffff
	DCD	0xffffffff
	DCD	0xffffffff
	DCD	0xffffffff
	DCD	0xffffffff
	DCD	0xffffffff
	DCD	0xffffffff
	DCD	0xffffffff
	DCD	0xffffffff
	DCD	0xffffffff
	DCD	0xffffffff
	DCD	0xffffffff
	DCD	0xffffffff
	DCD	0xffffffff
	DCD	0xffffffff
	DCD	0xffffffff
	DCD	0xffffffff
	DCD	0xffffffff
	DCD	0xe6fcffff
	DCD	0x161a4fa5
	DCD	0x63736137
	DCD	0x581d183a
	DCD	0xfffdedb3
	DCD	0xffffffff
	DCD	0xffffffff
	DCD	0xffffffff
	DCD	0xffffffff
	DCD	0xa5e2fbff
	DCD	0x7b544c69
	DCD	0x4784a7a1
	DCD	0x651c0716
	DCD	0xfffff5c6
	DCD	0xffffffff
	DCD	0xffffffff
	DCD	0xffffffff
	DCD	0xffffffff
	DCD	0xffffffff
	DCD	0xffffffff
	DCD	0xffffffff
	DCD	0xffffffff
	DCD	0xffffffff
	DCD	0xffffffff
	DCD	0xffffffff
	DCD	0xffffffff
	DCD	0xffffffff
	DCD	0xffffffff
	DCD	0xffffffff
	DCD	0xffffffff
	DCD	0xffffffff
	DCD	0xffffffff
	DCD	0xd8f9ffff
	DCD	0x381c3886
	DCD	0xbccdba7f
	DCD	0x34133483
	DCD	0xfffadc8d
	DCD	0xffffffff
	DCD	0xffffffff
	DCD	0xffffffff
	DCD	0xffffffff
	DCD	0x89dafaff
	DCD	0x28141336
	DCD	0x152d3e3b
	DCD	0x923c1007
	DCD	0xfffffadd
	DCD	0xffffffff
	DCD	0xffffffff
	DCD	0xffffffff
	DCD	0xffffffff
	DCD	0xffffffff
	DCD	0xffffffff
	DCD	0xffffffff
	DCD	0xffffffff
	DCD	0xffffffff
	DCD	0xffffffff
	DCD	0xffffffff
	DCD	0xffffffff
	DCD	0xffffffff
	DCD	0xffffffff
	DCD	0xffffffff
	DCD	0xffffffff
	DCD	0xffffffff
	DCD	0xffffffff
	DCD	0xddfaffff
	DCD	0x7b57659c
	DCD	0xebf7ecc0
	DCD	0x241750b3
	DCD	0xfff8cf72
	DCD	0xffffffff
	DCD	0xffffffff
	DCD	0xffffffff
	DCD	0xffffffff
	DCD	0x91e0fbff
	DCD	0x6020833
	DCD	0x8080a09
	DCD	0xc4753311
	DCD	0xfffffef1
	DCD	0xffffffff
	DCD	0xffffffff
	DCD	0xffffffff
	DCD	0xffffffff
	DCD	0xffffffff
	DCD	0xffffffff
	DCD	0xffffffff
	DCD	0xffffffff
	DCD	0xffffffff
	DCD	0xffffffff
	DCD	0xffffffff
	DCD	0xffffffff
	DCD	0xffffffff
	DCD	0xffffffff
	DCD	0xffffffff
	DCD	0xffffffff
	DCD	0xffffffff
	DCD	0xffffffff
	DCD	0xf2fdffff
	DCD	0xcabbc3d9
	DCD	0xf0fdfbe9
	DCD	0x201753b8
	DCD	0xfff8cc6c
	DCD	0xffffffff
	DCD	0xffffffff
	DCD	0xffffffff
	DCD	0xffffffff
	DCD	0xa7ebfdff
	DCD	0x4010b40
	DCD	0x23130d09
	DCD	0xe9ba7a43
	DCD	0xfffffffb
	DCD	0xffffffff
	DCD	0xffffffff
	DCD	0xffffffff
	DCD	0xffffffff
	DCD	0xffffffff
	DCD	0xffffffff
	DCD	0xffffffff
	DCD	0xffffffff
	DCD	0xffffffff
	DCD	0xffffffff
	DCD	0xffffffff
	DCD	0xffffffff
	DCD	0xffffffff
	DCD	0xffffffff
	DCD	0xffffffff
	DCD	0xffffffff
	DCD	0xffffffff
	DCD	0xffffffff
	DCD	0xfdffffff
	DCD	0xf2f2f5f9
	DCD	0xd3eef5f5
	DCD	0x29123b92
	DCD	0xfff9d47c
	DCD	0xffffffff
	DCD	0xffffffff
	DCD	0xffffffff
	DCD	0xffffffff
	DCD	0xbaf3ffff
	DCD	0x13041252
	DCD	0x72564632
	DCD	0xfaeac99d
	DCD	0xfffffffe
	DCD	0xffffffff
	DCD	0xffffffff
	DCD	0xffffffff
	DCD	0xffffffff
	DCD	0xffffffff
	DCD	0xffffffff
	DCD	0xffffffff
	DCD	0xffffffff
	DCD	0xffffffff
	DCD	0xffffffff
	DCD	0xffffffff
	DCD	0xffffffff
	DCD	0xffffffff
	DCD	0xffffffff
	DCD	0xffffffff
	DCD	0xffffffff
	DCD	0xffffffff
	DCD	0xffffffff
	DCD	0xffffffff
	DCD	0xf0fcffff
	DCD	0x88b0c6d9
	DCD	0x46171d4e
	DCD	0xfffce4a0
	DCD	0xffffffff
	DCD	0xffffffff
	DCD	0xffffffff
	DCD	0xffffffff
	DCD	0xcaf7ffff
	DCD	0x2a091d69
	DCD	0xcfbfa974
	DCD	0xfffcf3e3
	DCD	0xffffffff
	DCD	0xffffffff
	DCD	0xffffffff
	DCD	0xffffffff
	DCD	0xffffffff
	DCD	0xffffffff
	DCD	0xffffffff
	DCD	0xffffffff
	DCD	0xffffffff
	DCD	0xffffffff
	DCD	0xffffffff
	DCD	0xffffffff
	DCD	0xffffffff
	DCD	0xffffffff
	DCD	0xffffffff
	DCD	0xffffffff
	DCD	0xffffffff
	DCD	0xffffffff
	DCD	0xffffffff
	DCD	0xffffffff
	DCD	0xdaf9ffff
	DCD	0x30496798
	DCD	0x7d371419
	DCD	0xfffef4cb
	DCD	0xffffffff
	DCD	0xffffffff
	DCD	0xffffffff
	DCD	0xffffffff
	DCD	0xd7faffff
	DCD	0x2d0c2a82
	DCD	0xf3ecd084
	DCD	0xfbfaf9f6
	DCD	0xfffffffd
	DCD	0xffffffff
	DCD	0xffffffff
	DCD	0xffffffff
	DCD	0xffffffff
	DCD	0xffffffff
	DCD	0xffffffff
	DCD	0xffffffff
	DCD	0xffffffff
	DCD	0xffffffff
	DCD	0xffffffff
	DCD	0xffffffff
	DCD	0xffffffff
	DCD	0xffffffff
	DCD	0xffffffff
	DCD	0xffffffff
	DCD	0xffffffff
	DCD	0xffffffff
	DCD	0xffffffff
	DCD	0xffffffff
	DCD	0xcdf8ffff
	DCD	0xe193576
	DCD	0xb15f1d09
	DCD	0xfffffce8
	DCD	0xffffffff
	DCD	0xffffffff
	DCD	0xffffffff
	DCD	0xffffffff
	DCD	0xe5fcffff
	DCD	0x200c389c
	DCD	0xd6d1b267
	DCD	0xe2d8d6d6
	DCD	0xfffffdf4
	DCD	0xffffffff
	DCD	0xffffffff
	DCD	0xffffffff
	DCD	0xffffffff
	DCD	0xffffffff
	DCD	0xffffffff
	DCD	0xffffffff
	DCD	0xffffffff
	DCD	0xffffffff
	DCD	0xffffffff
	DCD	0xffffffff
	DCD	0xffffffff
	DCD	0xffffffff
	DCD	0xffffffff
	DCD	0xffffffff
	DCD	0xffffffff
	DCD	0xffffffff
	DCD	0xffffffff
	DCD	0xffffffff
	DCD	0xd7f9ffff
	DCD	0x2b40598f
	DCD	0xa6531c17
	DCD	0xfffffbe4
	DCD	0xffffffff
	DCD	0xffffffff
	DCD	0xffffffff
	DCD	0xffffffff
	DCD	0xf0feffff
	DCD	0x100f49b3
	DCD	0x807c6737
	DCD	0xa3858080
	DCD	0xfffffadc
	DCD	0xffffffff
	DCD	0xffffffff
	DCD	0xffffffff
	DCD	0xffffffff
	DCD	0xffffffff
	DCD	0xffffffff
	DCD	0xffffffff
	DCD	0xffffffff
	DCD	0xffffffff
	DCD	0xffffffff
	DCD	0xffffffff
	DCD	0xffffffff
	DCD	0xffffffff
	DCD	0xffffffff
	DCD	0xffffffff
	DCD	0xffffffff
	DCD	0xffffffff
	DCD	0xffffffff
	DCD	0xffffffff
	DCD	0xeefcffff
	DCD	0x80a7bcd2
	DCD	0x6d2b1f48
	DCD	0xfffef2c3
	DCD	0xffffffff
	DCD	0xffffffff
	DCD	0xffffffff
	DCD	0xffffffff
	DCD	0xf6ffffff
	DCD	0x7185ec4
	DCD	0x29282011
	DCD	0x64322929
	DCD	0xfffff6c3
	DCD	0xffffffff
	DCD	0xffffffff
	DCD	0xffffffff
	DCD	0xffffffff
	DCD	0xffffffff
	DCD	0xffffffff
	DCD	0xffffffff
	DCD	0xffffffff
	DCD	0xffffffff
	DCD	0xffffffff
	DCD	0xffffffff
	DCD	0xffffffff
	DCD	0xffffffff
	DCD	0xffffffff
	DCD	0xffffffff
	DCD	0xffffffff
	DCD	0xffffffff
	DCD	0xffffffff
	DCD	0xffffffff
	DCD	0xebf2f9fd
	DCD	0xcce9f0ed
	DCD	0x40153187
	DCD	0xfffce49e
	DCD	0xffffffff
	DCD	0xffffffff
	DCD	0xffffffff
	DCD	0xffffffff
	DCD	0xf9ffffff
	DCD	0xd2a7ad3
	DCD	0xe0e0d0a
	DCD	0x51180e0e
	DCD	0xfffff5bc
	DCD	0xffffffff
	DCD	0xffffffff
	DCD	0xffffffff
	DCD	0xffffffff
	DCD	0xffffffff
	DCD	0xffffffff
	DCD	0xffffffff
	DCD	0xffffffff
	DCD	0xffffffff
	DCD	0xffffffff
	DCD	0xffffffff
	DCD	0xffffffff
	DCD	0xffffffff
	DCD	0xffffffff
	DCD	0xffffffff
	DCD	0xffffffff
	DCD	0xffffffff
	DCD	0xffffffff
	DCD	0xfdffffff
	DCD	0xb4bfdaf2
	DCD	0xe5f6ebcc
	DCD	0x2f103ca1
	DCD	0xfffbdc8b
	DCD	0xffffffff
	DCD	0xffffffff
	DCD	0xffffffff
	DCD	0xffffffff
	DCD	0xfbffffff
	DCD	0x3d5aa0e2
	DCD	0x38383838
	DCD	0x6f403838
	DCD	0xfffff6c7
	DCD	0xffffffff
	DCD	0xffffffff
	DCD	0xffffffff
	DCD	0xffffffff
	DCD	0xffffffff
	DCD	0xffffffff
	DCD	0xffffffff
	DCD	0xffffffff
	DCD	0xffffffff
	DCD	0xffffffff
	DCD	0xffffffff
	DCD	0xffffffff
	DCD	0xffffffff
	DCD	0xffffffff
	DCD	0xffffffff
	DCD	0xffffffff
	DCD	0xffffffff
	DCD	0xffffffff
	DCD	0xf9ffffff
	DCD	0x58659ddc
	DCD	0xc8d8bc82
	DCD	0x330f2f85
	DCD	0xfffbdf91
	DCD	0xffffffff
	DCD	0xffffffff
	DCD	0xffffffff
	DCD	0xffffffff
	DCD	0xfdffffff
	DCD	0x9fafd4f3
	DCD	0x9c9c9c9c
	DCD	0xb7a09c9c
	DCD	0xfffffbe3
	DCD	0xffffffff
	DCD	0xffffffff
	DCD	0xffffffff
	DCD	0xffffffff
	DCD	0xffffffff
	DCD	0xffffffff
	DCD	0xffffffff
	DCD	0xffffffff
	DCD	0xffffffff
	DCD	0xffffffff
	DCD	0xffffffff
	DCD	0xffffffff
	DCD	0xffffffff
	DCD	0xffffffff
	DCD	0xffffffff
	DCD	0xffffffff
	DCD	0xffffffff
	DCD	0xffffffff
	DCD	0xf8ffffff
	DCD	0x1f3984d5
	DCD	0x7a896a38
	DCD	0x4e161846
	DCD	0xfffdebad
	DCD	0xffffffff
	DCD	0xffffffff
	DCD	0xffffffff
	DCD	0xffffffff
	DCD	0xffffffff
	DCD	0xe6eaf4fc
	DCD	0xe5e5e5e5
	DCD	0xece6e5e5
	DCD	0xfffffef8
	DCD	0xffffffff
	DCD	0xffffffff
	DCD	0xffffffff
	DCD	0xffffffff
	DCD	0xffffffff
	DCD	0xffffffff
	DCD	0xffffffff
	DCD	0xffffffff
	DCD	0xffffffff
	DCD	0xffffffff
	DCD	0xffffffff
	DCD	0xffffffff
	DCD	0xffffffff
	DCD	0xffffffff
	DCD	0xffffffff
	DCD	0xffffffff
	DCD	0xffffffff
	DCD	0xffffffff
	DCD	0xfcffffff
	DCD	0x2558a7e5
	DCD	0x2c322619
	DCD	0x833a191b
	DCD	0xfffff7d1
	DCD	0xffffffff
	DCD	0xffffffff
	DCD	0xffffffff
	DCD	0xffffffff
	DCD	0xffffffff
	DCD	0xfcfdfeff
	DCD	0xfcfcfcfc
	DCD	0xfffffcfc
	DCD	0xffffffff
	DCD	0xffffffff
	DCD	0xffffffff
	DCD	0xffffffff
	DCD	0xffffffff
	DCD	0xffffffff
	DCD	0xffffffff
	DCD	0xffffffff
	DCD	0xffffffff
	DCD	0xffffffff
	DCD	0xffffffff
	DCD	0xffffffff
	DCD	0xffffffff
	DCD	0xffffffff
	DCD	0xffffffff
	DCD	0xffffffff
	DCD	0xffffffff
	DCD	0xffffffff
	DCD	0xffffffff
	DCD	0xfeffffff
	DCD	0x64a2daf6
	DCD	0x2524293b
	DCD	0xc4834d30
	DCD	0xfffffdee
	DCD	0xffffffff
	DCD	0xffffffff
	DCD	0xffffffff
	DCD	0xffffffff
	DCD	0xffffffff
	DCD	0xffffffff
	DCD	0xffffffff
	DCD	0xffffffff
	DCD	0xf8fafcfe
	DCD	0xfbf9f7f7
	DCD	0xfffffffd
	DCD	0xffffffff
	DCD	0xffffffff
	DCD	0xffffffff
	DCD	0xffffffff
	DCD	0xffffffff
	DCD	0xffffffff
	DCD	0xffffffff
	DCD	0xffffffff
	DCD	0xffffffff
	DCD	0xffffffff
	DCD	0xffffffff
	DCD	0xffffffff
	DCD	0xffffffff
	DCD	0xffffffff
	DCD	0xffffffff
	DCD	0xffffffff
	DCD	0xffffffff
	DCD	0xbde1f6fe
	DCD	0x6d697795
	DCD	0xeed0aa85
	DCD	0xfffffffc
	DCD	0xffffffff
	DCD	0xffffffff
	DCD	0xffffffff
	DCD	0xffffffff
	DCD	0xffffffff
	DCD	0xffffffff
	DCD	0xffffffff
	DCD	0xfbfeffff
	DCD	0xcdd8e7f3
	DCD	0xdfd3ccca
	DCD	0xfffdf7ed
	DCD	0xffffffff
	DCD	0xffffffff
	DCD	0xffffffff
	DCD	0xffffffff
	DCD	0xffffffff
	DCD	0xffffffff
	DCD	0xffffffff
	DCD	0xffffffff
	DCD	0xffffffff
	DCD	0xffffffff
	DCD	0xffffffff
	DCD	0xffffffff
	DCD	0xffffffff
	DCD	0xffffffff
	DCD	0xffffffff
	DCD	0xffffffff
	DCD	0xffffffff
	DCD	0xf0fafeff
	DCD	0xcdcbd2e0
	DCD	0xfdf6e9d9
	DCD	0xffffffff
	DCD	0xffffffff
	DCD	0xffffffff
	DCD	0xffffffff
	DCD	0xffffffff
	DCD	0xffffffff
	DCD	0xffffffff
	DCD	0xffffffff
	DCD	0xe0f4fdff
	DCD	0x7b89a3c2
	DCD	0x98867f7b
	DCD	0xfaebd1b3
	DCD	0xfffffffe
	DCD	0xffffffff
	DCD	0xffffffff
	DCD	0xffffffff
	DCD	0xffffffff
	DCD	0xffffffff
	DCD	0xffffffff
	DCD	0xffffffff
	DCD	0xffffffff
	DCD	0xffffffff
	DCD	0xffffffff
	DCD	0xffffffff
	DCD	0xffffffff
	DCD	0xffffffff
	DCD	0xffffffff
	DCD	0xffffffff
	DCD	0xffffffff
	DCD	0xfeffffff
	DCD	0xf8f7f9fb
	DCD	0xfffefdfa
	DCD	0xffffffff
	DCD	0xffffffff
	DCD	0xffffffff
	DCD	0xffffffff
	DCD	0xffffffff
	DCD	0xffffffff
	DCD	0xffffffff
	DCD	0xffffffff
	DCD	0x9bd2f3fd
	DCD	0x64514d66
	DCD	0x5f6d7874
	DCD	0xe4b7815f
	DCD	0xfffffef9
	DCD	0xffffffff
	DCD	0xffffffff
	DCD	0xffffffff
	DCD	0xffffffff
	DCD	0xffffffff
	DCD	0xffffffff
	DCD	0xfcfdfdfe
	DCD	0xfffffefd
	DCD	0xffffffff
	DCD	0xffffffff
	DCD	0xffffffff
	DCD	0xffffffff
	DCD	0xffffffff
	DCD	0xffffffff
	DCD	0xffffffff
	DCD	0xffffffff
	DCD	0xffffffff
	DCD	0xffffffff
	DCD	0xffffffff
	DCD	0xffffffff
	DCD	0xffffffff
	DCD	0xffffffff
	DCD	0xffffffff
	DCD	0xffffffff
	DCD	0xffffffff
	DCD	0xffffffff
	DCD	0xffffffff
	DCD	0x4b93d9f8
	DCD	0xa8733d2a
	DCD	0x82b1c5c2
	DCD	0xb36b404d
	DCD	0xfffffce9
	DCD	0xffffffff
	DCD	0xffffffff
	DCD	0xffffffff
	DCD	0xffffffff
	DCD	0xffffffff
	DCD	0xfeffffff
	DCD	0xe6e8eff9
	DCD	0xfffbf2e9
	DCD	0xffffffff
	DCD	0xffffffff
	DCD	0xffffffff
	DCD	0xffffffff
	DCD	0xffffffff
	DCD	0xffffffff
	DCD	0xffffffff
	DCD	0xffffffff
	DCD	0xffffffff
	DCD	0xffffffff
	DCD	0xffffffff
	DCD	0xffffffff
	DCD	0xffffffff
	DCD	0xffffffff
	DCD	0xffffffff
	DCD	0xffffffff
	DCD	0xffffffff
	DCD	0xffffffff
	DCD	0xfdffffff
	DCD	0x1f58b3ed
	DCD	0xe5b96d29
	DCD	0xc2eaf5f4
	DCD	0x76333378
	DCD	0xfffef4ca
	DCD	0xffffffff
	DCD	0xffffffff
	DCD	0xffffffff
	DCD	0xffffffff
	DCD	0xffffffff
	DCD	0xfcffffff
	DCD	0x9fa6c2e9
	DCD	0xfdefceac
	DCD	0xffffffff
	DCD	0xffffffff
	DCD	0xffffffff
	DCD	0xffffffff
	DCD	0xffffffff
	DCD	0xffffffff
	DCD	0xffffffff
	DCD	0xffffffff
	DCD	0xffffffff
	DCD	0xffffffff
	DCD	0xffffffff
	DCD	0xffffffff
	DCD	0xffffffff
	DCD	0xffffffff
	DCD	0xffffffff
	DCD	0xffffffff
	DCD	0xffffffff
	DCD	0xffffffff
	DCD	0xfaffffff
	DCD	0x15348ddc
	DCD	0xfbe5a242
	DCD	0xe7fcffff
	DCD	0x471d45a6
	DCD	0xfffde7a5
	DCD	0xffffffff
	DCD	0xffffffff
	DCD	0xffffffff
	DCD	0xffffffff
	DCD	0xfcfcfdfe
	DCD	0xf6fcfcfc
	DCD	0x3e4c84d1
	DCD	0xfadd9a57
	DCD	0xfffffffe
	DCD	0xffffffff
	DCD	0xffffffff
	DCD	0xffffffff
	DCD	0xffffffff
	DCD	0xffffffff
	DCD	0xffffffff
	DCD	0xffffffff
	DCD	0xffffffff
	DCD	0xffffffff
	DCD	0xffffffff
	DCD	0xffffffff
	DCD	0xffffffff
	DCD	0xffffffff
	DCD	0xffffffff
	DCD	0xffffffff
	DCD	0xffffffff
	DCD	0xffffffff
	DCD	0xf8ffffff
	DCD	0x192473d0
	DCD	0xfef4be58
	DCD	0xf4ffffff
	DCD	0x2e1b58be
	DCD	0xfffad883
	DCD	0xffffffff
	DCD	0xffffffff
	DCD	0xffffffff
	DCD	0xfeffffff
	DCD	0xe5e6ecf8
	DCD	0xdee5e5e5
	DCD	0xf1f5eb5
	DCD	0xebc4772c
	DCD	0xfffffef9
	DCD	0xffffffff
	DCD	0xffffffff
	DCD	0xffffffff
	DCD	0xffffffff
	DCD	0xffffffff
	DCD	0xffffffff
	DCD	0xffffffff
	DCD	0xffffffff
	DCD	0xffffffff
	DCD	0xffffffff
	DCD	0xffffffff
	DCD	0xffffffff
	DCD	0xffffffff
	DCD	0xffffffff
	DCD	0xffffffff
	DCD	0xffffffff
	DCD	0xffffffff
	DCD	0xf8ffffff
	DCD	0x1c2370ce
	DCD	0xfff6c45f
	DCD	0xf5ffffff
	DCD	0x221a5bc1
	DCD	0xfff8cd6e
	DCD	0xffffffff
	DCD	0xffffffff
	DCD	0xffffffff
	DCD	0xfbffffff
	DCD	0x9ca0b7e3
	DCD	0x979c9c9c
	DCD	0x5103c7a
	DCD	0xbf8d4f19
	DCD	0xfffffce9
	DCD	0xffffffff
	DCD	0xffffffff
	DCD	0xffffffff
	DCD	0xffffffff
	DCD	0xffffffff
	DCD	0xffffffff
	DCD	0xffffffff
	DCD	0xffffffff
	DCD	0xffffffff
	DCD	0xffffffff
	DCD	0xffffffff
	DCD	0xffffffff
	DCD	0xffffffff
	DCD	0xffffffff
	DCD	0xffffffff
	DCD	0xffffffff
	DCD	0xffffffff
	DCD	0xfaffffff
	DCD	0x1a2e84d8
	DCD	0xfff3bd56
	DCD	0xedfdffff
	DCD	0x22134aaf
	DCD	0xfff8ce70
	DCD	0xffffffff
	DCD	0xffffffff
	DCD	0xffffffff
	DCD	0xf6ffffff
	DCD	0x38406fc7
	DCD	0x36383838
	DCD	0x206162b
	DCD	0x84431e09
	DCD	0xfffff9d3
	DCD	0xffffffff
	DCD	0xffffffff
	DCD	0xffffffff
	DCD	0xffffffff
	DCD	0xffffffff
	DCD	0xffffffff
	DCD	0xffffffff
	DCD	0xffffffff
	DCD	0xffffffff
	DCD	0xffffffff
	DCD	0xffffffff
	DCD	0xffffffff
	DCD	0xffffffff
	DCD	0xffffffff
	DCD	0xffffffff
	DCD	0xffffffff
	DCD	0xffffffff
	DCD	0xfdffffff
	DCD	0x1c47a5e7
	DCD	0xfce8a643
	DCD	0xd1f4fdff
	DCD	0x300f2f84
	DCD	0xfffadb88
	DCD	0xffffffff
	DCD	0xffffffff
	DCD	0xffffffff
	DCD	0xf4ffffff
	DCD	0x9134dba
	DCD	0xb0b0a09
	DCD	0x10409
	DCD	0x69220802
	DCD	0xfffff7c9
	DCD	0xffffffff
	DCD	0xffffffff
	DCD	0xffffffff
	DCD	0xffffffff
	DCD	0xffffffff
	DCD	0xffffffff
	DCD	0xffffffff
	DCD	0xffffffff
	DCD	0xffffffff
	DCD	0xffffffff
	DCD	0xffffffff
	DCD	0xffffffff
	DCD	0xffffffff
	DCD	0xffffffff
	DCD	0xffffffff
	DCD	0xffffffff
	DCD	0xffffffff
	DCD	0xfeffffff
	DCD	0x3275caf4
	DCD	0xf2c97a33
	DCD	0x98d4f2fa
	DCD	0x5018184a
	DCD	0xfffdebad
	DCD	0xffffffff
	DCD	0xffffffff
	DCD	0xffffffff
	DCD	0xf4ffffff
	DCD	0x20c48b9
	DCD	0x19191309
	DCD	0x1030a14
	DCD	0x722d1004
	DCD	0xfffff8cd
	DCD	0xffffffff
	DCD	0xffffffff
	DCD	0xffffffff
	DCD	0xffffffff
	DCD	0xffffffff
	DCD	0xffffffff
	DCD	0xffffffff
	DCD	0xffffffff
	DCD	0xffffffff
	DCD	0xffffffff
	DCD	0xffffffff
	DCD	0xffffffff
	DCD	0xffffffff
	DCD	0xffffffff
	DCD	0xffffffff
	DCD	0xffffffff
	DCD	0xffffffff
	DCD	0xffffffff
	DCD	0x6ab3e9fc
	DCD	0xce94513e
	DCD	0x4e90c6de
	DCD	0x893d171f
	DCD	0xfffff7d4
	DCD	0xffffffff
	DCD	0xffffffff
	DCD	0xffffffff
	DCD	0xf5ffffff
	DCD	0x71150bd
	DCD	0x5f5a401b
	DCD	0x30a274d
	DCD	0x9e633310
	DCD	0xfffffadd
	DCD	0xffffffff
	DCD	0xffffffff
	DCD	0xffffffff
	DCD	0xffffffff
	DCD	0xffffffff
	DCD	0xffffffff
	DCD	0xffffffff
	DCD	0xffffffff
	DCD	0xffffffff
	DCD	0xffffffff
	DCD	0xffffffff
	DCD	0xffffffff
	DCD	0xffffffff
	DCD	0xffffffff
	DCD	0xffffffff
	DCD	0xffffffff
	DCD	0xffffffff
	DCD	0xffffffff
	DCD	0xb5e4f9fe
	DCD	0x8560557a
	DCD	0x1f407092
	DCD	0xc681411e
	DCD	0xfffffdf0
	DCD	0xffffffff
	DCD	0xffffffff
	DCD	0xffffffff
	DCD	0xf8ffffff
	DCD	0xe256fcd
	DCD	0xb9a36727
	DCD	0x6144d9b
	DCD	0xd9ad6520
	DCD	0xfffffdf3
	DCD	0xffffffff
	DCD	0xffffffff
	DCD	0xffffffff
	DCD	0xffffffff
	DCD	0xffffffff
	DCD	0xffffffff
	DCD	0xffffffff
	DCD	0xffffffff
	DCD	0xffffffff
	DCD	0xffffffff
	DCD	0xffffffff
	DCD	0xffffffff
	DCD	0xffffffff
	DCD	0xffffffff
	DCD	0xffffffff
	DCD	0xffffffff
	DCD	0xffffffff
	DCD	0xffffffff
	DCD	0xe6f9feff
	DCD	0x38477bba
	DCD	0x22182636
	DCD	0xeec98e4e
	DCD	0xfffffffc
	DCD	0xffffffff
	DCD	0xffffffff
	DCD	0xffffffff
	DCD	0xfcffffff
	DCD	0x1e55a7e6
	DCD	0xd09d4e1c
	DCD	0x81960bb
	DCD	0xf5d07c28
	DCD	0xfffffffd
	DCD	0xffffffff
	DCD	0xffffffff
	DCD	0xffffffff
	DCD	0xffffffff
	DCD	0xffffffff
	DCD	0xffffffff
	DCD	0xffffffff
	DCD	0xffffffff
	DCD	0xffffffff
	DCD	0xffffffff
	DCD	0xffffffff
	DCD	0xffffffff
	DCD	0xffffffff
	DCD	0xffffffff
	DCD	0xffffffff
	DCD	0xffffffff
	DCD	0xffffffff
	DCD	0xffffffff
	DCD	0xe9fbffff
	DCD	0x173070b8
	DCD	0x3d22201a
	DCD	0xfbeac07d
	DCD	0xffffffff
	DCD	0xffffffff
	DCD	0xffffffff
	DCD	0xffffffff
	DCD	0xfeffffff
	DCD	0x4999daf7
	DCD	0xa861251c
	DCD	0x81a5faf
	DCD	0xfad68029
	DCD	0xffffffff
	DCD	0xffffffff
	DCD	0xffffffff
	DCD	0xffffffff
	DCD	0xffffffff
	DCD	0xffffffff
	DCD	0xffffffff
	DCD	0xffffffff
	DCD	0xffffffff
	DCD	0xffffffff
	DCD	0xffffffff
	DCD	0xffffffff
	DCD	0xffffffff
	DCD	0xffffffff
	DCD	0xffffffff
	DCD	0xffffffff
	DCD	0xffffffff
	DCD	0xffffffff
	DCD	0xffffffff
	DCD	0xc1eefdff
	DCD	0x2a1f3a79
	DCD	0x4653604b
	DCD	0xf6daa465
	DCD	0xfffffffe
	DCD	0xffffffff
	DCD	0xffffffff
	DCD	0xffffffff
	DCD	0xffffffff
	DCD	0x8ad1f5fe
	DCD	0x662d1a3e
	DCD	0x8175184
	DCD	0xfad68029
	DCD	0xffffffff
	DCD	0xffffffff
	DCD	0xffffffff
	DCD	0xffffffff
	DCD	0xffffffff
	DCD	0xffffffff
	DCD	0xffffffff
	DCD	0xffffffff
	DCD	0xffffffff
	DCD	0xffffffff
	DCD	0xffffffff
	DCD	0xffffffff
	DCD	0xffffffff
	DCD	0xffffffff
	DCD	0xffffffff
	DCD	0xffffffff
	DCD	0xffffffff
	DCD	0xffffffff
	DCD	0xffffffff
	DCD	0x82d1f7ff
	DCD	0x6f351d39
	DCD	0x68a3bea7
	DCD	0xe0a35e43
	DCD	0xfffffffa
	DCD	0xffffffff
	DCD	0xffffffff
	DCD	0xffffffff
	DCD	0xffffffff
	DCD	0xc7f1fdff
	DCD	0x2c1a357c
	DCD	0x7113245
	DCD	0xfad68029
	DCD	0xffffffff
	DCD	0xffffffff
	DCD	0xffffffff
	DCD	0xffffffff
	DCD	0xffffffff
	DCD	0xffffffff
	DCD	0xffffffff
	DCD	0xffffffff
	DCD	0xffffffff
	DCD	0xffffffff
	DCD	0xffffffff
	DCD	0xffffffff
	DCD	0xffffffff
	DCD	0xffffffff
	DCD	0xffffffff
	DCD	0xffffffff
	DCD	0xffffffff
	DCD	0xffffffff
	DCD	0xffffffff
	DCD	0x4eadebfd
	DCD	0xbb702c1c
	DCD	0xa0def1e5
	DCD	0xba64314c
	DCD	0xfffffdef
	DCD	0xffffffff
	DCD	0xffffffff
	DCD	0xffffffff
	DCD	0xffffffff
	DCD	0xecfcffff
	DCD	0x142d6fbc
	DCD	0x7071317
	DCD	0xfad68029
	DCD	0xffffffff
	DCD	0xffffffff
	DCD	0xffffffff
	DCD	0xffffffff
	DCD	0xffffffff
	DCD	0xffffffff
	DCD	0xffffffff
	DCD	0xffffffff
	DCD	0xffffffff
	DCD	0xffffffff
	DCD	0xffffffff
	DCD	0xffffffff
	DCD	0xffffffff
	DCD	0xffffffff
	DCD	0xffffffff
	DCD	0xffffffff
	DCD	0xffffffff
	DCD	0xffffffff
	DCD	0xffffffff
	DCD	0x3691dffb
	DCD	0xe8ad511d
	DCD	0xc4f4fefb
	DCD	0x933c2766
	DCD	0xfffffbe0
	DCD	0xffffffff
	DCD	0xffffffff
	DCD	0xffffffff
	DCD	0xffffffff
	DCD	0xfbffffff
	DCD	0x2361b1e7
	DCD	0x602040a
	DCD	0xfad68029
	DCD	0xffffffff
	DCD	0xffffffff
	DCD	0xffffffff
	DCD	0xffffffff
	DCD	0xffffffff
	DCD	0xffffffff
	DCD	0xffffffff
	DCD	0xffffffff
	DCD	0xffffffff
	DCD	0xffffffff
	DCD	0xffffffff
	DCD	0xffffffff
	DCD	0xffffffff
	DCD	0xffffffff
	DCD	0xffffffff
	DCD	0xffffffff
	DCD	0xffffffff
	DCD	0xffffffff
	DCD	0xffffffff
	DCD	0x338bdcfb
	DCD	0xf7cc7028
	DCD	0xd1f9ffff
	DCD	0x792a2a77
	DCD	0xfffff9d3
	DCD	0xffffffff
	DCD	0xffffffff
	DCD	0xffffffff
	DCD	0xffffffff
	DCD	0xfeffffff
	DCD	0x54a5e0f9
	DCD	0x600051a
	DCD	0xfad68029
	DCD	0xffffffff
	DCD	0xffffffff
	DCD	0xf8fafcfe
	DCD	0xfbf9f7f7
	DCD	0xfffffffd
	DCD	0xffffffff
	DCD	0xffffffff
	DCD	0xffffffff
	DCD	0xffffffff
	DCD	0xffffffff
	DCD	0xffffffff
	DCD	0xffffffff
	DCD	0xffffffff
	DCD	0xffffffff
	DCD	0xffffffff
	DCD	0xffffffff
	DCD	0xffffffff
	DCD	0xffffffff
	DCD	0xffffffff
	DCD	0x419de4fc
	DCD	0xf7cd722d
	DCD	0xcef8ffff
	DCD	0x74272773
	DCD	0xfffff8d0
	DCD	0xffffffff
	DCD	0xffffffff
	DCD	0xffffffff
	DCD	0xffffffff
	DCD	0xffffffff
	DCD	0x99daf7fe
	DCD	0xe0a1949
	DCD	0xfad78430
	DCD	0xffffffff
	DCD	0xfbfeffff
	DCD	0xcdd8e7f3
	DCD	0xdfd3ccca
	DCD	0xfffdf7ed
	DCD	0xffffffff
	DCD	0xffffffff
	DCD	0xffffffff
	DCD	0xffffffff
	DCD	0xffffffff
	DCD	0xffffffff
	DCD	0xffffffff
	DCD	0xffffffff
	DCD	0xffffffff
	DCD	0xffffffff
	DCD	0xffffffff
	DCD	0xffffffff
	DCD	0xffffffff
	DCD	0xffffffff
	DCD	0x65bef1fe
	DCD	0xe6b05b35
	DCD	0xb5e9f7f6
	DCD	0x8c372159
	DCD	0xfffffadc
	DCD	0xffffffff
	DCD	0xffffffff
	DCD	0xffffffff
	DCD	0xffffffff
	DCD	0xffffffff
	DCD	0xd2f5feff
	DCD	0x3d3c5591
	DCD	0xfbdf9c58
	DCD	0xffffffff
	DCD	0xe0f4fdff
	DCD	0x7b89a3c2
	DCD	0x98867f7b
	DCD	0xfaebd1b3
	DCD	0xfffffffe
	DCD	0xffffffff
	DCD	0xffffffff
	DCD	0xffffffff
	DCD	0xffffffff
	DCD	0xffffffff
	DCD	0xffffffff
	DCD	0xffffffff
	DCD	0xffffffff
	DCD	0xffffffff
	DCD	0xffffffff
	DCD	0xffffffff
	DCD	0xffffffff
	DCD	0xffffffff
	DCD	0x9ee0faff
	DCD	0xb37c4b5a
	DCD	0x80b8d0ce
	DCD	0xb6612f3e
	DCD	0xfffffded
	DCD	0xffffffff
	DCD	0xffffffff
	DCD	0xffffffff
	DCD	0xffffffff
	DCD	0xffffffff
	DCD	0xf2fdffff
	DCD	0x9ea1b3d6
	DCD	0xfdefceac
	DCD	0xffffffff
	DCD	0x9bd2f3fd
	DCD	0x64514d66
	DCD	0x5f6d7874
	DCD	0xe4b7815f
	DCD	0xfffffef9
	DCD	0xffffffff
	DCD	0xffffffff
	DCD	0xffffffff
	DCD	0xffffffff
	DCD	0xffffffff
	DCD	0xffffffff
	DCD	0xffffffff
	DCD	0xffffffff
	DCD	0xffffffff
	DCD	0xffffffff
	DCD	0xffffffff
	DCD	0xffffffff
	DCD	0xffffffff
	DCD	0xd7f5feff
	DCD	0x7b6972a2
	DCD	0x5b768d8d
	DCD	0xe0a76b4f
	DCD	0xfffffff9
	DCD	0xffffffff
	DCD	0xffffffff
	DCD	0xffffffff
	DCD	0xffffffff
	DCD	0xffffffff
	DCD	0xfdffffff
	DCD	0xe6e7edf7
	DCD	0xfffbf2e9
	DCD	0xffffffff
	DCD	0x4b93d9f8
	DCD	0xa8733d2a
	DCD	0x82b1c5c2
	DCD	0xb36b404d
	DCD	0xfffffce9
	DCD	0xffffffff
	DCD	0xffffffff
	DCD	0xffffffff
	DCD	0xffffffff
	DCD	0xffffffff
	DCD	0xffffffff
	DCD	0xffffffff
	DCD	0xffffffff
	DCD	0xffffffff
	DCD	0xffffffff
	DCD	0xffffffff
	DCD	0xffffffff
	DCD	0xffffffff
	DCD	0xf6fdffff
	DCD	0x96a7c3e1
	DCD	0x8a83898f
	DCD	0xf7e3c19f
	DCD	0xfcfefffe
	DCD	0xfcfafafa
	DCD	0xfffffffe
	DCD	0xffffffff
	DCD	0xffffffff
	DCD	0xffffffff
	DCD	0xffffffff
	DCD	0xfcfdfdfe
	DCD	0xfffffefd
	DCD	0xfdffffff
	DCD	0x1f58b3ed
	DCD	0xe5b96d29
	DCD	0xc2eaf5f4
	DCD	0x76333378
	DCD	0xfffef4ca
	DCD	0xffffffff
	DCD	0xffffffff
	DCD	0xffffffff
	DCD	0xffffffff
	DCD	0xffffffff
	DCD	0xffffffff
	DCD	0xffffffff
	DCD	0xffffffff
	DCD	0xffffffff
	DCD	0xffffffff
	DCD	0xffffffff
	DCD	0xffffffff
	DCD	0xffffffff
	DCD	0xfeffffff
	DCD	0xdae6f3fb
	DCD	0xd7ceced2
	DCD	0xfefbf2e4
	DCD	0xe3eef7fc
	DCD	0xe3dad7da
	DCD	0xfffcf7ee
	DCD	0xffffffff
	DCD	0xffffffff
	DCD	0xffffffff
	DCD	0xffffffff
	DCD	0xffffffff
	DCD	0xffffffff
	DCD	0xfaffffff
	DCD	0x15348ddc
	DCD	0xfbe5a242
	DCD	0xe7fcffff
	DCD	0x471d45a6
	DCD	0xfffde7a5
	DCD	0xffffffff
	DCD	0xffffffff
	DCD	0xffffffff
	DCD	0xffffffff
	DCD	0xffffffff
	DCD	0xffffffff
	DCD	0xffffffff
	DCD	0xffffffff
	DCD	0xffffffff
	DCD	0xffffffff
	DCD	0xffffffff
	DCD	0xffffffff
	DCD	0xffffffff
	DCD	0xffffffff
	DCD	0xfafcfeff
	DCD	0xfaf8f7f8
	DCD	0xfafefefc
	DCD	0x98b3d2eb
	DCD	0x98878287
	DCD	0xfaead0b2
	DCD	0xfffffffe
	DCD	0xffffffff
	DCD	0xffffffff
	DCD	0xffffffff
	DCD	0xffffffff
	DCD	0xffffffff
	DCD	0xf8ffffff
	DCD	0x192473d0
	DCD	0xfef4be58
	DCD	0xf4ffffff
	DCD	0x2e1b58be
	DCD	0xfffad883
	DCD	0xffffffff
	DCD	0xffffffff
	DCD	0xffffffff
	DCD	0xffffffff
	DCD	0xffffffff
	DCD	0xffffffff
	DCD	0xffffffff
	DCD	0xffffffff
	DCD	0xffffffff
	DCD	0xffffffff
	DCD	0xffffffff
	DCD	0xffffffff
	DCD	0xffffffff
	DCD	0xffffffff
	DCD	0xffffffff
	DCD	0xffffffff
	DCD	0xe5faffff
	DCD	0x38507fb7
	DCD	0x372e2b2e
	DCD	0xe5b67b4f
	DCD	0xfffffffa
	DCD	0xffffffff
	DCD	0xffffffff
	DCD	0xffffffff
	DCD	0xffffffff
	DCD	0xffffffff
	DCD	0xf8ffffff
	DCD	0x1c2370ce
	DCD	0xfff6c45f
	DCD	0xf5ffffff
	DCD	0x221a5bc1
	DCD	0xfff8cd6e
	DCD	0xffffffff
	DCD	0xffffffff
	DCD	0xffffffff
	DCD	0xffffffff
	DCD	0xffffffff
	DCD	0xffffffff
	DCD	0xffffffff
	DCD	0xffffffff
	DCD	0xffffffff
	DCD	0xffffffff
	DCD	0xffffffff
	DCD	0xffffffff
	DCD	0xffffffff
	DCD	0xffffffff
	DCD	0xffffffff
	DCD	0xffffffff
	DCD	0xb8ebfdff
	DCD	0xe14316b
	DCD	0xe141814
	DCD	0xb76a2f13
	DCD	0xfffffdeb
	DCD	0xffffffff
	DCD	0xffffffff
	DCD	0xffffffff
	DCD	0xffffffff
	DCD	0xffffffff
	DCD	0xfaffffff
	DCD	0x1a2e84d8
	DCD	0xfff3bd56
	DCD	0xedfdffff
	DCD	0x22134aaf
	DCD	0xfff8ce70
	DCD	0xffffffff
	DCD	0xffffffff
	DCD	0xffffffff
	DCD	0xffffffff
	DCD	0xffffffff
	DCD	0xffffffff
	DCD	0xffffffff
	DCD	0xffffffff
	DCD	0xffffffff
	DCD	0xffffffff
	DCD	0xffffffff
	DCD	0xffffffff
	DCD	0xffffffff
	DCD	0xffffffff
	DCD	0xffffffff
	DCD	0xffffffff
	DCD	0x80d2f8ff
	DCD	0x1f0a0d31
	DCD	0x1f405140
	DCD	0x7e300d0a
	DCD	0xfffff7d1
	DCD	0xffffffff
	DCD	0xffffffff
	DCD	0xffffffff
	DCD	0xffffffff
	DCD	0xffffffff
	DCD	0xfdffffff
	DCD	0x1c47a5e7
	DCD	0xfce8a643
	DCD	0xd1f4fdff
	DCD	0x300f2f84
	DCD	0xfffadb88
	DCD	0xffffffff
	DCD	0xffffffff
	DCD	0xffffffff
	DCD	0xffffffff
	DCD	0xffffffff
	DCD	0xffffffff
	DCD	0xffffffff
	DCD	0xffffffff
	DCD	0xffffffff
	DCD	0xffffffff
	DCD	0xffffffff
	DCD	0xffffffff
	DCD	0xffffffff
	DCD	0xffffffff
	DCD	0xffffffff
	DCD	0xffffffff
	DCD	0x53b5effe
	DCD	0x551a0615
	DCD	0x5599b499
	DCD	0x5013051a
	DCD	0xfffeeeb3
	DCD	0xffffffff
	DCD	0xffffffff
	DCD	0xffffffff
	DCD	0xffffffff
	DCD	0xffffffff
	DCD	0xfeffffff
	DCD	0x3275caf4
	DCD	0xf2c97a33
	DCD	0x98d4f2fa
	DCD	0x5018184a
	DCD	0xfffdebad
	DCD	0xffffffff
	DCD	0xffffffff
	DCD	0xffffffff
	DCD	0xffffffff
	DCD	0xffffffff
	DCD	0xffffffff
	DCD	0xffffffff
	DCD	0xffffffff
	DCD	0xffffffff
	DCD	0xffffffff
	DCD	0xfdfcfdfe
	DCD	0xfffffffe
	DCD	0xffffffff
	DCD	0xffffffff
	DCD	0xffffffff
	DCD	0xffffffff
	DCD	0x3998e2fc
	DCD	0x8e33080a
	DCD	0x8ed7eed7
	DCD	0x37090833
	DCD	0xfffce297
	DCD	0xffffffff
	DCD	0xffffffff
	DCD	0xffffffff
	DCD	0xffffffff
	DCD	0xffffffff
	DCD	0xffffffff
	DCD	0x6ab3e9fc
	DCD	0xce94513e
	DCD	0x4e90c6de
	DCD	0x893d171f
	DCD	0xfffff7d4
	DCD	0xffffffff
	DCD	0xffffffff
	DCD	0xffffffff
	DCD	0xffffffff
	DCD	0xffffffff
	DCD	0xffffffff
	DCD	0xffffffff
	DCD	0xffffffff
	DCD	0xffffffff
	DCD	0xfeffffff
	DCD	0xebe7ecf8
	DCD	0xfffffcf5
	DCD	0xffffffff
	DCD	0xffffffff
	DCD	0xffffffff
	DCD	0xffffffff
	DCD	0x2a81d7fa
	DCD	0xb1480d07
	DCD	0xb1effdef
	DCD	0x29070d48
	DCD	0xfffad681
	DCD	0xffffffff
	DCD	0xffffffff
	DCD	0xffffffff
	DCD	0xffffffff
	DCD	0xffffffff
	DCD	0xffffffff
	DCD	0xb5e4f9fe
	DCD	0x8560557a
	DCD	0x1f407092
	DCD	0xc681411e
	DCD	0xfffffdf0
	DCD	0xffffffff
	DCD	0xffffffff
	DCD	0xffffffff
	DCD	0xffffffff
	DCD	0xffffffff
	DCD	0xffffffff
	DCD	0xffffffff
	DCD	0xffffffff
	DCD	0xffffffff
	DCD	0xfbffffff
	DCD	0xb2a3b7e3
	DCD	0xfffef5d8
	DCD	0xffffffff
	DCD	0xffffffff
	DCD	0xffffffff
	DCD	0xffffffff
	DCD	0x206fcdf8
	DCD	0xc0571406
	DCD	0xc0f5fff5
	DCD	0x20061457
	DCD	0xfff8cd6f
	DCD	0xffffffff
	DCD	0xffffffff
	DCD	0xffffffff
	DCD	0xffffffff
	DCD	0xffffffff
	DCD	0xffffffff
	DCD	0xe6f9feff
	DCD	0x38477bba
	DCD	0x22182636
	DCD	0xeec98e4e
	DCD	0xfffffffc
	DCD	0xffffffff
	DCD	0xffffffff
	DCD	0xffffffff
	DCD	0xffffffff
	DCD	0xffffffff
	DCD	0xffffffff
	DCD	0xffffffff
	DCD	0xffffffff
	DCD	0xffffffff
	DCD	0xf6ffffff
	DCD	0x63476fc7
	DCD	0xfffdebb2
	DCD	0xffffffff
	DCD	0xffffffff
	DCD	0xffffffff
	DCD	0xffffffff
	DCD	0x1c66c9f7
	DCD	0xc6601806
	DCD	0xc6f7fff7
	DCD	0x1c061860
	DCD	0xfff7c966
	DCD	0xffffffff
	DCD	0xffffffff
	DCD	0xffffffff
	DCD	0xffffffff
	DCD	0xffffffff
	DCD	0xffffffff
	DCD	0xe9fbffff
	DCD	0x173070b8
	DCD	0x3d22201a
	DCD	0xfbeac07d
	DCD	0xffffffff
	DCD	0xffffffff
	DCD	0xffffffff
	DCD	0xffffffff
	DCD	0xffffffff
	DCD	0xffffffff
	DCD	0xffffffff
	DCD	0xffffffff
	DCD	0xffffffff
	DCD	0xffffffff
	DCD	0xf4ffffff
	DCD	0x3e1b4dba
	DCD	0xfffce69f
	DCD	0xffffffff
	DCD	0xffffffff
	DCD	0xffffffff
	DCD	0xffffffff
	DCD	0x1a64c7f7
	DCD	0xc7631a06
	DCD	0xc7f7fff7
	DCD	0x1a061a63
	DCD	0xfff7c764
	DCD	0xffffffff
	DCD	0xffffffff
	DCD	0xffffffff
	DCD	0xffffffff
	DCD	0xffffffff
	DCD	0xffffffff
	DCD	0xc1eefdff
	DCD	0x2a1f3a79
	DCD	0x4653604b
	DCD	0xf6daa465
	DCD	0xfffffffe
	DCD	0xffffffff
	DCD	0xffffffff
	DCD	0xffffffff
	DCD	0xffffffff
	DCD	0xffffffff
	DCD	0xffffffff
	DCD	0xffffffff
	DCD	0xffffffff
	DCD	0xffffffff
	DCD	0xf4ffffff
	DCD	0x381347b8
	DCD	0xfffce59c
	DCD	0xffffffff
	DCD	0xffffffff
	DCD	0xffffffff
	DCD	0xffffffff
	DCD	0x1c66c9f7
	DCD	0xc6621906
	DCD	0xc6f7fff7
	DCD	0x1c061962
	DCD	0xfff7c966
	DCD	0xffffffff
	DCD	0xffffffff
	DCD	0xffffffff
	DCD	0xffffffff
	DCD	0xffffffff
	DCD	0xffffffff
	DCD	0x82d1f7ff
	DCD	0x6f351d39
	DCD	0x68a3bea7
	DCD	0xe0a35e43
	DCD	0xfffffffa
	DCD	0xffffffff
	DCD	0xffffffff
	DCD	0xffffffff
	DCD	0xffffffff
	DCD	0xffffffff
	DCD	0xffffffff
	DCD	0xffffffff
	DCD	0xffffffff
	DCD	0xffffffff
	DCD	0xf4ffffff
	DCD	0x381347b8
	DCD	0xfffce59c
	DCD	0xffffffff
	DCD	0xffffffff
	DCD	0xffffffff
	DCD	0xffffffff
	DCD	0x206fcdf8
	DCD	0xc25b1606
	DCD	0xc2f6fff6
	DCD	0x2006165b
	DCD	0xfff8cd6f
	DCD	0xffffffff
	DCD	0xffffffff
	DCD	0xffffffff
	DCD	0xffffffff
	DCD	0xffffffff
	DCD	0xffffffff
	DCD	0x4eadebfd
	DCD	0xbb702c1c
	DCD	0xa0def1e5
	DCD	0xba64314c
	DCD	0xfffffdef
	DCD	0xffffffff
	DCD	0xffffffff
	DCD	0xffffffff
	DCD	0xffffffff
	DCD	0xffffffff
	DCD	0xffffffff
	DCD	0xffffffff
	DCD	0xffffffff
	DCD	0xffffffff
	DCD	0xf4ffffff
	DCD	0x381347b8
	DCD	0xfffce59c
	DCD	0xffffffff
	DCD	0xffffffff
	DCD	0xffffffff
	DCD	0xffffffff
	DCD	0x2a81d7fa
	DCD	0xb34a0e07
	DCD	0xb3f0fdf0
	DCD	0x2a070e4a
	DCD	0xfffad781
	DCD	0xffffffff
	DCD	0xffffffff
	DCD	0xffffffff
	DCD	0xffffffff
	DCD	0xffffffff
	DCD	0xffffffff
	DCD	0x3691dffb
	DCD	0xe8ad511d
	DCD	0xc4f4fefb
	DCD	0x933c2766
	DCD	0xfffffbe0
	DCD	0xffffffff
	DCD	0xffffffff
	DCD	0xffffffff
	DCD	0xffffffff
	DCD	0xffffffff
	DCD	0xffffffff
	DCD	0xffffffff
	DCD	0xffffffff
	DCD	0xffffffff
	DCD	0xf4ffffff
	DCD	0x381347b8
	DCD	0xfffce59c
	DCD	0xffffffff
	DCD	0xffffffff
	DCD	0xffffffff
	DCD	0xffffffff
	DCD	0x3999e2fc
	DCD	0x9335090a
	DCD	0x93d9eed9
	DCD	0x390a0935
	DCD	0xfffce299
	DCD	0xffffffff
	DCD	0xffffffff
	DCD	0xffffffff
	DCD	0xffffffff
	DCD	0xffffffff
	DCD	0xffffffff
	DCD	0x338bdcfb
	DCD	0xf7cc7028
	DCD	0xd1f9ffff
	DCD	0x792a2a77
	DCD	0xfffff9d3
	DCD	0xffffffff
	DCD	0xffffffff
	DCD	0xffffffff
	DCD	0xffffffff
	DCD	0xffffffff
	DCD	0xffffffff
	DCD	0xffffffff
	DCD	0xffffffff
	DCD	0xffffffff
	DCD	0xf4ffffff
	DCD	0x381347b8
	DCD	0xfffce59c
	DCD	0xffffffff
	DCD	0xffffffff
	DCD	0xffffffff
	DCD	0xffffffff
	DCD	0x55b6effe
	DCD	0x5a1c0616
	DCD	0x5a9cb59c
	DCD	0x5516061c
	DCD	0xfffeefb6
	DCD	0xffffffff
	DCD	0xffffffff
	DCD	0xffffffff
	DCD	0xffffffff
	DCD	0xffffffff
	DCD	0xffffffff
	DCD	0x419de4fc
	DCD	0xf7cd722d
	DCD	0xcef8ffff
	DCD	0x74272773
	DCD	0xfffff8d0
	DCD	0xffffffff
	DCD	0xffffffff
	DCD	0xffffffff
	DCD	0xffffffff
	DCD	0xffffffff
	DCD	0xffffffff
	DCD	0xffffffff
	DCD	0xffffffff
	DCD	0xffffffff
	DCD	0xf4fefefe
	DCD	0x381347b8
	DCD	0xfffce59c
	DCD	0xffffffff
	DCD	0xffffffff
	DCD	0xffffffff
	DCD	0xffffffff
	DCD	0x83d4f8ff
	DCD	0x210b0e33
	DCD	0x21415141
	DCD	0x83330e0b
	DCD	0xfffff8d4
	DCD	0xffffffff
	DCD	0xffffffff
	DCD	0xffffffff
	DCD	0xffffffff
	DCD	0xffffffff
	DCD	0xffffffff
	DCD	0x65bef1fe
	DCD	0xe6b05b35
	DCD	0xb5e9f7f6
	DCD	0x8c372159
	DCD	0xfffffadc
	DCD	0xffffffff
	DCD	0xffffffff
	DCD	0xffffffff
	DCD	0xffffffff
	DCD	0xffffffff
	DCD	0xffffffff
	DCD	0xffffffff
	DCD	0xffffffff
	DCD	0xfcffffff
	DCD	0xf1f5f1f5
	DCD	0x381347b7
	DCD	0xfffce59c
	DCD	0xffffffff
	DCD	0xffffffff
	DCD	0xffffffff
	DCD	0xffffffff
	DCD	0xb9ecfdff
	DCD	0xf14316c
	DCD	0xf141814
	DCD	0xb96c3114
	DCD	0xfffffdec
	DCD	0xffffffff
	DCD	0xffffffff
	DCD	0xffffffff
	DCD	0xffffffff
	DCD	0xffffffff
	DCD	0xffffffff
	DCD	0x9ee0faff
	DCD	0xb37c4b5a
	DCD	0x80b8d0ce
	DCD	0xb6612f3e
	DCD	0xfffffded
	DCD	0xffffffff
	DCD	0xffffffff
	DCD	0xffffffff
	DCD	0xffffffff
	DCD	0xffffffff
	DCD	0xffffffff
	DCD	0xffffffff
	DCD	0xffffffff
	DCD	0xf3feffff
	DCD	0xdacbc1d9
	DCD	0x381345b0
	DCD	0xfffce59c
	DCD	0xffffffff
	DCD	0xffffffff
	DCD	0xffffffff
	DCD	0xffffffff
	DCD	0xe5faffff
	DCD	0x38507fb7
	DCD	0x382e2b2e
	DCD	0xe5b77f50
	DCD	0xfffffffa
	DCD	0xffffffff
	DCD	0xffffffff
	DCD	0xffffffff
	DCD	0xffffffff
	DCD	0xffffffff
	DCD	0xffffffff
	DCD	0xd7f5feff
	DCD	0x7b6972a2
	DCD	0x5b768d8d
	DCD	0xe0a76b4f
	DCD	0xfffffff9
	DCD	0xffffffff
	DCD	0xffffffff
	DCD	0xffffffff
	DCD	0xffffffff
	DCD	0xffffffff
	DCD	0xffffffff
	DCD	0xffffffff
	DCD	0xffffffff
	DCD	0xeafdffff
	DCD	0x9d7573b3
	DCD	0x38123d93
	DCD	0xfffce59c
	DCD	0xffffffff
	DCD	0xffffffff
	DCD	0xffffffff
	DCD	0xffffffff
	DCD	0xfafeffff
	DCD	0x98b3d2eb
	DCD	0x98878287
	DCD	0xfaebd2b3
	DCD	0xfffffffe
	DCD	0xffffffff
	DCD	0xffffffff
	DCD	0xffffffff
	DCD	0xffffffff
	DCD	0xffffffff
	DCD	0xffffffff
	DCD	0xf6fdffff
	DCD	0x96a7c3e1
	DCD	0x8a83898f
	DCD	0xf7e3c19f
	DCD	0xfffffffe
	DCD	0xffffffff
	DCD	0xffffffff
	DCD	0xffffffff
	DCD	0xffffffff
	DCD	0xffffffff
	DCD	0xffffffff
	DCD	0xffffffff
	DCD	0xffffffff
	DCD	0xe8fcffff
	DCD	0x4c324ca5
	DCD	0x380f2757
	DCD	0xfffce59c
	DCD	0xffffffff
	DCD	0xffffffff
	DCD	0xffffffff
	DCD	0xffffffff
	DCD	0xffffffff
	DCD	0xe3eef7fd
	DCD	0xe3dad7da
	DCD	0xfffdf7ee
	DCD	0xffffffff
	DCD	0xffffffff
	DCD	0xffffffff
	DCD	0xffffffff
	DCD	0xffffffff
	DCD	0xffffffff
	DCD	0xffffffff
	DCD	0xfeffffff
	DCD	0xdae6f3fb
	DCD	0xd7ceced2
	DCD	0xfefbf2e4
	DCD	0xffffffff
	DCD	0xffffffff
	DCD	0xffffffff
	DCD	0xffffffff
	DCD	0xffffffff
	DCD	0xffffffff
	DCD	0xffffffff
	DCD	0xffffffff
	DCD	0xffffffff
	DCD	0xeefdffff
	DCD	0x233265b8
	DCD	0x380a0e20
	DCD	0xfffce59c
	DCD	0xffffffff
	DCD	0xffffffff
	DCD	0xffffffff
	DCD	0xffffffff
	DCD	0xffffffff
	DCD	0xfcfeffff
	DCD	0xfcfafafa
	DCD	0xfffffffe
	DCD	0xffffffff
	DCD	0xffffffff
	DCD	0xffffffff
	DCD	0xffffffff
	DCD	0xffffffff
	DCD	0xffffffff
	DCD	0xffffffff
	DCD	0xffffffff
	DCD	0xfafcfeff
	DCD	0xfaf8f7f8
	DCD	0xfffffefc
	DCD	0xffffffff
	DCD	0xffffffff
	DCD	0xffffffff
	DCD	0xffffffff
	DCD	0xffffffff
	DCD	0xffffffff
	DCD	0xffffffff
	DCD	0xffffffff
	DCD	0xffffffff
	DCD	0xf8feffff
	DCD	0x4077b1e1
	DCD	0x3809071b
	DCD	0xfffce59c
	DCD	0xffffffff
	DCD	0xffffffff
	DCD	0xffffffff
	DCD	0xffffffff
	DCD	0xffffffff
	DCD	0xffffffff
	DCD	0xffffffff
	DCD	0xffffffff
	DCD	0xffffffff
	DCD	0xffffffff
	DCD	0xffffffff
	DCD	0xffffffff
	DCD	0xffffffff
	DCD	0xffffffff
	DCD	0xffffffff
	DCD	0xffffffff
	DCD	0xffffffff
	DCD	0xffffffff
	DCD	0xffffffff
	DCD	0xffffffff
	DCD	0xffffffff
	DCD	0xffffffff
	DCD	0xffffffff
	DCD	0xffffffff
	DCD	0xffffffff
	DCD	0xffffffff
	DCD	0xffffffff
	DCD	0xffffffff
	DCD	0xfeffffff
	DCD	0x8dc6e9f9
	DCD	0x380c1749
	DCD	0xfffce59c
	DCD	0xffffffff
	DCD	0xffffffff
	DCD	0xffffffff
	DCD	0xffffffff
	DCD	0xffffffff
	DCD	0xffffffff
	DCD	0xffffffff
	DCD	0xffffffff
	DCD	0xffffffff
	DCD	0xffffffff
	DCD	0xffffffff
	DCD	0xffffffff
	DCD	0xffffffff
	DCD	0xffffffff
	DCD	0xffffffff
	DCD	0xffffffff
	DCD	0xffffffff
	DCD	0xffffffff
	DCD	0xffffffff
	DCD	0xffffffff
	DCD	0xffffffff
	DCD	0xffffffff
	DCD	0xffffffff
	DCD	0xffffffff
	DCD	0xffffffff
	DCD	0xffffffff
	DCD	0xffffffff
	DCD	0xffffffff
	DCD	0xffffffff
	DCD	0xd0f1fcff
	DCD	0x411e418f
	DCD	0xfffce6a0
	DCD	0xffffffff
	DCD	0xffffffff
	DCD	0xffffffff
	DCD	0xffffffff
	DCD	0xffffffff
	DCD	0xffffffff
	DCD	0xffffffff
	DCD	0xffffffff
	DCD	0xffffffff
	DCD	0xffffffff
	DCD	0xffffffff
	DCD	0xffffffff
	DCD	0xffffffff
	DCD	0xffffffff
	DCD	0xffffffff
	DCD	0xffffffff
	DCD	0xffffffff
	DCD	0xffffffff
	DCD	0xffffffff
	DCD	0xffffffff
	DCD	0xffffffff
	DCD	0xffffffff
	DCD	0xffffffff
	DCD	0xffffffff
	DCD	0xffffffff
	DCD	0xffffffff
	DCD	0xffffffff
	DCD	0xffffffff
	DCD	0xffffffff
	DCD	0xf1fdffff
	DCD	0x715e87ca
	DCD	0xfffdecb7
	DCD	0xffffffff
	DCD	0xffffffff
	DCD	0xffffffff
	DCD	0xffffffff
	DCD	0xffffffff
	DCD	0xffffffff
	DCD	0xffffffff
	DCD	0xffffffff
	DCD	0xffffffff
	DCD	0xffffffff
	DCD	0xffffffff
	DCD	0xffffffff
	DCD	0xffffffff
	DCD	0xffffffff
	DCD	0xffffffff
	DCD	0xffffffff
	DCD	0xffffffff
	DCD	0xffffffff
	DCD	0xffffffff
	DCD	0xffffffff
	DCD	0xffffffff
	DCD	0xffffffff
	DCD	0xffffffff
	DCD	0xffffffff
	DCD	0xffffffff
	DCD	0xffffffff
	DCD	0xffffffff
	DCD	0xffffffff
	DCD	0xffffffff
	DCD	0xfcffffff
	DCD	0xc9c3d5ef
	DCD	0xfffef8e4
	DCD	0xffffffff
	DCD	0xffffffff
	DCD	0xffffffff
	DCD	0xffffffff
	DCD	0xffffffff
	DCD	0xffffffff
	DCD	0xffffffff
	DCD	0xffffffff
	DCD	0xffffffff
	DCD	0xffffffff
	DCD	0xffffffff
	DCD	0xffffffff
	DCD	0xffffffff
	DCD	0xffffffff
	DCD	0xffffffff
	DCD	0xffffffff
	DCD	0xffffffff
	DCD	0xffffffff
	DCD	0xffffffff
	DCD	0xffffffff
	DCD	0xffffffff
	DCD	0xffffffff
	DCD	0xffffffff
	DCD	0xffffffff
	DCD	0xffffffff
	DCD	0xffffffff
	DCD	0xffffffff
	DCD	0xffffffff
	DCD	0xffffffff
	DCD	0xffffffff
	DCD	0xf7f6f9fd
	DCD	0xfffffefb
	DCD	0xffffffff
	DCD	0xffffffff
	DCD	0xffffffff
	DCD	0xffffffff
	DCD	0xffffffff
	DCD	0xffffffff
	DCD	0xffffffff
	DCD	0xffffffff
	DCD	0xffffffff
	DCD	0xffffffff
	DCD	0xffffffff
	DCD	0xffffffff
	DCD	0xffffffff
	DCD	0xffffffff
	DCD	0xffffffff
	DCD	0xffffffff
	DCD	0xffffffff
	DCD	0xffffffff
	DCD	0xffffffff
	DCD	0xffffffff
	DCD	0xffffffff
	DCD	0xffffffff
	DCD	0xffffffff
	DCD	0xffffffff
	DCD	0xffffffff
	DCD	0xffffffff
	DCD	0xffffffff
	DCD	0xffffffff
	DCD	0xffffffff
	DCD	0xffffffff
	DCD	0xffffffff
	DCD	0xffffffff
	DCD	0xffffffff
	DCD	0xffffffff
	DCD	0xffffffff
	DCD	0xffffffff
	DCD	0xffffffff
	DCD	0xffffffff
	DCD	0xffffffff
	DCD	0xffffffff
	DCD	0xffffffff
	DCD	0xffffffff
	DCD	0xffffffff
	DCD	0xffffffff
	DCD	0xffffffff
	DCD	0xffffffff
	DCD	0xffffffff
	DCD	0xffffffff
	DCD	0xffffffff
	DCD	0xffffffff
	DCD	0xffffffff
	DCD	0xffffffff
	DCD	0xffffffff
	DCD	0xffffffff
	DCD	0xffffffff
	DCD	0xffffffff
	DCD	0xffffffff
	DCD	0xffffffff
	DCD	0x0
	EXPORT	|??_C@_09MJBDJLAL@mask2?4pvr?$AA@| [ DATA ] ; `string'
	IMPORT	|??0CPVRTMemoryFileSystem@@QAA@PBDPBXI_N@Z| ; CPVRTMemoryFileSystem::CPVRTMemoryFileSystem
; File c:\wince600\public\powervr-sdk\ovg\trainingcourse\20_masklayer\ovg\content\mask2.cpp

  00000			 AREA	 |.pdata|, PDATA
|$T3741| DCD	|$LN5@dynamic|
	DCD	0x40001002

  00000			 AREA	 |.rdata|, DATA, READONLY
|??_C@_09MJBDJLAL@mask2?4pvr?$AA@| DCB "mask2.pvr", 0x0	; `string'
; Function compile flags: /Ogspy

  00000			 AREA	 |.text$yc|, CODE, ARM

  00000		 |??__ERegisterFile_mask2_pvr@@YAXXZ| PROC ; `dynamic initializer for 'RegisterFile_mask2_pvr''

; 93   : static CPVRTMemoryFileSystem RegisterFile_mask2_pvr("mask2.pvr", _mask2_pvr, 16436);

  00000		 |$LN5@dynamic|
  00000	e52de004	 str         lr, [sp, #-4]!
  00004	e24dd004	 sub         sp, sp, #4
  00008		 |$M3738|
  00008	e59f202c	 ldr         r2, [pc, #0x2C]
  0000c	e59f1024	 ldr         r1, [pc, #0x24]
  00010	e59f001c	 ldr         r0, [pc, #0x1C]
  00014	e3a03901	 mov         r3, #1, 18
  00018	e3a0e000	 mov         lr, #0
  0001c	e3833034	 orr         r3, r3, #0x34
  00020	e58de000	 str         lr, [sp]
  00024	eb000000	 bl          |??0CPVRTMemoryFileSystem@@QAA@PBDPBXI_N@Z|
  00028	e28dd004	 add         sp, sp, #4
  0002c	e49de004	 ldr         lr, [sp], #4
  00030	e12fff1e	 bx          lr
  00034		 |$LN6@dynamic|
  00034		 |$LN7@dynamic|
  00034	00000000	 DCD         |RegisterFile_mask2_pvr|
  00038		 |$LN8@dynamic|
  00038	00000000	 DCD         |??_C@_09MJBDJLAL@mask2?4pvr?$AA@|
  0003c		 |$LN9@dynamic|
  0003c	00000000	 DCD         |_mask2_pvr|
  00040		 |$M3739|

			 ENDP  ; |??__ERegisterFile_mask2_pvr@@YAXXZ|, `dynamic initializer for 'RegisterFile_mask2_pvr''


  00000			 AREA	 |.bss|, NOINIT
|RegisterFile_mask2_pvr| % 0x1

  00000			 AREA	 |.CRT$XCU|, DATA
|RegisterFile_mask2_pvr$initializer$| DCD |??__ERegisterFile_mask2_pvr@@YAXXZ|
	END
