; Listing generated by Microsoft (R) Optimizing Compiler Version 14.01.60511.01 

	TTL	C:\WINCE600\PUBLIC\PowerVR-SDK\OVG\TrainingCourse\20_MaskLayer\OVG\Content\mask1.cpp
	CODE32

  00000			 AREA	 |.drectve|, DRECTVE
	DCB	"-defaultlib:LIBCMT "
	DCB	"-defaultlib:OLDNAMES "


  00000			 AREA	 |.rdata|, DATA, READONLY
|_mask1_pvr| DCD 0x34
	DCD	0x80
	DCD	0x80
	DCD	0x0
	DCD	0x9b
	DCD	0x4000
	DCD	0x8
	DCD	0xffffffff
	DCD	0xffffffff
	DCD	0xffffffff
	DCD	0x0
	DCD	0x21525650
	DCD	0x1
	DCD	0xffffffff
	DCD	0xffffffff
	DCD	0xffffffff
	DCD	0xffffffff
	DCD	0xffffffff
	DCD	0xffffffff
	DCD	0xffffffff
	DCD	0xffffffff
	DCD	0xffffffff
	DCD	0xffffffff
	DCD	0xffffffff
	DCD	0xffffffff
	DCD	0xffffffff
	DCD	0xffffffff
	DCD	0xffffffff
	DCD	0xffffffff
	DCD	0xffffffff
	DCD	0xffffffff
	DCD	0xffffffff
	DCD	0xffffffff
	DCD	0xffffffff
	DCD	0xffffffff
	DCD	0xffffffff
	DCD	0xffffffff
	DCD	0xffffffff
	DCD	0xffffffff
	DCD	0xffffffff
	DCD	0xffffffff
	DCD	0xffffffff
	DCD	0xffffffff
	DCD	0xffffffff
	DCD	0xffffffff
	DCD	0xffffffff
	DCD	0xffffffff
	DCD	0xffffffff
	DCD	0xffffffff
	DCD	0xffffffff
	DCD	0xffffffff
	DCD	0xffffffff
	DCD	0xffffffff
	DCD	0xffffffff
	DCD	0xffffffff
	DCD	0xffffffff
	DCD	0xffffffff
	DCD	0xffffffff
	DCD	0xffffffff
	DCD	0xffffffff
	DCD	0xffffffff
	DCD	0xffffffff
	DCD	0xffffffff
	DCD	0xffffffff
	DCD	0xffffffff
	DCD	0xffffffff
	DCD	0xffffffff
	DCD	0xffffffff
	DCD	0xffffffff
	DCD	0xffffffff
	DCD	0xffffffff
	DCD	0xffffffff
	DCD	0xffffffff
	DCD	0xffffffff
	DCD	0xffffffff
	DCD	0xffffffff
	DCD	0xffffffff
	DCD	0xffffffff
	DCD	0xffffffff
	DCD	0xffffffff
	DCD	0xffffffff
	DCD	0xffffffff
	DCD	0xffffffff
	DCD	0xffffffff
	DCD	0xffffffff
	DCD	0xffffffff
	DCD	0xffffffff
	DCD	0xffffffff
	DCD	0xffffffff
	DCD	0xffffffff
	DCD	0xffffffff
	DCD	0xffffffff
	DCD	0xffffffff
	DCD	0xffffffff
	DCD	0xffffffff
	DCD	0xffffffff
	DCD	0xffffffff
	DCD	0xffffffff
	DCD	0xffffffff
	DCD	0xffffffff
	DCD	0xffffffff
	DCD	0xffffffff
	DCD	0xffffffff
	DCD	0xffffffff
	DCD	0xffffffff
	DCD	0xffffffff
	DCD	0xffffffff
	DCD	0xffffffff
	DCD	0xffffffff
	DCD	0xffffffff
	DCD	0xffffffff
	DCD	0xffffffff
	DCD	0xffffffff
	DCD	0xffffffff
	DCD	0xffffffff
	DCD	0xffffffff
	DCD	0xffffffff
	DCD	0xffffffff
	DCD	0xffffffff
	DCD	0xffffffff
	DCD	0xffffffff
	DCD	0xffffffff
	DCD	0xffffffff
	DCD	0xffffffff
	DCD	0xffffffff
	DCD	0xffffffff
	DCD	0xffffffff
	DCD	0xfbfcfcfe
	DCD	0xfffffdfc
	DCD	0xffffffff
	DCD	0xfdfdffff
	DCD	0xfdfcfbfa
	DCD	0xffffffff
	DCD	0xffffffff
	DCD	0xffffffff
	DCD	0xffffffff
	DCD	0xffffffff
	DCD	0xffffffff
	DCD	0xffffffff
	DCD	0xffffffff
	DCD	0xffffffff
	DCD	0xffffffff
	DCD	0xffffffff
	DCD	0xffffffff
	DCD	0xf9f8fbfe
	DCD	0xfffdfbf8
	DCD	0xffffffff
	DCD	0xffffffff
	DCD	0xffffffff
	DCD	0xffffffff
	DCD	0xffffffff
	DCD	0xffffffff
	DCD	0xffffffff
	DCD	0xffffffff
	DCD	0xffffffff
	DCD	0xffffffff
	DCD	0xffffffff
	DCD	0xffffffff
	DCD	0xfeffffff
	DCD	0xdee2eaf7
	DCD	0xfff9eee2
	DCD	0xffffffff
	DCD	0xe6f6feff
	DCD	0xeee2dfdf
	DCD	0xfffffffa
	DCD	0xffffffff
	DCD	0xffffffff
	DCD	0xffffffff
	DCD	0xfcfeffff
	DCD	0xf8fbfefe
	DCD	0xfdfdfaf8
	DCD	0xffffffff
	DCD	0xffffffff
	DCD	0xffffffff
	DCD	0xffffffff
	DCD	0xf3fafeff
	DCD	0xccd1dce9
	DCD	0xf4e9dcd1
	DCD	0xfffffffc
	DCD	0xffffffff
	DCD	0xffffffff
	DCD	0xffffffff
	DCD	0xffffffff
	DCD	0xffffffff
	DCD	0xffffffff
	DCD	0xffffffff
	DCD	0xffffffff
	DCD	0xffffffff
	DCD	0xffffffff
	DCD	0xffffffff
	DCD	0xfbffffff
	DCD	0x8a92b3e2
	DCD	0xfceac199
	DCD	0xffffffff
	DCD	0xa6dbfaff
	DCD	0xc199898c
	DCD	0xfffffcea
	DCD	0xffffffff
	DCD	0xffffffff
	DCD	0xffffffff
	DCD	0xeaf0fbff
	DCD	0xd9e1eaec
	DCD	0xf2e6ded8
	DCD	0xfffffdfa
	DCD	0xffffffff
	DCD	0xffffffff
	DCD	0xffffffff
	DCD	0xbcdaf0fd
	DCD	0x6c73869e
	DCD	0xd0a38572
	DCD	0xfffffef2
	DCD	0xffffffff
	DCD	0xffffffff
	DCD	0xffffffff
	DCD	0xffffffff
	DCD	0xffffffff
	DCD	0xffffffff
	DCD	0xffffffff
	DCD	0xffffffff
	DCD	0xffffffff
	DCD	0xffffffff
	DCD	0xffffffff
	DCD	0xf7ffffff
	DCD	0x2c386fc8
	DCD	0xfad68742
	DCD	0xffffffff
	DCD	0x59b8f3ff
	DCD	0x87432b2e
	DCD	0xfffffad6
	DCD	0xffffffff
	DCD	0xffffffff
	DCD	0xffffffff
	DCD	0xadcdf1fd
	DCD	0xa4a5a9ab
	DCD	0xc1aea9a6
	DCD	0xfffef4dd
	DCD	0xffffffff
	DCD	0xffffffff
	DCD	0xfbffffff
	DCD	0x5688c1ea
	DCD	0x21232938
	DCD	0x9a4e2c23
	DCD	0xfffffbe1
	DCD	0xffffffff
	DCD	0xffffffff
	DCD	0xffffffff
	DCD	0xffffffff
	DCD	0xffffffff
	DCD	0xffffffff
	DCD	0xffffffff
	DCD	0xffffffff
	DCD	0xffffffff
	DCD	0xffffffff
	DCD	0xffffffff
	DCD	0xf5ffffff
	DCD	0xc1752bb
	DCD	0xf9cc6e21
	DCD	0xfdfcfcfe
	DCD	0x39a9f1fe
	DCD	0x6e220b0e
	DCD	0xfffff9cc
	DCD	0xffffffff
	DCD	0xffffffff
	DCD	0xffffffff
	DCD	0x5ea2e4fd
	DCD	0xa2846450
	DCD	0x767f9ead
	DCD	0xfdf4d299
	DCD	0xffffffff
	DCD	0xffffffff
	DCD	0xeefdffff
	DCD	0x183470bd
	DCD	0x1d181210
	DCD	0x933b1f1d
	DCD	0xfffffbe1
	DCD	0xffffffff
	DCD	0xffffffff
	DCD	0xffffffff
	DCD	0xffffffff
	DCD	0xffffffff
	DCD	0xffffffff
	DCD	0xffffffff
	DCD	0xffffffff
	DCD	0xffffffff
	DCD	0xffffffff
	DCD	0xffffffff
	DCD	0xf4ffffff
	DCD	0x8124db8
	DCD	0xf3ca691c
	DCD	0xe9e1e4ef
	DCD	0x33a7eff5
	DCD	0x691c0709
	DCD	0xfffff9cb
	DCD	0xffffffff
	DCD	0xffffffff
	DCD	0xffffffff
	DCD	0x3e8edffb
	DCD	0xd6b3783e
	DCD	0x5896ccdd
	DCD	0xf9dc9554
	DCD	0xffffffff
	DCD	0xffffffff
	DCD	0xcef6ffff
	DCD	0xe102f79
	DCD	0x604f341b
	DCD	0xb76d5a61
	DCD	0xfffffdee
	DCD	0xffffffff
	DCD	0xffffffff
	DCD	0xffffffff
	DCD	0xffffffff
	DCD	0xffffffff
	DCD	0xffffffff
	DCD	0xffffffff
	DCD	0xffffffff
	DCD	0xffffffff
	DCD	0xffffffff
	DCD	0xffffffff
	DCD	0xf5ffffff
	DCD	0x8124db9
	DCD	0xe1c86a1c
	DCD	0xa58f98be
	DCD	0x34a7e8d6
	DCD	0x691c060a
	DCD	0xfffff8cb
	DCD	0xffffffff
	DCD	0xffffffff
	DCD	0xffffffff
	DCD	0x498ddefb
	DCD	0xf7e8b566
	DCD	0x59b7eef9
	DCD	0xf4bb5c30
	DCD	0xffffffff
	DCD	0xffffffff
	DCD	0xa1e7fcff
	DCD	0x210c1241
	DCD	0xc5b69155
	DCD	0xe5c7bfc6
	DCD	0xfffffffa
	DCD	0xffffffff
	DCD	0xffffffff
	DCD	0xffffffff
	DCD	0xffffffff
	DCD	0xffffffff
	DCD	0xffffffff
	DCD	0xffffffff
	DCD	0xffffffff
	DCD	0xffffffff
	DCD	0xffffffff
	DCD	0xffffffff
	DCD	0xf4ffffff
	DCD	0x8134db8
	DCD	0xbfc16a1c
	DCD	0x4e2f3a70
	DCD	0x34a4d69e
	DCD	0x691d0609
	DCD	0xfffff9cb
	DCD	0xffffffff
	DCD	0xffffffff
	DCD	0xffffffff
	DCD	0x6998dffb
	DCD	0xfefbe09c
	DCD	0x51b2ebfb
	DCD	0xe99e391f
	DCD	0xfffffffe
	DCD	0xffffffff
	DCD	0x74d1f8ff
	DCD	0x50170b23
	DCD	0xf7f2dea5
	DCD	0xfbf8f6f7
	DCD	0xfffffffd
	DCD	0xffffffff
	DCD	0xffffffff
	DCD	0xffffffff
	DCD	0xffffffff
	DCD	0xffffffff
	DCD	0xffffffff
	DCD	0xffffffff
	DCD	0xffffffff
	DCD	0xffffffff
	DCD	0xffffffff
	DCD	0xffffffff
	DCD	0xf4ffffff
	DCD	0x8134db9
	DCD	0x96b4671c
	DCD	0x200b113c
	DCD	0x34a0bb6a
	DCD	0x691c0709
	DCD	0xfffff9cb
	DCD	0xffffffff
	DCD	0xffffffff
	DCD	0xffffffff
	DCD	0x93b0e5fd
	DCD	0xf4fbf2c6
	DCD	0x307bbee4
	DCD	0xe4922e12
	DCD	0xfffffffc
	DCD	0xffffffff
	DCD	0x53bcf4ff
	DCD	0x872a0b14
	DCD	0xfffff9d9
	DCD	0xffffffff
	DCD	0xffffffff
	DCD	0xffffffff
	DCD	0xffffffff
	DCD	0xffffffff
	DCD	0xffffffff
	DCD	0xffffffff
	DCD	0xffffffff
	DCD	0xffffffff
	DCD	0xffffffff
	DCD	0xffffffff
	DCD	0xffffffff
	DCD	0xffffffff
	DCD	0xf4ffffff
	DCD	0x8124db8
	DCD	0x699c631c
	DCD	0xf040720
	DCD	0x3395983f
	DCD	0x691d0709
	DCD	0xfffff8ca
	DCD	0xffffffff
	DCD	0xffffffff
	DCD	0xffffffff
	DCD	0xc7d4f1fd
	DCD	0xc1e0efe2
	DCD	0x11326699
	DCD	0xe99b340d
	DCD	0xfffffffd
	DCD	0xffffffff
	DCD	0x3fb0f2ff
	DCD	0xa83c0e0e
	DCD	0xfffffeee
	DCD	0xffffffff
	DCD	0xffffffff
	DCD	0xffffffff
	DCD	0xffffffff
	DCD	0xffffffff
	DCD	0xffffffff
	DCD	0xffffffff
	DCD	0xffffffff
	DCD	0xffffffff
	DCD	0xffffffff
	DCD	0xffffffff
	DCD	0xffffffff
	DCD	0xffffffff
	DCD	0xf5ffffff
	DCD	0x8124db9
	DCD	0x417d5b1c
	DCD	0xb070811
	DCD	0x30816c25
	DCD	0x6a1c0709
	DCD	0xfffff9cb
	DCD	0xffffffff
	DCD	0xffffffff
	DCD	0xffffffff
	DCD	0xeaf2fbff
	DCD	0x6194c5e2
	DCD	0x90e1e39
	DCD	0xf2b64f15
	DCD	0xffffffff
	DCD	0xffffffff
	DCD	0x37aaf0ff
	DCD	0xb547100c
	DCD	0xfffffff3
	DCD	0xffffffff
	DCD	0xffffffff
	DCD	0xffffffff
	DCD	0xffffffff
	DCD	0xffffffff
	DCD	0xffffffff
	DCD	0xffffffff
	DCD	0xffffffff
	DCD	0xffffffff
	DCD	0xffffffff
	DCD	0xffffffff
	DCD	0xffffffff
	DCD	0xffffffff
	DCD	0xf4ffffff
	DCD	0x8124db8
	DCD	0x25594c1a
	DCD	0x111b120d
	DCD	0x2a654516
	DCD	0x6a1c0609
	DCD	0xfffff8cb
	DCD	0xffffffff
	DCD	0xffffffff
	DCD	0xffffffff
	DCD	0xe5fafeff
	DCD	0x1c3a6fb3
	DCD	0x1209090e
	DCD	0xfad78637
	DCD	0xffffffff
	DCD	0xffffffff
	DCD	0x3aacf1ff
	DCD	0xb346100d
	DCD	0xfffffff4
	DCD	0xffffffff
	DCD	0xffffffff
	DCD	0xffffffff
	DCD	0xffffffff
	DCD	0xffffffff
	DCD	0xffffffff
	DCD	0xffffffff
	DCD	0xffffffff
	DCD	0xffffffff
	DCD	0xffffffff
	DCD	0xffffffff
	DCD	0xffffffff
	DCD	0xffffffff
	DCD	0xf4ffffff
	DCD	0x8124db9
	DCD	0x14323615
	DCD	0x294d3212
	DCD	0x20422713
	DCD	0x6a1c0708
	DCD	0xfffff8cb
	DCD	0xffffffff
	DCD	0xffffffff
	DCD	0xffffffff
	DCD	0xb6edfcff
	DCD	0x80f2865
	DCD	0x40201009
	DCD	0xfef0c67e
	DCD	0xffffffff
	DCD	0xffffffff
	DCD	0x48b6f3ff
	DCD	0xa1380e11
	DCD	0xfffffeea
	DCD	0xffffffff
	DCD	0xffffffff
	DCD	0xffffffff
	DCD	0xffffffff
	DCD	0xffffffff
	DCD	0xffffffff
	DCD	0xffffffff
	DCD	0xffffffff
	DCD	0xffffffff
	DCD	0xffffffff
	DCD	0xffffffff
	DCD	0xffffffff
	DCD	0xffffffff
	DCD	0xf5ffffff
	DCD	0x7124db9
	DCD	0xd161c0f
	DCD	0x508c6421
	DCD	0x11201519
	DCD	0x691d0605
	DCD	0xfffff8cb
	DCD	0xffffffff
	DCD	0xffffffff
	DCD	0xffffffff
	DCD	0x78d1f8ff
	DCD	0xf090d2b
	DCD	0x9e6a3c1f
	DCD	0xfffaeccc
	DCD	0xffffffff
	DCD	0xffffffff
	DCD	0x62c6f7ff
	DCD	0x7a260b1a
	DCD	0xfffef4cf
	DCD	0xfffdffff
	DCD	0xffffffff
	DCD	0xffffffff
	DCD	0xffffffff
	DCD	0xffffffff
	DCD	0xffffffff
	DCD	0xffffffff
	DCD	0xffffffff
	DCD	0xffffffff
	DCD	0xffffffff
	DCD	0xffffffff
	DCD	0xffffffff
	DCD	0xffffffff
	DCD	0xf4ffffff
	DCD	0x4124db9
	DCD	0xf090b07
	DCD	0x81c1993b
	DCD	0x70c0d2b
	DCD	0x691d0601
	DCD	0xfffff9cb
	DCD	0xffffffff
	DCD	0xffffffff
	DCD	0xffffffff
	DCD	0x4bb7f3ff
	DCD	0x3a1c0d14
	DCD	0xe1c79c68
	DCD	0xfdf2e4e6
	DCD	0xffffffff
	DCD	0xffffffff
	DCD	0x89dcfbff
	DCD	0x42140e30
	DCD	0xf2eacf92
	DCD	0xf7eef0f3
	DCD	0xfffffffd
	DCD	0xffffffff
	DCD	0xffffffff
	DCD	0xffffffff
	DCD	0xffffffff
	DCD	0xffffffff
	DCD	0xffffffff
	DCD	0xffffffff
	DCD	0xffffffff
	DCD	0xffffffff
	DCD	0xffffffff
	DCD	0xffffffff
	DCD	0xf4ffffff
	DCD	0x4134db9
	DCD	0x1c070301
	DCD	0xade4c263
	DCD	0x1061248
	DCD	0x691c0700
	DCD	0xfffff8cb
	DCD	0xffffffff
	DCD	0xffffffff
	DCD	0xffffffff
	DCD	0x3eadf2ff
	DCD	0x97592313
	DCD	0xecf4e5c6
	DCD	0xf9dab4c8
	DCD	0xffffffff
	DCD	0xffffffff
	DCD	0xb8f0fdff
	DCD	0x190e1f5e
	DCD	0xb3a17a44
	DCD	0xd6b0acb3
	DCD	0xfffffdf4
	DCD	0xffffffff
	DCD	0xffffffff
	DCD	0xffffffff
	DCD	0xffffffff
	DCD	0xffffffff
	DCD	0xffffffff
	DCD	0xffffffff
	DCD	0xffffffff
	DCD	0xffffffff
	DCD	0xffffffff
	DCD	0xffffffff
	DCD	0xf5ffffff
	DCD	0x4124cb8
	DCD	0x320b0200
	DCD	0xd1f5e092
	DCD	0x82275
	DCD	0x691d0600
	DCD	0xfffff8ca
	DCD	0xffffffff
	DCD	0xffffffff
	DCD	0xffffffff
	DCD	0x46b2f3ff
	DCD	0xdea14921
	DCD	0xcff5fbf4
	DCD	0xf6c68490
	DCD	0xffffffff
	DCD	0xffffffff
	DCD	0xe2fbffff
	DCD	0x101e50a1
	DCD	0x45382615
	DCD	0x9f554046
	DCD	0xfffffde4
	DCD	0xffffffff
	DCD	0xffffffff
	DCD	0xffffffff
	DCD	0xffffffff
	DCD	0xffffffff
	DCD	0xffffffff
	DCD	0xffffffff
	DCD	0xffffffff
	DCD	0xffffffff
	DCD	0xffffffff
	DCD	0xffffffff
	DCD	0xf4ffffff
	DCD	0x4124db8
	DCD	0x57170400
	DCD	0xeafcf2ba
	DCD	0x30f3fa3
	DCD	0x6a1c0700
	DCD	0xfffff8cb
	DCD	0xffffffff
	DCD	0xffffffff
	DCD	0xffffffff
	DCD	0x67c6f7ff
	DCD	0xeeba5e36
	DCD	0x97d7f3f8
	DCD	0xf5be6558
	DCD	0xffffffff
	DCD	0xffffffff
	DCD	0xf7fdffff
	DCD	0x2e5b9fdc
	DCD	0x1613131a
	DCD	0x83331816
	DCD	0xfffffbd8
	DCD	0xffffffff
	DCD	0xffffffff
	DCD	0xffffffff
	DCD	0xffffffff
	DCD	0xffffffff
	DCD	0xffffffff
	DCD	0xffffffff
	DCD	0xffffffff
	DCD	0xffffffff
	DCD	0xffffffff
	DCD	0xffffffff
	DCD	0xf4ffffff
	DCD	0x91751bb
	DCD	0x832e0e08
	DCD	0xf8fff9d9
	DCD	0xb206ac8
	DCD	0x6d210c08
	DCD	0xfffff8cc
	DCD	0xffffffff
	DCD	0xffffffff
	DCD	0xffffffff
	DCD	0x99e0faff
	DCD	0xd3a05f59
	DCD	0x5c9eccdd
	DCD	0xf4bc5b38
	DCD	0xffffffff
	DCD	0xffffffff
	DCD	0xfdffffff
	DCD	0x86b6e1f7
	DCD	0x2b313f5c
	DCD	0x9f58362d
	DCD	0xfffffbe2
	DCD	0xffffffff
	DCD	0xffffffff
	DCD	0xffffffff
	DCD	0xffffffff
	DCD	0xffffffff
	DCD	0xffffffff
	DCD	0xffffffff
	DCD	0xffffffff
	DCD	0xffffffff
	DCD	0xffffffff
	DCD	0xffffffff
	DCD	0xf7ffffff
	DCD	0x29386ec7
	DCD	0xb7603328
	DCD	0xfdfffeef
	DCD	0x2d4e9ee4
	DCD	0x87432b28
	DCD	0xfffffad6
	DCD	0xffffffff
	DCD	0xffffffff
	DCD	0xffffffff
	DCD	0xd2f4feff
	DCD	0xa1857799
	DCD	0x5a799aab
	DCD	0xf6c67452
	DCD	0xffffffff
	DCD	0xffffffff
	DCD	0xffffffff
	DCD	0xdaeffbfd
	DCD	0x8d99abc1
	DCD	0xdab99e8f
	DCD	0xfffffef5
	DCD	0xffffffff
	DCD	0xffffffff
	DCD	0xffffffff
	DCD	0xffffffff
	DCD	0xffffffff
	DCD	0xffffffff
	DCD	0xffffffff
	DCD	0xffffffff
	DCD	0xffffffff
	DCD	0xffffffff
	DCD	0xffffffff
	DCD	0xfbffffff
	DCD	0x8892b2e2
	DCD	0xe1b39388
	DCD	0xfffffff9
	DCD	0x8ca5d6f6
	DCD	0xc1998987
	DCD	0xfffffcea
	DCD	0xffffffff
	DCD	0xffffffff
	DCD	0xffffffff
	DCD	0xf3fdffff
	DCD	0xa4a9bddb
	DCD	0xaba9a7a5
	DCD	0xfadfb2a8
	DCD	0xffffffff
	DCD	0xffffffff
	DCD	0xffffffff
	DCD	0xfbfeffff
	DCD	0xe1e8eff6
	DCD	0xf9f2eae2
	DCD	0xfffffffe
	DCD	0xffffffff
	DCD	0xffffffff
	DCD	0xffffffff
	DCD	0xffffffff
	DCD	0xffffffff
	DCD	0xffffffff
	DCD	0xffffffff
	DCD	0xffffffff
	DCD	0xffffffff
	DCD	0xffffffff
	DCD	0xffffffff
	DCD	0xfeffffff
	DCD	0xdde1eaf7
	DCD	0xf9ebe1dd
	DCD	0xfffffffd
	DCD	0xe0e9f5fe
	DCD	0xeee2dfdd
	DCD	0xfffffffa
	DCD	0xffffffff
	DCD	0xffffffff
	DCD	0xffffffff
	DCD	0xfdffffff
	DCD	0xdae2effa
	DCD	0xebe5ded8
	DCD	0xfef4e9ea
	DCD	0xffffffff
	DCD	0xffffffff
	DCD	0xffffffff
	DCD	0xffffffff
	DCD	0xfdfdffff
	DCD	0xfffffdfc
	DCD	0xffffffff
	DCD	0xffffffff
	DCD	0xffffffff
	DCD	0xffffffff
	DCD	0xffffffff
	DCD	0xffffffff
	DCD	0xffffffff
	DCD	0xffffffff
	DCD	0xffffffff
	DCD	0xffffffff
	DCD	0xffffffff
	DCD	0xffffffff
	DCD	0xffffffff
	DCD	0xfbfcfcfd
	DCD	0xfffdfcfb
	DCD	0xffffffff
	DCD	0xfcfcfeff
	DCD	0xfdfcfbfb
	DCD	0xffffffff
	DCD	0xffffffff
	DCD	0xffffffff
	DCD	0xffffffff
	DCD	0xffffffff
	DCD	0xf8fbfeff
	DCD	0xfefcfaf9
	DCD	0xfffdfcfe
	DCD	0xffffffff
	DCD	0xffffffff
	DCD	0xffffffff
	DCD	0xffffffff
	DCD	0xffffffff
	DCD	0xffffffff
	DCD	0xffffffff
	DCD	0xffffffff
	DCD	0xffffffff
	DCD	0xfeffffff
	DCD	0xf8f9f8fb
	DCD	0xfffffdfb
	DCD	0xffffffff
	DCD	0xffffffff
	DCD	0xffffffff
	DCD	0xffffffff
	DCD	0xffffffff
	DCD	0xffffffff
	DCD	0xffffffff
	DCD	0xffffffff
	DCD	0xffffffff
	DCD	0xffffffff
	DCD	0xffffffff
	DCD	0xffffffff
	DCD	0xffffffff
	DCD	0xffffffff
	DCD	0xffffffff
	DCD	0xffffffff
	DCD	0xffffffff
	DCD	0xffffffff
	DCD	0xffffffff
	DCD	0xffffffff
	DCD	0xffffffff
	DCD	0xffffffff
	DCD	0xffffffff
	DCD	0xffffffff
	DCD	0xffffffff
	DCD	0xffffffff
	DCD	0xffffffff
	DCD	0xffffffff
	DCD	0xffffffff
	DCD	0xe9f3f9fe
	DCD	0xd1ccd1dc
	DCD	0xfcf5e9dd
	DCD	0xffffffff
	DCD	0xffffffff
	DCD	0xffffffff
	DCD	0xffffffff
	DCD	0xffffffff
	DCD	0xffffffff
	DCD	0xffffffff
	DCD	0xffffffff
	DCD	0xffffffff
	DCD	0xffffffff
	DCD	0xffffffff
	DCD	0xffffffff
	DCD	0xffffffff
	DCD	0xffffffff
	DCD	0xffffffff
	DCD	0xffffffff
	DCD	0xffffffff
	DCD	0xffffffff
	DCD	0xffffffff
	DCD	0xffffffff
	DCD	0xffffffff
	DCD	0xffffffff
	DCD	0xffffffff
	DCD	0xffffffff
	DCD	0xffffffff
	DCD	0xffffffff
	DCD	0xffffffff
	DCD	0xffffffff
	DCD	0xfcffffff
	DCD	0x9ebcdaf0
	DCD	0x716b7286
	DCD	0xf2d0a385
	DCD	0xfffffffe
	DCD	0xffffffff
	DCD	0xffffffff
	DCD	0xffffffff
	DCD	0xffffffff
	DCD	0xffffffff
	DCD	0xffffffff
	DCD	0xffffffff
	DCD	0xffffffff
	DCD	0xffffffff
	DCD	0xffffffff
	DCD	0xffffffff
	DCD	0xffffffff
	DCD	0xffffffff
	DCD	0xffffffff
	DCD	0xffffffff
	DCD	0xffffffff
	DCD	0xffffffff
	DCD	0xffffffff
	DCD	0xffffffff
	DCD	0xffffffff
	DCD	0xffffffff
	DCD	0xffffffff
	DCD	0xffffffff
	DCD	0xffffffff
	DCD	0xffffffff
	DCD	0xffffffff
	DCD	0xffffffff
	DCD	0xeafbffff
	DCD	0x385688c1
	DCD	0x2321222a
	DCD	0xe29a4e2c
	DCD	0xfffffffb
	DCD	0xffffffff
	DCD	0xffffffff
	DCD	0xffffffff
	DCD	0xffffffff
	DCD	0xffffffff
	DCD	0xffffffff
	DCD	0xffffffff
	DCD	0xffffffff
	DCD	0xffffffff
	DCD	0xffffffff
	DCD	0xffffffff
	DCD	0xffffffff
	DCD	0xffffffff
	DCD	0xffffffff
	DCD	0xffffffff
	DCD	0xffffffff
	DCD	0xffffffff
	DCD	0xffffffff
	DCD	0xffffffff
	DCD	0xffffffff
	DCD	0xffffffff
	DCD	0xffffffff
	DCD	0xffffffff
	DCD	0xffffffff
	DCD	0xffffffff
	DCD	0xffffffff
	DCD	0xffffffff
	DCD	0xbceefcff
	DCD	0x10183370
	DCD	0x1e1d1712
	DCD	0xe1933c1f
	DCD	0xfffffffb
	DCD	0xffffffff
	DCD	0xffffffff
	DCD	0xffffffff
	DCD	0xffffffff
	DCD	0xffffffff
	DCD	0xffffffff
	DCD	0xffffffff
	DCD	0xffffffff
	DCD	0xffffffff
	DCD	0xffffffff
	DCD	0xffffffff
	DCD	0xffffffff
	DCD	0xffffffff
	DCD	0xffffffff
	DCD	0xffffffff
	DCD	0xffffffff
	DCD	0xffffffff
	DCD	0xffffffff
	DCD	0xffffffff
	DCD	0xffffffff
	DCD	0xffffffff
	DCD	0xffffffff
	DCD	0xffffffff
	DCD	0xffffffff
	DCD	0xffffffff
	DCD	0xffffffff
	DCD	0xffffffff
	DCD	0x79cff6ff
	DCD	0x1b0d102f
	DCD	0x61605033
	DCD	0xeeb76d59
	DCD	0xfffffffe
	DCD	0xffffffff
	DCD	0xffffffff
	DCD	0xffffffff
	DCD	0xffffffff
	DCD	0xffffffff
	DCD	0xffffffff
	DCD	0xfbfbfcfe
	DCD	0xfbfbfbfb
	DCD	0xfffffefd
	DCD	0xffffffff
	DCD	0xffffffff
	DCD	0xffffffff
	DCD	0xffffffff
	DCD	0xffffffff
	DCD	0xffffffff
	DCD	0xffffffff
	DCD	0xffffffff
	DCD	0xffffffff
	DCD	0xffffffff
	DCD	0xffffffff
	DCD	0xffffffff
	DCD	0xffffffff
	DCD	0xffffffff
	DCD	0xffffffff
	DCD	0xffffffff
	DCD	0xffffffff
	DCD	0xffffffff
	DCD	0x42a1e8fc
	DCD	0x55210b12
	DCD	0xc5c6b692
	DCD	0xfae5c7bf
	DCD	0xffffffff
	DCD	0xffffffff
	DCD	0xffffffff
	DCD	0xffffffff
	DCD	0xffffffff
	DCD	0xffffffff
	DCD	0xfcffffff
	DCD	0xdfe4ecf6
	DCD	0xe5e0dddd
	DCD	0xfffef9ec
	DCD	0xffffffff
	DCD	0xffffffff
	DCD	0xffffffff
	DCD	0xffffffff
	DCD	0xffffffff
	DCD	0xffffffff
	DCD	0xffffffff
	DCD	0xffffffff
	DCD	0xffffffff
	DCD	0xffffffff
	DCD	0xffffffff
	DCD	0xffffffff
	DCD	0xffffffff
	DCD	0xffffffff
	DCD	0xffffffff
	DCD	0xffffffff
	DCD	0xffffffff
	DCD	0xffffffff
	DCD	0x2374d1f8
	DCD	0xa550170a
	DCD	0xf7f7f2de
	DCD	0xfdfbf7f6
	DCD	0xffffffff
	DCD	0xffffffff
	DCD	0xffffffff
	DCD	0xffffffff
	DCD	0xffffffff
	DCD	0xffffffff
	DCD	0xfafeffff
	DCD	0x92accbe8
	DCD	0xb0968988
	DCD	0xfffceed0
	DCD	0xffffffff
	DCD	0xffffffff
	DCD	0xffffffff
	DCD	0xffffffff
	DCD	0xffffffff
	DCD	0xffffffff
	DCD	0xffffffff
	DCD	0xffffffff
	DCD	0xffffffff
	DCD	0xffffffff
	DCD	0xffffffff
	DCD	0xffffffff
	DCD	0xffffffff
	DCD	0xffffffff
	DCD	0xffffffff
	DCD	0xffffffff
	DCD	0xffffffff
	DCD	0xffffffff
	DCD	0x1453bcf5
	DCD	0xd9872a0b
	DCD	0xfffffff9
	DCD	0xffffffff
	DCD	0xffffffff
	DCD	0xffffffff
	DCD	0xffffffff
	DCD	0xffffffff
	DCD	0xffffffff
	DCD	0xffffffff
	DCD	0xf9feffff
	DCD	0x4381c0e6
	DCD	0x8e4d302b
	DCD	0xfffceec7
	DCD	0xffffffff
	DCD	0xffffffff
	DCD	0xffffffff
	DCD	0xffffffff
	DCD	0xffffffff
	DCD	0xffffffff
	DCD	0xffffffff
	DCD	0xffffffff
	DCD	0xffffffff
	DCD	0xffffffff
	DCD	0xffffffff
	DCD	0xffffffff
	DCD	0xffffffff
	DCD	0xffffffff
	DCD	0xffffffff
	DCD	0xffffffff
	DCD	0xffffffff
	DCD	0xffffffff
	DCD	0xe3eaff2
	DCD	0xeea83c0e
	DCD	0xfffffffe
	DCD	0xffffffff
	DCD	0xffffffff
	DCD	0xffffffff
	DCD	0xffffffff
	DCD	0xffffffff
	DCD	0xffffffff
	DCD	0xffffffff
	DCD	0xfcffffff
	DCD	0x3190daf4
	DCD	0xa144130e
	DCD	0xfffef8e0
	DCD	0xffffffff
	DCD	0xffffffff
	DCD	0xffffffff
	DCD	0xffffffff
	DCD	0xffffffff
	DCD	0xffffffff
	DCD	0xffffffff
	DCD	0xffffffff
	DCD	0xffffffff
	DCD	0xffffffff
	DCD	0xffffffff
	DCD	0xffffffff
	DCD	0xffffffff
	DCD	0xffffffff
	DCD	0xffffffff
	DCD	0xffffffff
	DCD	0xffffffff
	DCD	0xffffffff
	DCD	0xc38a9f0
	DCD	0xf3b54710
	DCD	0xffffffff
	DCD	0xffffffff
	DCD	0xffffffff
	DCD	0xffffffff
	DCD	0xffffffff
	DCD	0xffffffff
	DCD	0xffffffff
	DCD	0xffffffff
	DCD	0xffffffff
	DCD	0x32a2edfd
	DCD	0xb44a110b
	DCD	0xfffffef1
	DCD	0xffffffff
	DCD	0xffffffff
	DCD	0xffffffff
	DCD	0xffffffff
	DCD	0xffffffff
	DCD	0xffffffff
	DCD	0xffffffff
	DCD	0xffffffff
	DCD	0xffffffff
	DCD	0xffffffff
	DCD	0xffffffff
	DCD	0xffffffff
	DCD	0xffffffff
	DCD	0xffffffff
	DCD	0xffffffff
	DCD	0xffffffff
	DCD	0xffffffff
	DCD	0xffffffff
	DCD	0xd3aacf1
	DCD	0xf3b34610
	DCD	0xffffffff
	DCD	0xffffffff
	DCD	0xffffffff
	DCD	0xffffffff
	DCD	0xffffffff
	DCD	0xffffffff
	DCD	0xffffffff
	DCD	0xffffffff
	DCD	0xffffffff
	DCD	0x34a6f1ff
	DCD	0xb84c120b
	DCD	0xfffffff4
	DCD	0xffffffff
	DCD	0xffffffff
	DCD	0xffffffff
	DCD	0xffffffff
	DCD	0xffffffff
	DCD	0xffffffff
	DCD	0xffffffff
	DCD	0xffffffff
	DCD	0xffffffff
	DCD	0xffffffff
	DCD	0xffffffff
	DCD	0xffffffff
	DCD	0xffffffff
	DCD	0xffffffff
	DCD	0xffffffff
	DCD	0xffffffff
	DCD	0xffffffff
	DCD	0xffffffff
	DCD	0x1148b6f4
	DCD	0xeaa1380e
	DCD	0xfffffffe
	DCD	0xffffffff
	DCD	0xffffffff
	DCD	0xffffffff
	DCD	0xffffffff
	DCD	0xffffffff
	DCD	0xffffffff
	DCD	0xffffffff
	DCD	0xffffffff
	DCD	0x33a7f1ff
	DCD	0xb84d120b
	DCD	0xfffffff5
	DCD	0xffffffff
	DCD	0xffffffff
	DCD	0xffffffff
	DCD	0xffffffff
	DCD	0xffffffff
	DCD	0xffffffff
	DCD	0xffffffff
	DCD	0xffffffff
	DCD	0xffffffff
	DCD	0xffffffff
	DCD	0xffffffff
	DCD	0xffffffff
	DCD	0xffffffff
	DCD	0xffffffff
	DCD	0xffffffff
	DCD	0xffffffff
	DCD	0xffffffff
	DCD	0xffffffff
	DCD	0x1a61c6f7
	DCD	0xce7a250b
	DCD	0xfffffef5
	DCD	0xfffffdff
	DCD	0xffffffff
	DCD	0xffffffff
	DCD	0xffffffff
	DCD	0xffffffff
	DCD	0xffffffff
	DCD	0xffffffff
	DCD	0xffffffff
	DCD	0x33a6f1ff
	DCD	0xb94d120b
	DCD	0xfffffff4
	DCD	0xffffffff
	DCD	0xffffffff
	DCD	0xffffffff
	DCD	0xffffffff
	DCD	0xffffffff
	DCD	0xffffffff
	DCD	0xffffffff
	DCD	0xffffffff
	DCD	0xffffffff
	DCD	0xffffffff
	DCD	0xffffffff
	DCD	0xffffffff
	DCD	0xffffffff
	DCD	0xffffffff
	DCD	0xffffffff
	DCD	0xffffffff
	DCD	0xffffffff
	DCD	0xffffffff
	DCD	0x3089dcfb
	DCD	0x9343140e
	DCD	0xf3f2eacf
	DCD	0xfdf7eeef
	DCD	0xffffffff
	DCD	0xffffffff
	DCD	0xffffffff
	DCD	0xffffffff
	DCD	0xffffffff
	DCD	0xffffffff
	DCD	0xffffffff
	DCD	0x34a7f1ff
	DCD	0xb94c120b
	DCD	0xfffffff5
	DCD	0xffffffff
	DCD	0xffffffff
	DCD	0xffffffff
	DCD	0xffffffff
	DCD	0xffffffff
	DCD	0xffffffff
	DCD	0xffffffff
	DCD	0xffffffff
	DCD	0xffffffff
	DCD	0xffffffff
	DCD	0xffffffff
	DCD	0xffffffff
	DCD	0xffffffff
	DCD	0xffffffff
	DCD	0xffffffff
	DCD	0xffffffff
	DCD	0xffffffff
	DCD	0xffffffff
	DCD	0x5eb9effd
	DCD	0x43190e1f
	DCD	0xb3b3a17a
	DCD	0xf5d6b0ac
	DCD	0xfffffffd
	DCD	0xffffffff
	DCD	0xffffffff
	DCD	0xffffffff
	DCD	0xffffffff
	DCD	0xffffffff
	DCD	0xffffffff
	DCD	0x34a6f0ff
	DCD	0xb84c120b
	DCD	0xfffffff4
	DCD	0xffffffff
	DCD	0xffffffff
	DCD	0xffffffff
	DCD	0xffffffff
	DCD	0xffffffff
	DCD	0xffffffff
	DCD	0xffffffff
	DCD	0xffffffff
	DCD	0xffffffff
	DCD	0xffffffff
	DCD	0xffffffff
	DCD	0xffffffff
	DCD	0xffffffff
	DCD	0xffffffff
	DCD	0xffffffff
	DCD	0xffffffff
	DCD	0xffffffff
	DCD	0xffffffff
	DCD	0xa1e3fbff
	DCD	0x15111e4f
	DCD	0x46463826
	DCD	0xe4a05640
	DCD	0xfffffffc
	DCD	0xffffffff
	DCD	0xffffffff
	DCD	0xffffffff
	DCD	0xffffffff
	DCD	0xffffffff
	DCD	0xffffffff
	DCD	0x33a7f1ff
	DCD	0xb94c120c
	DCD	0xfffffff5
	DCD	0xffffffff
	DCD	0xffffffff
	DCD	0xffffffff
	DCD	0xffffffff
	DCD	0xffffffff
	DCD	0xffffffff
	DCD	0xffffffff
	DCD	0xffffffff
	DCD	0xffffffff
	DCD	0xffffffff
	DCD	0xffffffff
	DCD	0xffffffff
	DCD	0xffffffff
	DCD	0xffffffff
	DCD	0xffffffff
	DCD	0xffffffff
	DCD	0xffffffff
	DCD	0xffffffff
	DCD	0xdcf7feff
	DCD	0x1a2f5b9f
	DCD	0x15161313
	DCD	0xd9843319
	DCD	0xfffffffb
	DCD	0xffffffff
	DCD	0xffffffff
	DCD	0xffffffff
	DCD	0xffffffff
	DCD	0xffffffff
	DCD	0xffffffff
	DCD	0x34a7f0ff
	DCD	0xb94d120b
	DCD	0xfdfefff4
	DCD	0xfffffffe
	DCD	0xffffffff
	DCD	0xffffffff
	DCD	0xffffffff
	DCD	0xffffffff
	DCD	0xffffffff
	DCD	0xffffffff
	DCD	0xffffffff
	DCD	0xffffffff
	DCD	0xffffffff
	DCD	0xffffffff
	DCD	0xffffffff
	DCD	0xffffffff
	DCD	0xffffffff
	DCD	0xffffffff
	DCD	0xffffffff
	DCD	0xffffffff
	DCD	0xffffffff
	DCD	0xf7fdffff
	DCD	0x5b87b6e1
	DCD	0x2c2b303f
	DCD	0xe19e5837
	DCD	0xfffffffb
	DCD	0xffffffff
	DCD	0xffffffff
	DCD	0xffffffff
	DCD	0xffffffff
	DCD	0xffffffff
	DCD	0xffffffff
	DCD	0x33a7f0ff
	DCD	0xb84d120b
	DCD	0xeaf5fcf4
	DCD	0xfffffcf4
	DCD	0xffffffff
	DCD	0xffffffff
	DCD	0xffffffff
	DCD	0xffffffff
	DCD	0xffffffff
	DCD	0xffffffff
	DCD	0xffffffff
	DCD	0xffffffff
	DCD	0xffffffff
	DCD	0xffffffff
	DCD	0xffffffff
	DCD	0xffffffff
	DCD	0xffffffff
	DCD	0xffffffff
	DCD	0xffffffff
	DCD	0xffffffff
	DCD	0xffffffff
	DCD	0xfdffffff
	DCD	0xc1d9f0fb
	DCD	0x8f8c99ac
	DCD	0xf4dab89e
	DCD	0xfffffffd
	DCD	0xffffffff
	DCD	0xffffffff
	DCD	0xffffffff
	DCD	0xffffffff
	DCD	0xffffffff
	DCD	0xfeffffff
	DCD	0x34a7f0ff
	DCD	0xb84d120b
	DCD	0xbedbf7f5
	DCD	0xfffff8dd
	DCD	0xfffffeff
	DCD	0xffffffff
	DCD	0xffffffff
	DCD	0xffffffff
	DCD	0xffffffff
	DCD	0xffffffff
	DCD	0xffffffff
	DCD	0xffffffff
	DCD	0xffffffff
	DCD	0xffffffff
	DCD	0xffffffff
	DCD	0xffffffff
	DCD	0xffffffff
	DCD	0xffffffff
	DCD	0xffffffff
	DCD	0xffffffff
	DCD	0xffffffff
	DCD	0xffffffff
	DCD	0xf6fbfdff
	DCD	0xe3e1e7ef
	DCD	0xfefaf2ea
	DCD	0xffffffff
	DCD	0xffffffff
	DCD	0xffffffff
	DCD	0xffffffff
	DCD	0xffffffff
	DCD	0xffffffff
	DCD	0xf3fafeff
	DCD	0x33a5ecf7
	DCD	0xb64c120b
	DCD	0x8db3e7ee
	DCD	0xfffff3c4
	DCD	0xfffff6fc
	DCD	0xffffffff
	DCD	0xffffffff
	DCD	0xffffffff
	DCD	0xffffffff
	DCD	0xffffffff
	DCD	0xffffffff
	DCD	0xffffffff
	DCD	0xffffffff
	DCD	0xffffffff
	DCD	0xffffffff
	DCD	0xffffffff
	DCD	0xffffffff
	DCD	0xffffffff
	DCD	0xffffffff
	DCD	0xffffffff
	DCD	0xffffffff
	DCD	0xffffffff
	DCD	0xffffffff
	DCD	0xfcfcfdff
	DCD	0xfffffffe
	DCD	0xffffffff
	DCD	0xffffffff
	DCD	0xffffffff
	DCD	0xffffffff
	DCD	0xffffffff
	DCD	0xffffffff
	DCD	0xcbe6fbff
	DCD	0x3094cfd0
	DCD	0xa346130c
	DCD	0x6479b6ce
	DCD	0xfdfff2b3
	DCD	0xffffe8fa
	DCD	0xffffffff
	DCD	0xffffffff
	DCD	0xffffffff
	DCD	0xffffffff
	DCD	0xffffffff
	DCD	0xffffffff
	DCD	0xffffffff
	DCD	0xffffffff
	DCD	0xffffffff
	DCD	0xffffffff
	DCD	0xffffffff
	DCD	0xffffffff
	DCD	0xffffffff
	DCD	0xffffffff
	DCD	0xffffffff
	DCD	0xffffffff
	DCD	0xffffffff
	DCD	0xffffffff
	DCD	0xffffffff
	DCD	0xffffffff
	DCD	0xffffffff
	DCD	0xffffffff
	DCD	0xffffffff
	DCD	0xffffffff
	DCD	0xffffffff
	DCD	0xffffffff
	DCD	0x90cef6ff
	DCD	0x3274948c
	DCD	0x7e411d18
	DCD	0x554a7493
	DCD	0xfdfff2b3
	DCD	0xffffe7fa
	DCD	0xffffffff
	DCD	0xffffffff
	DCD	0xffffffff
	DCD	0xffffffff
	DCD	0xffffffff
	DCD	0xffffffff
	DCD	0xffffffff
	DCD	0xffffffff
	DCD	0xffffffff
	DCD	0xffffffff
	DCD	0xffffffff
	DCD	0xffffffff
	DCD	0xffffffff
	DCD	0xffffffff
	DCD	0xffffffff
	DCD	0xffffffff
	DCD	0xffffffff
	DCD	0xffffffff
	DCD	0xffffffff
	DCD	0xffffffff
	DCD	0xffffffff
	DCD	0xffffffff
	DCD	0xffffffff
	DCD	0xffffffff
	DCD	0xffffffff
	DCD	0xffffffff
	DCD	0x90d0f7ff
	DCD	0x5c75807e
	DCD	0x78635350
	DCD	0x7c63717e
	DCD	0xfffff6c8
	DCD	0xfffff4fc
	DCD	0xffffffff
	DCD	0xffffffff
	DCD	0xffffffff
	DCD	0xffffffff
	DCD	0xffffffff
	DCD	0xffffffff
	DCD	0xffffffff
	DCD	0xffffffff
	DCD	0xffffffff
	DCD	0xffffffff
	DCD	0xffffffff
	DCD	0xffffffff
	DCD	0xffffffff
	DCD	0xffffffff
	DCD	0xffffffff
	DCD	0xffffffff
	DCD	0xffffffff
	DCD	0xffffffff
	DCD	0xffffffff
	DCD	0xffffffff
	DCD	0xffffffff
	DCD	0xffffffff
	DCD	0xffffffff
	DCD	0xffffffff
	DCD	0xffffffff
	DCD	0xffffffff
	DCD	0xcfebfcff
	DCD	0xbcc0c1c2
	DCD	0xc1bcbaba
	DCD	0xccbdbec1
	DCD	0xfffffceb
	DCD	0xfffffeff
	DCD	0xffffffff
	DCD	0xffffffff
	DCD	0xffffffff
	DCD	0xffffffff
	DCD	0xffffffff
	DCD	0xffffffff
	DCD	0xffffffff
	DCD	0xffffffff
	DCD	0xffffffff
	DCD	0xffffffff
	DCD	0xffffffff
	DCD	0xffffffff
	DCD	0xffffffff
	DCD	0xffffffff
	DCD	0xffffffff
	DCD	0xffffffff
	DCD	0xffffffff
	DCD	0xffffffff
	DCD	0xffffffff
	DCD	0xffffffff
	DCD	0xffffffff
	DCD	0xffffffff
	DCD	0xffffffff
	DCD	0xffffffff
	DCD	0xffffffff
	DCD	0xffffffff
	DCD	0xf7fdffff
	DCD	0xf4f4f4f4
	DCD	0xf5f4f5f4
	DCD	0xf7f5f4f5
	DCD	0xfffffffc
	DCD	0xffffffff
	DCD	0xffffffff
	DCD	0xffffffff
	DCD	0xffffffff
	DCD	0xffffffff
	DCD	0xffffffff
	DCD	0xffffffff
	DCD	0xffffffff
	DCD	0xffffffff
	DCD	0xffffffff
	DCD	0xffffffff
	DCD	0xffffffff
	DCD	0xffffffff
	DCD	0xffffffff
	DCD	0xffffffff
	DCD	0xffffffff
	DCD	0xffffffff
	DCD	0xffffffff
	DCD	0xffffffff
	DCD	0xffffffff
	DCD	0xffffffff
	DCD	0xffffffff
	DCD	0xffffffff
	DCD	0xffffffff
	DCD	0xffffffff
	DCD	0xffffffff
	DCD	0xffffffff
	DCD	0xffffffff
	DCD	0xffffffff
	DCD	0xffffffff
	DCD	0xffffffff
	DCD	0xffffffff
	DCD	0xffffffff
	DCD	0xffffffff
	DCD	0xffffffff
	DCD	0xffffffff
	DCD	0xffffffff
	DCD	0xffffffff
	DCD	0xffffffff
	DCD	0xffffffff
	DCD	0xffffffff
	DCD	0xffffffff
	DCD	0xffffffff
	DCD	0xffffffff
	DCD	0xffffffff
	DCD	0xffffffff
	DCD	0xffffffff
	DCD	0xffffffff
	DCD	0xffffffff
	DCD	0xffffffff
	DCD	0xffffffff
	DCD	0xffffffff
	DCD	0xffffffff
	DCD	0xffffffff
	DCD	0xffffffff
	DCD	0xffffffff
	DCD	0xffffffff
	DCD	0xffffffff
	DCD	0xffffffff
	DCD	0xffffffff
	DCD	0xffffffff
	DCD	0xffffffff
	DCD	0xffffffff
	DCD	0xffffffff
	DCD	0xffffffff
	DCD	0xffffffff
	DCD	0xffffffff
	DCD	0xffffffff
	DCD	0xffffffff
	DCD	0xffffffff
	DCD	0xffffffff
	DCD	0xffffffff
	DCD	0xffffffff
	DCD	0xffffffff
	DCD	0xffffffff
	DCD	0xffffffff
	DCD	0xffffffff
	DCD	0xffffffff
	DCD	0xffffffff
	DCD	0xffffffff
	DCD	0xffffffff
	DCD	0xffffffff
	DCD	0xffffffff
	DCD	0xffffffff
	DCD	0xffffffff
	DCD	0xffffffff
	DCD	0xffffffff
	DCD	0xffffffff
	DCD	0xffffffff
	DCD	0xffffffff
	DCD	0xffffffff
	DCD	0xffffffff
	DCD	0xffffffff
	DCD	0xffffffff
	DCD	0xffffffff
	DCD	0xffffffff
	DCD	0xffffffff
	DCD	0xffffffff
	DCD	0xffffffff
	DCD	0xffffffff
	DCD	0xffffffff
	DCD	0xffffffff
	DCD	0xffffffff
	DCD	0xffffffff
	DCD	0xffffffff
	DCD	0xffffffff
	DCD	0xffffffff
	DCD	0xffffffff
	DCD	0xffffffff
	DCD	0xffffffff
	DCD	0xffffffff
	DCD	0xffffffff
	DCD	0xffffffff
	DCD	0xffffffff
	DCD	0xffffffff
	DCD	0xffffffff
	DCD	0xffffffff
	DCD	0xffffffff
	DCD	0xfdfcfeff
	DCD	0xfefcfcfb
	DCD	0xffffffff
	DCD	0xfcfbfcfd
	DCD	0xfffffffe
	DCD	0xffffffff
	DCD	0xffffffff
	DCD	0xffffffff
	DCD	0xffffffff
	DCD	0xffffffff
	DCD	0xffffffff
	DCD	0xffffffff
	DCD	0xffffffff
	DCD	0xffffffff
	DCD	0xffffffff
	DCD	0xffffffff
	DCD	0xffffffff
	DCD	0xffffffff
	DCD	0xffffffff
	DCD	0xffffffff
	DCD	0xffffffff
	DCD	0xffffffff
	DCD	0xffffffff
	DCD	0xffffffff
	DCD	0xffffffff
	DCD	0xffffffff
	DCD	0xffffffff
	DCD	0xffffffff
	DCD	0xffffffff
	DCD	0xffffffff
	DCD	0xffffffff
	DCD	0xffffffff
	DCD	0xe0e9f7fd
	DCD	0xf7e9e0de
	DCD	0xf9fefffd
	DCD	0xe5dfe3ec
	DCD	0xfffffbf2
	DCD	0xffffffff
	DCD	0xffffffff
	DCD	0xffffffff
	DCD	0xffffffff
	DCD	0xffffffff
	DCD	0xffffffff
	DCD	0xffffffff
	DCD	0xffffffff
	DCD	0xffffffff
	DCD	0xffffffff
	DCD	0xffffffff
	DCD	0xffffffff
	DCD	0xffffffff
	DCD	0xffffffff
	DCD	0xffffffff
	DCD	0xffffffff
	DCD	0xffffffff
	DCD	0xffffffff
	DCD	0xffffffff
	DCD	0xffffffff
	DCD	0xffffffff
	DCD	0xffffffff
	DCD	0xffffffff
	DCD	0xffffffff
	DCD	0xffffffff
	DCD	0xffffffff
	DCD	0xffffffff
	DCD	0x90afe0f9
	DCD	0xdfaf9088
	DCD	0xe2fafff9
	DCD	0xa08b93b3
	DCD	0xfffef1cd
	DCD	0xffffffff
	DCD	0xffffffff
	DCD	0xffffffff
	DCD	0xffffffff
	DCD	0xffffffff
	DCD	0xffffffff
	DCD	0xffffffff
	DCD	0xffffffff
	DCD	0xffffffff
	DCD	0xffffffff
	DCD	0xffffffff
	DCD	0xffffffff
	DCD	0xffffffff
	DCD	0xffffffff
	DCD	0xffffffff
	DCD	0xffffffff
	DCD	0xffffffff
	DCD	0xffffffff
	DCD	0xffffffff
	DCD	0xffffffff
	DCD	0xffffffff
	DCD	0xffffffff
	DCD	0xffffffff
	DCD	0xffffffff
	DCD	0xffffffff
	DCD	0xffffffff
	DCD	0xffffffff
	DCD	0x3f77c9f6
	DCD	0xcc784030
	DCD	0xb3ecfdf7
	DCD	0x4d2e3460
	DCD	0xfffde5a0
	DCD	0xffffffff
	DCD	0xffffffff
	DCD	0xffffffff
	DCD	0xffffffff
	DCD	0xffffffff
	DCD	0xffffffff
	DCD	0xffffffff
	DCD	0xffffffff
	DCD	0xffffffff
	DCD	0xffffffff
	DCD	0xffffffff
	DCD	0xffffffff
	DCD	0xffffffff
	DCD	0xffffffff
	DCD	0xffffffff
	DCD	0xffffffff
	DCD	0xffffffff
	DCD	0xffffffff
	DCD	0xffffffff
	DCD	0xffffffff
	DCD	0xffffffff
	DCD	0xffffffff
	DCD	0xffffffff
	DCD	0xffffffff
	DCD	0xffffffff
	DCD	0xffffffff
	DCD	0xffffffff
	DCD	0x3c8ad7f8
	DCD	0xdc8c3c20
	DCD	0x77cef5f9
	DCD	0x2d0d0d2a
	DCD	0xfffbdf8b
	DCD	0xffffffff
	DCD	0xffffffff
	DCD	0xffffffff
	DCD	0xffffffff
	DCD	0xffffffff
	DCD	0xffffffff
	DCD	0xffffffff
	DCD	0xffffffff
	DCD	0xffffffff
	DCD	0xffffffff
	DCD	0xffffffff
	DCD	0xffffffff
	DCD	0xffffffff
	DCD	0xffffffff
	DCD	0xffffffff
	DCD	0xffffffff
	DCD	0xffffffff
	DCD	0xffffffff
	DCD	0xffffffff
	DCD	0xffffffff
	DCD	0xffffffff
	DCD	0xffffffff
	DCD	0xffffffff
	DCD	0xffffffff
	DCD	0xffffffff
	DCD	0xffffffff
	DCD	0xffffffff
	DCD	0x65bdeefd
	DCD	0xf1be6538
	DCD	0x43a0e5fb
	DCD	0x27080311
	DCD	0xfffbdd87
	DCD	0xffffffff
	DCD	0xffffffff
	DCD	0xffffffff
	DCD	0xffffffff
	DCD	0xffffffff
	DCD	0xffffffff
	DCD	0xfbfbfbfc
	DCD	0xfcfbfbfb
	DCD	0xfffffffe
	DCD	0xffffffff
	DCD	0xffffffff
	DCD	0xffffffff
	DCD	0xffffffff
	DCD	0xffffffff
	DCD	0xffffffff
	DCD	0xffffffff
	DCD	0xffffffff
	DCD	0xffffffff
	DCD	0xffffffff
	DCD	0xffffffff
	DCD	0xffffffff
	DCD	0xffffffff
	DCD	0xffffffff
	DCD	0xffffffff
	DCD	0xffffffff
	DCD	0xffffffff
	DCD	0xffffffff
	DCD	0x85d7f9ff
	DCD	0xf8d78550
	DCD	0x2169c3f4
	DCD	0x28080208
	DCD	0xfffbdd87
	DCD	0xffffffff
	DCD	0xffffffff
	DCD	0xffffffff
	DCD	0xffffffff
	DCD	0xffffffff
	DCD	0xffffffff
	DCD	0xdddfe4eb
	DCD	0xede5e0de
	DCD	0xfffffef8
	DCD	0xffffffff
	DCD	0xffffffff
	DCD	0xffffffff
	DCD	0xffffffff
	DCD	0xffffffff
	DCD	0xffffffff
	DCD	0xffffffff
	DCD	0xffffffff
	DCD	0xffffffff
	DCD	0xffffffff
	DCD	0xffffffff
	DCD	0xffffffff
	DCD	0xffffffff
	DCD	0xffffffff
	DCD	0xffffffff
	DCD	0xffffffff
	DCD	0xffffffff
	DCD	0xffffffff
	DCD	0x8fdefbff
	DCD	0xf7dc8f57
	DCD	0xf3994de
	DCD	0x2a090004
	DCD	0xfffbe08c
	DCD	0xffffffff
	DCD	0xffffffff
	DCD	0xffffffff
	DCD	0xffffffff
	DCD	0xffffffff
	DCD	0xffffffff
	DCD	0x8892accb
	DCD	0xd0b09689
	DCD	0xfffffdee
	DCD	0xffffffff
	DCD	0xffffffff
	DCD	0xffffffff
	DCD	0xffffffff
	DCD	0xffffffff
	DCD	0xffffffff
	DCD	0xffffffff
	DCD	0xffffffff
	DCD	0xffffffff
	DCD	0xffffffff
	DCD	0xffffffff
	DCD	0xffffffff
	DCD	0xffffffff
	DCD	0xffffffff
	DCD	0xffffffff
	DCD	0xffffffff
	DCD	0xffffffff
	DCD	0xffffffff
	DCD	0x90defbff
	DCD	0xebdc9059
	DCD	0x81b5bb9
	DCD	0x370c0100
	DCD	0xfffce69a
	DCD	0xffffffff
	DCD	0xffffffff
	DCD	0xffffffff
	DCD	0xffffffff
	DCD	0xffffffff
	DCD	0xffffffff
	DCD	0x2c4382c0
	DCD	0xc78e4e2f
	DCD	0xfffffdee
	DCD	0xffffffff
	DCD	0xffffffff
	DCD	0xffffffff
	DCD	0xffffffff
	DCD	0xffffffff
	DCD	0xffffffff
	DCD	0xffffffff
	DCD	0xffffffff
	DCD	0xffffffff
	DCD	0xffffffff
	DCD	0xffffffff
	DCD	0xffffffff
	DCD	0xffffffff
	DCD	0xffffffff
	DCD	0xffffffff
	DCD	0xffffffff
	DCD	0xffffffff
	DCD	0xffffffff
	DCD	0x90defbff
	DCD	0xd2d79059
	DCD	0x10c2e83
	DCD	0x56180600
	DCD	0xfffeeeb5
	DCD	0xffffffff
	DCD	0xffffffff
	DCD	0xffffffff
	DCD	0xffffffff
	DCD	0xffffffff
	DCD	0xffffffff
	DCD	0xe3190d9
	DCD	0xe0a14413
	DCD	0xfffffdf9
	DCD	0xffffffff
	DCD	0xffffffff
	DCD	0xffffffff
	DCD	0xffffffff
	DCD	0xffffffff
	DCD	0xffffffff
	DCD	0xffffffff
	DCD	0xffffffff
	DCD	0xffffffff
	DCD	0xffffffff
	DCD	0xffffffff
	DCD	0xffffffff
	DCD	0xffffffff
	DCD	0xffffffff
	DCD	0xffffffff
	DCD	0xffffffff
	DCD	0xffffffff
	DCD	0xffffffff
	DCD	0x90ddfbff
	DCD	0xa8c98e59
	DCD	0x4144c
	DCD	0x782e0c02
	DCD	0xfffef0c2
	DCD	0xffffffff
	DCD	0xffffffff
	DCD	0xffffffff
	DCD	0xffffffff
	DCD	0xffffffff
	DCD	0xffffffff
	DCD	0xb32a2ed
	DCD	0xf0b44a11
	DCD	0xfffffffd
	DCD	0xffffffff
	DCD	0xffffffff
	DCD	0xffffffff
	DCD	0xffffffff
	DCD	0xffffffff
	DCD	0xffffffff
	DCD	0xffffffff
	DCD	0xffffffff
	DCD	0xffffffff
	DCD	0xffffffff
	DCD	0xffffffff
	DCD	0xffffffff
	DCD	0xffffffff
	DCD	0xffffffff
	DCD	0xffffffff
	DCD	0xffffffff
	DCD	0xffffffff
	DCD	0xffffffff
	DCD	0x90ddfaff
	DCD	0x71ac8858
	DCD	0x1010925
	DCD	0x7a491a07
	DCD	0xfffce8b5
	DCD	0xffffffff
	DCD	0xffffffff
	DCD	0xffffffff
	DCD	0xffffffff
	DCD	0xffffffff
	DCD	0xffffffff
	DCD	0xb34a7f1
	DCD	0xf5b94d13
	DCD	0xffffffff
	DCD	0xffffffff
	DCD	0xffffffff
	DCD	0xffffffff
	DCD	0xffffffff
	DCD	0xffffffff
	DCD	0xffffffff
	DCD	0xffffffff
	DCD	0xffffffff
	DCD	0xffffffff
	DCD	0xffffffff
	DCD	0xffffffff
	DCD	0xffffffff
	DCD	0xffffffff
	DCD	0xffffffff
	DCD	0xffffffff
	DCD	0xffffffff
	DCD	0xffffffff
	DCD	0xffffffff
	DCD	0x91defbff
	DCD	0x3d827b58
	DCD	0x3000411
	DCD	0x665c3310
	DCD	0xfffbe19f
	DCD	0xffffffff
	DCD	0xffffffff
	DCD	0xffffffff
	DCD	0xffffffff
	DCD	0xffffffff
	DCD	0xffffffff
	DCD	0xb33a7f0
	DCD	0xf4b94d12
	DCD	0xffffffff
	DCD	0xffffffff
	DCD	0xffffffff
	DCD	0xffffffff
	DCD	0xffffffff
	DCD	0xffffffff
	DCD	0xffffffff
	DCD	0xffffffff
	DCD	0xffffffff
	DCD	0xffffffff
	DCD	0xffffffff
	DCD	0xffffffff
	DCD	0xffffffff
	DCD	0xffffffff
	DCD	0xffffffff
	DCD	0xffffffff
	DCD	0xffffffff
	DCD	0xffffffff
	DCD	0xffffffff
	DCD	0x95defbff
	DCD	0x1d516b5c
	DCD	0xa020208
	DCD	0x5a6f5d24
	DCD	0xfffbdf93
	DCD	0xffffffff
	DCD	0xffffffff
	DCD	0xffffffff
	DCD	0xffffffff
	DCD	0xffffffff
	DCD	0xffffffff
	DCD	0xb34a7f0
	DCD	0xf5b84d12
	DCD	0xffffffff
	DCD	0xffffffff
	DCD	0xffffffff
	DCD	0xffffffff
	DCD	0xffffffff
	DCD	0xffffffff
	DCD	0xffffffff
	DCD	0xffffffff
	DCD	0xffffffff
	DCD	0xffffffff
	DCD	0xffffffff
	DCD	0xffffffff
	DCD	0xffffffff
	DCD	0xffffffff
	DCD	0xffffffff
	DCD	0xffffffff
	DCD	0xffffffff
	DCD	0xffffffff
	DCD	0xffffffff
	DCD	0xa5e2fbff
	DCD	0xd2b596c
	DCD	0x14050003
	DCD	0x57808f49
	DCD	0xfffbdd90
	DCD	0xffffffff
	DCD	0xffffffff
	DCD	0xffffffff
	DCD	0xffffffff
	DCD	0xffffffff
	DCD	0xffffffff
	DCD	0xb34a6f1
	DCD	0xf4b94c12
	DCD	0xffffffff
	DCD	0xffffffff
	DCD	0xffffffff
	DCD	0xffffffff
	DCD	0xffffffff
	DCD	0xffffffff
	DCD	0xffffffff
	DCD	0xffffffff
	DCD	0xffffffff
	DCD	0xffffffff
	DCD	0xffffffff
	DCD	0xffffffff
	DCD	0xffffffff
	DCD	0xffffffff
	DCD	0xffffffff
	DCD	0xffffffff
	DCD	0xffffffff
	DCD	0xffffffff
	DCD	0xffffffff
	DCD	0xbae9fcff
	DCD	0x616417c
	DCD	0x2d0b0100
	DCD	0x588bb67f
	DCD	0xfffbde90
	DCD	0xffffffff
	DCD	0xffffffff
	DCD	0xffffffff
	DCD	0xffffffff
	DCD	0xffffffff
	DCD	0xffffffff
	DCD	0xb34a7f1
	DCD	0xf4b94d12
	DCD	0xffffffff
	DCD	0xffffffff
	DCD	0xffffffff
	DCD	0xffffffff
	DCD	0xffffffff
	DCD	0xffffffff
	DCD	0xffffffff
	DCD	0xffffffff
	DCD	0xffffffff
	DCD	0xffffffff
	DCD	0xffffffff
	DCD	0xffffffff
	DCD	0xffffffff
	DCD	0xffffffff
	DCD	0xffffffff
	DCD	0xffffffff
	DCD	0xffffffff
	DCD	0xffffffff
	DCD	0xffffffff
	DCD	0xc1effeff
	DCD	0x10b286f
	DCD	0x57190500
	DCD	0x548bccb2
	DCD	0xfffbdb8b
	DCD	0xffffffff
	DCD	0xffffffff
	DCD	0xffffffff
	DCD	0xffffffff
	DCD	0xffffffff
	DCD	0xffffffff
	DCD	0xb34a6f1
	DCD	0xf5b84d12
	DCD	0xffffffff
	DCD	0xffffffff
	DCD	0xffffffff
	DCD	0xffffffff
	DCD	0xffffffff
	DCD	0xffffffff
	DCD	0xffffffff
	DCD	0xffffffff
	DCD	0xffffffff
	DCD	0xffffffff
	DCD	0xffffffff
	DCD	0xffffffff
	DCD	0xffffffff
	DCD	0xffffffff
	DCD	0xffffffff
	DCD	0xffffffff
	DCD	0xffffffff
	DCD	0xffffffff
	DCD	0xffffffff
	DCD	0xa3e3f9ff
	DCD	0x51349
	DCD	0x8f350e03
	DCD	0x4678c8d5
	DCD	0xfff7cd78
	DCD	0xffffffff
	DCD	0xffffffff
	DCD	0xffffffff
	DCD	0xffffffff
	DCD	0xffffffff
	DCD	0xffffffff
	DCD	0xb34a7f0
	DCD	0xf5b84d13
	DCD	0xfefcfdff
	DCD	0xffffffff
	DCD	0xffffffff
	DCD	0xffffffff
	DCD	0xffffffff
	DCD	0xffffffff
	DCD	0xffffffff
	DCD	0xffffffff
	DCD	0xffffffff
	DCD	0xffffffff
	DCD	0xffffffff
	DCD	0xffffffff
	DCD	0xffffffff
	DCD	0xffffffff
	DCD	0xffffffff
	DCD	0xffffffff
	DCD	0xffffffff
	DCD	0xffffffff
	DCD	0xffffffff
	DCD	0x67b3e9fc
	DCD	0x4040b24
	DCD	0xc0671f09
	DCD	0x2b50a3d9
	DCD	0xfce5a550
	DCD	0xffffffff
	DCD	0xffffffff
	DCD	0xffffffff
	DCD	0xffffffff
	DCD	0xffffffff
	DCD	0xffffffff
	DCD	0xb34a7f0
	DCD	0xf4b84d13
	DCD	0xf4eaf4fd
	DCD	0xfffffffc
	DCD	0xffffffff
	DCD	0xffffffff
	DCD	0xffffffff
	DCD	0xffffffff
	DCD	0xffffffff
	DCD	0xffffffff
	DCD	0xffffffff
	DCD	0xffffffff
	DCD	0xffffffff
	DCD	0xffffffff
	DCD	0xffffffff
	DCD	0xffffffff
	DCD	0xffffffff
	DCD	0xffffffff
	DCD	0xffffffff
	DCD	0xffffffff
	DCD	0xffffffff
	DCD	0x3b7ccef8
	DCD	0x1312141d
	DCD	0xdc9f451c
	DCD	0x213576c9
	DCD	0xf8cf7735
	DCD	0xffffffff
	DCD	0xffffffff
	DCD	0xffffffff
	DCD	0xffffffff
	DCD	0xffffffff
	DCD	0xfffdffff
	DCD	0xc33a6f1
	DCD	0xf4b84d13
	DCD	0xdebfdbf7
	DCD	0xfffffff8
	DCD	0xffffffff
	DCD	0xffffffff
	DCD	0xffffffff
	DCD	0xffffffff
	DCD	0xffffffff
	DCD	0xffffffff
	DCD	0xffffffff
	DCD	0xffffffff
	DCD	0xffffffff
	DCD	0xffffffff
	DCD	0xffffffff
	DCD	0xffffffff
	DCD	0xffffffff
	DCD	0xffffffff
	DCD	0xffffffff
	DCD	0xffffffff
	DCD	0xffffffff
	DCD	0x5e8ad2f8
	DCD	0x4f4d4d4f
	DCD	0xedd08d5e
	DCD	0x515d87cd
	DCD	0xf8d2895c
	DCD	0xffffffff
	DCD	0xffffffff
	DCD	0xffffffff
	DCD	0xffffffff
	DCD	0xffffffff
	DCD	0xf8f3fafd
	DCD	0xb33a4ed
	DCD	0xeeb64c13
	DCD	0xc38db4e6
	DCD	0xfffffff3
	DCD	0xffffffff
	DCD	0xffffffff
	DCD	0xffffffff
	DCD	0xffffffff
	DCD	0xffffffff
	DCD	0xffffffff
	DCD	0xffffffff
	DCD	0xffffffff
	DCD	0xffffffff
	DCD	0xffffffff
	DCD	0xffffffff
	DCD	0xffffffff
	DCD	0xffffffff
	DCD	0xffffffff
	DCD	0xffffffff
	DCD	0xffffffff
	DCD	0xffffffff
	DCD	0xbed0edfc
	DCD	0xbab8b9ba
	DCD	0xfaf2d8c2
	DCD	0xbabeceea
	DCD	0xfcedd0bd
	DCD	0xffffffff
	DCD	0xffffffff
	DCD	0xffffffff
	DCD	0xffffffff
	DCD	0xffffffff
	DCD	0xd0cbe6fb
	DCD	0xc3095d0
	DCD	0xcfa44713
	DCD	0xb46479b7
	DCD	0xfffffff2
	DCD	0xffffffff
	DCD	0xffffffff
	DCD	0xffffffff
	DCD	0xffffffff
	DCD	0xffffffff
	DCD	0xffffffff
	DCD	0xffffffff
	DCD	0xffffffff
	DCD	0xffffffff
	DCD	0xffffffff
	DCD	0xffffffff
	DCD	0xffffffff
	DCD	0xffffffff
	DCD	0xffffffff
	DCD	0xffffffff
	DCD	0xffffffff
	DCD	0xffffffff
	DCD	0xf5f7fcff
	DCD	0xf4f5f4f5
	DCD	0xfefefaf5
	DCD	0xf5f5f7fc
	DCD	0xfffcf7f5
	DCD	0xffffffff
	DCD	0xffffffff
	DCD	0xffffffff
	DCD	0xffffffff
	DCD	0xffffffff
	DCD	0x8c90cdf6
	DCD	0x17327494
	DCD	0x927e411d
	DCD	0xb2554a74
	DCD	0xfffffff2
	DCD	0xffffffff
	DCD	0xffffffff
	DCD	0xffffffff
	DCD	0xffffffff
	DCD	0xffffffff
	DCD	0xffffffff
	DCD	0xffffffff
	DCD	0xffffffff
	DCD	0xffffffff
	DCD	0xffffffff
	DCD	0xffffffff
	DCD	0xffffffff
	DCD	0xffffffff
	DCD	0xffffffff
	DCD	0xffffffff
	DCD	0xffffffff
	DCD	0xffffffff
	DCD	0xffffffff
	DCD	0xffffffff
	DCD	0xffffffff
	DCD	0xffffffff
	DCD	0xffffffff
	DCD	0xffffffff
	DCD	0xffffffff
	DCD	0xffffffff
	DCD	0xffffffff
	DCD	0xffffffff
	DCD	0x7d90cff7
	DCD	0x4f5c7580
	DCD	0x7e786352
	DCD	0xc87c6271
	DCD	0xfffffff6
	DCD	0xffffffff
	DCD	0xffffffff
	DCD	0xffffffff
	DCD	0xffffffff
	DCD	0xffffffff
	DCD	0xffffffff
	DCD	0xffffffff
	DCD	0xffffffff
	DCD	0xffffffff
	DCD	0xffffffff
	DCD	0xffffffff
	DCD	0xffffffff
	DCD	0xffffffff
	DCD	0xffffffff
	DCD	0xffffffff
	DCD	0xffffffff
	DCD	0xffffffff
	DCD	0xffffffff
	DCD	0xffffffff
	DCD	0xffffffff
	DCD	0xffffffff
	DCD	0xffffffff
	DCD	0xffffffff
	DCD	0xffffffff
	DCD	0xffffffff
	DCD	0xffffffff
	DCD	0xffffffff
	DCD	0xc2cfebfc
	DCD	0xbabcc0c1
	DCD	0xc1c1bcba
	DCD	0xebccbdbf
	DCD	0xfffffffc
	DCD	0xffffffff
	DCD	0xffffffff
	DCD	0xffffffff
	DCD	0xffffffff
	DCD	0xffffffff
	DCD	0xffffffff
	DCD	0xffffffff
	DCD	0xfcfdffff
	DCD	0xfdfdfbfc
	DCD	0xfffffffe
	DCD	0xfbfcfeff
	DCD	0xfffffefc
	DCD	0xffffffff
	DCD	0xffffffff
	DCD	0xffffffff
	DCD	0xffffffff
	DCD	0xffffffff
	DCD	0xffffffff
	DCD	0xffffffff
	DCD	0xffffffff
	DCD	0xffffffff
	DCD	0xffffffff
	DCD	0xffffffff
	DCD	0xffffffff
	DCD	0xffffffff
	DCD	0xffffffff
	DCD	0xffffffff
	DCD	0xf5f7fcff
	DCD	0xf4f4f4f4
	DCD	0xf4f4f5f4
	DCD	0xfcf7f4f4
	DCD	0xffffffff
	DCD	0xffffffff
	DCD	0xffffffff
	DCD	0xffffffff
	DCD	0xffffffff
	DCD	0xffffffff
	DCD	0xffffffff
	DCD	0xffffffff
	DCD	0xe9f7feff
	DCD	0xe9e0dde0
	DCD	0xfefffdf7
	DCD	0xdee2edf8
	DCD	0xfffbf2e5
	DCD	0xffffffff
	DCD	0xffffffff
	DCD	0xffffffff
	DCD	0xffffffff
	DCD	0xffffffff
	DCD	0xffffffff
	DCD	0xffffffff
	DCD	0xffffffff
	DCD	0xffffffff
	DCD	0xffffffff
	DCD	0xffffffff
	DCD	0xffffffff
	DCD	0xffffffff
	DCD	0xffffffff
	DCD	0xffffffff
	DCD	0xffffffff
	DCD	0xffffffff
	DCD	0xffffffff
	DCD	0xffffffff
	DCD	0xffffffff
	DCD	0xffffffff
	DCD	0xffffffff
	DCD	0xffffffff
	DCD	0xffffffff
	DCD	0xffffffff
	DCD	0xffffffff
	DCD	0xffffffff
	DCD	0xb0e0faff
	DCD	0xaf908990
	DCD	0xfafffae0
	DCD	0x8b93b3e3
	DCD	0xfef2cda0
	DCD	0xffffffff
	DCD	0xffffffff
	DCD	0xffffffff
	DCD	0xffffffff
	DCD	0xffffffff
	DCD	0xffffffff
	DCD	0xffffffff
	DCD	0xffffffff
	DCD	0xffffffff
	DCD	0xffffffff
	DCD	0xffffffff
	DCD	0xffffffff
	DCD	0xffffffff
	DCD	0xffffffff
	DCD	0xffffffff
	DCD	0xffffffff
	DCD	0xffffffff
	DCD	0xffffffff
	DCD	0xffffffff
	DCD	0xffffffff
	DCD	0xffffffff
	DCD	0xffffffff
	DCD	0xffffffff
	DCD	0xffffffff
	DCD	0xffffffff
	DCD	0xffffffff
	DCD	0xffffffff
	DCD	0x77caf5ff
	DCD	0x783f303f
	DCD	0xebfdf7cc
	DCD	0x2e3460b3
	DCD	0xfce5a04d
	DCD	0xffffffff
	DCD	0xffffffff
	DCD	0xffffffff
	DCD	0xffffffff
	DCD	0xffffffff
	DCD	0xffffffff
	DCD	0xffffffff
	DCD	0xffffffff
	DCD	0xffffffff
	DCD	0xffffffff
	DCD	0xffffffff
	DCD	0xffffffff
	DCD	0xffffffff
	DCD	0xffffffff
	DCD	0xffffffff
	DCD	0xffffffff
	DCD	0xffffffff
	DCD	0xffffffff
	DCD	0xffffffff
	DCD	0xffffffff
	DCD	0xffffffff
	DCD	0xffffffff
	DCD	0xffffffff
	DCD	0xffffffff
	DCD	0xffffffff
	DCD	0xffffffff
	DCD	0xffffffff
	DCD	0x8bd7f8ff
	DCD	0x8d3d1f3c
	DCD	0xcef5fadb
	DCD	0xd0e2a77
	DCD	0xfbdf8a2c
	DCD	0xffffffff
	DCD	0xffffffff
	DCD	0xffffffff
	DCD	0xffffffff
	DCD	0xffffffff
	DCD	0xffffffff
	DCD	0xffffffff
	DCD	0xffffffff
	DCD	0xffffffff
	DCD	0xffffffff
	DCD	0xffffffff
	DCD	0xffffffff
	DCD	0xffffffff
	DCD	0xffffffff
	DCD	0xffffffff
	DCD	0xffffffff
	DCD	0xffffffff
	DCD	0xffffffff
	DCD	0xffffffff
	DCD	0xfdfcfdff
	DCD	0xf8f9fbfd
	DCD	0xfffefcfa
	DCD	0xffffffff
	DCD	0xffffffff
	DCD	0xffffffff
	DCD	0xffffffff
	DCD	0xffffffff
	DCD	0xbceefcff
	DCD	0xbd653865
	DCD	0x9fe5fbf0
	DCD	0x8031243
	DCD	0xfbde8728
	DCD	0xffffffff
	DCD	0xffffffff
	DCD	0xffffffff
	DCD	0xffffffff
	DCD	0xffffffff
	DCD	0xffffffff
	DCD	0xffffffff
	DCD	0xffffffff
	DCD	0xffffffff
	DCD	0xffffffff
	DCD	0xffffffff
	DCD	0xffffffff
	DCD	0xffffffff
	DCD	0xffffffff
	DCD	0xffffffff
	DCD	0xffffffff
	DCD	0xffffffff
	DCD	0xffffffff
	DCD	0xffffffff
	DCD	0xeceaf1fb
	DCD	0xd8d8e1ea
	DCD	0xf9f2e6dd
	DCD	0xfffffffe
	DCD	0xffffffff
	DCD	0xffffffff
	DCD	0xffffffff
	DCD	0xffffffff
	DCD	0xd8f8ffff
	DCD	0xd7855085
	DCD	0x69c3f4f8
	DCD	0x7010921
	DCD	0xfbde8828
	DCD	0xffffffff
	DCD	0xffffffff
	DCD	0xffffffff
	DCD	0xffffffff
	DCD	0xffffffff
	DCD	0xffffffff
	DCD	0xffffffff
	DCD	0xffffffff
	DCD	0xffffffff
	DCD	0xffffffff
	DCD	0xffffffff
	DCD	0xffffffff
	DCD	0xffffffff
	DCD	0xffffffff
	DCD	0xffffffff
	DCD	0xffffffff
	DCD	0xffffffff
	DCD	0xffffffff
	DCD	0xfdffffff
	DCD	0xaaadcdf1
	DCD	0xa6a5a5a9
	DCD	0xddc1aea9
	DCD	0xfffffdf4
	DCD	0xffffffff
	DCD	0xffffffff
	DCD	0xffffffff
	DCD	0xffffffff
	DCD	0xddfbffff
	DCD	0xdc8f578f
	DCD	0x3993dff7
	DCD	0x800040e
	DCD	0xfbe08c2a
	DCD	0xffffffff
	DCD	0xffffffff
	DCD	0xffffffff
	DCD	0xffffffff
	DCD	0xffffffff
	DCD	0xffffffff
	DCD	0xffffffff
	DCD	0xffffffff
	DCD	0xffffffff
	DCD	0xffffffff
	DCD	0xffffffff
	DCD	0xffffffff
	DCD	0xffffffff
	DCD	0xffffffff
	DCD	0xffffffff
	DCD	0xffffffff
	DCD	0xffffffff
	DCD	0xffffffff
	DCD	0xfcffffff
	DCD	0x505da2e4
	DCD	0xada28465
	DCD	0x9976809f
	DCD	0xfffef4d2
	DCD	0xffffffff
	DCD	0xffffffff
	DCD	0xffffffff
	DCD	0xffffffff
	DCD	0xdefbffff
	DCD	0xdc905890
	DCD	0x1b5bb8eb
	DCD	0xc010007
	DCD	0xfce79a36
	DCD	0xffffffff
	DCD	0xffffffff
	DCD	0xffffffff
	DCD	0xffffffff
	DCD	0xffffffff
	DCD	0xffffffff
	DCD	0xffffffff
	DCD	0xffffffff
	DCD	0xffffffff
	DCD	0xffffffff
	DCD	0xffffffff
	DCD	0xffffffff
	DCD	0xffffffff
	DCD	0xffffffff
	DCD	0xffffffff
	DCD	0xffffffff
	DCD	0xffffffff
	DCD	0xffffffff
	DCD	0xfbffffff
	DCD	0x3e3e8ddf
	DCD	0xded6b478
	DCD	0x555796cc
	DCD	0xfff9dc94
	DCD	0xffffffff
	DCD	0xffffffff
	DCD	0xffffffff
	DCD	0xffffffff
	DCD	0xdefbffff
	DCD	0xd7905990
	DCD	0xc2e83d2
	DCD	0x18060001
	DCD	0xfdeeb555
	DCD	0xffffffff
	DCD	0xffffffff
	DCD	0xffffffff
	DCD	0xffffffff
	DCD	0xffffffff
	DCD	0xffffffff
	DCD	0xffffffff
	DCD	0xffffffff
	DCD	0xffffffff
	DCD	0xffffffff
	DCD	0xffffffff
	DCD	0xffffffff
	DCD	0xffffffff
	DCD	0xffffffff
	DCD	0xffffffff
	DCD	0xffffffff
	DCD	0xffffffff
	DCD	0xffffffff
	DCD	0xfbffffff
	DCD	0x66498ede
	DCD	0xf9f7e7b5
	DCD	0x3159b7ee
	DCD	0xfff3bb5b
	DCD	0xffffffff
	DCD	0xffffffff
	DCD	0xffffffff
	DCD	0xffffffff
	DCD	0xddfbffff
	DCD	0xc98d5990
	DCD	0x5144ca8
	DCD	0x2e0d0200
	DCD	0xfef0c378
	DCD	0xffffffff
	DCD	0xffffffff
	DCD	0xffffffff
	DCD	0xffffffff
	DCD	0xffffffff
	DCD	0xffffffff
	DCD	0xffffffff
	DCD	0xffffffff
	DCD	0xffffffff
	DCD	0xffffffff
	DCD	0xffffffff
	DCD	0xffffffff
	DCD	0xffffffff
	DCD	0xffffffff
	DCD	0xffffffff
	DCD	0xffffffff
	DCD	0xffffffff
	DCD	0xffffffff
	DCD	0xfbffffff
	DCD	0x9d6898de
	DCD	0xfbfdfbe0
	DCD	0x1f50b2eb
	DCD	0xfee99d3a
	DCD	0xffffffff
	DCD	0xffffffff
	DCD	0xffffffff
	DCD	0xffffffff
	DCD	0xddfbffff
	DCD	0xad885890
	DCD	0x2092571
	DCD	0x491a0801
	DCD	0xfce7b57a
	DCD	0xffffffff
	DCD	0xffffffff
	DCD	0xffffffff
	DCD	0xffffffff
	DCD	0xffffffff
	DCD	0xffffffff
	DCD	0xffffffff
	DCD	0xffffffff
	DCD	0xffffffff
	DCD	0xffffffff
	DCD	0xffffffff
	DCD	0xffffffff
	DCD	0xffffffff
	DCD	0xffffffff
	DCD	0xffffffff
	DCD	0xffffffff
	DCD	0xffffffff
	DCD	0xffffffff
	DCD	0xfcffffff
	DCD	0xc693b0e5
	DCD	0xe3f4fbf2
	DCD	0x122f7abe
	DCD	0xfce3922e
	DCD	0xffffffff
	DCD	0xffffffff
	DCD	0xffffffff
	DCD	0xffffffff
	DCD	0xdefbffff
	DCD	0x827c5991
	DCD	0x4113d
	DCD	0x5c331004
	DCD	0xfbe19e67
	DCD	0xffffffff
	DCD	0xffffffff
	DCD	0xffffffff
	DCD	0xffffffff
	DCD	0xffffffff
	DCD	0xffffffff
	DCD	0xffffffff
	DCD	0xffffffff
	DCD	0xffffffff
	DCD	0xffffffff
	DCD	0xffffffff
	DCD	0xffffffff
	DCD	0xffffffff
	DCD	0xffffffff
	DCD	0xffffffff
	DCD	0xffffffff
	DCD	0xffffffff
	DCD	0xffffffff
	DCD	0xfeffffff
	DCD	0xe3c8d5f1
	DCD	0x99c1e0ef
	DCD	0xe123266
	DCD	0xfee99b34
	DCD	0xffffffff
	DCD	0xffffffff
	DCD	0xffffffff
	DCD	0xffffffff
	DCD	0xdffbffff
	DCD	0x526a5c96
	DCD	0x201071d
	DCD	0x6f5e2409
	DCD	0xfbdf9359
	DCD	0xffffffff
	DCD	0xffffffff
	DCD	0xffffffff
	DCD	0xffffffff
	DCD	0xffffffff
	DCD	0xffffffff
	DCD	0xffffffff
	DCD	0xffffffff
	DCD	0xffffffff
	DCD	0xffffffff
	DCD	0xffffffff
	DCD	0xffffffff
	DCD	0xffffffff
	DCD	0xffffffff
	DCD	0xffffffff
	DCD	0xffffffff
	DCD	0xffffffff
	DCD	0xffffffff
	DCD	0xffffffff
	DCD	0xe3eaf1fb
	DCD	0x396195c5
	DCD	0x16090f1f
	DCD	0xfff2b64f
	DCD	0xffffffff
	DCD	0xffffffff
	DCD	0xffffffff
	DCD	0xffffffff
	DCD	0xe3fbffff
	DCD	0x2b586da5
	DCD	0x400030d
	DCD	0x808f4914
	DCD	0xfbdd9058
	DCD	0xffffffff
	DCD	0xffffffff
	DCD	0xffffffff
	DCD	0xffffffff
	DCD	0xffffffff
	DCD	0xffffffff
	DCD	0xffffffff
	DCD	0xffffffff
	DCD	0xffffffff
	DCD	0xffffffff
	DCD	0xffffffff
	DCD	0xffffffff
	DCD	0xffffffff
	DCD	0xffffffff
	DCD	0xffffffff
	DCD	0xffffffff
	DCD	0xffffffff
	DCD	0xffffffff
	DCD	0xffffffff
	DCD	0xb3e5fafe
	DCD	0xe1c3a70
	DCD	0x37120909
	DCD	0xfff9d786
	DCD	0xffffffff
	DCD	0xffffffff
	DCD	0xffffffff
	DCD	0xffffffff
	DCD	0xe8fdffff
	DCD	0x15417cba
	DCD	0xb010005
	DCD	0x8ab67e2d
	DCD	0xfbdd8f59
	DCD	0xffffffff
	DCD	0xffffffff
	DCD	0xffffffff
	DCD	0xffffffff
	DCD	0xffffffff
	DCD	0xffffffff
	DCD	0xffffffff
	DCD	0xffffffff
	DCD	0xffffffff
	DCD	0xffffffff
	DCD	0xffffffff
	DCD	0xffffffff
	DCD	0xffffffff
	DCD	0xffffffff
	DCD	0xffffffff
	DCD	0xffffffff
	DCD	0xffffffff
	DCD	0xffffffff
	DCD	0xffffffff
	DCD	0x65b6ecfc
	DCD	0x8081028
	DCD	0x7d40200f
	DCD	0xfffef1c6
	DCD	0xffffffff
	DCD	0xffffffff
	DCD	0xffffffff
	DCD	0xffffffff
	DCD	0xeffdffff
	DCD	0xb2870c1
	DCD	0x19060001
	DCD	0x8accb258
	DCD	0xfbdb8b54
	DCD	0xffffffff
	DCD	0xffffffff
	DCD	0xffffffff
	DCD	0xffffffff
	DCD	0xffffffff
	DCD	0xffffffff
	DCD	0xffffffff
	DCD	0xffffffff
	DCD	0xffffffff
	DCD	0xffffffff
	DCD	0xffffffff
	DCD	0xffffffff
	DCD	0xffffffff
	DCD	0xffffffff
	DCD	0xffffffff
	DCD	0xffffffff
	DCD	0xffffffff
	DCD	0xffffffff
	DCD	0xffffffff
	DCD	0x2a78d1f9
	DCD	0x1f0f090e
	DCD	0xcc9e693c
	DCD	0xfffffaeb
	DCD	0xffffffff
	DCD	0xffffffff
	DCD	0xffffffff
	DCD	0xffffffff
	DCD	0xe3faffff
	DCD	0x51448a4
	DCD	0x360d0300
	DCD	0x78c8d58f
	DCD	0xf8cd7845
	DCD	0xffffffff
	DCD	0xffffffff
	DCD	0xffffffff
	DCD	0xffffffff
	DCD	0xffffffff
	DCD	0xffffffff
	DCD	0xffffffff
	DCD	0xffffffff
	DCD	0xffffffff
	DCD	0xffffffff
	DCD	0xffffffff
	DCD	0xffffffff
	DCD	0xffffffff
	DCD	0xffffffff
	DCD	0xffffffff
	DCD	0xffffffff
	DCD	0xffffffff
	DCD	0xffffffff
	DCD	0xffffffff
	DCD	0x144cb8f3
	DCD	0x683b1c0d
	DCD	0xe7e2c79b
	DCD	0xfffcf2e4
	DCD	0xffffffff
	DCD	0xffffffff
	DCD	0xffffffff
	DCD	0xffffffff
	DCD	0xb3e9fcff
	DCD	0x50a2467
	DCD	0x661f0904
	DCD	0x50a4d9c0
	DCD	0xe5a5502b
	DCD	0xfffffffc
	DCD	0xffffffff
	DCD	0xffffffff
	DCD	0xffffffff
	DCD	0xffffffff
	DCD	0xffffffff
	DCD	0xffffffff
	DCD	0xffffffff
	DCD	0xffffffff
	DCD	0xffffffff
	DCD	0xffffffff
	DCD	0xffffffff
	DCD	0xffffffff
	DCD	0xffffffff
	DCD	0xffffffff
	DCD	0xffffffff
	DCD	0xffffffff
	DCD	0xffffffff
	DCD	0xffffffff
	DCD	0x133eacf2
	DCD	0xc6965a23
	DCD	0xc8ecf3e5
	DCD	0xfff8d9b4
	DCD	0xffffffff
	DCD	0xffffffff
	DCD	0xffffffff
	DCD	0xffffffff
	DCD	0x7dcff8ff
	DCD	0x12141d3b
	DCD	0x9e461c13
	DCD	0x3676cadd
	DCD	0xcf773521
	DCD	0xfffffff8
	DCD	0xffffffff
	DCD	0xffffffff
	DCD	0xffffffff
	DCD	0xffffffff
	DCD	0xffffffff
	DCD	0xffffffff
	DCD	0xffffffff
	DCD	0xffffffff
	DCD	0xffffffff
	DCD	0xffffffff
	DCD	0xffffffff
	DCD	0xffffffff
	DCD	0xffffffff
	DCD	0xffffffff
	DCD	0xffffffff
	DCD	0xffffffff
	DCD	0xffffffff
	DCD	0xffffffff
	DCD	0x2047b3f3
	DCD	0xf5dea249
	DCD	0x90cff4fb
	DCD	0xfff6c684
	DCD	0xffffffff
	DCD	0xffffffff
	DCD	0xffffffff
	DCD	0xffffffff
	DCD	0x8ad3f9ff
	DCD	0x4c4d505e
	DCD	0xd08d5d4f
	DCD	0x5c87cded
	DCD	0xd2895c52
	DCD	0xfffffff8
	DCD	0xffffffff
	DCD	0xffffffff
	DCD	0xffffffff
	DCD	0xffffffff
	DCD	0xffffffff
	DCD	0xffffffff
	DCD	0xffffffff
	DCD	0xffffffff
	DCD	0xffffffff
	DCD	0xffffffff
	DCD	0xffffffff
	DCD	0xffffffff
	DCD	0xffffffff
	DCD	0xffffffff
	DCD	0xffffffff
	DCD	0xffffffff
	DCD	0xffffffff
	DCD	0xffffffff
	DCD	0x3667c6f7
	DCD	0xf8eeba5f
	DCD	0x5897d7f3
	DCD	0xfff4be64
	DCD	0xffffffff
	DCD	0xffffffff
	DCD	0xffffffff
	DCD	0xffffffff
	DCD	0xd0edfcff
	DCD	0xb9b9babd
	DCD	0xf1d9c2ba
	DCD	0xbdceeafa
	DCD	0xedcfbeba
	DCD	0xfffffffc
	DCD	0xffffffff
	DCD	0xffffffff
	DCD	0xffffffff
	DCD	0xffffffff
	DCD	0xffffffff
	DCD	0xffffffff
	DCD	0xffffffff
	DCD	0xffffffff
	DCD	0xffffffff
	DCD	0xffffffff
	DCD	0xffffffff
	DCD	0xffffffff
	DCD	0xffffffff
	DCD	0xffffffff
	DCD	0xffffffff
	DCD	0xffffffff
	DCD	0xffffffff
	DCD	0xffffffff
	DCD	0x5999e0fb
	DCD	0xdcd3a05f
	DCD	0x385b9dcc
	DCD	0xfff5bc5b
	DCD	0xffffffff
	DCD	0xffffffff
	DCD	0xffffffff
	DCD	0xffffffff
	DCD	0xf7fcffff
	DCD	0xf4f4f4f5
	DCD	0xfefaf6f4
	DCD	0xf4f7fdfd
	DCD	0xfdf7f4f5
	DCD	0xffffffff
	DCD	0xffffffff
	DCD	0xffffffff
	DCD	0xffffffff
	DCD	0xffffffff
	DCD	0xffffffff
	DCD	0xffffffff
	DCD	0xffffffff
	DCD	0xfbfcfcfd
	DCD	0xfffffdfd
	DCD	0xffffffff
	DCD	0xfcfdffff
	DCD	0xfdfcfbfb
	DCD	0xffffffff
	DCD	0xffffffff
	DCD	0xffffffff
	DCD	0xffffffff
	DCD	0xffffffff
	DCD	0xffffffff
	DCD	0x99d2f4fe
	DCD	0xaca18577
	DCD	0x525a799a
	DCD	0xfff6c675
	DCD	0xffffffff
	DCD	0xffffffff
	DCD	0xffffffff
	DCD	0xffffffff
	DCD	0xffffffff
	DCD	0xffffffff
	DCD	0xffffffff
	DCD	0xffffffff
	DCD	0xffffffff
	DCD	0xffffffff
	DCD	0xffffffff
	DCD	0xffffffff
	DCD	0xffffffff
	DCD	0xffffffff
	DCD	0xffffffff
	DCD	0xffffffff
	DCD	0xfdffffff
	DCD	0xdfe1eaf7
	DCD	0xfffaeee2
	DCD	0xffffffff
	DCD	0xe7f5fdff
	DCD	0xeee2dfdf
	DCD	0xfffffffa
	DCD	0xffffffff
	DCD	0xffffffff
	DCD	0xffffffff
	DCD	0xffffffff
	DCD	0xffffffff
	DCD	0xdbf4feff
	DCD	0xa5a5aabd
	DCD	0xa8aca9a6
	DCD	0xfffadfb3
	DCD	0xffffffff
	DCD	0xffffffff
	DCD	0xffffffff
	DCD	0xffffffff
	DCD	0xffffffff
	DCD	0xffffffff
	DCD	0xffffffff
	DCD	0xffffffff
	DCD	0xffffffff
	DCD	0xffffffff
	DCD	0xffffffff
	DCD	0xffffffff
	DCD	0xffffffff
	DCD	0xffffffff
	DCD	0xffffffff
	DCD	0xffffffff
	DCD	0xfbffffff
	DCD	0x8b93b3e3
	DCD	0xfceac199
	DCD	0xffffffff
	DCD	0xa6dbf9ff
	DCD	0xc199898c
	DCD	0xfffffcea
	DCD	0xffffffff
	DCD	0xffffffff
	DCD	0xffffffff
	DCD	0xffffffff
	DCD	0xffffffff
	DCD	0xfafeffff
	DCD	0xd7dae3ef
	DCD	0xeaebe5de
	DCD	0xfffef5e8
	DCD	0xffffffff
	DCD	0xffffffff
	DCD	0xffffffff
	DCD	0xffffffff
	DCD	0xffffffff
	DCD	0xffffffff
	DCD	0xffffffff
	DCD	0xffffffff
	DCD	0xffffffff
	DCD	0xffffffff
	DCD	0xffffffff
	DCD	0xffffffff
	DCD	0xffffffff
	DCD	0xffffffff
	DCD	0xffffffff
	DCD	0xffffffff
	DCD	0xf7ffffff
	DCD	0x2d386ec8
	DCD	0xfad68743
	DCD	0xffffffff
	DCD	0x58b9f3ff
	DCD	0x87432a2e
	DCD	0xfffff9d6
	DCD	0xffffffff
	DCD	0xffffffff
	DCD	0xffffffff
	DCD	0xffffffff
	DCD	0xffffffff
	DCD	0xffffffff
	DCD	0xf9f8fbfd
	DCD	0xfdfdfcfa
	DCD	0xfffffdfd
	DCD	0xffffffff
	DCD	0xffffffff
	DCD	0xffffffff
	DCD	0xffffffff
	DCD	0xffffffff
	DCD	0xffffffff
	DCD	0xffffffff
	DCD	0xffffffff
	DCD	0xffffffff
	DCD	0xffffffff
	DCD	0xffffffff
	DCD	0xffffffff
	DCD	0xffffffff
	DCD	0xffffffff
	DCD	0xffffffff
	DCD	0xffffffff
	DCD	0xf5ffffff
	DCD	0xc1751bb
	DCD	0xf8cc6d21
	DCD	0xfcfcfcfe
	DCD	0x39a9f1fe
	DCD	0x6e220b0e
	DCD	0xfffff8cc
	DCD	0xffffffff
	DCD	0xffffffff
	DCD	0xffffffff
	DCD	0xffffffff
	DCD	0xffffffff
	DCD	0xffffffff
	DCD	0xffffffff
	DCD	0xffffffff
	DCD	0xffffffff
	DCD	0xffffffff
	DCD	0xffffffff
	DCD	0xffffffff
	DCD	0xffffffff
	DCD	0xffffffff
	DCD	0xffffffff
	DCD	0xffffffff
	DCD	0xffffffff
	DCD	0xffffffff
	DCD	0xffffffff
	DCD	0xffffffff
	DCD	0xffffffff
	DCD	0xffffffff
	DCD	0xffffffff
	DCD	0xffffffff
	DCD	0xffffffff
	DCD	0xf4ffffff
	DCD	0x7124db9
	DCD	0xf3cb691c
	DCD	0xe9e1e4ef
	DCD	0x34a7eff6
	DCD	0x6a1c060a
	DCD	0xfffff8cb
	DCD	0xffffffff
	DCD	0xffffffff
	DCD	0xffffffff
	DCD	0xffffffff
	DCD	0xffffffff
	DCD	0xffffffff
	DCD	0xffffffff
	DCD	0xffffffff
	DCD	0xffffffff
	DCD	0xffffffff
	DCD	0xffffffff
	DCD	0xffffffff
	DCD	0xffffffff
	DCD	0xffffffff
	DCD	0xffffffff
	DCD	0xffffffff
	DCD	0xffffffff
	DCD	0xffffffff
	DCD	0xffffffff
	DCD	0xffffffff
	DCD	0xffffffff
	DCD	0xffffffff
	DCD	0xffffffff
	DCD	0xffffffff
	DCD	0xffffffff
	DCD	0xf4ffffff
	DCD	0x8124db9
	DCD	0xe1c86a1c
	DCD	0xa68f98be
	DCD	0x34a7e8d6
	DCD	0x691c0609
	DCD	0xfffff8ca
	DCD	0xffffffff
	DCD	0xffffffff
	DCD	0xffffffff
	DCD	0xffffffff
	DCD	0xffffffff
	DCD	0xffffffff
	DCD	0xffffffff
	DCD	0xffffffff
	DCD	0xffffffff
	DCD	0xffffffff
	DCD	0xffffffff
	DCD	0xffffffff
	DCD	0xffffffff
	DCD	0xffffffff
	DCD	0xffffffff
	DCD	0xffffffff
	DCD	0xffffffff
	DCD	0xffffffff
	DCD	0xffffffff
	DCD	0xffffffff
	DCD	0xffffffff
	DCD	0xffffffff
	DCD	0xffffffff
	DCD	0xffffffff
	DCD	0xffffffff
	DCD	0xf4ffffff
	DCD	0x8124db9
	DCD	0xbec1691c
	DCD	0x4e2f396f
	DCD	0x33a5d69e
	DCD	0x6a1d0609
	DCD	0xfffff9cb
	DCD	0xffffffff
	DCD	0xffffffff
	DCD	0xffffffff
	DCD	0xffffffff
	DCD	0xffffffff
	DCD	0xffffffff
	DCD	0xffffffff
	DCD	0xffffffff
	DCD	0xffffffff
	DCD	0xffffffff
	DCD	0xffffffff
	DCD	0xffffffff
	DCD	0xffffffff
	DCD	0xffffffff
	DCD	0xffffffff
	DCD	0xffffffff
	DCD	0xffffffff
	DCD	0xffffffff
	DCD	0xffffffff
	DCD	0xffffffff
	DCD	0xffffffff
	DCD	0xffffffff
	DCD	0xffffffff
	DCD	0xffffffff
	DCD	0xffffffff
	DCD	0xf4ffffff
	DCD	0x8124cb9
	DCD	0x96b4671c
	DCD	0x200c113c
	DCD	0x34a0bb69
	DCD	0x691d0709
	DCD	0xfffff8cb
	DCD	0xffffffff
	DCD	0xffffffff
	DCD	0xffffffff
	DCD	0xffffffff
	DCD	0xffffffff
	DCD	0xffffffff
	DCD	0xffffffff
	DCD	0xffffffff
	DCD	0xffffffff
	DCD	0xffffffff
	DCD	0xffffffff
	DCD	0xffffffff
	DCD	0xffffffff
	DCD	0xffffffff
	DCD	0xffffffff
	DCD	0xffffffff
	DCD	0xffffffff
	DCD	0xffffffff
	DCD	0xffffffff
	DCD	0xffffffff
	DCD	0xffffffff
	DCD	0xffffffff
	DCD	0xffffffff
	DCD	0xffffffff
	DCD	0xffffffff
	DCD	0xf4ffffff
	DCD	0x8134db9
	DCD	0x6a9c631c
	DCD	0xf030820
	DCD	0x3394973f
	DCD	0x691c060a
	DCD	0xfffff8cb
	DCD	0xffffffff
	DCD	0xffffffff
	DCD	0xffffffff
	DCD	0xffffffff
	DCD	0xffffffff
	DCD	0xffffffff
	DCD	0xffffffff
	DCD	0xffffffff
	DCD	0xffffffff
	DCD	0xffffffff
	DCD	0xffffffff
	DCD	0xffffffff
	DCD	0xffffffff
	DCD	0xffffffff
	DCD	0xffffffff
	DCD	0xffffffff
	DCD	0xffffffff
	DCD	0xffffffff
	DCD	0xffffffff
	DCD	0xffffffff
	DCD	0xffffffff
	DCD	0xffffffff
	DCD	0xffffffff
	DCD	0xffffffff
	DCD	0xffffffff
	DCD	0xf4ffffff
	DCD	0x8124db9
	DCD	0x417d5c1c
	DCD	0xb080712
	DCD	0x2f816d25
	DCD	0x6a1d060a
	DCD	0xfffff9cb
	DCD	0xffffffff
	DCD	0xffffffff
	DCD	0xffffffff
	DCD	0xffffffff
	DCD	0xffffffff
	DCD	0xffffffff
	DCD	0xffffffff
	DCD	0xffffffff
	DCD	0xffffffff
	DCD	0xffffffff
	DCD	0xffffffff
	DCD	0xffffffff
	DCD	0xffffffff
	DCD	0xffffffff
	DCD	0xffffffff
	DCD	0xffffffff
	DCD	0xffffffff
	DCD	0xffffffff
	DCD	0xffffffff
	DCD	0xffffffff
	DCD	0xffffffff
	DCD	0xffffffff
	DCD	0xffffffff
	DCD	0xffffffff
	DCD	0xffffffff
	DCD	0xf5ffffff
	DCD	0x8134db9
	DCD	0x25584c1a
	DCD	0x121a120c
	DCD	0x2a664516
	DCD	0x691d0609
	DCD	0xfffff8cb
	DCD	0xffffffff
	DCD	0xffffffff
	DCD	0xffffffff
	DCD	0xffffffff
	DCD	0xffffffff
	DCD	0xffffffff
	DCD	0xffffffff
	DCD	0xffffffff
	DCD	0xffffffff
	DCD	0xffffffff
	DCD	0xffffffff
	DCD	0xffffffff
	DCD	0xffffffff
	DCD	0xffffffff
	DCD	0xffffffff
	DCD	0xffffffff
	DCD	0xffffffff
	DCD	0xffffffff
	DCD	0xffffffff
	DCD	0xffffffff
	DCD	0xffffffff
	DCD	0xffffffff
	DCD	0xffffffff
	DCD	0xffffffff
	DCD	0xffffffff
	DCD	0xf5ffffff
	DCD	0x8124cb9
	DCD	0x15313616
	DCD	0x284d3212
	DCD	0x1f422713
	DCD	0x691c0608
	DCD	0xfffff9ca
	DCD	0xffffffff
	DCD	0xffffffff
	DCD	0xffffffff
	DCD	0xffffffff
	DCD	0xffffffff
	DCD	0xffffffff
	DCD	0xffffffff
	DCD	0xffffffff
	DCD	0xffffffff
	DCD	0xffffffff
	DCD	0xffffffff
	DCD	0xffffffff
	DCD	0xffffffff
	DCD	0xffffffff
	DCD	0xffffffff
	DCD	0xffffffff
	DCD	0xffffffff
	DCD	0xffffffff
	DCD	0xffffffff
	DCD	0xffffffff
	DCD	0xffffffff
	DCD	0xffffffff
	DCD	0xffffffff
	DCD	0xffffffff
	DCD	0xffffffff
	DCD	0xf4ffffff
	DCD	0x6124db9
	DCD	0xd151c0f
	DCD	0x518b6521
	DCD	0x11201519
	DCD	0x691d0604
	DCD	0xfffff8ca
	DCD	0xffffffff
	DCD	0xffffffff
	DCD	0xffffffff
	DCD	0xffffffff
	DCD	0xffffffff
	DCD	0xffffffff
	DCD	0xffffffff
	DCD	0xffffffff
	DCD	0xffffffff
	DCD	0xffffffff
	DCD	0xffffffff
	DCD	0xffffffff
	DCD	0xffffffff
	DCD	0xffffffff
	DCD	0xffffffff
	DCD	0xffffffff
	DCD	0xffffffff
	DCD	0xffffffff
	DCD	0xffffffff
	DCD	0xffffffff
	DCD	0xffffffff
	DCD	0xffffffff
	DCD	0xffffffff
	DCD	0xffffffff
	DCD	0xffffffff
	DCD	0xf4ffffff
	DCD	0x5124db8
	DCD	0xf090b07
	DCD	0x80c1993b
	DCD	0x70c0e2a
	DCD	0x691c0601
	DCD	0xfffff8cb
	DCD	0xffffffff
	DCD	0xffffffff
	DCD	0xffffffff
	DCD	0xffffffff
	DCD	0xffffffff
	DCD	0xffffffff
	DCD	0xffffffff
	DCD	0xffffffff
	DCD	0xffffffff
	DCD	0xffffffff
	DCD	0xffffffff
	DCD	0xffffffff
	DCD	0xffffffff
	DCD	0xffffffff
	DCD	0xffffffff
	DCD	0xffffffff
	DCD	0xffffffff
	DCD	0xffffffff
	DCD	0xffffffff
	DCD	0xffffffff
	DCD	0xffffffff
	DCD	0xffffffff
	DCD	0xffffffff
	DCD	0xffffffff
	DCD	0xffffffff
	DCD	0xf4ffffff
	DCD	0x3124db8
	DCD	0x1b070301
	DCD	0xace4c263
	DCD	0x1061248
	DCD	0x6a1c0700
	DCD	0xfffff9cb
	DCD	0xffffffff
	DCD	0xffffffff
	DCD	0xffffffff
	DCD	0xffffffff
	DCD	0xffffffff
	DCD	0xffffffff
	DCD	0xffffffff
	DCD	0xffffffff
	DCD	0xffffffff
	DCD	0xffffffff
	DCD	0xffffffff
	DCD	0xffffffff
	DCD	0xffffffff
	DCD	0xffffffff
	DCD	0xffffffff
	DCD	0xffffffff
	DCD	0xffffffff
	DCD	0xffffffff
	DCD	0xffffffff
	DCD	0xffffffff
	DCD	0xffffffff
	DCD	0xffffffff
	DCD	0xffffffff
	DCD	0xffffffff
	DCD	0xffffffff
	DCD	0xf5ffffff
	DCD	0x3124db9
	DCD	0x330c0100
	DCD	0xd1f4e091
	DCD	0x82375
	DCD	0x691c0700
	DCD	0xfffff9cb
	DCD	0xffffffff
	DCD	0xffffffff
	DCD	0xffffffff
	DCD	0xffffffff
	DCD	0xffffffff
	DCD	0xffffffff
	DCD	0xffffffff
	DCD	0xffffffff
	DCD	0xffffffff
	DCD	0xffffffff
	DCD	0xffffffff
	DCD	0xffffffff
	DCD	0xffffffff
	DCD	0xffffffff
	DCD	0xffffffff
	DCD	0xffffffff
	DCD	0xffffffff
	DCD	0xffffffff
	DCD	0xffffffff
	DCD	0xffffffff
	DCD	0xffffffff
	DCD	0xffffffff
	DCD	0xffffffff
	DCD	0xffffffff
	DCD	0xffffffff
	DCD	0xf4ffffff
	DCD	0x4134db8
	DCD	0x56170400
	DCD	0xeafcf2ba
	DCD	0x20f3fa3
	DCD	0x6a1c0700
	DCD	0xfffff8cb
	DCD	0xffffffff
	DCD	0xffffffff
	DCD	0xffffffff
	DCD	0xffffffff
	DCD	0xffffffff
	DCD	0xffffffff
	DCD	0xffffffff
	DCD	0xffffffff
	DCD	0xffffffff
	DCD	0xffffffff
	DCD	0xffffffff
	DCD	0xffffffff
	DCD	0xffffffff
	DCD	0xffffffff
	DCD	0xffffffff
	DCD	0xffffffff
	DCD	0xffffffff
	DCD	0xffffffff
	DCD	0xffffffff
	DCD	0xffffffff
	DCD	0xffffffff
	DCD	0xffffffff
	DCD	0xffffffff
	DCD	0xffffffff
	DCD	0xffffffff
	DCD	0xf4ffffff
	DCD	0xa1751bb
	DCD	0x832e0e09
	DCD	0xf7fffad9
	DCD	0xb2069c8
	DCD	0x6e210b07
	DCD	0xfffff9cc
	DCD	0xffffffff
	DCD	0xffffffff
	DCD	0xffffffff
	DCD	0xffffffff
	DCD	0xffffffff
	DCD	0xffffffff
	DCD	0xffffffff
	DCD	0xffffffff
	DCD	0xffffffff
	DCD	0xffffffff
	DCD	0xffffffff
	DCD	0xffffffff
	DCD	0xffffffff
	DCD	0xffffffff
	DCD	0xffffffff
	DCD	0xffffffff
	DCD	0xffffffff
	DCD	0xffffffff
	DCD	0xffffffff
	DCD	0xffffffff
	DCD	0xffffffff
	DCD	0xffffffff
	DCD	0xffffffff
	DCD	0xffffffff
	DCD	0xffffffff
	DCD	0xf7ffffff
	DCD	0x2a386fc7
	DCD	0xb6603328
	DCD	0xfcfffeee
	DCD	0x2d4e9de3
	DCD	0x87432a27
	DCD	0xfffffad6
	DCD	0xffffffff
	DCD	0xffffffff
	DCD	0xffffffff
	DCD	0xffffffff
	DCD	0xffffffff
	DCD	0xffffffff
	DCD	0xffffffff
	DCD	0xffffffff
	DCD	0xffffffff
	DCD	0xffffffff
	DCD	0xffffffff
	DCD	0xffffffff
	DCD	0xffffffff
	DCD	0xffffffff
	DCD	0xffffffff
	DCD	0xffffffff
	DCD	0xffffffff
	DCD	0xffffffff
	DCD	0xffffffff
	DCD	0xffffffff
	DCD	0xffffffff
	DCD	0xffffffff
	DCD	0xffffffff
	DCD	0xffffffff
	DCD	0xffffffff
	DCD	0xfbffffff
	DCD	0x8892b2e2
	DCD	0xe1b39388
	DCD	0xfffffffa
	DCD	0x8da5d6f6
	DCD	0xc1998987
	DCD	0xfffffcea
	DCD	0xffffffff
	DCD	0xffffffff
	DCD	0xffffffff
	DCD	0xffffffff
	DCD	0xffffffff
	DCD	0xffffffff
	DCD	0xffffffff
	DCD	0xffffffff
	DCD	0xffffffff
	DCD	0xffffffff
	DCD	0xffffffff
	DCD	0xffffffff
	DCD	0xffffffff
	DCD	0xffffffff
	DCD	0xffffffff
	DCD	0xffffffff
	DCD	0xffffffff
	DCD	0xffffffff
	DCD	0xffffffff
	DCD	0xffffffff
	DCD	0xffffffff
	DCD	0xffffffff
	DCD	0xffffffff
	DCD	0xffffffff
	DCD	0xffffffff
	DCD	0xfdffffff
	DCD	0xdde1ebf8
	DCD	0xf8ece1de
	DCD	0xfffffffd
	DCD	0xe0e9f5fd
	DCD	0xefe3dfdd
	DCD	0xfffffffa
	DCD	0xffffffff
	DCD	0xffffffff
	DCD	0xffffffff
	DCD	0xffffffff
	DCD	0xffffffff
	DCD	0xffffffff
	DCD	0xffffffff
	DCD	0xffffffff
	DCD	0xffffffff
	DCD	0xffffffff
	DCD	0xffffffff
	DCD	0xffffffff
	DCD	0xffffffff
	DCD	0xffffffff
	DCD	0xffffffff
	DCD	0xffffffff
	DCD	0xffffffff
	DCD	0xffffffff
	DCD	0xffffffff
	DCD	0xffffffff
	DCD	0xffffffff
	DCD	0xffffffff
	DCD	0xffffffff
	DCD	0xffffffff
	DCD	0xffffffff
	DCD	0xffffffff
	DCD	0xfbfcfcfd
	DCD	0xfffefcfb
	DCD	0xffffffff
	DCD	0xfcfcfdff
	DCD	0xfdfcfbfb
	DCD	0xffffffff
	DCD	0xffffffff
	DCD	0xffffffff
	DCD	0xffffffff
	DCD	0xffffffff
	DCD	0xffffffff
	DCD	0xffffffff
	DCD	0xffffffff
	DCD	0xffffffff
	DCD	0xffffffff
	DCD	0xffffffff
	DCD	0xffffffff
	DCD	0xffffffff
	DCD	0xffffffff
	DCD	0xffffffff
	DCD	0xffffffff
	DCD	0xffffffff
	DCD	0xffffffff
	DCD	0xffffffff
	DCD	0xffffffff
	DCD	0xffffffff
	DCD	0xffffffff
	DCD	0xffffffff
	DCD	0xffffffff
	DCD	0xffffffff
	DCD	0xffffffff
	DCD	0xffffffff
	DCD	0xffffffff
	DCD	0xffffffff
	DCD	0xffffffff
	DCD	0xffffffff
	DCD	0xffffffff
	DCD	0xffffffff
	DCD	0xffffffff
	DCD	0xffffffff
	DCD	0xffffffff
	DCD	0xffffffff
	DCD	0xffffffff
	DCD	0xffffffff
	DCD	0xffffffff
	DCD	0xffffffff
	DCD	0xffffffff
	DCD	0xffffffff
	DCD	0xffffffff
	DCD	0xffffffff
	DCD	0xffffffff
	DCD	0xffffffff
	DCD	0xffffffff
	DCD	0xffffffff
	DCD	0xffffffff
	DCD	0xffffffff
	DCD	0xffffffff
	DCD	0xffffffff
	DCD	0xffffffff
	DCD	0xffffffff
	DCD	0xffffffff
	DCD	0xffffffff
	DCD	0xffffffff
	DCD	0xffffffff
	DCD	0xffffffff
	DCD	0xffffffff
	DCD	0xffffffff
	DCD	0xffffffff
	DCD	0xffffffff
	DCD	0xffffffff
	DCD	0xffffffff
	DCD	0xffffffff
	DCD	0xffffffff
	DCD	0xffffffff
	DCD	0xffffffff
	DCD	0xffffffff
	DCD	0xffffffff
	DCD	0xffffffff
	DCD	0xffffffff
	DCD	0xffffffff
	DCD	0xffffffff
	DCD	0xffffffff
	DCD	0xffffffff
	DCD	0xffffffff
	DCD	0xffffffff
	DCD	0xffffffff
	DCD	0xffffffff
	DCD	0xffffffff
	DCD	0xffffffff
	DCD	0xffffffff
	DCD	0xffffffff
	DCD	0xffffffff
	DCD	0xffffffff
	DCD	0xffffffff
	DCD	0xffffffff
	DCD	0xffffffff
	DCD	0xffffffff
	DCD	0xffffffff
	DCD	0xffffffff
	DCD	0xffffffff
	DCD	0xffffffff
	DCD	0xffffffff
	DCD	0xffffffff
	DCD	0xffffffff
	DCD	0xffffffff
	DCD	0xffffffff
	DCD	0xffffffff
	DCD	0xffffffff
	DCD	0xffffffff
	DCD	0xffffffff
	DCD	0xffffffff
	DCD	0xffffffff
	DCD	0xffffffff
	DCD	0x0
	EXPORT	|??_C@_09EPIHOJKF@mask1?4pvr?$AA@| [ DATA ] ; `string'
	IMPORT	|??0CPVRTMemoryFileSystem@@QAA@PBDPBXI_N@Z| ; CPVRTMemoryFileSystem::CPVRTMemoryFileSystem
; File c:\wince600\public\powervr-sdk\ovg\trainingcourse\20_masklayer\ovg\content\mask1.cpp

  00000			 AREA	 |.pdata|, PDATA
|$T3741| DCD	|$LN5@dynamic|
	DCD	0x40001002

  00000			 AREA	 |.rdata|, DATA, READONLY
|??_C@_09EPIHOJKF@mask1?4pvr?$AA@| DCB "mask1.pvr", 0x0	; `string'
; Function compile flags: /Ogspy

  00000			 AREA	 |.text$yc|, CODE, ARM

  00000		 |??__ERegisterFile_mask1_pvr@@YAXXZ| PROC ; `dynamic initializer for 'RegisterFile_mask1_pvr''

; 93   : static CPVRTMemoryFileSystem RegisterFile_mask1_pvr("mask1.pvr", _mask1_pvr, 16436);

  00000		 |$LN5@dynamic|
  00000	e52de004	 str         lr, [sp, #-4]!
  00004	e24dd004	 sub         sp, sp, #4
  00008		 |$M3738|
  00008	e59f202c	 ldr         r2, [pc, #0x2C]
  0000c	e59f1024	 ldr         r1, [pc, #0x24]
  00010	e59f001c	 ldr         r0, [pc, #0x1C]
  00014	e3a03901	 mov         r3, #1, 18
  00018	e3a0e000	 mov         lr, #0
  0001c	e3833034	 orr         r3, r3, #0x34
  00020	e58de000	 str         lr, [sp]
  00024	eb000000	 bl          |??0CPVRTMemoryFileSystem@@QAA@PBDPBXI_N@Z|
  00028	e28dd004	 add         sp, sp, #4
  0002c	e49de004	 ldr         lr, [sp], #4
  00030	e12fff1e	 bx          lr
  00034		 |$LN6@dynamic|
  00034		 |$LN7@dynamic|
  00034	00000000	 DCD         |RegisterFile_mask1_pvr|
  00038		 |$LN8@dynamic|
  00038	00000000	 DCD         |??_C@_09EPIHOJKF@mask1?4pvr?$AA@|
  0003c		 |$LN9@dynamic|
  0003c	00000000	 DCD         |_mask1_pvr|
  00040		 |$M3739|

			 ENDP  ; |??__ERegisterFile_mask1_pvr@@YAXXZ|, `dynamic initializer for 'RegisterFile_mask1_pvr''


  00000			 AREA	 |.bss|, NOINIT
|RegisterFile_mask1_pvr| % 0x1

  00000			 AREA	 |.CRT$XCU|, DATA
|RegisterFile_mask1_pvr$initializer$| DCD |??__ERegisterFile_mask1_pvr@@YAXXZ|
	END
