 glslcompiler

 Timestamp is 4c9a6d2a (Wed Sep 22 16:55:06 2010)

 Preferred load address is 10000000

 Start         Length     Name                   Class
 0001:00000000 00000004H .CRT$XCA                CODE
 0001:00000004 00000004H .CRT$XCZ                CODE
 0001:00000008 00000004H .CRT$XIA                CODE
 0001:0000000c 00000004H .CRT$XIZ                CODE
 0001:00000010 00000004H .CRT$XPA                CODE
 0001:00000014 00000004H .CRT$XPZ                CODE
 0001:00000018 00000004H .CRT$XTA                CODE
 0001:0000001c 00000004H .CRT$XTZ                CODE
 0001:00000020 00023af5H .rdata                  CODE
 0001:00023b18 00000029H .rdata$debug            CODE
 0001:00023b44 0019bfb4H .text                   CODE
 0001:001bfaf8 000000c4H .xdata                  CODE
 0001:001bfbbc 00000028H .idata$2                CODE
 0001:001bfbe4 00000014H .idata$3                CODE
 0001:001bfbf8 00000134H .idata$4                CODE
 0001:001bfd2c 0000002aH .idata$6                CODE
 0001:001bfd60 000000fcH .edata                  CODE
 0002:00000000 00000134H .idata$5                DATA
 0002:00000134 00000008H .data                   DATA
 0002:0000013c 00000018H .bss                    DATA
 0003:00000000 000049f0H .pdata                  DATA

  Address         Publics by Value              Rva+Base       Lib:Object

 0000:00000000       ___safe_se_handler_count   00000000     <absolute>
 0000:00000000       ___safe_se_handler_table   00000000     <absolute>
 0001:00000000       __xc_a                     10001000     corelib0:crt0init.obj
 0001:00000004       __xc_z                     10001004     corelib0:crt0init.obj
 0001:00000008       __xi_a                     10001008     corelib0:crt0init.obj
 0001:0000000c       __xi_z                     1000100c     corelib0:crt0init.obj
 0001:00000010       __xp_a                     10001010     corelib0:crt0init.obj
 0001:00000014       __xp_z                     10001014     corelib0:crt0init.obj
 0001:00000018       __xt_a                     10001018     corelib0:crt0init.obj
 0001:0000001c       __xt_z                     1000101c     corelib0:crt0init.obj
 0001:0000003c       ??_C@_0BE@KPECNLMJ@UF_ERR_MCPACKFAILED?$AA@ 1000103c     ic2uf.obj
 0001:00000050       ??_C@_0BA@PCFAEJJE@UF_ERR_INTERNAL?$AA@ 10001050     ic2uf.obj
 0001:00000060       ??_C@_0P@MPJKMENK@UF_ERR_GENERIC?$AA@ 10001060     ic2uf.obj
 0001:00000070       ??_C@_0BG@OOKFNMLC@UF_ERR_BLEND_EXCEEDED?$AA@ 10001070     ic2uf.obj
 0001:00000088       ??_C@_0BF@NBNMHGGO@UF_ERR_ADDR_EXCEEDED?$AA@ 10001088     ic2uf.obj
 0001:000000a0       ??_C@_0BH@GDMMMELJ@UF_ERR_INVALID_SRC_MOD?$AA@ 100010a0     ic2uf.obj
 0001:000000b8       ??_C@_0BH@KNBGMFBM@UF_ERR_INVALID_DST_MOD?$AA@ 100010b8     ic2uf.obj
 0001:000000d0       ??_C@_0BH@ENAMFFGF@UF_ERR_INVALID_SRC_REG?$AA@ 100010d0     ic2uf.obj
 0001:000000e8       ??_C@_0BH@IDNGFEMA@UF_ERR_INVALID_DST_REG?$AA@ 100010e8     ic2uf.obj
 0001:00000100       ??_C@_0BG@PDIIDGLP@UF_ERR_INVALID_OPCODE?$AA@ 10001100     ic2uf.obj
 0001:00000118       ??_C@_05DOOICJDG@UF_OK?$AA@ 10001118     ic2uf.obj
 0001:00000224       ??_C@_0L@GELOEMFJ@T?7?$CFlu?0?5?$CFlu?$AA@ 10001224     ic2uf.obj
 0001:00000230       ??_C@_01EEMJAFIK@?6?$AA@   10001230     ic2uf.obj
 0001:00000234       ??_C@_01GPOEFGEJ@?7?$AA@   10001234     ic2uf.obj
 0001:00000238       ??_C@_02DKCKIIND@?$CFs?$AA@ 10001238     ic2uf.obj
 0001:0000023c       ??_C@_0DP@CANAOCGD@GetStructAllocInfo?3?5Failed?5to?5bu@ 1000123c     ic2uf.obj
 0001:00000280       ??_C@_0EI@MKNGDCFP@C?3?2WinCE?2OMAP?2DDK1?45?2eurasia?2too@ 10001280     ic2uf.obj
 0001:000002c8       ??_C@_0CP@DALAOBIH@BuildStructAllocInfo?3?5Failed?5to?5@ 100012c8     ic2uf.obj
 0001:000002f8       ??_C@_0CF@NGIFBMLM@GetTypeAllocInfo?3?5What?8s?5the?5typ@ 100012f8     ic2uf.obj
 0001:00000320       ??_C@_0DE@MILFOEFI@uMemberOffset?5?$DN?$DN?5psStructAlloc?9?$DO@ 10001320     ic2uf.obj
 0001:00000354       ??_C@_0CC@CEGAMBNJ@?$CFs?5Line?5?$CFd?3?5Assertion?5?8?$CFs?8?5fails@ 10001354     ic2uf.obj
 0001:00000378       ??_C@_0BE@MNMAJJGO@psMemberStructAlloc?$AA@ 10001378     ic2uf.obj
 0001:0000038c       ??_C@_0DB@DJAKMAI@BuildStructBaseMembers?3?5Failed?5t@ 1000138c     ic2uf.obj
 0001:000003c0       ??_C@_0DI@KHEAGJID@GLSLToUniflex?3?5Failed?5to?5generat@ 100013c0     ic2uf.obj
 0001:000003f8       ??_C@_0DK@EJGBAIEL@GenerateUniFlexInput?3?5Failed?5to?5@ 100013f8     ic2uf.obj
 0001:00000438       ??_C@_0EK@LCFJBFF@GenerateUniFlexInput?3?5Precision?5@ 10001438     ic2uf.obj
 0001:00000488       ??_C@_0EO@PJIPHCFC@GenerateUniFlexInput?3?5Require?5?$CFd@ 10001488     ic2uf.obj
 0001:000004d8       ??_C@_0CM@BOACPCDO@Shader?5needs?5too?5many?5temporary?5@ 100014d8     ic2uf.obj
 0001:00000504       ??_C@_0CC@OIJICMFO@Shader?5needs?5too?5many?5registers?4@ 10001504     ic2uf.obj
 0001:00000528       ??_C@_0DF@FIGGEAH@GenerateUniFlexInput?3?5Failed?5to?5@ 10001528     ic2uf.obj
 0001:00000560       ??_C@_0CP@ODMECPMI@GenerateUniFlexInput?3?5Failed?5to?5@ 10001560     ic2uf.obj
 0001:00000590       ??_C@_0EA@DJCJJOKK@GenerateUniFlexInput?3?5Failed?5to?5@ 10001590     ic2uf.obj
 0001:000005d0       ??_C@_0DJ@OEFLEICM@GenerateUniFlexInput?3?5Failed?5to?5@ 100015d0     ic2uf.obj
 0001:0000060c       ??_C@_0DJ@GDKNIOLI@GenerateUniFlexInput?3?5Failed?5to?5@ 1000160c     ic2uf.obj
 0001:00000648       ??_C@_0CD@EMNLOIOF@psProg?9?$DOsDest?4uNum?5?$DM?5uMaxRegiste@ 10001648     ic2uf.obj
 0001:0000066c       ??_C@_0BC@OPOODDAD@psFuncEnd?5?$CB?$DN?5NULL?$AA@ 1000166c     ic2uf.obj
 0001:00000680       ??_C@_0DK@GGBMPJCG@psProg?9?$DOeOpCode?5?$DN?$DN?5UFOP_IFC?5?$HM?$HM?5p@ 10001680     ic2uf.obj
 0001:000006c0       ??_C@_0GL@OFNDIOMO@psProg?9?$DOeOpCode?5?$DN?$DN?5UFOP_LOOP?5?$HM?$HM?5@ 100016c0     ic2uf.obj
 0001:0000072c       ??_C@_0CJ@EMMKOKIN@GetChannelsLiveInSource?3?5Unknown@ 1000172c     ic2uf.obj
 0001:00000758       ??_C@_0EE@COMOBIKJ@GetChannelsLiveInSource?3?5LABEL?0?5@ 10001758     ic2uf.obj
 0001:0000079c       ??_C@_09BELNAGNP@uSrc?5?$CB?$DN?51?$AA@ 1000179c     ic2uf.obj
 0001:000007a8       ??_C@_0CO@PAFINABI@GetChannelsLiveInSource?3?5Shouldn@ 100017a8     ic2uf.obj
 0001:000007d8       ??_C@_0DG@LFBIDPGP@GetChannelsLiveInSource?3?5UFOP_M4@ 100017d8     ic2uf.obj
 0001:00000810       ??_C@_0EJ@HJCLMACG@GenerateFrontFacingData?3?5Failed?5@ 10001810     ic2uf.obj
 0001:0000085c       ??_C@_0P@IILMBLMA@gl_FrontFacing?$AA@ 1000185c     ic2uf.obj
 0001:00000870       ??_C@_0GF@FFEONDHA@GenerateFaceSelection?3?5Failed?5to@ 10001870     ic2uf.obj
 0001:000008d8       ??_C@_0BE@CDEHDHPO@gl_PMXSwapFrontFace?$AA@ 100018d8     ic2uf.obj
 0001:000008ec       ??_C@_0DF@DNKPAECH@ProcessICOperand?3?5Failed?5to?5proc@ 100018ec     ic2uf.obj
 0001:00000924       ??_C@_0CM@PGBGGNAM@eInitialRelative?5?$DM?$DN?5UFREG_RELATI@ 10001924     ic2uf.obj
 0001:00000950       ??_C@_0DO@CJGAAAPA@AllocateHWSymbolRegisters?3?5Faile@ 10001950     ic2uf.obj
 0001:00000990       ??_C@_0EC@OFHNNPEF@AllocateHWSymbolRegisters?3?5All?5v@ 10001990     ic2uf.obj
 0001:000009d8       ??_C@_0EE@CKKCICOM@AllocateHWSymbolRegisters?3?5No?5at@ 100019d8     ic2uf.obj
 0001:00000a20       ??_C@_0EH@CFBCMEI@AllocateHWSymbolRegisters?3?5Faile@ 10001a20     ic2uf.obj
 0001:00000a68       ??_C@_0CO@CJENNHEI@AddToIndexableTempList?3?5Failed?5t@ 10001a68     ic2uf.obj
 0001:00000a98       ??_C@_0BC@BIPFDOJP@uNewEnd?5?$DM?$DN?5uStart?$AA@ 10001a98     ic2uf.obj
 0001:00000ab0       ??_C@_0EF@BGCBKMOA@AssignHWSymbolRegisters?3?5Number?5@ 10001ab0     ic2uf.obj
 0001:00000af8       ??_C@_0BG@KDPNGBDN@Unknown?5sampler?5type?6?$AA@ 10001af8     ic2uf.obj
 0001:00000b10       ??_C@_0CP@GMAGJKDF@More?5than?5?$CFd?5samplers?5are?5used?5i@ 10001b10     ic2uf.obj
 0001:00000b40       ??_C@_0BO@NNOEGHCG@psICUFOperand?9?$DOuCompStart?5?$DM?54?$AA@ 10001b40     ic2uf.obj
 0001:00000b60       ??_C@_0BB@OHMDLLJD@uAllocCount?5?$CB?$DN?50?$AA@ 10001b60     ic2uf.obj
 0001:00000b78       ??_C@_0FI@BOJMKFFA@psICUFOperand?9?$DOeRegType?5?$CB?$DN?5UFREG@ 10001b78     ic2uf.obj
 0001:00000bd0       ??_C@_0BJ@KKCFAOLN@uAllocCount?5?$CF?5uCols?5?$DN?$DN?50?$AA@ 10001bd0     ic2uf.obj
 0001:00000bec       ??_C@_0DM@JAFMFAEL@ConvertPrecisionToUFRegFormat?3?5R@ 10001bec     ic2uf.obj
 0001:00000c28       ??_C@_0DM@EKLAJBMD@ConvertPrecisionToUFRegFormat?3?5U@ 10001c28     ic2uf.obj
 0001:00000c64       ??_C@_0DL@KHGMJKDE@GetTemporary?3?5Failed?5to?5add?5temp@ 10001c64     ic2uf.obj
 0001:00000ca0       ??_C@_0DP@KLEFJCDC@GetFixedConst?3?5Failed?5to?5add?5con@ 10001ca0     ic2uf.obj
 0001:00000ce0       ??_C@_0CL@OGMMMDIJ@psUFContext?9?$DOeProgramType?5?$DN?$DN?5GLS@ 10001ce0     ic2uf.obj
 0001:00000d0c       ??_C@_0DD@LCFCGJPL@AddHWSymbolToSymbolList?3?5Failed?5@ 10001d0c     ic2uf.obj
 0001:00000d40       ??_C@_0DF@JENBALJA@AddSymbolToVaryingList?3?5Failed?5t@ 10001d40     ic2uf.obj
 0001:00000d78       ??_C@_0CO@BIIGOJBB@Instruction?5?$CFd?5unsupported?5by?5Un@ 10001d78     ic2uf.obj
 0001:00000da8       ??_C@_0CN@NHDGCGPI@psUFContext?9?$DOeProgramType?5?$DN?$DN?5GLS@ 10001da8     ic2uf.obj
 0001:00000dd8       ??_C@_0EJ@NDABDBFF@GenerateUniFlexInstructions?3?5IC?5@ 10001dd8     ic2uf.obj
 0001:00000e24       ??_C@_0CL@KNEKGDCD@IC?5instruction?5number?5?$DN?5?$CFlu?0?5sou@ 10001e24     ic2uf.obj
 0001:00000e50       ??_C@_0DL@FCBKIGIA@GenerateUniFlexInstructions?3?5Fai@ 10001e50     ic2uf.obj
 0001:00000e8c       ??_C@_0BI@JJCHFIMI@psPredicate?5?$DN?$DN?5IMG_NULL?$AA@ 10001e8c     ic2uf.obj
 0001:00000ea4       ??_C@_0CG@DNINGALH@psSrcA?9?$DOeTypeAfterSwiz?5?$DN?$DN?5GLSLTS@ 10001ea4     ic2uf.obj
 0001:00000ed0       ??_C@_0FB@IPLPECNO@GLSL_IS_VECTOR?$CIpsSrcA?9?$DOeTypeAfte@ 10001ed0     ic2uf.obj
 0001:00000f24       ??_C@_0CH@EFGFIBMA@GLSL_IS_SCALAR?$CIpsSrcB?9?$DOeTypeAfte@ 10001f24     ic2uf.obj
 0001:00000f4c       ??_C@_0CH@OGDDAHGJ@GLSL_IS_SCALAR?$CIpsSrcA?9?$DOeTypeAfte@ 10001f4c     ic2uf.obj
 0001:00000f78       ??_C@_0GA@IOJMJAHI@GenerateFragCoordAdjust?3?5Failed?5@ 10001f78     ic2uf.obj
 0001:00000fd8       ??_C@_0BB@KCHPJACM@gl_PMXInvertdFdY?$AA@ 10001fd8     ic2uf.obj
 0001:00000fec       ??_C@_0BK@BGNLMMDD@Too?5deeply?5nested?5loops?4?6?$AA@ 10001fec     ic2uf.obj
 0001:00001008       ??_C@_0CG@EIMGPCIA@psSampler?9?$DOeRegType?5?$DN?$DN?5UFREG_TYP@ 10002008     ic2uf.obj
 0001:00001030       ??_C@_0DK@LBHOMABL@ProcessICInstMOV?3?5Canot?5construc@ 10002030     ic2uf.obj
 0001:0000106c       ??_C@_0CE@PNIECMPN@psSrcA?9?$DOeRegType?5?$CB?$DN?5UFREG_TYPE_T@ 1000206c     ic2uf.obj
 0001:00001090       ??_C@_0CE@LPHIMHLK@psDest?9?$DOeRegType?5?$CB?$DN?5UFREG_TYPE_T@ 10002090     ic2uf.obj
 0001:000010b4       ??_C@_0CJ@KLBIDKI@psDest?9?$DOiArraySize?5?$DN?$DN?5psSrcA?9?$DOiA@ 100020b4     ic2uf.obj
 0001:000010e0       ??_C@_0DA@EKOBLOMI@uIndex?5?$DM?5?$CIIMG_UINT32?$CJpsArrayOper@ 100020e0     ic2uf.obj
 0001:00001110       ??_C@_0CK@DHFEDOCM@uMemberIndex?5?$DM?5psStructAlloc?9?$DOuN@ 10002110     ic2uf.obj
 0001:0000113c       ??_C@_0DE@LBJGMBAC@psStructOperand?9?$DOsFullType?4uStru@ 1000213c     ic2uf.obj
 0001:00001170       ??_C@_0DA@IFMMGDCD@GLSL_IS_STRUCT?$CIpsStructOperand?9?$DO@ 10002170     ic2uf.obj
 0001:000011a0       ??_C@_0CM@ENMGKJLP@AddArrayComparison?3?5Failed?5to?5ge@ 100021a0     ic2uf.obj
 0001:000011cc       ??_C@_0CN@NKKHJNDO@AddArrayComparison?3?5Failed?5to?5ge@ 100021cc     ic2uf.obj
 0001:00001200       ??_C@_0EE@DLNCDEGM@IC2UF_GetPredicate?3?5Failed?5to?5ad@ 10002200     ic2uf.obj
 0001:00001244       ??_C@_0CH@BCJHAFGH@TYPESPECIFIER_NUM_ROWS?$CIeDestType@ 10002244     ic2uf.obj
 0001:0000126c       ??_C@_0CH@FEDBGHPA@TYPESPECIFIER_NUM_COLS?$CIeDestType@ 1000226c     ic2uf.obj
 0001:00001294       ??_C@_0CH@DBLFMMHL@TYPESPECIFIER_NUM_ROWS?$CIeSrcBType@ 10002294     ic2uf.obj
 0001:000012bc       ??_C@_0BK@CBDDDNKG@GLSL_IS_MATRIX?$CIeDestType?$CJ?$AA@ 100022bc     ic2uf.obj
 0001:000012d8       ??_C@_0EN@OFKFAKOL@TYPESPECIFIER_NUM_COMPONENTS?$CIeDe@ 100022d8     ic2uf.obj
 0001:00001328       ??_C@_0DB@GJKHGGIM@TYPESPECIFIER_NUM_COMPONENTS?$CIeSr@ 10002328     ic2uf.obj
 0001:0000135c       ??_C@_0CE@FMGKNCPE@ProcessICInstMUL?3?5What?5type?5is?5i@ 1000235c     ic2uf.obj
 0001:00001380       ??_C@_0DB@EKIODFML@TYPESPECIFIER_NUM_COMPONENTS?$CIeDe@ 10002380     ic2uf.obj
 0001:000013b4       ??_C@_0DB@NJMCANN@TYPESPECIFIER_NUM_COMPONENTS?$CIeSr@ 100023b4     ic2uf.obj
 0001:000013e8       ??_C@_0BK@HKPGAKJG@GLSL_IS_VECTOR?$CIeDestType?$CJ?$AA@ 100023e8     ic2uf.obj
 0001:00001404       ??_C@_0DB@NLPFOHMH@AddWholeTypeComparision?3?5Failed?5@ 10002404     ic2uf.obj
 0001:00001438       ??_C@_0CE@OOKMBFIO@psSrcB?9?$DOeRegType?5?$CB?$DN?5UFREG_TYPE_T@ 10002438     ic2uf.obj
 0001:0000145c       ??_C@_0CJ@ODOMEDCA@psSrcA?9?$DOiArraySize?5?$DN?$DN?5psSrcB?9?$DOiA@ 1000245c     ic2uf.obj
 0001:00001488       ??_C@_0DB@IHGIKGDD@psSrcA?9?$DOeTypeAfterSwiz?5?$DN?$DN?5psSrcB@ 10002488     ic2uf.obj
 0001:000014bc       ??_C@_0CO@PJJHEABP@AddArrayComparison?3?5Failed?5to?5ge@ 100024bc     ic2uf.obj
 0001:000014ec       ??_C@_0CO@MHNCMEMO@AddArrayComparison?3?5Failed?5to?5ge@ 100024ec     ic2uf.obj
 0001:0000151c       ??_C@_0BF@CBEJDHFG@Too?5many?5functions?4?6?$AA@ 1000251c     ic2uf.obj
 0001:00001538       ??_C@_0EC@GDCDOOIO@GenerateBackEndOutputs?3?5Failed?5t@ 10002538     ic2uf.obj
 0001:00001580       ??_C@_0EH@BEKEFMKH@GenerateBackEndOutputs?3?5Failed?5t@ 10002580     ic2uf.obj
 0001:000015c8       ??_C@_0EE@HNPCEBAI@GenerateColorOutput?3?5Failed?5to?5f@ 100025c8     ic2uf.obj
 0001:0000160c       ??_C@_0M@LAALAFHL@gl_FragData?$AA@ 1000260c     ic2uf.obj
 0001:00001618       ??_C@_0EF@HNCIHAJP@GenerateColorOutput?3?5Failed?5to?5f@ 10002618     ic2uf.obj
 0001:00001660       ??_C@_0N@OHGIGEGG@gl_FragColor?$AA@ 10002660     ic2uf.obj
 0001:00001670       ??_C@_0DG@BDLEFIAL@GenerateZOutput?3?5Failed?5to?5Find?5@ 10002670     ic2uf.obj
 0001:000016a8       ??_C@_0N@KEMBCBC@gl_FragDepth?$AA@ 100026a8     ic2uf.obj
 0001:000016b8       ??_C@_0DD@EPPHAPA@ProcessICInstSANY?3?5What?5is?5the?5n@ 100026b8     ic2uf.obj
 0001:000016ec       ??_C@_0DF@HAGMPJGJ@ProcessICInstDOT?3?5Source?5should?5@ 100026ec     ic2uf.obj
 0001:00001724       ??_C@_0CE@KHCCIGHP@eSrcAType?5?$DN?$DN?5psSrcB?9?$DOeTypeAfterS@ 10002724     ic2uf.obj
 0001:00001748       ??_C@_0DO@NBEKGCNO@GetFixedConst?3?5Failed?5to?5add?5con@ 10002748     ic2uf.obj
 0001:00001788       ??_C@_0CP@NNBPOOKC@ProcessICInstCROSS?3?5Failed?5to?5ge@ 10002788     ic2uf.obj
 0001:000017b8       ??_C@_0EG@GJHOLFLI@CreateUniFlexContext?3?5Failed?5to?5@ 100027b8     ic2uf.obj
 0001:00001800       ??_C@_0DC@LBMPPKFN@InitialiseHWSymbolTable?3?5Failed?5@ 10002800     ic2uf.obj
 0001:00001834       ??_C@_0DB@CDIAGPCB@PrepareUFCodeOutput?3?5Failed?5to?5a@ 10002834     ic2uf.obj
 0001:00001868       ??_C@_0EA@JMHCPLNB@PostGenerateUniFlexCode?3?5Failed?5@ 10002868     ic2uf.obj
 0001:000018a8       ??_C@_0GD@PFDPBPEE@GenerateFragCoordAdjust?3?5Failed?5@ 100028a8     ic2uf.obj
 0001:0000190c       ??_C@_0BA@DPBMNHEM@gl_PMXPosAdjust?$AA@ 1000290c     ic2uf.obj
 0001:00001920       ??_C@_0EH@EOHPMHCF@GenerateFrontFacingData?3?5Failed?5@ 10002920     ic2uf.obj
 0001:00001968       ??_C@_0N@PNLLEOHM@gl_FragCoord?$AA@ 10002968     ic2uf.obj
 0001:00001978       ??_C@_0DE@HKGKPPFM@psUFContext?9?$DOeActiveVaryingMask?5@ 10002978     ic2uf.obj
 0001:000019b0       ??_C@_0EE@EKLMLLPD@AllocateAllUFRegisters?3?5IC?5instr@ 100029b0     ic2uf.obj
 0001:000019f4       ??_C@_0DK@LLIDLCJD@AllocateAllUFRegisters?3?5Failed?5t@ 100029f4     ic2uf.obj
 0001:00001a30       ??_C@_0DA@BBNGAJBP@AllocateAllUFRegisters?3?5Failed?5t@ 10002a30     ic2uf.obj
 0001:00001a60       ??_C@_0DP@HFIIANIA@AllocateAllVaryings?3?5Registers?5f@ 10002a60     ic2uf.obj
 0001:00001aa0       ??_C@_0DP@MBGLODI@AllocateAllVaryings?3?5Failed?5to?5a@ 10002aa0     ic2uf.obj
 0001:00001ae0       ??_C@_0BO@KPIMGECL@Failed?5to?5allocate?5varyings?4?6?$AA@ 10002ae0     ic2uf.obj
 0001:00001afe       ??_C@_00CNPNBAHC@?$AA@     10002afe     ic2uf.obj
 0001:00001b00       ??_C@_0CI@MCNBBHDP@eProgramFlags?5?$CG?5GLSLPF_DISCARD_E@ 10002b00     ic2uf.obj
 0001:00001b28       ??_C@_0EA@ENEBEJGD@GenerateHWCode?3?5Failed?5to?5compil@ 10002b28     ic2uf.obj
 0001:00001b68       ??_C@_0DA@OBBEPOIA@GenerateUniFlexOutput?3?5Failed?5to@ 10002b68     ic2uf.obj
 0001:00001b98       ??_C@_01GFHCPBMG@C?$AA@    10002b98     glsl2uf.obj
 0001:00001ba0       ??_C@_0EE@GMMBJKGC@GLSLCompileUniflexProgram?3?5Faile@ 10002ba0     glsl2uf.obj
 0001:00001be8       ??_C@_0FA@KGENMBDI@GLSLCompileUniflexProgram?3?5Faile@ 10002be8     glsl2uf.obj
 0001:00001c38       ??_C@_0DH@DCPGDANK@GLSLToUniflex?3?5Failed?5to?5generat@ 10002c38     glsl2uf.obj
 0001:00001c70       ??_C@_0DG@NAJABDKP@GLSLToUniflex?3?5Failed?5to?5generat@ 10002c70     glsl2uf.obj
 0001:00001ca8       ??_C@_0DB@CMOHCBEH@GLSLToUniflex?3?5No?5uniflex?5hw?5cod@ 10002ca8     glsl2uf.obj
 0001:00001ce0       ??_C@_0EB@NHGECIJ@?9?9?5Timing?5metrics?5are?5meaningles@ 10002ce0     glsl2uf.obj
 0001:00001d24       ??_C@_0CP@DJMIBCGF@?9?9?5Compiler?5built?5with?5debugging@ 10002d24     glsl2uf.obj
 0001:00001d54       ??_C@_0CC@JGNLBOJP@?6?9?9?5Source?5Info?5?$CIDEBUG?5Build?$CJ?5?9?9@ 10002d54     glsl2uf.obj
 0001:00001d78       ??_C@_0DD@KKCNLKAH@Binding?5symbol?5for?5depth?5texture@ 10002d78     bindingsym.obj
 0001:00001db0       ??_C@_0EJ@ELBHNCBC@GenerateBindingSymbolList?3?5Faile@ 10002db0     bindingsym.obj
 0001:00001e00       ??_C@_0EP@CIOGNCCI@GenerateBindingSymbolList?3?5Faile@ 10002e00     bindingsym.obj
 0001:00001e50       ??_C@_0FF@NJNJKBJF@GenerateBindingSymbolList?3?5Faile@ 10002e50     bindingsym.obj
 0001:00001ea8       ??_C@_0EP@LBOCGMFB@GenerateBindingSymbolList?3?5Faile@ 10002ea8     bindingsym.obj
 0001:00001ef8       ??_C@_0EA@FKJGDNFK@ProcessHWSymbolEntry?3?5Number?5of?5@ 10002ef8     bindingsym.obj
 0001:00001f38       ??_C@_0CN@ODMMPLDJ@ProcessHWSymbolEntry?3?5Failed?5to?5@ 10002f38     bindingsym.obj
 0001:00001f68       ??_C@_0DN@JONEIODI@ProcessHWSymbolEntry?3?5Failed?5to?5@ 10002f68     bindingsym.obj
 0001:00001fa8       ??_C@_0EN@CBBGEECP@C?3?2WinCE?2OMAP?2DDK1?45?2eurasia?2too@ 10002fa8     bindingsym.obj
 0001:00001ff8       ??_C@_0EJ@CODFDJAH@AddTopLevelBindingSymbols?3?5Faile@ 10002ff8     bindingsym.obj
 0001:00002048       ??_C@_0EF@CIPFHPNA@AddTopLevelBindingSymbols?3?5Faile@ 10003048     bindingsym.obj
 0001:00002090       ??_C@_0DN@JEFGEPLO@psHWSymbol?9?$DOiArraySize?5?$DN?$DN?5psIden@ 10003090     bindingsym.obj
 0001:000020d0       ??_C@_0BM@FIKPOBBO@psHWSymbol?9?$DOiArraySize?5?$DN?$DN?50?$AA@ 100030d0     bindingsym.obj
 0001:000020f0       ??_C@_0EL@NEFBGNIP@RecursivelyAddStructMembers?3?5Fai@ 100030f0     bindingsym.obj
 0001:0000213c       ??_C@_06HLGAHHGE@?$FL?$CFlu?$FN?4?$AA@ 1000313c     bindingsym.obj
 0001:00002144       ??_C@_01LFCBOECM@?4?$AA@   10003144     bindingsym.obj
 0001:00002148       ??_C@_0EL@HGLPHIID@InitSymbolTableManager?3?5Failed?5t@ 10003148     glsl_parser:symtab.obj
 0001:00002198       ??_C@_0FH@IHCDAJBO@DestroySymbolTableManager?3?5Symbo@ 10003198     glsl_parser:symtab.obj
 0001:000021f0       ??_C@_0DJ@KNANBFCM@CreateSymTable?3?5Failed?5to?5attach@ 100031f0     glsl_parser:symtab.obj
 0001:00002230       ??_C@_0ED@NFJNNIJD@CreateSymTable?3?5Failed?5to?5alloca@ 10003230     glsl_parser:symtab.obj
 0001:00002274       ??_C@_0DL@EHIGGBIM@CreateSymTable?3?5Failed?5to?5alloca@ 10003274     glsl_parser:symtab.obj
 0001:000022b0       ??_C@_0EA@MKBCKEAL@CreateSymTable?3?5Multiple?5levels?5@ 100032b0     glsl_parser:symtab.obj
 0001:000022f0       ??_C@_0IA@JANELADI@AttachSymbolTableToContext?3?5All?5@ 100032f0     glsl_parser:symtab.obj
 0001:00002370       ??_C@_0GB@HDBHKKIB@AttachSymbolTableToContext?3?5Not?5@ 10003370     glsl_parser:symtab.obj
 0001:000023d8       ??_C@_0EH@OLKPPEHB@DestroySymTable?3?5No?5deconstructo@ 100033d8     glsl_parser:symtab.obj
 0001:00002420       ??_C@_0EF@KLJJOKLH@GetSymbolData?3?5Failed?5to?5get?5sym@ 10003420     glsl_parser:symtab.obj
 0001:00002468       ??_C@_0CN@EEIADDLE@GetSymbolTableEntry?3?5Symbol?5alre@ 10003468     glsl_parser:symtab.obj
 0001:00002498       ??_C@_0CP@BMANBHCL@CheckSymbolID?3?5Symbol?5ID?5out?5of?5@ 10003498     glsl_parser:symtab.obj
 0001:000024c8       ??_C@_0CP@MEKFNAIJ@GetSymbolTableEntry?3?5Invalid?5sym@ 100034c8     glsl_parser:symtab.obj
 0001:000024f8       ??_C@_0CH@KBCEOBLB@Failed?5to?5alloc?5memory?5for?5symbo@ 100034f8     glsl_parser:symtab.obj
 0001:00002520       ??_C@_0CF@OJJMCKHP@Symbol?5already?5exists?5with?5name?5@ 10003520     glsl_parser:symtab.obj
 0001:00002548       ??_C@_0DE@IILLIEFC@Symbol?5with?5duplicate?5name?5has?5d@ 10003548     glsl_parser:symtab.obj
 0001:00002580       ??_C@_0HE@DELHOLJB@uScopeLevel?5to?5large?5to?5fit?5insi@ 10003580     glsl_parser:symtab.obj
 0001:000025f8       ??_C@_0HJ@MMGACHII@uDataSizeInBytes?5to?5large?5to?5fit@ 100035f8     glsl_parser:symtab.obj
 0001:00002678       ??_C@_0HC@ELBABODG@uRefCount?5to?5large?5to?5fit?5inside@ 10003678     glsl_parser:symtab.obj
 0001:000026ec       ??_C@_0DP@CAFNKPNL@IncreaseSymbolReferenceCount?3?5Fa@ 100036ec     glsl_parser:symtab.obj
 0001:0000272c       ??_C@_0DB@MFODJOCI@Failed?5to?5resize?5memory?5for?5symb@ 1000372c     glsl_parser:symtab.obj
 0001:00002760       ??_C@_0DD@EBDDFCDF@Maximum?5table?5size?5reached?5no?5mo@ 10003760     glsl_parser:symtab.obj
 0001:00002794       ??_C@_0CP@HGJJHLKH@RemoveSymbol?3?5Failed?5to?5get?5symb@ 10003794     glsl_parser:symtab.obj
 0001:000027c4       ??_C@_0DO@HOBEBBEG@GetSymbolName?3?5Failed?5to?5get?5sym@ 100037c4     glsl_parser:symtab.obj
 0001:00002804       ??_C@_0BP@HNBKCAIH@?$EA?9?9?9?9?5ScopeModifer?5?$CF03lu?5?9?9?9?9?$EA?$AA@ 10003804     glsl_parser:symtab.obj
 0001:00002828       ??_C@_0EC@MFJDFEP@DecreaseScopeLevel?3?5Error?5cannot@ 10003828     glsl_parser:symtab.obj
 0001:00002870       ??_C@_0EL@LBINPMDP@GetSymbolScopeLevel?3?5Failed?5to?5g@ 10003870     glsl_parser:symtab.obj
 0001:000028bc       ??_C@_0CB@JIKKEGHA@Only?5available?5for?5debug?5builds?6@ 100038bc     glsl_parser:memmgr.obj
 0001:000028e0       ??_C@_0BF@MDDBEPGO@?9?9?5Memory?5Stats?5?9?9?5?6?$AA@ 100038e0     glsl_parser:memmgr.obj
 0001:000028f8       ??_C@_08JOBPMCNE@?$CFlu?5?3?5?$CFs?$AA@ 100038f8     glsl_parser:memmgr.obj
 0001:00002904       ??_C@_0BG@MDPGNAHB@?$CFlu?3?$CFlu?3?$CFlu?5?8?$CF?4?$CKs?8?5?9?5?$AA@ 10003904     glsl_core:error.obj
 0001:0000291c       ??_C@_0M@NGDHCOFD@INTERNAL?5?9?5?$AA@ 1000391c     glsl_core:error.obj
 0001:00002928       ??_C@_06DJHOIPC@?$CFs?3?5?$CFs?$AA@ 10003928     glsl_core:error.obj
 0001:00002930       ??_C@_0BA@FOHKMLP@?$CFs?3?5?$CFlu?3?$CFlu?3?5?$CFs?$AA@ 10003930     glsl_core:error.obj
 0001:00002940       ??_C@_0DN@JELAFKAN@LogErrorMessageBuffer?3?5Failed?5to@ 10003940     glsl_core:error.obj
 0001:00002980       ??_C@_07NFANNNEC@UNKNOWN?$AA@ 10003980     glsl_core:error.obj
 0001:00002988       ??_C@_07KCOHIFOP@WARNING?$AA@ 10003988     glsl_core:error.obj
 0001:00002990       ??_C@_05MBDEGLCK@ERROR?$AA@ 10003990     glsl_core:error.obj
 0001:00002998       ??_C@_08MLFDIMPC@INTERNAL?$AA@ 10003998     glsl_core:error.obj
 0001:000029a4       ??_C@_0CF@MBAJOMCD@Failed?5to?5create?5node?5?$CI?$CFs?5line?3?$CF@ 100039a4     glsl_core:common.obj
 0001:000029cc       ??_C@_0CE@EBMDJKDP@Failed?5to?5alloc?5node?5?$CI?$CFs?5line?3?$CFl@ 100039cc     glsl_core:common.obj
 0001:000029f0       ??_C@_0FJ@OPHEHPPL@ASTCreateNodeChildrenFn?3?5Failed?5@ 100039f0     glsl_core:common.obj
 0001:00002a50       ??_C@_0EF@GDHCKCDP@ASTCreateNodeChildrenFn?3?5Child?5c@ 10003a50     glsl_core:common.obj
 0001:00002a98       ??_C@_0EH@CMBPNJBH@AddIdenitiferDataToTable?3?5Failed@ 10003a98     glsl_core:common.obj
 0001:00002ae0       ??_C@_0FA@OEHDJMIN@AddIdenitiferDataToTable?3?5Failed@ 10003ae0     glsl_core:common.obj
 0001:00002b30       ??_C@_0EP@ELKEHOPN@AddIdenitiferDataToTable?3?5Symbol@ 10003b30     glsl_core:common.obj
 0001:00002b80       ??_C@_0EH@DEABCOCN@AddIdenitiferDataToTable?3?5Failed@ 10003b80     glsl_core:common.obj
 0001:00002bc8       ??_C@_0EG@EGKHGPC@C?3?2WinCE?2OMAP?2DDK1?45?2eurasia?2too@ 10003bc8     glsl_core:common.obj
 0001:00002c10       ??_C@_0DI@EJHPLIIA@AddBoolConstant?3?5Precision?5for?5b@ 10003c10     glsl_core:common.obj
 0001:00002c48       ??_C@_05LAPONLG@false?$AA@ 10003c48     glsl_core:common.obj
 0001:00002c50       ??_C@_04LOAJBDKD@true?$AA@ 10003c50     glsl_core:common.obj
 0001:00002c58       ??_C@_0CP@NOJBKPEH@AddIntConstant?3?5Unrecognised?5pre@ 10003c58     glsl_core:common.obj
 0001:00002c88       ??_C@_03JALODAI@?$CFld?$AA@ 10003c88     glsl_core:common.obj
 0001:00002c8c       ??_C@_08NLCFPDJC@?$CFld_high?$AA@ 10003c8c     glsl_core:common.obj
 0001:00002c98       ??_C@_07MILKPHNF@?$CFld_med?$AA@ 10003c98     glsl_core:common.obj
 0001:00002ca0       ??_C@_07BMHOFEPE@?$CFld_low?$AA@ 10003ca0     glsl_core:common.obj
 0001:00002ca8       ??_C@_0DB@FOLMFBM@AddFloatConstant?3?5Unrecognised?5p@ 10003ca8     glsl_core:common.obj
 0001:00002cdc       ??_C@_02NJPGOMH@?$CFf?$AA@ 10003cdc     glsl_core:common.obj
 0001:00002ce0       ??_C@_07DBCFDHFG@?$CFf_high?$AA@ 10003ce0     glsl_core:common.obj
 0001:00002ce8       ??_C@_06BNDJAKFB@?$CFf_med?$AA@ 10003ce8     glsl_core:common.obj
 0001:00002cf0       ??_C@_06MJPNKJHA@?$CFf_low?$AA@ 10003cf0     glsl_core:common.obj
 0001:00002cf8       ??_C@_0DN@IMDBPBEE@AddGenericData?3?5Failed?5to?5add?5da@ 10003cf8     glsl_core:common.obj
 0001:00002d38       ??_C@_0DF@GOGMGAFI@AddGenericData?3?5Symbol?5data?5type@ 10003d38     glsl_core:common.obj
 0001:00002d70       ??_C@_0DN@JECPAGHO@AddGenericData?3?5Failed?5to?5alloca@ 10003d70     glsl_core:common.obj
 0001:00002db0       ??_C@_0GJ@CNLGIGME@AddIdentifierData?3?5?$CFs?0?$CFd?5L?5Value@ 10003db0     glsl_core:common.obj
 0001:00002e20       ??_C@_0GO@JEKKIKLL@AddIdentifierData?3?5?$CFs?0?$CFd?5L?5Value@ 10003e20     glsl_core:common.obj
 0001:00002e90       ??_C@_0FE@PAKCICPN@AddIdentifierData?3?5?$CFs?0?$CFd?5Param?5q@ 10003e90     glsl_core:common.obj
 0001:00002ee8       ??_C@_0FA@GJHNDJNI@AddIdentifierData?3?5?$CFs?0?$CFd?5Constan@ 10003ee8     glsl_core:common.obj
 0001:00002f38       ??_C@_0EP@BGMBIOA@AddIdentifierData?3?5?$CFs?0?$CFd?5Constan@ 10003f38     glsl_core:common.obj
 0001:00002f88       ??_C@_0GA@JCCCNFNK@CheckIdentifierData?3?5?$CFs?0?$CFd?5?8?$CFs?8?5@ 10003f88     glsl_core:common.obj
 0001:00002fe8       ??_C@_0EK@GJLDJMC@CheckIdentifierData?3?5?$CFs?0?$CFd?5?8?$CFs?8?5@ 10003fe8     glsl_core:common.obj
 0001:00003038       ??_C@_0ED@HKDDIPKA@CheckIdentifierData?3?5?$CFs?0?$CFd?5?8?$CFs?8?5@ 10004038     glsl_core:common.obj
 0001:00003080       ??_C@_0EI@GPKOCCLC@CheckIdentifierData?3?5?$CFs?0?$CFd?5?8?$CFs?8?5@ 10004080     glsl_core:common.obj
 0001:000030c8       ??_C@_0FH@IENOJOFO@CheckIdentifierData?3?5?$CFs?0?$CFd?5?8?$CFs?8?5@ 100040c8     glsl_core:common.obj
 0001:00003120       ??_C@_0EK@NLDNBED@CheckIdentifierData?3?5?$CFs?0?$CFd?5?8?$CFs?8?5@ 10004120     glsl_core:common.obj
 0001:00003170       ??_C@_0ED@BNLINJDN@CheckIdentifierData?3?5?$CFs?0?$CFd?5?8?$CFs?8?5@ 10004170     glsl_core:common.obj
 0001:000031b8       ??_C@_0ED@GMHLNBCI@CheckIdentifierData?3?5?$CFs?0?$CFd?5?8?$CFs?8?5@ 100041b8     glsl_core:common.obj
 0001:00003200       ??_C@_0KB@BDNDMLIH@?$CIIMG_UINT32?$CJpsIdentifierData?9?$DOsF@ 10004200     glsl_core:common.obj
 0001:000032a8       ??_C@_0EI@OECGCFEF@CheckIdentifierData?3?5?$CFs?0?$CFd?5?8?$CFs?8?5@ 100042a8     glsl_core:common.obj
 0001:000032f0       ??_C@_0EL@GALAGNDC@AddParameterDatafn?3?5?$CFs?0?$CFd?5Builit@ 100042f0     glsl_core:common.obj
 0001:00003340       ??_C@_0FM@EFEPBHIH@AddParameterData?3?5?$CFs?0?$CFd?5L?5Value?5@ 10004340     glsl_core:common.obj
 0001:000033a0       ??_C@_0FM@LNJOAK@AddParameterData?3?5?$CFs?0?$CFd?5L?5Value?5@ 100043a0     glsl_core:common.obj
 0001:00003400       ??_C@_0FA@BDBCMPOK@AddParameterData?3?5?$CFs?0?$CFd?5L?5This?5v@ 10004400     glsl_core:common.obj
 0001:00003450       ??_C@_0EO@IGPOIKGL@AddParameterData?3?5?$CFs?0?$CFd?5L?5This?5t@ 10004450     glsl_core:common.obj
 0001:000034a0       ??_C@_0EO@DGCKNKGJ@AddParameterData?3?5?$CFs?0?$CFd?5Param?5qu@ 100044a0     glsl_core:common.obj
 0001:000034f0       ??_C@_0DO@CEDGMKBD@AddFunctionDefinitionData?3?5Faile@ 100044f0     glsl_core:common.obj
 0001:00003530       ??_C@_0DH@CDLPBJMM@AddFunctionDefinitionData?3?5Symbo@ 10004530     glsl_core:common.obj
 0001:00003568       ??_C@_0EG@KGGOBNFG@AddFunctionDefinitionData?3?5Funct@ 10004568     glsl_core:common.obj
 0001:000035b0       ??_C@_0FD@EOFBGNJL@AddFunctionDefinitionData?3?5Faile@ 100045b0     glsl_core:common.obj
 0001:00003608       ??_C@_0EF@LHGMPGDI@ASTProcessStructSpecifier?3?5Faile@ 10004608     glsl_core:common.obj
 0001:00003650       ??_C@_06PIKJLJJK@cst?$EA?$CFs?$AA@ 10004650     glsl_core:common.obj
 0001:00003658       ??_C@_0EG@PKDCOIKF@ASTProcessStructSpecifier?3?5Faile@ 10004658     glsl_core:common.obj
 0001:000036a0       ??_C@_0M@DADOMJOJ@cst_p?$CFlu?$EA?$CFs?$AA@ 100046a0     glsl_core:common.obj
 0001:000036b0       ??_C@_0EJ@NPICIFCH@ASTProcessStructSpecifier?3?5Faile@ 100046b0     glsl_core:common.obj
 0001:000036fc       ??_C@_09IDPEJOHI@cst_rv?$EA?$CFs?$AA@ 100046fc     glsl_core:common.obj
 0001:00003708       ??_C@_0ED@NEMLFAPM@ASTCreateStructureNode?3?5Failed?5t@ 10004708     glsl_core:common.obj
 0001:0000374c       ??_C@_0CD@LPLBODBK@?8?$CFs?8?5?3?5?8struct?8?5type?5redefinitio@ 1000474c     glsl_core:common.obj
 0001:00003770       ??_C@_0O@KLAILGIL@?$CFs?$EAstruct_def?$AA@ 10004770     glsl_core:common.obj
 0001:00003780       ??_C@_0DC@LCOJIAGM@?8struct?8?5?3?5duplicate?5field?5name?5@ 10004780     glsl_core:common.obj
 0001:000037b4       ??_C@_0DP@NPJAIMJO@AddStructureDefinitionData?3?5Fail@ 100047b4     glsl_core:common.obj
 0001:000037f4       ??_C@_0DI@LJJMKIM@AddStructureDefinitionData?3?5Symb@ 100047f4     glsl_core:common.obj
 0001:0000382c       ??_C@_0DH@CAIKLPHD@AddStructureDefinitionData?3?5Stru@ 1000482c     glsl_core:common.obj
 0001:00003868       ??_C@_0FF@GGJCLPGK@AddStructureDefinitionData?3?5Fail@ 10004868     glsl_core:common.obj
 0001:000038c0       ??_C@_0EI@NFFBLGIB@?$CFs?3?$CFd?5?9?5GetSymbolTableDatafn?3?5Ex@ 100048c0     glsl_core:common.obj
 0001:00003908       ??_C@_0FD@HDMLHAEB@?$CFs?3?$CFd?5?9?5GetSymbolTableDatafn?3?5Fa@ 10004908     glsl_core:common.obj
 0001:0000395c       ??_C@_0CP@ONMOKBJK@?$CFs?3?$CFd?5?9?5GetSymbolTableDatafn?3?5Sy@ 1000495c     glsl_core:common.obj
 0001:0000398c       ??_C@_05DNIIFBMG@?$CFs?5?$CFs?$AA@ 1000498c     glsl_core:common.obj
 0001:00003994       ??_C@_03IKGEINEE@?$CFs?5?$AA@ 10004994     glsl_core:common.obj
 0001:00003998       ??_C@_09GIMGMFEA@array?5of?5?$AA@ 10004998     glsl_core:common.obj
 0001:000039a4       ??_C@_0CJ@DCLDDLCL@Symbol?5data?5type?5?$CFd?5had?5bad?5stru@ 100049a4     glsl_core:common.obj
 0001:000039d0       ??_C@_0DM@CKJCMFB@GetSymbolInfo?3?5?$CI?$CFs?0?$CFd?$CJUnrecognis@ 100049d0     glsl_core:common.obj
 0001:00003a10       ??_C@_0EO@ILIJABOJ@GetSymbolInfo?3?5Don?8t?5think?5it?8s?5@ 10004a10     glsl_core:common.obj
 0001:00003a60       ??_C@_0DN@ENLJAKNK@GetSymbolInfofn?3?5Found?5dodgy?5pre@ 10004a60     glsl_core:common.obj
 0001:00003aa0       ??_C@_0DC@LINALDMG@?$CFs?3?$CFd?5?9?5GetSymbolInfofn?3?5Failed?5@ 10004aa0     glsl_core:common.obj
 0001:00003ad4       ??_C@_0BB@NDENLPKD@array?5size?5fixed?$AA@ 10004ad4     glsl_core:glsltabs.obj
 0001:00003ae8       ??_C@_0BF@DPBHHNMA@array?5size?5non?5fixed?$AA@ 10004ae8     glsl_core:glsltabs.obj
 0001:00003b00       ??_C@_09NOOGDAF@non?9array?$AA@ 10004b00     glsl_core:glsltabs.obj
 0001:00003b0c       ??_C@_07PBJKAAPN@l?9value?$AA@ 10004b0c     glsl_core:glsltabs.obj
 0001:00003b14       ??_C@_0BA@EJBDKCFJ@non?9l?9value?$CIds?$CJ?$AA@ 10004b14     glsl_core:glsltabs.obj
 0001:00003b24       ??_C@_0M@FBLCJFCE@non?9l?9value?$AA@ 10004b24     glsl_core:glsltabs.obj
 0001:00003b30       ??_C@_05DNOIDIPO@inout?$AA@ 10004b30     glsl_core:glsltabs.obj
 0001:00003b38       ??_C@_03KEJHNBPP@out?$AA@  10004b38     glsl_core:glsltabs.obj
 0001:00003b3c       ??_C@_02LMMGJAGL@in?$AA@   10004b3c     glsl_core:glsltabs.obj
 0001:00003b40       ??_C@_05PBLCOKID@highp?$AA@ 10004b40     glsl_core:glsltabs.obj
 0001:00003b48       ??_C@_07DMCLNPOF@mediump?$AA@ 10004b48     glsl_core:glsltabs.obj
 0001:00003b50       ??_C@_04HINLHCNI@lowp?$AA@ 10004b50     glsl_core:glsltabs.obj
 0001:00003b58       ??_C@_07CIFAGBMG@unknown?$AA@ 10004b58     glsl_core:glsltabs.obj
 0001:00003b60       ??_C@_07EBNAHCGH@varying?$AA@ 10004b60     glsl_core:glsltabs.obj
 0001:00003b68       ??_C@_09HGIEBAJ@attribute?$AA@ 10004b68     glsl_core:glsltabs.obj
 0001:00003b74       ??_C@_07HIAOBKCE@uniform?$AA@ 10004b74     glsl_core:glsltabs.obj
 0001:00003b7c       ??_C@_05BNCCCJPP@const?$AA@ 10004b7c     glsl_core:glsltabs.obj
 0001:00003b84       ??_C@_06PBJBIPGK@struct?$AA@ 10004b84     glsl_core:glsltabs.obj
 0001:00003b8c       ??_C@_0O@ELDFBPJC@samplerstream?$AA@ 10004b8c     glsl_core:glsltabs.obj
 0001:00003b9c       ??_C@_0BA@MGEPNOKN@sampler2Dshadow?$AA@ 10004b9c     glsl_core:glsltabs.obj
 0001:00003bac       ??_C@_0BA@PPMCOCGI@sampler1Dshadow?$AA@ 10004bac     glsl_core:glsltabs.obj
 0001:00003bbc       ??_C@_0M@JKFFOHJO@samplerCube?$AA@ 10004bbc     glsl_core:glsltabs.obj
 0001:00003bc8       ??_C@_09LAHPNHHH@sampler3D?$AA@ 10004bc8     glsl_core:glsltabs.obj
 0001:00003bd4       ??_C@_09LBLNLNEA@sampler2D?$AA@ 10004bd4     glsl_core:glsltabs.obj
 0001:00003be0       ??_C@_09LDPLADBJ@sampler1D?$AA@ 10004be0     glsl_core:glsltabs.obj
 0001:00003bec       ??_C@_06OBMEHEFN@mat4X4?$AA@ 10004bec     glsl_core:glsltabs.obj
 0001:00003bf4       ??_C@_0BE@KAJFKPKD@4X4?5matrix?5of?5float?$AA@ 10004bf4     glsl_core:glsltabs.obj
 0001:00003c08       ??_C@_06KOIFOCJK@mat4X3?$AA@ 10004c08     glsl_core:glsltabs.obj
 0001:00003c10       ??_C@_0BE@EBLLKFMH@4X3?5matrix?5of?5float?$AA@ 10004c10     glsl_core:glsltabs.obj
 0001:00003c24       ??_C@_06LHJONDNL@mat4X2?$AA@ 10004c24     glsl_core:glsltabs.obj
 0001:00003c2c       ??_C@_0BE@KOOJBDCG@4X2?5matrix?5of?5float?$AA@ 10004c2c     glsl_core:glsltabs.obj
 0001:00003c40       ??_C@_06HMBDEMOE@mat3X4?$AA@ 10004c40     glsl_core:glsltabs.obj
 0001:00003c48       ??_C@_0BE@EBNBAJDA@3X4?5matrix?5of?5float?$AA@ 10004c48     glsl_core:glsltabs.obj
 0001:00003c5c       ??_C@_06DDFCNKCD@mat3X3?$AA@ 10004c5c     glsl_core:glsltabs.obj
 0001:00003c64       ??_C@_0BE@KAPPADFE@3X3?5matrix?5of?5float?$AA@ 10004c64     glsl_core:glsltabs.obj
 0001:00003c78       ??_C@_06BCAEKNIC@mat3x2?$AA@ 10004c78     glsl_core:glsltabs.obj
 0001:00003c80       ??_C@_0BE@EPKNLFLF@3X2?5matrix?5of?5float?$AA@ 10004c80     glsl_core:glsltabs.obj
 0001:00003c94       ??_C@_06PMOCGNGB@mat2x4?$AA@ 10004c94     glsl_core:glsltabs.obj
 0001:00003c9c       ??_C@_0BE@CELGDCHG@2X4?5matrix?5of?5float?$AA@ 10004c9c     glsl_core:glsltabs.obj
 0001:00003cb0       ??_C@_06LDKDPLKG@mat2x3?$AA@ 10004cb0     glsl_core:glsltabs.obj
 0001:00003cb8       ??_C@_0BE@MFJIDIBC@2X3?5matrix?5of?5float?$AA@ 10004cb8     glsl_core:glsltabs.obj
 0001:00003ccc       ??_C@_06KKLIMKOH@mat2x2?$AA@ 10004ccc     glsl_core:glsltabs.obj
 0001:00003cd4       ??_C@_0BE@CKMKIOPD@2X2?5matrix?5of?5float?$AA@ 10004cd4     glsl_core:glsltabs.obj
 0001:00003ce8       ??_C@_05IANAGENN@bvec4?$AA@ 10004ce8     glsl_core:glsltabs.obj
 0001:00003cf0       ??_C@_0BL@FGFIOMGE@4?9component?5vector?5of?5bool?$AA@ 10004cf0     glsl_core:glsltabs.obj
 0001:00003d0c       ??_C@_05MPJBPCBK@bvec3?$AA@ 10004d0c     glsl_core:glsltabs.obj
 0001:00003d14       ??_C@_0BL@IEINKKOC@3?9component?5vector?5of?5bool?$AA@ 10004d14     glsl_core:glsltabs.obj
 0001:00003d30       ??_C@_05NGIKMDFL@bvec2?$AA@ 10004d30     glsl_core:glsltabs.obj
 0001:00003d38       ??_C@_0BL@OKABLBKD@2?9component?5vector?5of?5bool?$AA@ 10004d38     glsl_core:glsltabs.obj
 0001:00003d54       ??_C@_04DDKJGDCM@bool?$AA@ 10004d54     glsl_core:glsltabs.obj
 0001:00003d5c       ??_C@_05OKBHJEBO@ivec4?$AA@ 10004d5c     glsl_core:glsltabs.obj
 0001:00003d64       ??_C@_0BK@NANJEMOK@4?9component?5vector?5of?5int?$AA@ 10004d64     glsl_core:glsltabs.obj
 0001:00003d80       ??_C@_05KFFGACNJ@ivec3?$AA@ 10004d80     glsl_core:glsltabs.obj
 0001:00003d88       ??_C@_0BK@IBKDHMM@3?9component?5vector?5of?5int?$AA@ 10004d88     glsl_core:glsltabs.obj
 0001:00003da4       ??_C@_05LMENDDJI@ivec2?$AA@ 10004da4     glsl_core:glsltabs.obj
 0001:00003dac       ??_C@_0BK@OPAHJBFL@2?9component?5vector?5of?5int?$AA@ 10004dac     glsl_core:glsltabs.obj
 0001:00003dc8       ??_C@_03JBIPMCLC@int?$AA@  10004dc8     glsl_core:glsltabs.obj
 0001:00003dcc       ??_C@_04LCAMJMDC@vec4?$AA@ 10004dcc     glsl_core:glsltabs.obj
 0001:00003dd4       ??_C@_0BM@NFDDOKMK@4?9component?5vector?5of?5float?$AA@ 10004dd4     glsl_core:glsltabs.obj
 0001:00003df0       ??_C@_04PNENAKPF@vec3?$AA@ 10004df0     glsl_core:glsltabs.obj
 0001:00003df8       ??_C@_0BM@NBDKBJJJ@3?9component?5vector?5of?5float?$AA@ 10004df8     glsl_core:glsltabs.obj
 0001:00003e14       ??_C@_04OEFGDLLE@vec2?$AA@ 10004e14     glsl_core:glsltabs.obj
 0001:00003e1c       ??_C@_0BM@NAIPOEIE@2?9component?5vector?5of?5float?$AA@ 10004e1c     glsl_core:glsltabs.obj
 0001:00003e38       ??_C@_05KNFBNCOH@float?$AA@ 10004e38     glsl_core:glsltabs.obj
 0001:00003e40       ??_C@_04GKJNKENE@void?$AA@ 10004e40     glsl_core:glsltabs.obj
 0001:00003e48       ??_C@_07MALOAKCI@invalid?$AA@ 10004e48     glsl_core:glsltabs.obj
 0001:00003e50       asGLSLTypeSpecifierInfoTable 10004e50     glsl_core:glsltabs.obj
 0001:00004138       apszGLSLTypeQualifierFullDescTable 10005138     glsl_core:glsltabs.obj
 0001:00004154       GLSLPrecisionQualifierFullDescTable 10005154     glsl_core:glsltabs.obj
 0001:00004164       GLSLParameterQualifierFullDescTable 10005164     glsl_core:glsltabs.obj
 0001:00004174       GLSLLValueStatusFullDescTable 10005174     glsl_core:glsltabs.obj
 0001:00004184       GLSLArrayStatusFullDescTable 10005184     glsl_core:glsltabs.obj
 0001:00004194       ??_C@_0N@PNGOABHF@GLSLNT_ERROR?$AA@ 10005194     glsl_core:icgen.obj
 0001:000041a4       ??_C@_0O@OHHEIDML@GLSLNT_SHADER?$AA@ 100051a4     glsl_core:icgen.obj
 0001:000041b4       ??_C@_0BD@FBCKFPBA@GLSLNT_DECLARATION?$AA@ 100051b4     glsl_core:icgen.obj
 0001:000041c8       ??_C@_0BL@EICICAN@GLSLNT_FUNCTION_DEFINITION?$AA@ 100051c8     glsl_core:icgen.obj
 0001:000041e4       ??_C@_0BG@ELONCOJJ@GLSLNT_STATEMENT_LIST?$AA@ 100051e4     glsl_core:icgen.obj
 0001:000041fc       ??_C@_09LCHANDEE@GLSLNT_IF?$AA@ 100051fc     glsl_core:icgen.obj
 0001:00004208       ??_C@_09GLGKPLFO@GLSLNT_DO?$AA@ 10005208     glsl_core:icgen.obj
 0001:00004214       ??_C@_0N@BJPNMHJH@GLSLNT_WHILE?$AA@ 10005214     glsl_core:icgen.obj
 0001:00004224       ??_C@_0L@KODMOBFF@GLSLNT_FOR?$AA@ 10005224     glsl_core:icgen.obj
 0001:00004230       ??_C@_0O@ECCGFLAB@GLSLNT_RETURN?$AA@ 10005230     glsl_core:icgen.obj
 0001:00004240       ??_C@_0P@DLBBDOOL@GLSLNT_DISCARD?$AA@ 10005240     glsl_core:icgen.obj
 0001:00004250       ??_C@_0N@LMDLNKPJ@GLSLNT_BREAK?$AA@ 10005250     glsl_core:icgen.obj
 0001:00004260       ??_C@_0BA@DHGCFAEM@GLSLNT_CONTINUE?$AA@ 10005260     glsl_core:icgen.obj
 0001:00004270       ??_C@_0BC@BAEPDPHG@GLSLNT_EXPRESSION?$AA@ 10005270     glsl_core:icgen.obj
 0001:00004284       ??_C@_0BF@KPOAKFCF@GLSLNT_SUBEXPRESSION?$AA@ 10005284     glsl_core:icgen.obj
 0001:0000429c       ??_C@_0BC@EAJNLAMD@GLSLNT_SUB_ASSIGN?$AA@ 1000529c     glsl_core:icgen.obj
 0001:000042b0       ??_C@_0BC@NHBFOJF@GLSLNT_ADD_ASSIGN?$AA@ 100052b0     glsl_core:icgen.obj
 0001:000042c4       ??_C@_0BC@PPILDHKF@GLSLNT_MOD_ASSIGN?$AA@ 100052c4     glsl_core:icgen.obj
 0001:000042d8       ??_C@_0BC@LOOBDJA@GLSLNT_DIV_ASSIGN?$AA@ 100052d8     glsl_core:icgen.obj
 0001:000042ec       ??_C@_0BC@HENPIEJM@GLSLNT_MUL_ASSIGN?$AA@ 100052ec     glsl_core:icgen.obj
 0001:00004300       ??_C@_0N@PJMGFBMJ@GLSLNT_EQUAL?$AA@ 10005300     glsl_core:icgen.obj
 0001:00004310       ??_C@_0BA@LAMPOHPN@GLSLNT_QUESTION?$AA@ 10005310     glsl_core:icgen.obj
 0001:00004320       ??_C@_0BD@BHDBJNOM@GLSLNT_LOGICAL_AND?$AA@ 10005320     glsl_core:icgen.obj
 0001:00004334       ??_C@_0BD@CHHKFKBJ@GLSLNT_LOGICAL_XOR?$AA@ 10005334     glsl_core:icgen.obj
 0001:00004348       ??_C@_0BC@BLHLFKEA@GLSLNT_LOGICAL_OR?$AA@ 10005348     glsl_core:icgen.obj
 0001:0000435c       ??_C@_0BE@LLHLHGOJ@GLSLNT_RIGHT_ASSIGN?$AA@ 1000535c     glsl_core:icgen.obj
 0001:00004370       ??_C@_0BD@GLDNIJLB@GLSLNT_LEFT_ASSIGN?$AA@ 10005370     glsl_core:icgen.obj
 0001:00004384       ??_C@_0BC@PPPAGENH@GLSLNT_XOR_ASSIGN?$AA@ 10005384     glsl_core:icgen.obj
 0001:00004398       ??_C@_0BB@PAJFIEJD@GLSLNT_OR_ASSIGN?$AA@ 10005398     glsl_core:icgen.obj
 0001:000043ac       ??_C@_0BC@BKFDMOFM@GLSLNT_AND_ASSIGN?$AA@ 100053ac     glsl_core:icgen.obj
 0001:000043c0       ??_C@_0BD@HNDBOKNH@GLSLNT_SHIFT_RIGHT?$AA@ 100053c0     glsl_core:icgen.obj
 0001:000043d4       ??_C@_0BC@CIMBFCFD@GLSLNT_SHIFT_LEFT?$AA@ 100053d4     glsl_core:icgen.obj
 0001:000043e8       ??_C@_0BE@NMABMFM@GLSLNT_EXCLUSIVE_OR?$AA@ 100053e8     glsl_core:icgen.obj
 0001:000043fc       ??_C@_0BE@HEFPONLL@GLSLNT_INCLUSIVE_OR?$AA@ 100053fc     glsl_core:icgen.obj
 0001:00004410       ??_C@_0L@COLBAGAM@GLSLNT_AND?$AA@ 10005410     glsl_core:icgen.obj
 0001:0000441c       ??_C@_0BD@KFPFGFEK@GLSLNT_NOTEQUAL_TO?$AA@ 1000541c     glsl_core:icgen.obj
 0001:00004430       ??_C@_0BA@MAODGMPE@GLSLNT_EQUAL_TO?$AA@ 10005430     glsl_core:icgen.obj
 0001:00004440       ??_C@_0BK@JGIKPEFH@GLSLNT_GREATER_THAN_EQUAL?$AA@ 10005440     glsl_core:icgen.obj
 0001:0000445c       ??_C@_0BH@GBOAAMA@GLSLNT_LESS_THAN_EQUAL?$AA@ 1000545c     glsl_core:icgen.obj
 0001:00004474       ??_C@_0BE@JDOBENF@GLSLNT_GREATER_THAN?$AA@ 10005474     glsl_core:icgen.obj
 0001:00004488       ??_C@_0BB@NDOIPDM@GLSLNT_LESS_THAN?$AA@ 10005488     glsl_core:icgen.obj
 0001:0000449c       ??_C@_0BA@LFFIBPLN@GLSLNT_SUBTRACT?$AA@ 1000549c     glsl_core:icgen.obj
 0001:000044ac       ??_C@_0L@CDCGIDNK@GLSLNT_ADD?$AA@ 100054ac     glsl_core:icgen.obj
 0001:000044b8       ??_C@_0P@EEFLAKDF@GLSLNT_MODULUS?$AA@ 100054b8     glsl_core:icgen.obj
 0001:000044c8       ??_C@_0O@KKLKIPMA@GLSLNT_DIVIDE?$AA@ 100054c8     glsl_core:icgen.obj
 0001:000044d8       ??_C@_0BA@MAACFCBK@GLSLNT_MULTIPLY?$AA@ 100054d8     glsl_core:icgen.obj
 0001:000044e8       ??_C@_0BD@OLMDIPGO@GLSLNT_BITWISE_NOT?$AA@ 100054e8     glsl_core:icgen.obj
 0001:000044fc       ??_C@_0L@DNNCGODM@GLSLNT_NOT?$AA@ 100054fc     glsl_core:icgen.obj
 0001:00004508       ??_C@_0BA@BMIPBHGA@GLSLNT_POSITIVE?$AA@ 10005508     glsl_core:icgen.obj
 0001:00004518       ??_C@_0O@PNBKCFFI@GLSLNT_NEGATE?$AA@ 10005518     glsl_core:icgen.obj
 0001:00004528       ??_C@_0P@LHFAIBAL@GLSLNT_PRE_DEC?$AA@ 10005528     glsl_core:icgen.obj
 0001:00004538       ??_C@_0P@EJGPLGDH@GLSLNT_PRE_INC?$AA@ 10005538     glsl_core:icgen.obj
 0001:00004548       ??_C@_0BE@JJAKEPPC@GLSLNT_ARRAY_LENGTH?$AA@ 10005548     glsl_core:icgen.obj
 0001:0000455c       ??_C@_0BF@LNEOLHIP@GLSLNT_FUNCTION_CALL?$AA@ 1000555c     glsl_core:icgen.obj
 0001:00004574       ??_C@_0BA@GOEHFFEG@GLSLNT_POST_DEC?$AA@ 10005574     glsl_core:icgen.obj
 0001:00004584       ??_C@_0BA@JAHIGCHK@GLSLNT_POST_INC?$AA@ 10005584     glsl_core:icgen.obj
 0001:00004594       ??_C@_0BH@KABLDAID@GLSLNT_ARRAY_SPECIFIER?$AA@ 10005594     glsl_core:icgen.obj
 0001:000045ac       ??_C@_0BH@NLADPNKH@GLSLNT_FIELD_SELECTION?$AA@ 100055ac     glsl_core:icgen.obj
 0001:000045c4       ??_C@_0BC@MKIAJJHD@GLSLNT_IDENTIFIER?$AA@ 100055c4     glsl_core:icgen.obj
 0001:000045d8       ??_C@_04DDDDFCEA@NRM3?$AA@ 100055d8     glsl_core:icgen.obj
 0001:000045e0       ??_C@_03LKOMMBBA@MIX?$AA@  100055e0     glsl_core:icgen.obj
 0001:000045e4       ??_C@_03FCIIMNPF@MAD?$AA@  100055e4     glsl_core:icgen.obj
 0001:000045e8       ??_C@_04HIDGEJC@ATAN?$AA@  100055e8     glsl_core:icgen.obj
 0001:000045f0       ??_C@_04DPLPEKKC@ACOS?$AA@ 100055f0     glsl_core:icgen.obj
 0001:000045f8       ??_C@_04JEEHANJD@ASIN?$AA@ 100055f8     glsl_core:icgen.obj
 0001:00004600       ??_C@_03IFHGDNGK@TAN?$AA@  10005600     glsl_core:icgen.obj
 0001:00004604       ??_C@_03FIBGOAPP@MOD?$AA@  10005604     glsl_core:icgen.obj
 0001:00004608       ??_C@_03NEKIMBBK@FRC?$AA@  10005608     glsl_core:icgen.obj
 0001:0000460c       ??_C@_03JLIKCOCP@POW?$AA@  1000560c     glsl_core:icgen.obj
 0001:00004610       ??_C@_06NALLLKGI@TEXLDD?$AA@ 10005610     glsl_core:icgen.obj
 0001:00004618       ??_C@_06BIGCDAGA@TEXLDL?$AA@ 10005618     glsl_core:icgen.obj
 0001:00004620       ??_C@_06IGOBBNOO@TEXLDB?$AA@ 10005620     glsl_core:icgen.obj
 0001:00004628       ??_C@_06POBFGNDN@TEXLDP?$AA@ 10005628     glsl_core:icgen.obj
 0001:00004630       ??_C@_05KKBNBKGM@TEXLD?$AA@ 10005630     glsl_core:icgen.obj
 0001:00004638       ??_C@_04DGDLDCIL@DFDY?$AA@ 10005638     glsl_core:icgen.obj
 0001:00004640       ??_C@_04CPCAADMK@DFDX?$AA@ 10005640     glsl_core:icgen.obj
 0001:00004648       ??_C@_04KJMDDEDC@CEIL?$AA@ 10005648     glsl_core:icgen.obj
 0001:00004650       ??_C@_05DKADLPCF@FLOOR?$AA@ 10005650     glsl_core:icgen.obj
 0001:00004658       ??_C@_03LNEKBDFK@COS?$AA@  10005658     glsl_core:icgen.obj
 0001:0000465c       ??_C@_03BGLCFEGL@SIN?$AA@  1000565c     glsl_core:icgen.obj
 0001:00004660       ??_C@_05LJDJGMCA@CROSS?$AA@ 10005660     glsl_core:icgen.obj
 0001:00004668       ??_C@_03GPNMLNCE@DOT?$AA@  10005668     glsl_core:icgen.obj
 0001:0000466c       ??_C@_04CGLLICFH@EXP2?$AA@ 1000566c     glsl_core:icgen.obj
 0001:00004674       ??_C@_03KKGFKKLA@EXP?$AA@  10005674     glsl_core:icgen.obj
 0001:00004678       ??_C@_04PPAMDKPF@LOG2?$AA@ 10005678     glsl_core:icgen.obj
 0001:00004680       ??_C@_03MLIHNEFJ@LOG?$AA@  10005680     glsl_core:icgen.obj
 0001:00004684       ??_C@_03HCOFBLDG@RSQ?$AA@  10005684     glsl_core:icgen.obj
 0001:00004688       ??_C@_03HHNIIJAH@RCP?$AA@  10005688     glsl_core:icgen.obj
 0001:0000468c       ??_C@_03BMCMHJGB@SGN?$AA@  1000568c     glsl_core:icgen.obj
 0001:00004690       ??_C@_03LEPPJAKI@MAX?$AA@  10005690     glsl_core:icgen.obj
 0001:00004694       ??_C@_03KGHEHEMH@MIN?$AA@  10005694     glsl_core:icgen.obj
 0001:00004698       ??_C@_03BPJLEIIC@ABS?$AA@  10005698     glsl_core:icgen.obj
 0001:0000469c       ??_C@_04EAIKPGAM@SALL?$AA@ 1000569c     glsl_core:icgen.obj
 0001:000046a4       ??_C@_04HELLMEHG@SANY?$AA@ 100056a4     glsl_core:icgen.obj
 0001:000046ac       ??_C@_07KLFFMLGM@DISCARD?$AA@ 100056ac     glsl_core:icgen.obj
 0001:000046b4       ??_C@_05IAGBLAKG@BREAK?$AA@ 100056b4     glsl_core:icgen.obj
 0001:000046bc       ??_C@_08DMOLBOCI@CONTDEST?$AA@ 100056bc     glsl_core:icgen.obj
 0001:000046c8       ??_C@_08EECOACDK@CONTINUE?$AA@ 100056c8     glsl_core:icgen.obj
 0001:000046d4       ??_C@_07OEFEMAML@ENDLOOP?$AA@ 100056d4     glsl_core:icgen.obj
 0001:000046dc       ??_C@_0L@BKAIBLJO@STATICLOOP?$AA@ 100056dc     glsl_core:icgen.obj
 0001:000046e8       ??_C@_04KGNEGCGI@LOOP?$AA@ 100056e8     glsl_core:icgen.obj
 0001:000046f0       ??_C@_04CAGKGBIO@CALL?$AA@ 100056f0     glsl_core:icgen.obj
 0001:000046f8       ??_C@_03BHDJDALB@RET?$AA@  100056f8     glsl_core:icgen.obj
 0001:000046fc       ??_C@_05EILEDKCG@LABEL?$AA@ 100056fc     glsl_core:icgen.obj
 0001:00004704       ??_C@_05DLHFLCAN@ENDIF?$AA@ 10005704     glsl_core:icgen.obj
 0001:0000470c       ??_C@_04JLPIBDPH@ELSE?$AA@ 1000570c     glsl_core:icgen.obj
 0001:00004714       ??_C@_04CFELCOLB@IFNE?$AA@ 10005714     glsl_core:icgen.obj
 0001:0000471c       ??_C@_04HLABGAF@IFEQ?$AA@  1000571c     glsl_core:icgen.obj
 0001:00004724       ??_C@_04CKJKBFDO@IFGE?$AA@ 10005724     glsl_core:icgen.obj
 0001:0000472c       ??_C@_04HJEDDGCO@IFGT?$AA@ 1000572c     glsl_core:icgen.obj
 0001:00004734       ??_C@_04CGMPPKNP@IFLE?$AA@ 10005734     glsl_core:icgen.obj
 0001:0000473c       ??_C@_04HFBGNJMP@IFLT?$AA@ 1000573c     glsl_core:icgen.obj
 0001:00004744       ??_C@_05GPADNFLC@IFNOT?$AA@ 10005744     glsl_core:icgen.obj
 0001:0000474c       ??_C@_02NJNGHICB@IF?$AA@   1000574c     glsl_core:icgen.obj
 0001:00004750       ??_C@_03GBFNEA@NOT?$AA@    10005750     glsl_core:icgen.obj
 0001:00004754       ??_C@_03PPNIKAKK@SGE?$AA@  10005754     glsl_core:icgen.obj
 0001:00004758       ??_C@_03KMABIDLK@SGT?$AA@  10005758     glsl_core:icgen.obj
 0001:0000475c       ??_C@_03PDINEPEL@SLE?$AA@  1000575c     glsl_core:icgen.obj
 0001:00004760       ??_C@_03KAFEGMFL@SLT?$AA@  10005760     glsl_core:icgen.obj
 0001:00004764       ??_C@_03PAAJJLCF@SNE?$AA@  10005764     glsl_core:icgen.obj
 0001:00004768       ??_C@_03NCPCKDJB@SEQ?$AA@  10005768     glsl_core:icgen.obj
 0001:0000476c       ??_C@_03FJGHKDBE@DIV?$AA@  1000576c     glsl_core:icgen.obj
 0001:00004770       ??_C@_03IBHOEMFB@MUL?$AA@  10005770     glsl_core:icgen.obj
 0001:00004774       ??_C@_03KPDLEBHD@SUB?$AA@  10005774     glsl_core:icgen.obj
 0001:00004778       ??_C@_03BOJFLAKG@ADD?$AA@  10005778     glsl_core:icgen.obj
 0001:0000477c       ??_C@_03CAOCJACM@MOV?$AA@  1000577c     glsl_core:icgen.obj
 0001:00004780       ??_C@_03GEANJIEE@NOP?$AA@  10005780     glsl_core:icgen.obj
 0001:00004788       asICodeOpTable             10005788     glsl_core:icgen.obj
 0001:00004bc8       asNodeTable                10005bc8     glsl_core:icgen.obj
 0001:00004ea0       ??_C@_0DL@IEFCLIM@ICAddTemporary?3?5Failed?5to?5add?5te@ 10005ea0     glsl_core:icgen.obj
 0001:00004ee0       ??_C@_0EF@CPJBBCJC@C?3?2WinCE?2OMAP?2DDK1?45?2eurasia?2too@ 10005ee0     glsl_core:icgen.obj
 0001:00004f28       ??_C@_09COACJEOO@tmp?$CFs?$EA?$CFlu?$AA@ 10005f28     glsl_core:icgen.obj
 0001:00004f34       ??_C@_08JBFBCINF@pred?$EA?$CFlu?$AA@ 10005f34     glsl_core:icgen.obj
 0001:00004f40       ??_C@_0DB@MOKPGAOK@ICProcessNodeOperand?3?5Unknown?5sy@ 10005f40     glsl_core:icgen.obj
 0001:00004f78       ??_C@_0FA@LGGCDBPN@ICProcessNodeOperand?3?5definition@ 10005f78     glsl_core:icgen.obj
 0001:00004fc8       ??_C@_0DH@NEMFAOLF@ICProcessNodeOperand?3?5Failed?5to?5@ 10005fc8     glsl_core:icgen.obj
 0001:00005000       ??_C@_0DM@GHCEBHFI@ICProcessNodeOperand?3?5Failed?5to?5@ 10006000     glsl_core:icgen.obj
 0001:0000503c       ??_C@_0DP@GABHFFGJ@GetSymbolInformation?3?5Swizzle?5da@ 1000603c     glsl_core:icgen.obj
 0001:00005080       ??_C@_0EB@PCDPFCAE@GetSymbolInformation?3?5Function?5d@ 10006080     glsl_core:icgen.obj
 0001:000050c4       ??_C@_0BB@FGCGIDJN@iArraySize?5?$CB?$DN?5?91?$AA@ 100060c4     glsl_core:icgen.obj
 0001:000050d8       ??_C@_0DN@LAFLCABG@GetSymbolInformation?3?5Failed?5to?5@ 100060d8     glsl_core:icgen.obj
 0001:00005118       ??_C@_0DH@FHIMHKNI@ICGetSymbolFullType?3?5Failed?5to?5g@ 10006118     glsl_core:icgen.obj
 0001:00005150       ??_C@_0DG@JEOILHNI@GetIndexedType?3?5Failed?5to?5get?5sy@ 10006150     glsl_core:icgen.obj
 0001:00005188       ??_C@_0DB@KCEJCHBD@GetIndexedType?3?5No?5more?5subscrip@ 10006188     glsl_core:icgen.obj
 0001:000051bc       ??_C@_0CN@NNBBFFIB@GetIndexedType?3?5No?5more?5subscrip@ 100061bc     glsl_core:icgen.obj
 0001:000051ec       ??_C@_0CM@DKKIBABA@GetIndexedType?3?5No?5more?5subscrip@ 100061ec     glsl_core:icgen.obj
 0001:00005218       ??_C@_0CO@FMAKMBHM@GetIndexedType?3?5No?5more?5subscrip@ 10006218     glsl_core:icgen.obj
 0001:00005248       ??_C@_0DI@FOIDIAKI@GetIndexedType?3?5invalid?5or?5void?5@ 10006248     glsl_core:icgen.obj
 0001:00005280       ??_C@_0DL@OGFPMLK@IsSymbolIntConstant?3?5Failed?5to?5g@ 10006280     glsl_core:icgen.obj
 0001:000052bc       ??_C@_0DG@MPCDDLPJ@IsSymbolLValue?3?5Failed?5to?5get?5sy@ 100062bc     glsl_core:icgen.obj
 0001:000052f4       ??_C@_0CM@LHJCPIJD@psInstr?9?$DOasOperand?$FLj?$FN?4psOffsets?5@ 100062f4     glsl_core:icgen.obj
 0001:00005320       ??_C@_0CO@JLHAIHBO@CloneICodeInstructions?3?5Failed?5t@ 10006320     glsl_core:icgen.obj
 0001:00005350       ??_C@_0DN@MBDMIFLD@ICGetNewInstruction?3?5Failed?5to?5g@ 10006350     glsl_core:icgen.obj
 0001:00005390       ??_C@_0DH@DONDGAPO@ICAddICInstruction0?3?5Failed?5to?5g@ 10006390     glsl_core:icgen.obj
 0001:000053c8       ??_C@_0DH@CNHFGELF@ValidateICInstruction?3?5Data?5type@ 100063c8     glsl_core:icgen.obj
 0001:00005400       ??_C@_0CN@NNADDNLL@ValidateICInstruction?3?5unknown?5o@ 10006400     glsl_core:icgen.obj
 0001:00005430       ??_C@_0EL@NLBHMOBO@ValidateICInstruction?3?5SrcA?5has?5@ 10006430     glsl_core:icgen.obj
 0001:0000547c       ??_C@_0DD@MDGPEDCB@ValidateICInstruction?3?5Failed?5to@ 1000647c     glsl_core:icgen.obj
 0001:000054b0       ??_C@_03OFAPEBGM@?$CFs?6?$AA@ 100064b0     glsl_core:icgen.obj
 0001:000054b4       ??_C@_05NGKBADIJ@?$CF?98s?5?$AA@ 100064b4     glsl_core:icgen.obj
 0001:000054bc       ??_C@_0DL@OGLOCBOO@ValidateICInstruction?3?5ERROR?3?5ZE@ 100064bc     glsl_core:icgen.obj
 0001:000054f8       ??_C@_0DA@NHMMPAMG@ValidateICInstruction?3?5OPCODE?5?$DN?5@ 100064f8     glsl_core:icgen.obj
 0001:00005528       ??_C@_06KMNNMBLO@?$CF?920s?5?$AA@ 10006528     glsl_core:icgen.obj
 0001:00005530       ??_C@_01NOFIACDB@w?$AA@    10006530     glsl_core:icgen.obj
 0001:00005534       ??_C@_01GLPGHMHM@z?$AA@    10006534     glsl_core:icgen.obj
 0001:00005538       ??_C@_01EANLCPLP@y?$AA@    10006538     glsl_core:icgen.obj
 0001:0000553c       ??_C@_01FJMABOPO@x?$AA@    1000653c     glsl_core:icgen.obj
 0001:00005540       ??_C@_01LBDDMOBJ@?$FN?$AA@ 10006540     glsl_core:icgen.obj
 0001:00005544       ??_C@_03FKNCMABI@?$CFlu?$AA@ 10006544     glsl_core:icgen.obj
 0001:00005548       ??_C@_01OHGJGJJP@?$FL?$AA@ 10006548     glsl_core:icgen.obj
 0001:0000554c       ??_C@_01JOAMLHOP@?9?$AA@   1000654c     glsl_core:icgen.obj
 0001:00005550       ??_C@_0DH@LOCDHHOB@ICAddICInstruction1?3?5Failed?5to?5g@ 10006550     glsl_core:icgen.obj
 0001:00005588       ??_C@_0EA@HALJHDMM@ICSetupICOperand?3?5Failed?5to?5get?5@ 10006588     glsl_core:icgen.obj
 0001:000055c8       ??_C@_0DI@NJPGAKIK@ICAddICInstruction1a?3?5Failed?5to?5@ 100065c8     glsl_core:icgen.obj
 0001:00005600       ??_C@_0DH@OEECEIIB@ICAddICInstruction2?3?5Failed?5to?5g@ 10006600     glsl_core:icgen.obj
 0001:00005638       ??_C@_0DI@JEBOAKON@ICAddICInstruction2a?3?5Failed?5to?5@ 10006638     glsl_core:icgen.obj
 0001:00005670       ??_C@_0DI@EOIPCCJC@ICAddICInstruction2c?3?5Failed?5to?5@ 10006670     glsl_core:icgen.obj
 0001:000056a8       ??_C@_0DH@GELCFPJO@ICAddICInstruction3?3?5Failed?5to?5g@ 100066a8     glsl_core:icgen.obj
 0001:000056e0       ??_C@_0DI@BJJGPHAP@ICAddICInstruction3a?3?5Failed?5to?5@ 100066e0     glsl_core:icgen.obj
 0001:00005718       ??_C@_0DI@EDPHMIGP@ICAddICInstruction3b?3?5Failed?5to?5@ 10006718     glsl_core:icgen.obj
 0001:00005750       ??_C@_0DI@MDAHNPHA@ICAddICInstruction3c?3?5Failed?5to?5@ 10006750     glsl_core:icgen.obj
 0001:00005788       ??_C@_0DI@PHDFLGKP@ICAddICInstruction3d?3?5Failed?5to?5@ 10006788     glsl_core:icgen.obj
 0001:000057c0       ??_C@_0DI@HHMFKBLA@ICAddICInstruction3e?3?5Failed?5to?5@ 100067c0     glsl_core:icgen.obj
 0001:000057f8       ??_C@_0DH@FAIADGEB@ICAddICInstruction4?3?5Failed?5to?5g@ 100067f8     glsl_core:icgen.obj
 0001:00005830       ??_C@_0DG@GELCDHNE@ICAddICInstruction?3?5Failed?5to?5ge@ 10006830     glsl_core:icgen.obj
 0001:00005868       ??_C@_0CI@BGLOHOBD@ICOP_NUM_SRCS?$CIeICOpcode?$CJ?5?$DN?$DN?5uNum@ 10006868     glsl_core:icgen.obj
 0001:00005890       ??_C@_0DH@IPJPFPOJ@ICAddICInstructiona?3?5Failed?5to?5g@ 10006890     glsl_core:icgen.obj
 0001:000058c8       ??_C@_0DK@PMOCCFFG@IsSymbolInternalResult?3?5Failed?5t@ 100068c8     glsl_core:icgen.obj
 0001:00005904       ??_C@_05GPGNDLEK@child?$AA@ 10006904     glsl_core:icgen.obj
 0001:0000590c       ??_C@_0CI@COHIININ@PostEvaluateNode?3?5why?5is?5the?5nod@ 1000690c     glsl_core:icgen.obj
 0001:00005938       ??_C@_0FL@FFNNPAOK@EvaluateNodeFIELDSELECTION?3?5inco@ 10006938     glsl_core:icgen.obj
 0001:00005998       ??_C@_0EC@MHEAMFMJ@EvaluateNodeFIELDSELECTION?3?5Fail@ 10006998     glsl_core:icgen.obj
 0001:000059e0       ??_C@_0EM@EIAAMLFH@ProcessNodeFUNCTIONCALL?3?5Unknown@ 100069e0     glsl_core:icgen.obj
 0001:00005a2c       ??_C@_0CO@ONGPFDAA@psFunctionDefinitionData?9?$DOuRetur@ 10006a2c     glsl_core:icgen.obj
 0001:00005a60       ??_C@_0FC@MNIKMDDH@psFunctionDefinitionData?9?$DOsRetur@ 10006a60     glsl_core:icgen.obj
 0001:00005ab8       ??_C@_0ED@OPIDCEMB@psFunctionCallData?9?$DOeSymbolTable@ 10006ab8     glsl_core:icgen.obj
 0001:00005b00       ??_C@_0EB@MEFCPEO@PostEvaluateFunctionCall?3?5Failed@ 10006b00     glsl_core:icgen.obj
 0001:00005b44       ??_C@_0DK@JDFCMPN@ICTraverseAST?3?5FUNCTION_DEFINITI@ 10006b44     glsl_core:icgen.obj
 0001:00005b80       ??_C@_0DO@CFDCHLOH@psASTree?9?$DOeNodeType?5?$DN?$DN?5NODETYPE_@ 10006b80     glsl_core:icgen.obj
 0001:00005bc0       ??_C@_0CG@POADIJAF@psMainEnd?5?$DN?$DN?5psICProgram?9?$DOpsInst@ 10006bc0     glsl_core:icgen.obj
 0001:00005be8       ??_C@_0DD@HIIPEFBI@psShaderChild?9?$DOpsCodeEnd?9?$DOeOpCod@ 10006be8     glsl_core:icgen.obj
 0001:00005c1c       ??_C@_0DH@CIJDONDF@psShaderChild?9?$DOpsCodeStart?9?$DOeOpC@ 10006c1c     glsl_core:icgen.obj
 0001:00005c54       ??_C@_0DJ@BBINKKPK@ProcessNodeSHADER?3?5Failed?5to?5get@ 10006c54     glsl_core:icgen.obj
 0001:00005c90       ??_C@_0CA@KHIMPGFK@?$CIi?5?$DN?$DN?5psNode?9?$DOuNumChildren?5?9?51?$CJ?$AA@ 10006c90     glsl_core:icgen.obj
 0001:00005cb0       ??_C@_08MCFFGLHH@fn_main?$EA?$AA@ 10006cb0     glsl_core:icgen.obj
 0001:00005cc0       ??_C@_0EI@BPCDNALD@ProcessNodeSHADER?3?5Failed?5to?5get@ 10006cc0     glsl_core:icgen.obj
 0001:00005d08       ??_C@_0EF@BNEPDHKH@ProcessNodeFUNCTIONDEFINITION?3?5F@ 10006d08     glsl_core:icgen.obj
 0001:00005d50       ??_C@_0EL@JJGGEHOI@IsFunctionToBeInlined?3?5Force?5to?5@ 10006d50     glsl_core:icgen.obj
 0001:00005da0       ??_C@_0EA@HBBGOBPN@IsFunctionToBeInlined?3?5bInlineSa@ 10006da0     glsl_core:icgen.obj
 0001:00005de0       ??_C@_0DP@OOECEDCH@IsFunctionToBeInlined?3?5Failed?5to@ 10006de0     glsl_core:icgen.obj
 0001:00005e20       ??_C@_0DN@IGJGLEOC@GetTypeNumMembers?3?5Failed?5to?5get@ 10006e20     glsl_core:icgen.obj
 0001:00005e60       ??_C@_0CE@OBNJJDPD@ProcessNode?3?5Unknown?5node?5type?0?5@ 10006e60     glsl_core:icgen.obj
 0001:00005e84       ??_C@_0DC@KPGOJLHP@ProcessNode?3?5FUNCTION_SHADER?5has@ 10006e84     glsl_core:icgen.obj
 0001:00005eb8       ??_C@_0DG@HGHADPLA@ProcessNode?3?5FUNCTION_DEFINITION@ 10006eb8     glsl_core:icgen.obj
 0001:00005ef0       ??_C@_0DG@OPDDHEII@ProcessNode?3?5FOR?0?5WHILE?0?5DO?0?5IF?5@ 10006ef0     glsl_core:icgen.obj
 0001:00005f28       ??_C@_0EI@OMKENFFG@ProcessNode?3?5MOD?0?5LEFT?0?5RIGHT?0?5A@ 10006f28     glsl_core:icgen.obj
 0001:00005f70       ??_C@_0CP@GKIGLJEO@ProcessNode?3?5node?5QUESTION?5has?5b@ 10006f70     glsl_core:icgen.obj
 0001:00005fa0       ??_C@_0EM@OHEGENNG@ProcessNode?3?5node?5LOGICAL_OR?0?5LO@ 10006fa0     glsl_core:icgen.obj
 0001:00005fec       ??_C@_0DE@MJNLCPFF@ProcessNode?3?5BITEWISE?5OR?0?5XOR?5an@ 10006fec     glsl_core:icgen.obj
 0001:00006020       ??_C@_0CJ@JJGIGLGP@Error?3?5SHIFT?5LEFT?5or?5RIGHT?5are?5r@ 10007020     glsl_core:icgen.obj
 0001:0000604c       ??_C@_0CC@GFLBMCLM@ProcessNode?3?5MODULUS?5is?5reserved@ 1000704c     glsl_core:icgen.obj
 0001:00006070       ??_C@_0CG@HBHMNOFD@ProcessNode?3?5BITWISE?5NOT?5is?5rese@ 10007070     glsl_core:icgen.obj
 0001:00006098       ??_C@_0O@IFKJNOI@?$CBbPostProcess?$AA@ 10007098     glsl_core:icgen.obj
 0001:000060a8       ??_C@_0CA@IAGKINBN@psNode?9?$DObEvaluated?5?$DN?$DN?5IMG_FALSE?$AA@ 100070a8     glsl_core:icgen.obj
 0001:000060c8       ??_C@_0BN@NHDMHNAO@IS_PARENT_ASSIGNMENT?$CIpsNode?$CJ?$AA@ 100070c8     glsl_core:icgen.obj
 0001:000060e8       ??_C@_0DH@OEMKBLKH@?$CB?$CIsLeftOperand?4eInstModifier?5?$CG?5G@ 100070e8     glsl_core:icgen.obj
 0001:00006120       ??_C@_0DB@HBALMDBK@ProcessNodePreIncDec?3?5cannot?5add@ 10007120     glsl_core:icgen.obj
 0001:00006154       ??_C@_0M@BEDKPMDE@psLastChild?$AA@ 10007154     glsl_core:icgen.obj
 0001:00006160       ??_C@_0EA@BMMOGHDK@ProcessNodeFUNCTIONCALL?3?5Failed?5@ 10007160     glsl_core:icgen.obj
 0001:000061a0       ??_C@_0EI@PNPJEENH@?$CBGLSL_IS_STRUCT?$CIpsFunctionCallDa@ 100071a0     glsl_core:icgen.obj
 0001:000061e8       ??_C@_0DN@FHIHEFIH@ICProcessConstructor?3?5Failed?5to?5@ 100071e8     glsl_core:icgen.obj
 0001:00006228       ??_C@_0BD@IJCPJIOI@uDestColIndex?5?$DN?$DN?50?$AA@ 10007228     glsl_core:icgen.obj
 0001:00006240       ??_C@_0EH@NBABOIGI@ProcessConstructorForBasicType?3?5@ 10007240     glsl_core:icgen.obj
 0001:00006288       ??_C@_0BK@JNHKJALB@Failed?5to?5allocate?5memory?$AA@ 10007288     glsl_core:icgen.obj
 0001:000062a8       ??_C@_0EB@EMNKHLOF@ProcessConstructorMatrix?3?5Failed@ 100072a8     glsl_core:icgen.obj
 0001:000062f0       ??_C@_0FH@GDHHEECM@psFunctionCallData?9?$DOsFullySpecif@ 100072f0     glsl_core:icgen.obj
 0001:00006348       ??_C@_0DP@OMFIBLCB@psStructionDefinitionData?9?$DOuNumM@ 10007348     glsl_core:icgen.obj
 0001:00006388       ??_C@_0EJ@JLJGBLJD@ICProcessSturctureConstructor?$CI2?$CJ@ 10007388     glsl_core:icgen.obj
 0001:000063d8       ??_C@_0EI@PHOFAFDG@psFunctionCallData?9?$DOsFullySpecif@ 100073d8     glsl_core:icgen.obj
 0001:00006420       ??_C@_0EJ@FCKCAAJO@ICProcessSturctureConstructor?$CI1?$CJ@ 10007420     glsl_core:icgen.obj
 0001:0000646c       ??_C@_0DF@IIJOONMP@ICProcessUserDefinedFunctionCall@ 1000746c     glsl_core:icgen.obj
 0001:000064a8       ??_C@_0FO@EOGMGCAO@ICProcessUserDefinedFunctionCall@ 100074a8     glsl_core:icgen.obj
 0001:00006508       ??_C@_0FL@KEJALKBC@ICProcessUserDefinedFunctionCall@ 10007508     glsl_core:icgen.obj
 0001:00006568       ??_C@_0EB@FGODMPCM@psFunctionDefinitionData?9?$DOuNumPa@ 10007568     glsl_core:icgen.obj
 0001:000065b0       ??_C@_0EJ@HDNKMJIB@ICProcessUserDefinedFunctionCall@ 100075b0     glsl_core:icgen.obj
 0001:000065fc       ??_C@_0DP@KELPBJCJ@ICProcessInlinedFunctionCall?3?5Fa@ 100075fc     glsl_core:icgen.obj
 0001:00006640       ??_C@_0EK@NKNLOHCO@ICProcessInlinedFunctionCall?3?5Fa@ 10007640     glsl_core:icgen.obj
 0001:00006690       ??_C@_0EO@ONIILGJO@ICProcessInlinedFunctionCall?3?5Fa@ 10007690     glsl_core:icgen.obj
 0001:000066e0       ??_C@_0EF@LBCCBHI@ICProcessInlinedFunctionCall?3?5Fa@ 100076e0     glsl_core:icgen.obj
 0001:00006728       ??_C@_0EH@LNEPOGCF@ICProcessInlinedFunctionCall?3?5Fa@ 10007728     glsl_core:icgen.obj
 0001:00006770       ??_C@_0BM@PGCBEJPD@Failed?5to?5allocated?5memory?6?$AA@ 10007770     glsl_core:icgen.obj
 0001:00006790       ??_C@_0EC@BAGFNBPI@ReplaceInlinedInstOperand?3?5Faile@ 10007790     glsl_core:icgen.obj
 0001:000067d8       ??_C@_0EA@KOLIAEJD@MergeTwoIdentifierUsage?3?5Failed?5@ 100077d8     glsl_core:icgen.obj
 0001:00006818       ??_C@_0BK@CJBKJBGE@psNode?9?$DOuNumChildren?5?$DN?$DN?54?$AA@ 10007818     glsl_core:icgen.obj
 0001:00006834       ??_C@_0DM@OHAOEPHO@IsSymbolBoolConstant?3?5Failed?5to?5@ 10007834     glsl_core:icgen.obj
 0001:00006870       ??_C@_0CI@OAMLJKLF@ProcessNodeFOR?3?5Failed?5to?5add?5pr@ 10007870     glsl_core:icgen.obj
 0001:00006898       ??_C@_0CG@FAOIBCKN@Failed?5to?5add?5bool?5constant?5for?5@ 10007898     glsl_core:icgen.obj
 0001:000068c0       ??_C@_0BK@HPEADGOC@psNode?9?$DOuNumChildren?5?$DN?$DN?52?$AA@ 100078c0     glsl_core:icgen.obj
 0001:000068dc       ??_C@_0BF@CBOFNDJI@psNode?9?$DOuNumChildren?$AA@ 100078dc     glsl_core:icgen.obj
 0001:000068f8       ??_C@_0EA@DLHFHCKD@ICAddICInstruction3aWithPred?3?5Fa@ 100078f8     glsl_core:icgen.obj
 0001:00006938       ??_C@_0EF@PGHEECD@GenerateCodeForPredicateXOR?3?5Fai@ 10007938     glsl_core:icgen.obj
 0001:00006980       ??_C@_0DN@NFHNNJKH@GLSLInitCompiler?3?5Failed?5to?5init@ 10007980     glsl_core:glsl.obj
 0001:000069c0       ??_C@_0DM@HGOAPKL@GLSLInitCompiler?3?5Failed?5to?5crea@ 100079c0     glsl_core:glsl.obj
 0001:000069fc       ??_C@_0BD@EDKDABEF@shaderanalysis?4txt?$AA@ 100079fc     glsl_core:glsl.obj
 0001:00006a10       ??_C@_03CCGKKFHG@a?$CLt?$AA@ 10007a10     glsl_core:glsl.obj
 0001:00006a14       ??_C@_0BB@GOFCBDKF@Compile?5failed?4?6?$AA@ 10007a14     glsl_core:glsl.obj
 0001:00006a28       ??_C@_09EHKFFFJM@Success?4?6?$AA@ 10007a28     glsl_core:glsl.obj
 0001:00006a38       ??_C@_0EB@ODKFCOMG@GLSLGenerateInfoLog?3?5Could?5not?5a@ 10007a38     glsl_core:glsl.obj
 0001:00006a7c       ??_C@_0CM@HLEOFKBF@?$CFd?5compilation?5errors?4?5No?5code?5g@ 10007a7c     glsl_core:glsl.obj
 0001:00006aa8       ??_C@_0BL@EDLNLOE@?$CFd?5compilation?5warnings?4?6?6?$AA@ 10007aa8     glsl_core:glsl.obj
 0001:00006ac4       ??_C@_0BG@EEEBGCID@?$CFd?5internal?5errors?4?6?6?$AA@ 10007ac4     glsl_core:glsl.obj
 0001:00006ae0       ??_C@_0EB@MLBLKHDD@GLSLCompileProgram?3?5Failed?5to?5ge@ 10007ae0     glsl_core:glsl.obj
 0001:00006b24       ??_C@_0DC@DHKBPFFD@GLSLCompileProgram?3?5Failed?5to?5cr@ 10007b24     glsl_core:glsl.obj
 0001:00006b58       ??_C@_0BB@KELPLCJN@Fragment?5Program?$AA@ 10007b58     glsl_core:glsl.obj
 0001:00006b6c       ??_C@_0P@JDCINLJB@Vertex?5Program?$AA@ 10007b6c     glsl_core:glsl.obj
 0001:00006b7c       ??_C@_0BK@LPFOIAFP@No?5source?5code?5supplied?4?6?$AA@ 10007b7c     glsl_core:glsl.obj
 0001:00006b98       ??_C@_0CO@NDKKDOLH@GLSLCompileProgram?3?5Compiler?5not@ 10007b98     glsl_core:glsl.obj
 0001:00006bc8       ??_C@_0DL@CHKEPGGN@GLSLCompileProgram?3?5Compiler?5pri@ 10007bc8     glsl_core:glsl.obj
 0001:00006c08       ??_C@_0EG@IICLGHFM@GLSLInitCompiler?3?5Failed?5to?5gene@ 10007c08     glsl_core:glsl.obj
 0001:00006c50       ??_C@_0BG@COOJENBA@Built?9in?5vertex?5state?$AA@ 10007c50     glsl_core:glsl.obj
 0001:00006c68       ??_C@_0EI@MMDDKHEI@GLSLInitCompiler?3?5Failed?5to?5gene@ 10007c68     glsl_core:glsl.obj
 0001:00006cb0       ??_C@_0BI@FOGLGBPC@Built?9in?5fragment?5state?$AA@ 10007cb0     glsl_core:glsl.obj
 0001:00006cc8       asGLSLBuiltInFunctionInfoTable 10007cc8     glsl_core:icbuiltin.obj
 0001:00006fc8       ??_C@_0EA@FAGMKADK@ProcessBuiltInRadians?3?5Failed?5to@ 10007fc8     glsl_core:icbuiltin.obj
 0001:00007008       ??_C@_0EC@DDFDFADF@ICProcessBIFNdegrees?3?5Failed?5to?5@ 10008008     glsl_core:icbuiltin.obj
 0001:00007050       ??_C@_0EJ@HFNDMIOO@C?3?2WinCE?2OMAP?2DDK1?45?2eurasia?2too@ 10008050     glsl_core:icbuiltin.obj
 0001:0000709c       ??_C@_0BJ@BEKMPAFI@?$CInumsources?$CJ?5?$DM?5MAX_OPRDS?$AA@ 1000809c     glsl_core:icbuiltin.obj
 0001:000070b8       ??_C@_0FA@NHCEIIGH@ICProcessBIFNatan?3?5We?5don?8t?5supp@ 100080b8     glsl_core:icbuiltin.obj
 0001:00007108       ??_C@_0CK@CHMIKHLD@ICProcessBIFNsqrt?3?5Failed?5to?5add@ 10008108     glsl_core:icbuiltin.obj
 0001:00007134       ??_C@_0CL@GHEBDCDK@ICProcessBIFNclamp?3?5Failed?5to?5ad@ 10008134     glsl_core:icbuiltin.obj
 0001:00007160       ??_C@_0DP@ELDOOPJB@ICProcessBIFNstep?3?5Failed?5to?5add@ 10008160     glsl_core:icbuiltin.obj
 0001:000071a0       ??_C@_0EJ@PPEOMFAK@ICProcessBIFNsmoothstep?3?5Failed?5@ 100081a0     glsl_core:icbuiltin.obj
 0001:000071f0       ??_C@_0FB@MCHEEGFD@ICProcessBIFNsmoothstep?3?5Failed?5@ 100081f0     glsl_core:icbuiltin.obj
 0001:00007248       ??_C@_0EJ@ILPKMDPL@ICProcessBIFNsmoothstep?3?5Failed?5@ 10008248     glsl_core:icbuiltin.obj
 0001:00007298       ??_C@_0FB@BPGMHANB@ICProcessBIFNsmoothstep?3?5Failed?5@ 10008298     glsl_core:icbuiltin.obj
 0001:000072f0       ??_C@_0EF@LPJNIBGO@ICProcessBIFNsmoothstep?3?5Failed?5@ 100082f0     glsl_core:icbuiltin.obj
 0001:00007338       ??_C@_0EB@HFIFBHLL@ICProcessBIFNlength?3?5Failed?5to?5a@ 10008338     glsl_core:icbuiltin.obj
 0001:00007380       ??_C@_0EC@MILNHFMC@ICProcessBIFNdistance?3?5Failed?5to@ 10008380     glsl_core:icbuiltin.obj
 0001:000073c8       ??_C@_0ED@KGCJIJMA@ICProcessBIFNdistance?3?5Failed?5to@ 100083c8     glsl_core:icbuiltin.obj
 0001:00007410       ??_C@_0EC@ILBDAAHJ@ICProcessBIFNnormalize?3?5Failed?5t@ 10008410     glsl_core:icbuiltin.obj
 0001:00007454       ??_C@_0DG@BPPIPHIN@ICFindBuiltInVariables?3?5Failed?5t@ 10008454     glsl_core:icbuiltin.obj
 0001:0000748c       ??_C@_0BN@HOKGMOHF@gl_ModelViewProjectionMatrix?$AA@ 1000848c     glsl_core:icbuiltin.obj
 0001:000074ac       ??_C@_09MPJGCHGP@gl_Vertex?$AA@ 100084ac     glsl_core:icbuiltin.obj
 0001:000074b8       ??_C@_0EL@FJINNMBK@ICProcessBIFNfaceforward?3?5Failed@ 100084b8     glsl_core:icbuiltin.obj
 0001:00007508       ??_C@_0EF@BOCLGNAC@ICProcessBIFNfaceforward?3?5Failed@ 10008508     glsl_core:icbuiltin.obj
 0001:00007550       ??_C@_0EG@DNJLNNGI@ICProcessBIFNfaceforward?3?5Failed@ 10008550     glsl_core:icbuiltin.obj
 0001:00007598       ??_C@_0EH@FNDHJFFG@ICProcessBIFNreflect?3?5Failed?5to?5@ 10008598     glsl_core:icbuiltin.obj
 0001:000075e0       ??_C@_0EC@EJBIOOLG@ICProcessBIFNreflect?3?5Failed?5to?5@ 100085e0     glsl_core:icbuiltin.obj
 0001:00007628       ??_C@_0EC@HMPFFIOF@ICProcessBIFNreflect?3?5Failed?5to?5@ 10008628     glsl_core:icbuiltin.obj
 0001:00007670       ??_C@_0EC@NJHOMIOL@ICProcessBIFNreflect?3?5Failed?5to?5@ 10008670     glsl_core:icbuiltin.obj
 0001:000076b8       ??_C@_0EH@HEALAHKK@ICProcessBIFNrefract?3?5Failed?5to?5@ 100086b8     glsl_core:icbuiltin.obj
 0001:00007700       ??_C@_0EH@BBGMDMOM@ICProcessBIFNrefract?3?5Failed?5to?5@ 10008700     glsl_core:icbuiltin.obj
 0001:00007748       ??_C@_0ED@DILODEKE@ICProcessBIFNrefract?3?5Failed?5to?5@ 10008748     glsl_core:icbuiltin.obj
 0001:0000778c       ??_C@_0BH@LEGGBNNA@GLSL_IS_MATRIX?$CIeXType?$CJ?$AA@ 1000878c     glsl_core:icbuiltin.obj
 0001:000077a4       ??_C@_0BK@GGFLAHKD@psNode?9?$DOuNumChildren?5?$DN?$DN?53?$AA@ 100087a4     glsl_core:icbuiltin.obj
 0001:000077c0       ??_C@_0EC@FPBGHOI@ICProcessBIFNfwidth?3?5Failed?5to?5a@ 100087c0     glsl_core:icbuiltin.obj
 0001:00007808       ??_C@_0HE@KANLKGLO@GLSLBuiltInFunctionID?$CIpsFunction@ 10008808     glsl_core:icbuiltin.obj
 0001:00007880       ??_C@_0EI@DFOOGKIG@C?3?2WinCE?2OMAP?2DDK1?45?2eurasia?2too@ 10008880     glsl_core:icunroll.obj
 0001:000078c8       ??_C@_0CG@CFAAHEMC@psLoopInst?9?$DOeOpCode?5?$DN?$DN?5GLSLIC_OP@ 100088c8     glsl_core:icunroll.obj
 0001:000078f0       ??_C@_0EF@DCNCABNL@ExamineLoopUpdateCode?3?5Failed?5to@ 100088f0     glsl_core:icunroll.obj
 0001:00007938       ??_C@_0DA@MGBPFGBB@ExamineLoopBodyCode?3?5Failed?5to?5a@ 10008938     glsl_core:icunroll.obj
 0001:00007968       ??_C@_0EM@EKGHCADI@CalculateLoopNumIterations?3?5The?5@ 10008968     glsl_core:icunroll.obj
 0001:000079b8       ??_C@_0EK@JJMOBKNM@CalculateLoopNumIterations?3?5Unsu@ 100089b8     glsl_core:icunroll.obj
 0001:00007a08       ??_C@_0EA@JEKGHCKG@EvaluateCondition?3?5Unsupported?5c@ 10008a08     glsl_core:icunroll.obj
 0001:00007a48       ??_C@_0CM@KCGLEOKF@RewriteLoopCode?3?5Failed?5to?5add?5c@ 10008a48     glsl_core:icunroll.obj
 0001:00007a78       ??_C@_0EO@KKDJICPA@UnrollLoopFORCode?3?5The?5number?5of@ 10008a78     glsl_core:icunroll.obj
 0001:00007ac8       ??_C@_0ED@HBADNIC@UnrollLoopFORCode?3?5The?5program?5a@ 10008ac8     glsl_core:icunroll.obj
 0001:00007b10       ??_C@_0EB@FPBHMEGE@UnrollLoopFORCode?3?5Unsuported?5in@ 10008b10     glsl_core:icunroll.obj
 0001:00007b54       ??_C@_0DD@PIOABMDH@RewriteLoopCode?3?5Index?5to?5an?5arr@ 10008b54     glsl_core:icunroll.obj
 0001:00007b88       ??_C@_0EC@CMPKOFAC@RewriteLoopCode?3?5Need?5to?5be?5one?5@ 10008b88     glsl_core:icunroll.obj
 0001:00007bcc       ??_C@_0CG@MPNCAOLK@psInvariants?$FLi?$FN?4iWriteToLine?$FLj?$FN?5@ 10008bcc     glsl_core:icunroll.obj
 0001:00007bf4       guSupportedGLSLVersions    10008bf4     glsl_core:prepro.obj
 0001:00007bf8       ??_C@_0DH@OOJOKFBO@Premature?5end?5of?5source?$DL?5preproc@ 10008bf8     glsl_core:prepro.obj
 0001:00007c30       ??_C@_0M@NHEOPBPN@__VERSION__?$AA@ 10008c30     glsl_core:prepro.obj
 0001:00007c3c       ??_C@_08FMJNKKCK@__FILE__?$AA@ 10008c3c     glsl_core:prepro.obj
 0001:00007c48       ??_C@_08ICCNKGAE@__LINE__?$AA@ 10008c48     glsl_core:prepro.obj
 0001:00007c54       ??_C@_0BH@BIPDNBHG@GL_IMG_texture_stream2?$AA@ 10008c54     glsl_core:prepro.obj
 0001:00007c6c       ??_C@_0BM@PDHDFJJA@GL_OES_standard_derivatives?$AA@ 10008c6c     glsl_core:prepro.obj
 0001:00007c88       ??_C@_0BL@MEHCMLOH@GL_FRAGMENT_PRECISION_HIGH?$AA@ 10008c88     glsl_core:prepro.obj
 0001:00007ca4       ??_C@_05LFMKIPII@GL_ES?$AA@ 10008ca4     glsl_core:prepro.obj
 0001:00007cac       ??_C@_01HIHLOKLC@1?$AA@    10008cac     glsl_core:prepro.obj
 0001:00007cb0       ??_C@_0EG@NKPCEHMI@C?3?2WinCE?2OMAP?2DDK1?45?2eurasia?2too@ 10008cb0     glsl_core:prepro.obj
 0001:00007cf8       ??_C@_0BD@JNHPGIN@Preprocessor?5state?$AA@ 10008cf8     glsl_core:prepro.obj
 0001:00007d0c       ??_C@_01GBGANLPD@0?$AA@    10008d0c     glsl_core:prepro.obj
 0001:00007d10       ??_C@_0CE@EJBLHJEA@?8defined?8?5?3?5expected?5right?5brack@ 10008d10     glsl_core:prepro.obj
 0001:00007d34       ??_C@_0CC@KGJBNJBG@?8defined?8?5?3?5expected?5define?5name@ 10008d34     glsl_core:prepro.obj
 0001:00007d58       ??_C@_07MJAJDDLG@defined?$AA@ 10008d58     glsl_core:prepro.obj
 0001:00007d60       ??_C@_0CE@KBGLPNNM@?8?$CFs?8?5?3?5Argument?5counts?5don?8t?5mat@ 10008d60     glsl_core:prepro.obj
 0001:00007d84       ??_C@_0BP@CGAKPJI@?8?$CFs?8?5?3?5Too?5few?5args?5for?5macro?6?$AA@ 10008d84     glsl_core:prepro.obj
 0001:00007da4       ??_C@_0CC@JCKNBEKC@?8?$CFs?8?5?3?5Expected?5comma?5or?5bracket@ 10008da4     glsl_core:prepro.obj
 0001:00007dc8       ??_C@_0CA@LPFIOHMP@?8?$CFs?8?5?3?5Too?5many?5args?5for?5macro?6?$AA@ 10008dc8     glsl_core:prepro.obj
 0001:00007de8       ??_C@_0CB@GKCLFFFI@?8?$CFs?8?5?3?5Expected?5macro?5parameter?6@ 10008de8     glsl_core:prepro.obj
 0001:00007e10       ??_C@_0EL@EFJIHIAO@PPCheckForMacroReplacement?3?5Coul@ 10008e10     glsl_core:prepro.obj
 0001:00007e5c       ??_C@_0BK@GJEIJPFO@?8?8?5?3?5?5?5Invalid?5directive?6?$AA@ 10008e5c     glsl_core:prepro.obj
 0001:00007e78       ??_C@_0BN@FIDJAKIO@?8?8?5?3?5?5?5Invalid?5directive?5?$CFs?6?$AA@ 10008e78     glsl_core:prepro.obj
 0001:00007e98       ??_C@_07CPCPJPKL@version?$AA@ 10008e98     glsl_core:prepro.obj
 0001:00007ea0       ??_C@_09ODADEDNA@extension?$AA@ 10008ea0     glsl_core:prepro.obj
 0001:00007eac       ??_C@_06PGFLMPLC@pragma?$AA@ 10008eac     glsl_core:prepro.obj
 0001:00007eb4       ??_C@_04HJPCFDOP@line?$AA@ 10008eb4     glsl_core:prepro.obj
 0001:00007ebc       ??_C@_05KKCIMGE@error?$AA@ 10008ebc     glsl_core:prepro.obj
 0001:00007ec4       ??_C@_05PKCPKOLM@undef?$AA@ 10008ec4     glsl_core:prepro.obj
 0001:00007ecc       ??_C@_06EPMMJFDC@define?$AA@ 10008ecc     glsl_core:prepro.obj
 0001:00007ed4       ??_C@_05PAODFFED@endif?$AA@ 10008ed4     glsl_core:prepro.obj
 0001:00007edc       ??_C@_04GNFOIEOK@elif?$AA@ 10008edc     glsl_core:prepro.obj
 0001:00007ee4       ??_C@_06ENONKJGC@ifndef?$AA@ 10008ee4     glsl_core:prepro.obj
 0001:00007eec       ??_C@_05LOELCHJN@ifdef?$AA@ 10008eec     glsl_core:prepro.obj
 0001:00007ef4       ??_C@_04FHMCPBIP@else?$AA@ 10008ef4     glsl_core:prepro.obj
 0001:00007efc       ??_C@_02HEBPBKGD@if?$AA@   10008efc     glsl_core:prepro.obj
 0001:00007f00       ??_C@_0CD@HCBNCNFN@Max?5number?5of?5nested?5?$CDif?8s?5is?525@ 10008f00     glsl_core:prepro.obj
 0001:00007f24       ??_C@_0CF@KPOHIJFF@invalid?5integer?5constant?5express@ 10008f24     glsl_core:prepro.obj
 0001:00007f4c       ??_C@_0BM@DEGLEPEH@Syntax?5error?0?5expected?5?8?$CJ?8?6?$AA@ 10008f4c     glsl_core:prepro.obj
 0001:00007f68       ??_C@_0CD@GKAKFNBE@Syntax?5error?5?$CIadding?5node?5failed@ 10008f68     glsl_core:prepro.obj
 0001:00007f8c       ??_C@_0BO@DLAFAMIF@Syntax?5error?0?5unexpected?5?8?$CJ?8?6?$AA@ 10008f8c     glsl_core:prepro.obj
 0001:00007fac       ??_C@_0CE@HJLDFOFG@PPCreateExpressionTree?3?5No?5token@ 10008fac     glsl_core:prepro.obj
 0001:00007fd0       ??_C@_0DJ@IJECHPGG@PPGetTokenPrecedence?3?5Unrecognis@ 10008fd0     glsl_core:prepro.obj
 0001:0000800c       ??_C@_0CL@EDGLBKBM@PPAddChildNode?3?5No?5more?5room?5for@ 1000900c     glsl_core:prepro.obj
 0001:00008038       ??_C@_0EF@LBMLNGIO@PPAddParentNode?3?5Cannot?5insert?0?5@ 10009038     glsl_core:prepro.obj
 0001:00008080       ??_C@_0CL@IEGCGKNN@PPAddParentNode?3?5Child?5already?5h@ 10009080     glsl_core:prepro.obj
 0001:000080ac       ??_C@_0DK@IOAHBFFC@PPAddParentNode?3?5Cannot?5insert?0?5@ 100090ac     glsl_core:prepro.obj
 0001:000080e8       ??_C@_0DB@GOGEIOHJ@PPAddParentNode?3?5No?5child?5node?5t@ 100090e8     glsl_core:prepro.obj
 0001:0000811c       ??_C@_0O@JJFGCDGG@Syntax?5error?6?$AA@ 1000911c     glsl_core:prepro.obj
 0001:0000812c       ??_C@_0BC@DJBPABGL@Syntax?5error?5?$CI3?$CJ?6?$AA@ 1000912c     glsl_core:prepro.obj
 0001:00008140       ??_C@_0BA@JNEPDCCE@Child?5was?5?8?$CFs?8?6?$AA@ 10009140     glsl_core:prepro.obj
 0001:00008150       ??_C@_0FG@PPDFGNOF@PPCalculateResultOfExpressionTre@ 10009150     glsl_core:prepro.obj
 0001:000081a8       ??_C@_0DH@HOLFLKOE@PPCalculateResultOfExpressionTre@ 100091a8     glsl_core:prepro.obj
 0001:000081e0       ??_C@_0BC@IBKDGGAO@Syntax?5error?5?$CI2?$CJ?6?$AA@ 100091e0     glsl_core:prepro.obj
 0001:000081f4       ??_C@_0CC@GKPFBPGO@?8?8?5?3?5syntax?5error?5?$CDelif?5mismatch@ 100091f4     glsl_core:prepro.obj
 0001:00008218       ??_C@_0CH@MFAFPAKL@?8?8?5?3?5syntax?5error?5?$CDelse?5after?5a?5@ 10009218     glsl_core:prepro.obj
 0001:00008240       ??_C@_0CC@JDDDANGC@?8?8?5?3?5syntax?5error?5?$CDelse?5mismatch@ 10009240     glsl_core:prepro.obj
 0001:00008264       ??_C@_0DL@KPBHBIBO@Syntax?5error?0?5?$CDif?$FLn?$FNdef?5expected@ 10009264     glsl_core:prepro.obj
 0001:000082a0       ??_C@_0DA@CMGMBEJC@Syntax?5error?0?5?$CDif?$FLn?$FNdef?5expected@ 100092a0     glsl_core:prepro.obj
 0001:000082d0       ??_C@_0BP@GBGBLHBE@Syntax?5error?0?5?$CDendif?5mismatch?6?$AA@ 100092d0     glsl_core:prepro.obj
 0001:000082f0       ??_C@_0BN@KIPMODCH@?8?8?5?3?5syntax?5error?5?$CI2?$CJ?5?$CDline?6?$AA@ 100092f0     glsl_core:prepro.obj
 0001:00008310       ??_C@_0BN@EDMLFICE@?8?8?5?3?5syntax?5error?5?$CI1?$CJ?5?$CDline?6?$AA@ 10009310     glsl_core:prepro.obj
 0001:00008330       ??_C@_0BN@KMAJDDBK@?8?8?5?3?5syntax?5error?5?$CI0?$CJ?5?$CDline?6?$AA@ 10009330     glsl_core:prepro.obj
 0001:00008350       ??_C@_03NFKEKGGK@all?$AA@  10009350     glsl_core:prepro.obj
 0001:00008354       ??_C@_09LKJAEOAL@invariant?$AA@ 10009354     glsl_core:prepro.obj
 0001:00008360       ??_C@_05DENLBJCI@STDGL?$AA@ 10009360     glsl_core:prepro.obj
 0001:00008368       ??_C@_0BP@HOIBJPGN@?8?8?5?3?5syntax?5error?5?$CDpragma?5?$CI5?$CJ?6?$AA@ 10009368     glsl_core:prepro.obj
 0001:00008388       ??_C@_0BP@MGDNPIAI@?8?8?5?3?5syntax?5error?5?$CDpragma?5?$CI4?$CJ?6?$AA@ 10009388     glsl_core:prepro.obj
 0001:000083a8       ??_C@_03MCADLMAF@off?$AA@  100093a8     glsl_core:prepro.obj
 0001:000083ac       ??_C@_02LIELOMNJ@on?$AA@   100093ac     glsl_core:prepro.obj
 0001:000083b0       ??_C@_0BP@FLOKMALB@?8?8?5?3?5syntax?5error?5?$CDpragma?5?$CI3?$CJ?6?$AA@ 100093b0     glsl_core:prepro.obj
 0001:000083d0       ??_C@_0BP@ODFGKHNE@?8?8?5?3?5syntax?5error?5?$CDpragma?5?$CI2?$CJ?6?$AA@ 100093d0     glsl_core:prepro.obj
 0001:000083f0       ??_C@_05GFCDIDHO@debug?$AA@ 100093f0     glsl_core:prepro.obj
 0001:000083f8       ??_C@_08GHMAOHAP@optimize?$AA@ 100093f8     glsl_core:prepro.obj
 0001:00008404       ??_C@_0BP@PBODAIDK@?8?8?5?3?5syntax?5error?5?$CDpragma?5?$CI1?$CJ?6?$AA@ 10009404     glsl_core:prepro.obj
 0001:00008424       ??_C@_0DC@DMMOALJN@ProcessDefine?3?5Failed?5to?5add?5?8?$CFs@ 10009424     glsl_core:prepro.obj
 0001:00008458       ??_C@_0CA@EEONNNLN@?8?$CFs?8?5?3?5Expected?5macro?5argument?6?$AA@ 10009458     glsl_core:prepro.obj
 0001:00008478       ??_C@_0CH@BHFFCOAB@Syntax?5error?0?5?8?$CFs?8?5macro?5redefin@ 10009478     glsl_core:prepro.obj
 0001:000084a0       ??_C@_0EK@FBBHFMHJ@Syntax?5error?0?5cannot?5?$CDdefine?5?$CFs?0@ 100094a0     glsl_core:prepro.obj
 0001:000084ec       ??_C@_02FKHNAOPL@__?$AA@   100094ec     glsl_core:prepro.obj
 0001:000084f0       ??_C@_0EL@LFKEIEFK@Syntax?5error?0?5cannot?5?$CDdefine?5?$CFs?0@ 100094f0     glsl_core:prepro.obj
 0001:0000853c       ??_C@_03JMNLHFFI@GL_?$AA@  1000953c     glsl_core:prepro.obj
 0001:00008540       ??_C@_0CI@IJIPBHKF@Syntax?5error?0?5invalid?5name?5for?5?$CD@ 10009540     glsl_core:prepro.obj
 0001:00008568       ??_C@_0DC@OPENOEK@Syntax?5error?0?5no?5parameter?5speci@ 10009568     glsl_core:prepro.obj
 0001:0000859c       ??_C@_0CN@PODKFFDK@ProcessUndef?3?5Failed?5to?5removed?5@ 1000959c     glsl_core:prepro.obj
 0001:000085cc       ??_C@_0CJ@LCIHINM@Syntax?5error?0?5?8?$CFs?8?5has?5not?5been?5@ 100095cc     glsl_core:prepro.obj
 0001:000085f8       ??_C@_0EJ@BKPGFLAN@Syntax?5error?0?5cannot?5?$CDundef?5?$CFs?0?5@ 100095f8     glsl_core:prepro.obj
 0001:00008648       ??_C@_0EK@OCIHNAHI@Syntax?5error?0?5cannot?5?$CDundef?5?$CFs?0?5@ 10009648     glsl_core:prepro.obj
 0001:00008694       ??_C@_0CH@MLOHABDG@Syntax?5error?0?5invalid?5name?5for?5?$CD@ 10009694     glsl_core:prepro.obj
 0001:000086bc       ??_C@_0DB@LIINDMKH@Syntax?5error?0?5no?5parameter?5speci@ 100096bc     glsl_core:prepro.obj
 0001:000086f0       ??_C@_0CN@OPCCPMJP@Syntax?5error?0?5GLSL?5Version?5?$CFu?5no@ 100096f0     glsl_core:prepro.obj
 0001:00008720       ??_C@_0DH@IBPICOMB@Syntax?5error?0?5invalid?5parameter?5@ 10009720     glsl_core:prepro.obj
 0001:00008758       ??_C@_0DD@ENEBBIIF@Syntax?5error?0?5no?5parameter?5speci@ 10009758     glsl_core:prepro.obj
 0001:0000878c       ??_C@_0DP@LOEJHIFO@?$CDversion?5must?5occur?5before?5any?5o@ 1000978c     glsl_core:prepro.obj
 0001:000087cc       ??_C@_0CH@PIOIPIG@?8?8?5?3?5?5behaviour?5?8?$CFs?8?5is?5not?5supp@ 100097cc     glsl_core:prepro.obj
 0001:000087f4       ??_C@_07DBNODEFN@disable?$AA@ 100097f4     glsl_core:prepro.obj
 0001:000087fc       ??_C@_04FNLOFOEM@warn?$AA@ 100097fc     glsl_core:prepro.obj
 0001:00008804       ??_C@_06OFNJOBDK@enable?$AA@ 10009804     glsl_core:prepro.obj
 0001:0000880c       ??_C@_0BM@DLKHKEPF@Extension?5?$CFs?5not?5supported?6?$AA@ 1000980c     glsl_core:prepro.obj
 0001:00008828       ??_C@_0EC@FNDPJJJD@?8?8?5?3?5extension?5?8all?8?5cannot?5have@ 10009828     glsl_core:prepro.obj
 0001:0000886c       ??_C@_07FFLLPPLH@require?$AA@ 1000986c     glsl_core:prepro.obj
 0001:00008874       ??_C@_0CN@PKNKALFI@?8?8?5?3?5?5behaviour?5for?5extension?5no@ 10009874     glsl_core:prepro.obj
 0001:000088a4       ??_C@_0CI@GHIJPKCB@?8?8?5?3?5?5?8?3?8?5missing?5after?5extensio@ 100098a4     glsl_core:prepro.obj
 0001:000088cc       ??_C@_0CE@OPJBKFOM@?8?8?5?3?5?5extension?5name?5not?5specifi@ 100098cc     glsl_core:prepro.obj
 0001:000088f0       ??_C@_0BG@MLPOBCKO@GL_OES_standard_noise?$AA@ 100098f0     glsl_core:prepro.obj
 0001:00008908       ??_C@_0BC@HOAGCCFG@GL_OES_texture_3D?$AA@ 10009908     glsl_core:prepro.obj
 0001:0000891c       ??_C@_0P@BBCFBFHE@?$CDdefine?5?$CFs?5?$CFs?6?$AA@ 1000991c     glsl_core:prepro.obj
 0001:0000892c       ??_C@_0DA@OFOIIK@?$CFsnot?5supported?5in?5this?5language@ 1000992c     glsl_core:glsltree.obj
 0001:0000895c       ??_C@_01CLKCMJKC@?5?$AA@   1000995c     glsl_core:glsltree.obj
 0001:00008960       ??_C@_07BGPGDKED@?8?$CFs?8?5?3?5?$AA@ 10009960     glsl_core:glsltree.obj
 0001:00008968       ??_C@_0DF@OHKGDFCN@sampler3D?5requires?5the?5extension@ 10009968     glsl_core:glsltree.obj
 0001:000089a0       ??_C@_0EK@KIHIJACE@AddPrecisionModifierToTable?3?5Fai@ 100099a0     glsl_core:glsltree.obj
 0001:000089f0       ??_C@_0EP@JEBEJCLE@AddPrecisionModifierToTable?3?5Fai@ 100099f0     glsl_core:glsltree.obj
 0001:00008a40       ??_C@_0DD@DGJJNNGO@GetCurrentPrecision?3?5Incorrect?5d@ 10009a40     glsl_core:glsltree.obj
 0001:00008a78       ??_C@_0EI@LCMGNHO@C?3?2WinCE?2OMAP?2DDK1?45?2eurasia?2too@ 10009a78     glsl_core:glsltree.obj
 0001:00008ac0       ??_C@_0M@GPJHHEN@prec_mod?$EA?$CFs?$AA@ 10009ac0     glsl_core:glsltree.obj
 0001:00008acc       ??_C@_0DH@KBPDOEND@GetCurrentPrecision?3?5Could?5not?5f@ 10009acc     glsl_core:glsltree.obj
 0001:00008b04       ??_C@_0DE@JAKMIKHG@GetCurrentPrecision?3?5Invalid?5typ@ 10009b04     glsl_core:glsltree.obj
 0001:00008b38       ??_C@_0BN@PFCALEBB@?8?$CFs?8?5?3?5undeclared?5identifer?6?$AA@ 10009b38     glsl_core:glsltree.obj
 0001:00008b58       ??_C@_0EM@FKDAPCAM@ASTCreateFLOATCONSTANTNode?3?5Fail@ 10009b58     glsl_core:glsltree.obj
 0001:00008ba4       ??_C@_0BC@BMKFIMFD@suffix?5for?5floats?$AA@ 10009ba4     glsl_core:glsltree.obj
 0001:00008bb8       ??_C@_0EI@MCPNKHJK@ASTCreateINTCONSTANTNode?3?5Failed@ 10009bb8     glsl_core:glsltree.obj
 0001:00008c00       ??_C@_0EK@PGBNNBBI@ASTCreateBOOLCONSTANTNode?3?5Faile@ 10009c00     glsl_core:glsltree.obj
 0001:00008c50       ??_C@_0EH@BMGECEBD@ASTCreateBOOLCONSTANTNode?3?5BOOLC@ 10009c50     glsl_core:glsltree.obj
 0001:00008c98       ??_C@_0CO@OEODLIAF@?8?$CFs?8?5?3?5no?5matching?5overloaded?5fu@ 10009c98     glsl_core:glsltree.obj
 0001:00008cc8       ??_C@_0DL@GAGGKDE@Invalid?5call?5to?5function?5?$CFs?3?5ext@ 10009cc8     glsl_core:glsltree.obj
 0001:00008d04       ??_C@_0BE@MKEJKJNF@IMG_texture_stream2?$AA@ 10009d04     glsl_core:glsltree.obj
 0001:00008d18       ??_C@_0BD@HMADEMII@OES_standard_noise?$AA@ 10009d18     glsl_core:glsltree.obj
 0001:00008d2c       ??_C@_0BJ@BBLIOIPO@OES_standard_derivatives?$AA@ 10009d2c     glsl_core:glsltree.obj
 0001:00008d48       ??_C@_0JK@IAGAKDJC@?8?$CFs?8?5?3?5more?5than?5one?5function?5ma@ 10009d48     glsl_core:glsltree.obj
 0001:00008de8       ??_C@_0EI@NNINOFGD@ASTRegisterFunctionCall?3?5Called?5@ 10009de8     glsl_core:glsltree.obj
 0001:00008e30       ??_C@_0GM@EBNFJECL@GLSLBuiltInFunctionID?$CIpsCalledFu@ 10009e30     glsl_core:glsltree.obj
 0001:00008ea0       ??_C@_0EH@ILPHHAPA@ASTRegisterFunctionCall?3?5Failed?5@ 10009ea0     glsl_core:glsltree.obj
 0001:00008ee8       ??_C@_0DL@PAJHOCGG@ASTRegisterFunctionCall?3?5Failed?5@ 10009ee8     glsl_core:glsltree.obj
 0001:00008f28       ??_C@_0EC@BOOJLKME@ASTCreateFunctionNode?3?5Failed?5to@ 10009f28     glsl_core:glsltree.obj
 0001:00008f6c       ??_C@_0DI@FBAOMKMA@?8?$CFs?8?5?3?5expected?5formal?5parameter@ 10009f6c     glsl_core:glsltree.obj
 0001:00008fa4       ??_C@_0CE@FEHIBDDG@?8?$CFs?8?5?3?5function?5already?5has?5a?5bo@ 10009fa4     glsl_core:glsltree.obj
 0001:00008fc8       ??_C@_0EA@EHOOEHJF@?8?$CFs?8?5?3?5overloaded?5functions?5must@ 10009fc8     glsl_core:glsltree.obj
 0001:00009008       ??_C@_0EF@IPIFIILD@?8?$CFs?8?5?3?5overloaded?5functions?5must@ 1000a008     glsl_core:glsltree.obj
 0001:00009050       ??_C@_0DL@BCPLAMHH@?8?$CFs?8?5?3?5overloaded?5function?5must?5@ 1000a050     glsl_core:glsltree.obj
 0001:00009090       ??_C@_0GE@GJANLIDF@ASTCreateFunctionNode?3?5Could?5not@ 1000a090     glsl_core:glsltree.obj
 0001:000090f8       ??_C@_0EB@GCPBJMLE@ASTCreateFunctionNode?3?5Failed?5to@ 1000a0f8     glsl_core:glsltree.obj
 0001:00009140       ??_C@_0EF@PBLBAFO@ASTCreateFunctionNode?3?5Failed?5to@ 1000a140     glsl_core:glsltree.obj
 0001:00009188       ??_C@_0FA@MBCKCNJA@ASTCreateFunctionNode?3?5?$CFs?5alread@ 1000a188     glsl_core:glsltree.obj
 0001:000091d8       ??_C@_05NHLPFGDD@rv_?$CFs?$AA@ 1000a1d8     glsl_core:glsltree.obj
 0001:000091e0       ??_C@_0DM@NFAOPOPI@?8?$CFs?8?5?3?5overloaded?5functions?5must@ 1000a1e0     glsl_core:glsltree.obj
 0001:00009220       ??_C@_0EC@OJMAPCKD@ASTCreateFunctionNode?3?5Name?5alre@ 1000a220     glsl_core:glsltree.obj
 0001:00009264       ??_C@_0CN@ONFDOADB@?8?$CFs?8?5?3?5?5main?5function?5cannot?5ret@ 1000a264     glsl_core:glsltree.obj
 0001:00009294       ??_C@_0CO@DANJKBKG@?8?$CFs?8?5?3?5function?5cannot?5take?5any?5@ 1000a294     glsl_core:glsltree.obj
 0001:000092c4       ??_C@_04GHJNJNPO@main?$AA@ 1000a2c4     glsl_core:glsltree.obj
 0001:000092cc       ??_C@_0N@LGCNPFJO@struct_?$CFs?$EA?$CFs?$AA@ 1000a2cc     glsl_core:glsltree.obj
 0001:000092dc       ??_C@_0CD@FEPDOILB@?8?$CFs?8?5?3?5no?5such?5field?5in?5structur@ 1000a2dc     glsl_core:glsltree.obj
 0001:00009300       ??_C@_0EO@GIOJHDLL@ASTProcessFieldSelection?3?5Retrie@ 1000a300     glsl_core:glsltree.obj
 0001:00009350       ??_C@_0DN@BAFLCICL@ASTProcessFieldSelection?3?5Failed@ 1000a350     glsl_core:glsltree.obj
 0001:00009390       ??_C@_0DI@EGEHFPGE@ASTProcessFieldSelection?3?5No?5str@ 1000a390     glsl_core:glsltree.obj
 0001:000093c8       ??_C@_0DL@OILKCIP@ASTProcessFieldSelection?3?5Failed@ 1000a3c8     glsl_core:glsltree.obj
 0001:00009408       ??_C@_0FA@IMJOPAMG@?8?$CFs?8?5?3?5field?5selection?5requires?5@ 1000a408     glsl_core:glsltree.obj
 0001:00009458       ??_C@_0DP@IAIIPJPA@ASTCreateSwizzleNode?3?5Failed?5to?5@ 1000a458     glsl_core:glsltree.obj
 0001:00009498       ??_C@_09EALEHKDP@_?$EAswizzle?$AA@ 1000a498     glsl_core:glsltree.obj
 0001:000094a4       ??_C@_0DO@GGEOHJHJ@?8?$CFs?8?5?3?5vector?5field?5components?5d@ 1000a4a4     glsl_core:glsltree.obj
 0001:000094e4       ??_C@_0CH@HBLJCFGF@?8?$CFs?8?5?3?5illegal?5vector?5field?5sele@ 1000a4e4     glsl_core:glsltree.obj
 0001:0000950c       ??_C@_0CM@GMGAPJE@?8?$CFs?8?5?3?5only?5varyings?5can?5be?5made@ 1000a50c     glsl_core:glsltree.obj
 0001:00009538       ??_C@_0EB@FPLDGAMG@?8?$CFs?8?5?3?5invariant?5status?5can?5only@ 1000a538     glsl_core:glsltree.obj
 0001:0000957c       ??_C@_0DJ@ECIMHPED@?8void?8?5?3?5cannot?5be?5an?5argument?5t@ 1000a57c     glsl_core:glsltree.obj
 0001:000095b8       ??_C@_0CD@CNJMOGG@?8?$CFs?8?5?3?5illegal?5use?5of?5type?5?8void@ 1000a5b8     glsl_core:glsltree.obj
 0001:000095dc       ??_C@_0DL@OGHBFECF@ASTProcessLanguageVersion?3?5Incor@ 1000a5dc     glsl_core:glsltree.obj
 0001:00009618       ??_C@_0P@FGMOOFHC@psParseContext?$AA@ 1000a618     glsl_core:glsltree.obj
 0001:00009628       ??_C@_0BM@PKEIGAJI@Function?5?8?$CFs?8?5has?5no?5body?4?6?$AA@ 1000a628     glsl_core:glsltree.obj
 0001:00009644       ??_C@_0BN@EKNNMDAK@main?$CI?$CJ?5function?5is?5missing?4?6?$AA@ 1000a644     glsl_core:glsltree.obj
 0001:00009668       ??_C@_0ED@HBLOLBFI@gl_Position?5must?5be?5written?5by?5a@ 1000a668     glsl_core:glsltree.obj
 0001:000096ac       ??_C@_0DM@LGEEDOMN@CheckIfFunctionCalled?3?5Symbol?5wa@ 1000a6ac     glsl_core:glsltree.obj
 0001:000096e8       ??_C@_0CN@IHJEBFIF@CheckIfFunctionCalled?3?5Symbol?5wa@ 1000a6e8     glsl_core:glsltree.obj
 0001:00009718       ??_C@_0DK@POLMABBI@Function?5call?5depth?5?$DO?51024?5detec@ 1000a718     glsl_core:glsltree.obj
 0001:00009754       ??_C@_0DM@JMGGMMBP@ReOrderTopLevelNodes?3?5Invalid?5no@ 1000a754     glsl_core:glsltree.obj
 0001:00009790       ??_C@_0DO@PHNFBHCE@ReOrderTopLevelNodes?3?5Failed?5to?5@ 1000a790     glsl_core:glsltree.obj
 0001:000097d0       ??_C@_0EF@CJKDDOEO@C?3?2WinCE?2OMAP?2DDK1?45?2eurasia?2too@ 1000a7d0     glsl_core:icode.obj
 0001:00009818       ??_C@_0CC@KAMECOMD@psICContext?9?$DOiConditionLevel?5?$DN?$DN?5@ 1000a818     glsl_core:icode.obj
 0001:0000983c       ??_C@_0CN@DLHKJMIB@CreateICodeProgram?3?5Failed?5to?5ma@ 1000a83c     glsl_core:icode.obj
 0001:00009870       ??_C@_0EC@NDKDDOLI@GenerateICodeProgram?3?5Failed?5to?5@ 1000a870     glsl_core:icode.obj
 0001:000098b4       ??_C@_0CF@CGLCFJCD@psICProgram?9?$DOpsInstrTail?5?$DN?$DN?5IMG_@ 1000a8b4     glsl_core:icode.obj
 0001:000098dc       ??_C@_0CF@IMBKDGDJ@psICProgram?9?$DOpsInstrHead?5?$DN?$DN?5IMG_@ 1000a8dc     glsl_core:icode.obj
 0001:00009904       ??_C@_06FICGEKME@noise4?$AA@ 1000a904     glsl_core:astbuiltin.obj
 0001:0000990c       ??_C@_06BHGHNMAD@noise3?$AA@ 1000a90c     glsl_core:astbuiltin.obj
 0001:00009914       ??_C@_06OHMONEC@noise2?$AA@ 1000a914     glsl_core:astbuiltin.obj
 0001:0000991c       ??_C@_06CFFBLOIB@noise1?$AA@ 1000a91c     glsl_core:astbuiltin.obj
 0001:00009924       ??_C@_06ECGIDAGM@fwidth?$AA@ 1000a924     glsl_core:astbuiltin.obj
 0001:0000992c       ??_C@_04FKDDHPMN@dFdy?$AA@ 1000a92c     glsl_core:astbuiltin.obj
 0001:00009934       ??_C@_04EDCIEOIM@dFdx?$AA@ 1000a934     glsl_core:astbuiltin.obj
 0001:0000993c       ??_C@_01JBBJJEPG@p?$AA@    1000a93c     glsl_core:astbuiltin.obj
 0001:00009940       ??_C@_0BF@PEMADAKB@textureStreamProjIMG?$AA@ 1000a940     glsl_core:astbuiltin.obj
 0001:00009958       ??_C@_0BB@FNHAJCEE@textureStreamIMG?$AA@ 1000a958     glsl_core:astbuiltin.obj
 0001:0000996c       ??_C@_0BD@GBJBFDJA@textureCubeGradARB?$AA@ 1000a96c     glsl_core:astbuiltin.obj
 0001:00009980       ??_C@_0P@JOIAHBNL@textureCubeLod?$AA@ 1000a980     glsl_core:astbuiltin.obj
 0001:00009990       ??_C@_0M@BNCBNMFA@textureCube?$AA@ 1000a990     glsl_core:astbuiltin.obj
 0001:0000999c       ??_C@_0BF@LHPJKFEA@texture2DProjGradARB?$AA@ 1000a99c     glsl_core:astbuiltin.obj
 0001:000099b4       ??_C@_0BB@IAJJJIBH@texture2DGradARB?$AA@ 1000a9b4     glsl_core:astbuiltin.obj
 0001:000099c8       ??_C@_01EJNLAFE@P?$AA@     1000a9c8     glsl_core:astbuiltin.obj
 0001:000099cc       ??_C@_04DGFKEGMP@dPdx?$AA@ 1000a9cc     glsl_core:astbuiltin.obj
 0001:000099d4       ??_C@_04CPEBHHIO@dPdy?$AA@ 1000a9d4     glsl_core:astbuiltin.obj
 0001:000099dc       ??_C@_0BB@GONKFCAO@texture2DProjLod?$AA@ 1000a9dc     glsl_core:astbuiltin.obj
 0001:000099f0       ??_C@_0N@HLKCMMAC@texture2DLod?$AA@ 1000a9f0     glsl_core:astbuiltin.obj
 0001:00009a00       ??_C@_03ONFBEKOG@lod?$AA@  1000aa00     glsl_core:astbuiltin.obj
 0001:00009a04       ??_C@_04NBAGBPGE@bias?$AA@ 1000aa04     glsl_core:astbuiltin.obj
 0001:00009a0c       ??_C@_0O@HKFBFKON@texture2DProj?$AA@ 1000aa0c     glsl_core:astbuiltin.obj
 0001:00009a1c       ??_C@_09PFEOJLIO@texture2D?$AA@ 1000aa1c     glsl_core:astbuiltin.obj
 0001:00009a28       ??_C@_07PKJOFHPL@sampler?$AA@ 1000aa28     glsl_core:astbuiltin.obj
 0001:00009a30       ??_C@_05OOJODGPM@coord?$AA@ 1000aa30     glsl_core:astbuiltin.obj
 0001:00009a38       ??_C@_03NJKJADM@not?$AA@   1000aa38     glsl_core:astbuiltin.obj
 0001:00009a3c       ??_C@_03OBJFJEBA@any?$AA@  1000aa3c     glsl_core:astbuiltin.obj
 0001:00009a40       ??_C@_08NLCAHAPK@notEqual?$AA@ 1000aa40     glsl_core:astbuiltin.obj
 0001:00009a4c       ??_C@_05OAKNMNI@equal?$AA@ 1000aa4c     glsl_core:astbuiltin.obj
 0001:00009a54       ??_C@_0BB@OGCPNFND@greaterThanEqual?$AA@ 1000aa54     glsl_core:astbuiltin.obj
 0001:00009a68       ??_C@_0M@DEGMAMMN@greaterThan?$AA@ 1000aa68     glsl_core:astbuiltin.obj
 0001:00009a74       ??_C@_0O@HILDIDCG@lessThanEqual?$AA@ 1000aa74     glsl_core:astbuiltin.obj
 0001:00009a84       ??_C@_08OKPGNDDO@lessThan?$AA@ 1000aa84     glsl_core:astbuiltin.obj
 0001:00009a90       ??_C@_0P@CHOCONB@matrixCompMult?$AA@ 1000aa90     glsl_core:astbuiltin.obj
 0001:00009aa0       ??_C@_07HCMBNDDM@refract?$AA@ 1000aaa0     glsl_core:astbuiltin.obj
 0001:00009aa8       ??_C@_03PNFNLNLI@eta?$AA@  1000aaa8     glsl_core:astbuiltin.obj
 0001:00009aac       ??_C@_07CCHDGNII@reflect?$AA@ 1000aaac     glsl_core:astbuiltin.obj
 0001:00009ab4       ??_C@_0M@ENCHEFMG@faceforward?$AA@ 1000aab4     glsl_core:astbuiltin.obj
 0001:00009ac0       ??_C@_01NANMIPIL@N?$AA@    1000aac0     glsl_core:astbuiltin.obj
 0001:00009ac4       ??_C@_01JPJNBJEM@I?$AA@    1000aac4     glsl_core:astbuiltin.obj
 0001:00009ac8       ??_C@_04GCJDEDDH@Nref?$AA@ 1000aac8     glsl_core:astbuiltin.obj
 0001:00009ad0       ??_C@_09MMDNNKKJ@normalize?$AA@ 1000aad0     glsl_core:astbuiltin.obj
 0001:00009adc       ??_C@_05HCKPILGO@cross?$AA@ 1000aadc     glsl_core:astbuiltin.obj
 0001:00009ae4       ??_C@_03GCCHHAFI@dot?$AA@  1000aae4     glsl_core:astbuiltin.obj
 0001:00009ae8       ??_C@_08LHFODBFO@distance?$AA@ 1000aae8     glsl_core:astbuiltin.obj
 0001:00009af4       ??_C@_02ILAJHIEO@p0?$AA@   1000aaf4     glsl_core:astbuiltin.obj
 0001:00009af8       ??_C@_02JCBCEJAP@p1?$AA@   1000aaf8     glsl_core:astbuiltin.obj
 0001:00009afc       ??_C@_06IJDLPEM@length?$AA@ 1000aafc     glsl_core:astbuiltin.obj
 0001:00009b04       ??_C@_0L@JKDMKNKF@smoothstep?$AA@ 1000ab04     glsl_core:astbuiltin.obj
 0001:00009b10       ??_C@_05ENBNOBLK@edge0?$AA@ 1000ab10     glsl_core:astbuiltin.obj
 0001:00009b18       ??_C@_05FEAGNAPL@edge1?$AA@ 1000ab18     glsl_core:astbuiltin.obj
 0001:00009b20       ??_C@_04CNBNFAL@step?$AA@  1000ab20     glsl_core:astbuiltin.obj
 0001:00009b28       ??_C@_04IJFJNCMM@edge?$AA@ 1000ab28     glsl_core:astbuiltin.obj
 0001:00009b30       ??_C@_03LHBHAMGM@mix?$AA@  1000ab30     glsl_core:astbuiltin.obj
 0001:00009b34       ??_C@_01MCMALHOG@a?$AA@    1000ab34     glsl_core:astbuiltin.obj
 0001:00009b38       ??_C@_05HADFAIAH@clamp?$AA@ 1000ab38     glsl_core:astbuiltin.obj
 0001:00009b40       ??_C@_06OPDAEPNI@minVal?$AA@ 1000ab40     glsl_core:astbuiltin.obj
 0001:00009b48       ??_C@_06OMMDKPJH@maxVal?$AA@ 1000ab48     glsl_core:astbuiltin.obj
 0001:00009b50       ??_C@_03LJAEFNNE@max?$AA@  1000ab50     glsl_core:astbuiltin.obj
 0001:00009b54       ??_C@_03KLIPLJLL@min?$AA@  1000ab54     glsl_core:astbuiltin.obj
 0001:00009b58       ??_C@_03FFONCNID@mod?$AA@  1000ab58     glsl_core:astbuiltin.obj
 0001:00009b5c       ??_C@_05JBNKFIFJ@fract?$AA@ 1000ab5c     glsl_core:astbuiltin.obj
 0001:00009b64       ??_C@_04GFPJNGEK@ceil?$AA@ 1000ab64     glsl_core:astbuiltin.obj
 0001:00009b6c       ??_C@_05PBJFFIGL@floor?$AA@ 1000ab6c     glsl_core:astbuiltin.obj
 0001:00009b74       ??_C@_04HHGHLBPI@sign?$AA@ 1000ab74     glsl_core:astbuiltin.obj
 0001:00009b7c       ??_C@_03BCGAIFPO@abs?$AA@  1000ab7c     glsl_core:astbuiltin.obj
 0001:00009b80       ??_C@_0M@MEMLHMJL@inversesqrt?$AA@ 1000ab80     glsl_core:astbuiltin.obj
 0001:00009b8c       ??_C@_04EIAKFFMI@sqrt?$AA@ 1000ab8c     glsl_core:astbuiltin.obj
 0001:00009b94       ??_C@_04KGLCPMCP@log2?$AA@ 1000ab94     glsl_core:astbuiltin.obj
 0001:00009b9c       ??_C@_04HPAFEEIN@exp2?$AA@ 1000ab9c     glsl_core:astbuiltin.obj
 0001:00009ba4       ??_C@_03MGHMBJCF@log?$AA@  1000aba4     glsl_core:astbuiltin.obj
 0001:00009ba8       ??_C@_03KHJOGHMM@exp?$AA@  1000aba8     glsl_core:astbuiltin.obj
 0001:00009bac       ??_C@_03JGHBODFD@pow?$AA@  1000abac     glsl_core:astbuiltin.obj
 0001:00009bb0       ??_C@_04MLLJIGOK@atan?$AA@ 1000abb0     glsl_core:astbuiltin.obj
 0001:00009bb8       ??_C@_08HJJHKHDM@y_over_x?$AA@ 1000abb8     glsl_core:astbuiltin.obj
 0001:00009bc4       ??_C@_04PDIFKINK@acos?$AA@ 1000abc4     glsl_core:astbuiltin.obj
 0001:00009bcc       ??_C@_04FIHNOPOL@asin?$AA@ 1000abcc     glsl_core:astbuiltin.obj
 0001:00009bd4       ??_C@_03IIINPABG@tan?$AA@  1000abd4     glsl_core:astbuiltin.obj
 0001:00009bd8       ??_C@_03LALBNOCG@cos?$AA@  1000abd8     glsl_core:astbuiltin.obj
 0001:00009bdc       ??_C@_03BLEJJJBH@sin?$AA@  1000abdc     glsl_core:astbuiltin.obj
 0001:00009be0       ??_C@_05FECBCJJD@angle?$AA@ 1000abe0     glsl_core:astbuiltin.obj
 0001:00009be8       ??_C@_07JLOPPFCD@radians?$AA@ 1000abe8     glsl_core:astbuiltin.obj
 0001:00009bf0       ??_C@_07MHOHEFBH@degrees?$AA@ 1000abf0     glsl_core:astbuiltin.obj
 0001:00009bf8       ??_C@_0O@MPCJJLAI@gl_PointCoord?$AA@ 1000abf8     glsl_core:astbuiltin.obj
 0001:00009c08       ??_C@_0BI@JFLJOAEC@gl_DepthRangeParameters?$AA@ 1000ac08     glsl_core:astbuiltin.obj
 0001:00009c20       ??_C@_04GMLMBKFF@diff?$AA@ 1000ac20     glsl_core:astbuiltin.obj
 0001:00009c28       ??_C@_03JEOKDCFP@far?$AA@  1000ac28     glsl_core:astbuiltin.obj
 0001:00009c2c       ??_C@_04EHDLHMJM@near?$AA@ 1000ac2c     glsl_core:astbuiltin.obj
 0001:00009c34       ??_C@_0O@EHLCMLBL@gl_DepthRange?$AA@ 1000ac34     glsl_core:astbuiltin.obj
 0001:00009c44       ??_C@_0BN@DEMFANDN@gl_MaxFragmentUniformVectors?$AA@ 1000ac44     glsl_core:astbuiltin.obj
 0001:00009c64       ??_C@_0BF@LOFKNIAP@gl_MaxVaryingVectors?$AA@ 1000ac64     glsl_core:astbuiltin.obj
 0001:00009c7c       ??_C@_0BL@LGAKKEID@gl_MaxVertexUniformVectors?$AA@ 1000ac7c     glsl_core:astbuiltin.obj
 0001:00009c98       ??_C@_0CA@BPGFIHPG@gl_MaxCombinedTextureImageUnits?$AA@ 1000ac98     glsl_core:astbuiltin.obj
 0001:00009cb8       ??_C@_0BO@EAEBIDML@gl_MaxVertexTextureImageUnits?$AA@ 1000acb8     glsl_core:astbuiltin.obj
 0001:00009cd8       ??_C@_0BC@IEPLMJCD@gl_MaxDrawBuffers?$AA@ 1000acd8     glsl_core:astbuiltin.obj
 0001:00009cec       ??_C@_0BI@PMNFBNJJ@gl_MaxTextureImageUnits?$AA@ 1000acec     glsl_core:astbuiltin.obj
 0001:00009d04       ??_C@_0BE@BHIOMCCI@gl_MaxVertexAttribs?$AA@ 1000ad04     glsl_core:astbuiltin.obj
 0001:00009d18       ??_C@_0EK@GECGGIAI@C?3?2WinCE?2OMAP?2DDK1?45?2eurasia?2too@ 1000ad18     glsl_core:astbuiltin.obj
 0001:00009d64       ??_C@_0N@IDDEBJCE@gl_PointSize?$AA@ 1000ad64     glsl_core:astbuiltin.obj
 0001:00009d74       ??_C@_0M@LBFKDGNK@gl_Position?$AA@ 1000ad74     glsl_core:astbuiltin.obj
 0001:00009d80       ??_C@_0DL@FDKGOLEM@ASTBIBuildIdentifierList?3?5Failed@ 1000ad80     glsl_core:astbuiltin.obj
 0001:00009dbc       ??_C@_0DI@IEPAHCMP@ASTBIBuildIdentifierList?3?5Failed@ 1000adbc     glsl_core:astbuiltin.obj
 0001:00009df4       ??_C@_0DN@NOLKLLMJ@ASTAddConstructor?3?5Failed?5to?5add@ 1000adf4     glsl_core:astbuiltin.obj
 0001:00009e38       ??_C@_0EB@HKBGFBBD@ASTAddConstructor?3?5Failed?5to?5add@ 1000ae38     glsl_core:astbuiltin.obj
 0001:00009e7c       ??_C@_0DM@NPEFGMJO@ASTBIAddFunction?3?5Failed?5to?5add?5@ 1000ae7c     glsl_core:astbuiltin.obj
 0001:00009eb8       ??_C@_0DN@MFOPMHOC@ASTBIAddFunction?3?5Failed?5to?5add?5@ 1000aeb8     glsl_core:astbuiltin.obj
 0001:00009ef8       ??_C@_0EA@EACJIIFJ@ASTBIAddFunction?3?5Failed?5to?5add?5@ 1000aef8     glsl_core:astbuiltin.obj
 0001:00009f38       ??_C@_0CF@NADNIEDP@ASTBIAddGLState?3?5Failed?5to?5add?5?8@ 1000af38     glsl_core:astbuiltin.obj
 0001:00009f60       ??_C@_0DK@IGEMMMBL@ASTBIResetBuiltInData?3?5Failed?5to@ 1000af60     glsl_core:astbuiltin.obj
 0001:00009f9c       ??_C@_0DK@FLGKPLDO@ICProcessBIFNtan?3?5Can?5not?5add?5a?5@ 1000af9c     glsl_core:icemul.obj
 0001:00009fd8       ??_C@_0DK@EJNPFENA@ICProcessBIFNtan?3?5Can?5not?5add?5a?5@ 1000afd8     glsl_core:icemul.obj
 0001:0000a014       ??_C@_0DC@MNHEGGNH@ICEmulateBIFNArcTrigs?3?5Not?5an?5ar@ 1000b014     glsl_core:icemul.obj
 0001:0000a048       ??_C@_0EI@KBMCLMOL@ICEmulateBIFNArcTrigs?3?5Failed?5to@ 1000b048     glsl_core:icemul.obj
 0001:0000a090       ??_C@_0EH@HJMFKILF@ICEmulateBIFNArcTrigs?3?5Failed?5to@ 1000b090     glsl_core:icemul.obj
 0001:0000a0d8       ??_C@_0EI@NABILJNC@ICEmulateBIFNArcTrigs?3?5Failed?5to@ 1000b0d8     glsl_core:icemul.obj
 0001:0000a120       ??_C@_0EI@GOGIOIPG@ICEmulateBIFNArcTrigs?3?5Failed?5to@ 1000b120     glsl_core:icemul.obj
 0001:0000a168       ??_C@_0FA@JGOOECOG@ICAddArcCos2FunctionDefinition?3?5@ 1000b168     glsl_core:icemul.obj
 0001:0000a1b8       ??_C@_0M@JMJDFMPD@pmx_arccos2?$AA@ 1000b1b8     glsl_core:icemul.obj
 0001:0000a1c4       ??_C@_0DN@PNPJILNE@ICAddArcCos2FunctionDefinition?3?5@ 1000b1c4     glsl_core:icemul.obj
 0001:0000a204       ??_C@_02IIINKMCA@r0?$AA@   1000b204     glsl_core:icemul.obj
 0001:0000a208       ??_C@_0EP@GPPDIHML@ICAddFunctionDefinitionToSymTab?3@ 1000b208     glsl_core:icemul.obj
 0001:0000a258       ??_C@_0EG@HFFNOAOM@C?3?2WinCE?2OMAP?2DDK1?45?2eurasia?2too@ 1000b258     glsl_core:icemul.obj
 0001:0000a2a0       ??_C@_0N@GGFFEPLF@returnval_?$CFs?$AA@ 1000b2a0     glsl_core:icemul.obj
 0001:0000a2b0       ??_C@_0FA@DJBMDPBB@ICAddArcSin2FunctionDefinition?3?5@ 1000b2b0     glsl_core:icemul.obj
 0001:0000a300       ??_C@_0M@MNOGKEIO@pmx_arcsin2?$AA@ 1000b300     glsl_core:icemul.obj
 0001:0000a30c       ??_C@_0DN@HEPMCLNE@ICAddArcSin2FunctionDefinition?3?5@ 1000b30c     glsl_core:icemul.obj
 0001:0000a350       ??_C@_0EO@JJIMDOPO@ICAddArcTanFunctionDefinition?3?5F@ 1000b350     glsl_core:icemul.obj
 0001:0000a3a0       ??_C@_0L@GKLBCFHE@pmx_arctan?$AA@ 1000b3a0     glsl_core:icemul.obj
 0001:0000a3ac       ??_C@_0DM@OJGOPCBD@ICAddArcTanFunctionDefinition?3?5F@ 1000b3ac     glsl_core:icemul.obj
 0001:0000a3e8       ??_C@_0FA@ILEBNNJJ@ICAddArcTan2FunctionDefinition?3?5@ 1000b3e8     glsl_core:icemul.obj
 0001:0000a438       ??_C@_0M@LKHCFAHB@pmx_arctan2?$AA@ 1000b438     glsl_core:icemul.obj
 0001:0000a444       ??_C@_0DN@CPADNALI@ICAddArcTan2FunctionDefinition?3?5@ 1000b444     glsl_core:icemul.obj
 0001:0000a484       ??_C@_0CN@HAAMCLA@ICProcessBIFNpow?3?5Failed?5to?5add?5@ 1000b484     glsl_core:icemul.obj
 0001:0000a4b4       ??_C@_0CL@DAODOMMN@ICEmulateBIFNfract?3?5Failed?5to?5ad@ 1000b4b4     glsl_core:icemul.obj
 0001:0000a4e0       ??_C@_0CI@JGAOEBOG@ICEmulateBIFNmod?3?5Failed?5to?5add?5@ 1000b4e0     glsl_core:icemul.obj
 0001:0000a508       ??_C@_0EA@CCOGNMJD@ICEmulateBIFNshadowFunc?3?5Failed?5@ 1000b508     glsl_core:icemul.obj
 0001:0000a548       ??_C@_0DI@CPPFAOBE@ICProcessBIFNshadow2DProj?3?5Unkno@ 1000b548     glsl_core:icemul.obj
 0001:0000a580       ??_C@_0EE@CDLMFDKJ@ICProcessBIFNshadow2DProj?3?5Faile@ 1000b580     glsl_core:icemul.obj
 0001:0000a5c8       ??_C@_0EJ@MLONABIK@ICProcessBIFNshadow2DProj?3?5Faile@ 1000b5c8     glsl_core:icemul.obj
 0001:0000a618       ??_C@_0EE@CMLNNIFF@psSamplerOperand?9?$DOpsOffsetList?9?$DO@ 1000b618     glsl_core:icemul.obj
 0001:0000a65c       ??_C@_0DD@CALEGLIF@psSamplerOperand?9?$DOpsOffsetList?9?$DO@ 1000b65c     glsl_core:icemul.obj
 0001:0000a690       ??_C@_0EK@PPCALNOP@ICProcessBIFNshadow2DProj?3?5Faile@ 1000b690     glsl_core:icemul.obj
 0001:0000a6e0       ??_C@_0EF@CDDNIIDN@ICAddDepthCompare?3?5Failed?5to?5add@ 1000b6e0     glsl_core:icemul.obj
 0001:0000a728       ??_C@_0EC@DDCJN@ICAddDepthCompare?3?5Failed?5to?5add@ 1000b728     glsl_core:icemul.obj
 0001:0000a770       ??_C@_0EC@MFCIHKCE@ICAddDepthCompare?3?5Failed?5to?5add@ 1000b770     glsl_core:icemul.obj
 0001:0000a7b4       ??_C@_0DP@OHJNLKAN@GetDepthTextureDescID?3?5Failed?5to@ 1000b7b4     glsl_core:icemul.obj
 0001:0000a7f4       ??_C@_0BK@LKJPEAGA@gl_PMXDepthTextureDesc?$CFlu?$AA@ 1000b7f4     glsl_core:icemul.obj
 0001:0000a810       ??_C@_0M@JNPDJDG@psNoiseFunc?$AA@ 1000b810     glsl_core:icemul.obj
 0001:0000a820       ??_C@_0EA@ECNHBLGI@ICProcessBIFNnoise1?3?5Failed?5to?5a@ 1000b820     glsl_core:icemul.obj
 0001:0000a860       ??_C@_0FB@NFHNMOBB@ICAddNoiseFunctionDefinition?3?5Fa@ 1000b860     glsl_core:icemul.obj
 0001:0000a8b4       ??_C@_0BA@LGHEAAEH@pmx_noise1_?$CFluD?$AA@ 1000b8b4     glsl_core:icemul.obj
 0001:0000a8c8       ??_C@_0EA@PIFIHDFM@ICEmulateBIFNnoise2?3?5Failed?5to?5a@ 1000b8c8     glsl_core:icemul.obj
 0001:0000a908       ??_C@_0EH@OFHCHDGB@ICEmulateBIFNnoise2?3?5Failed?5to?5a@ 1000b908     glsl_core:icemul.obj
 0001:0000a950       ??_C@_0EA@EACMHICE@ICEmulateBIFNnoise2?3?5Failed?5to?5a@ 1000b950     glsl_core:icemul.obj
 0001:0000a990       ??_C@_0DO@KCBBFBAA@ICEmulateBIFNnoise3?3?5Failed?5to?5a@ 1000b990     glsl_core:icemul.obj
 0001:0000a9d0       ??_C@_0EH@JLKKMDCA@ICEmulateBIFNnoise3?3?5Failed?5to?5a@ 1000b9d0     glsl_core:icemul.obj
 0001:0000aa18       ??_C@_0EA@DPOFODLH@ICEmulateBIFNnoise3?3?5Failed?5to?5a@ 1000ba18     glsl_core:icemul.obj
 0001:0000aa58       ??_C@_0DO@CFIHFEOM@ICProcessBIFNnoise3?3?5Failed?5to?5a@ 1000ba58     glsl_core:icemul.obj
 0001:0000aa98       ??_C@_0EH@DINANEKG@ICEmulateBIFNnoise4?3?5Failed?5to?5a@ 1000ba98     glsl_core:icemul.obj
 0001:0000aae0       ??_C@_0EA@JLOICHAP@ICEmulateBIFNnoise4?3?5Failed?5to?5a@ 1000bae0     glsl_core:icemul.obj
 0001:0000ab20       ??_C@_0EE@EFHJCJLN@ICAddArcSinCos2FunctionBody?3?5Can@ 1000bb20     glsl_core:icemul.obj
 0001:0000ab68       ??_C@_0EG@GDNGIIIJ@ICAddArcSinCos2FunctionBody?3?5Can@ 1000bb68     glsl_core:icemul.obj
 0001:0000abb0       ??_C@_0O@OIPBGHC@acosConstant2?$AA@ 1000bbb0     glsl_core:icemul.obj
 0001:0000abc0       ??_C@_0O@CFKCEFLB@acosConstant1?$AA@ 1000bbc0     glsl_core:icemul.obj
 0001:0000abd0       ??_C@_0DK@JCPLPAKM@ICAddArcSinCos2FunctionBody?3?5Can@ 1000bbd0     glsl_core:icemul.obj
 0001:0000ac0c       ??_C@_0O@DMLJHEPA@acosConstant0?$AA@ 1000bc0c     glsl_core:icemul.obj
 0001:0000ac20       ??_C@_0EA@OOOKDEOG@ICAddArcTanFunctionBody?3?5Can?5not@ 1000bc20     glsl_core:icemul.obj
 0001:0000ac60       ??_C@_0EC@FJJPMLFM@ICAddArcTanFunctionBody?3?5Can?5not@ 1000bc60     glsl_core:icemul.obj
 0001:0000aca4       ??_C@_0O@FCLDNNGD@atanConstant3?$AA@ 1000bca4     glsl_core:icemul.obj
 0001:0000acb4       ??_C@_0O@ELKIOMCC@atanConstant2?$AA@ 1000bcb4     glsl_core:icemul.obj
 0001:0000acc4       ??_C@_0O@GAIFLPOB@atanConstant1?$AA@ 1000bcc4     glsl_core:icemul.obj
 0001:0000acd4       ??_C@_0DG@MKPKDDNM@ICAddArcTanFunctionBody?3?5Can?5not@ 1000bcd4     glsl_core:icemul.obj
 0001:0000ad0c       ??_C@_0O@HJJOIOKA@atanConstant0?$AA@ 1000bd0c     glsl_core:icemul.obj
 0001:0000ad1c       ??_C@_0P@NGCBMMJA@atan2Constant1?$AA@ 1000bd1c     glsl_core:icemul.obj
 0001:0000ad2c       ??_C@_0DI@NBIIFADD@ICAddArcTan2FunctionBody?3?5Can?5no@ 1000bd2c     glsl_core:icemul.obj
 0001:0000ad64       ??_C@_0P@MPDKPNNB@atan2Constant0?$AA@ 1000bd64     glsl_core:icemul.obj
 0001:0000ad78       ??_C@_0EP@CAKGLCAL@ICAddNoise1DFunctionBody?3?5Failed@ 1000bd78     glsl_core:icemul.obj
 0001:0000adc8       ??_C@_0BC@KHKLJCIM@gl_PMXPermTexture?$AA@ 1000bdc8     glsl_core:icemul.obj
 0001:0000ade0       ??_C@_0ED@MAOMDLJM@ICInitNoiseFuncRegisters?3?5Failed@ 1000bde0     glsl_core:icemul.obj
 0001:0000ae24       ??_C@_0P@BJDPKMJH@noiseConstant2?$AA@ 1000be24     glsl_core:icemul.obj
 0001:0000ae34       ??_C@_0P@DCBCPPFE@noiseConstant1?$AA@ 1000be34     glsl_core:icemul.obj
 0001:0000ae48       ??_C@_0EN@NPFDIHPG@ICInitNoiseFuncRegisters?3?5Failed@ 1000be48     glsl_core:icemul.obj
 0001:0000ae98       ??_C@_0P@CLAJMOBF@noiseConstant0?$AA@ 1000be98     glsl_core:icemul.obj
 0001:0000aea8       ??_C@_0EP@IENIDAMO@ICAddNoise2DFunctionBody?3?5Failed@ 1000bea8     glsl_core:icemul.obj
 0001:0000aef8       ??_C@_0EP@FBNNEMLC@ICAddNoise3DFunctionBody?3?5Failed@ 1000bef8     glsl_core:icemul.obj
 0001:0000af48       ??_C@_0BC@DINMMLAH@gl_PMXGradTexture?$AA@ 1000bf48     glsl_core:icemul.obj
 0001:0000af60       ??_C@_0FJ@JLBKFLLL@ICInsertCodeForFogFactor?3?5Failed@ 1000bf60     glsl_core:icemul.obj
 0001:0000afc0       ??_C@_0EI@PNGFKJNB@ICInsertCodeForFogFactor?3?5Failed@ 1000bfc0     glsl_core:icemul.obj
 0001:0000b008       ??_C@_0FP@IOHDCNPG@ICInsertCodeForFogFactor?3?5Failed@ 1000c008     glsl_core:icemul.obj
 0001:0000b068       ??_C@_0P@OIFLLCOI@gl_PMXFogParam?$AA@ 1000c068     glsl_core:icemul.obj
 0001:0000b078       ??_C@_0FO@HBMKKEDN@ICInsertCodeForFogFactor?3?5Failed@ 1000c078     glsl_core:icemul.obj
 0001:0000b0d8       ??_C@_0O@NEANPIGE@gl_PMXFogMode?$AA@ 1000c0d8     glsl_core:icemul.obj
 0001:0000b0e8       ??_C@_0DM@ILJNHIIK@ICInsertCodeForFogFactor?3?5Failed@ 1000c0e8     glsl_core:icemul.obj
 0001:0000b124       ??_C@_0BA@CHEHEPOM@gl_FogFragCoord?$AA@ 1000c124     glsl_core:icemul.obj
 0001:0000b134       ??_C@_0DA@OGDKIMHD@ICEmulateTextureProj?3?5Failed?5to?5@ 1000c134     glsl_core:icemul.obj
 0001:0000b164       ??_C@_02GPECMEKF@?$FL?$FN?$AA@ 1000c164     glsl_core:semantic.obj
 0001:0000b168       ??_C@_06DDGKKJGO@fn_?$CFs?$EA?$AA@ 1000c168     glsl_core:semantic.obj
 0001:0000b170       ??_C@_0EI@ODHNOPIP@C?3?2WinCE?2OMAP?2DDK1?45?2eurasia?2too@ 1000c170     glsl_core:semantic.obj
 0001:0000b1b8       ??_C@_0CJ@NIGPNOBC@ASTSemGetSizeInfo?3?5Structure?5siz@ 1000c1b8     glsl_core:semantic.obj
 0001:0000b1e4       ??_C@_0DO@JHDMAMNH@ASTSemGetSizeInfo?3?5Could?5not?5ret@ 1000c1e4     glsl_core:semantic.obj
 0001:0000b224       ??_C@_0DL@DIDGPIDE@ASTSemGetSizeInfo?3?5Can?8t?5get?5siz@ 1000c224     glsl_core:semantic.obj
 0001:0000b260       ??_C@_0CH@HELBFBNP@?8?$CFs?8?5?3?5used?5without?5being?5initia@ 1000c260     glsl_core:semantic.obj
 0001:0000b288       ??_C@_0EG@NGMPFKMC@ASTSemCheckTypesAndCalculateResu@ 1000c288     glsl_core:semantic.obj
 0001:0000b2d0       ??_C@_0EG@MMEMNBFH@ASTSemCheckTypesAndCalculateResu@ 1000c2d0     glsl_core:semantic.obj
 0001:0000b318       ??_C@_0ED@NCOBALPO@ASTSemCheckTypesAndCalculateResu@ 1000c318     glsl_core:semantic.obj
 0001:0000b35c       ??_C@_0DB@ODIKGIDJ@?8discard?8?5?3?5only?5supported?5in?5fr@ 1000c35c     glsl_core:semantic.obj
 0001:0000b390       ??_C@_0CD@ODLIIFHP@?8?8?5?3?5boolean?5expression?5expected@ 1000c390     glsl_core:semantic.obj
 0001:0000b3b4       ??_C@_0DB@FPHKHOBM@?8return?8?5?3?5function?5return?5has?5w@ 1000c3b4     glsl_core:semantic.obj
 0001:0000b3e8       ??_C@_0DB@IBLCMOKH@?8return?8?5?3?5function?5return?5is?5no@ 1000c3e8     glsl_core:semantic.obj
 0001:0000b41c       ??_C@_0DA@KIPLKFMI@?8return?8?5?3?5void?5function?5cannot?5@ 1000c41c     glsl_core:semantic.obj
 0001:0000b44c       ??_C@_0DC@IABKOPGF@?8return?8?5?3?5non?9void?5function?5mus@ 1000c44c     glsl_core:semantic.obj
 0001:0000b480       ??_C@_0EJ@EKFFILCE@ASTSemCheckTypesAndCalculateResu@ 1000c480     glsl_core:semantic.obj
 0001:0000b4cc       ??_C@_0CO@PFBDOOMF@?8assign?8?5?3?5?5cannot?5convert?5from?5@ 1000c4cc     glsl_core:semantic.obj
 0001:0000b4fc       ??_C@_0DF@OMAKOKIJ@?8const?8?5?3?5?5non?9matching?5types?5fo@ 1000c4fc     glsl_core:semantic.obj
 0001:0000b534       ??_C@_06IMFOKBKF@assign?$AA@ 1000c534     glsl_core:semantic.obj
 0001:0000b53c       ??_C@_0CN@CAADMAMN@?8?$DN?8?5?3?5?5assigning?5non?9constant?5to@ 1000c53c     glsl_core:semantic.obj
 0001:0000b56c       ??_C@_0DC@OPFDDKKG@?8?$CFs?8?5?3?5?5cannot?5initialize?5this?5t@ 1000c56c     glsl_core:semantic.obj
 0001:0000b5a0       ??_C@_0KJ@EPEAGGHJ@?8?3?8?5?3?5?5wrong?5operand?5types?5?5no?5o@ 1000c5a0     glsl_core:semantic.obj
 0001:0000b64c       ??_C@_0CC@MKLDGFDA@?8?8?5?3?5boolean?5expression?5expected@ 1000c64c     glsl_core:semantic.obj
 0001:0000b670       ??_C@_0DK@DADEIOGK@?8?8?5?3?5left?5of?5?8?$FL?8?5is?5not?5of?5type?5@ 1000c670     glsl_core:semantic.obj
 0001:0000b6ac       ??_C@_0DM@POAJCJK@?8?$CFs?8?5?3?5left?5of?5?8?$FL?8?5is?5not?5of?5typ@ 1000c6ac     glsl_core:semantic.obj
 0001:0000b6e8       ??_C@_0CE@HCDENGKP@?8?$FL?$FN?8?5?3?5integer?5expression?5requir@ 1000c6e8     glsl_core:semantic.obj
 0001:0000b70c       ??_C@_0CJ@LDAPHGKE@?8?4?8?5?3?5cannot?5apply?5dot?5operator?5@ 1000c70c     glsl_core:semantic.obj
 0001:0000b738       ??_C@_0CM@FMCOHPCK@?8?$CFs?8?5?3?5vector?5field?5selection?5ou@ 1000c738     glsl_core:semantic.obj
 0001:0000b768       ??_C@_0EH@KMEPABJP@?8?$CFs?8?5?3?5field?5selection?5requires?5@ 1000c768     glsl_core:semantic.obj
 0001:0000b7b0       ??_C@_0CN@KPECCIGP@?8?4?8?5?3?5cannot?5apply?5dot?5operator?5@ 1000c7b0     glsl_core:semantic.obj
 0001:0000b7e0       ??_C@_0GF@LMLJOLHK@ASTSemCheckTypesAndCalculateResu@ 1000c7e0     glsl_core:semantic.obj
 0001:0000b848       ??_C@_0DD@JAEBPOMH@?8?$CFs?8?5?3?5?4length?$CI?$CJ?5requires?5array?5@ 1000c848     glsl_core:semantic.obj
 0001:0000b87c       ??_C@_0N@LEEGPDKF@no?9symbol?9id?$AA@ 1000c87c     glsl_core:semantic.obj
 0001:0000b890       ??_C@_0EE@JOAEAJB@ASTSemCheckTypesAndCalculateResu@ 1000c890     glsl_core:semantic.obj
 0001:0000b8d8       ??_C@_0GO@EABIIKDD@ASTSemCheckTypesAndCalculateResu@ 1000c8d8     glsl_core:semantic.obj
 0001:0000b948       ??_C@_0GA@CCPDCBOD@ASTSemCheckTypesAndCalculateResu@ 1000c948     glsl_core:semantic.obj
 0001:0000b9a8       ??_C@_0FP@FBAPOONB@ASTSemCheckTypesAndCalculateResu@ 1000c9a8     glsl_core:semantic.obj
 0001:0000ba08       ??_C@_0GC@LLDNIPIH@ASTSemCheckTypesAndCalculateResu@ 1000ca08     glsl_core:semantic.obj
 0001:0000ba70       ??_C@_0FE@GEHAJOAJ@ASTSemCheckTypesAndCalculateResu@ 1000ca70     glsl_core:semantic.obj
 0001:0000bac4       ??_C@_09GHEIANLA@rs_?$CFs?$EA?$CFlu?$AA@ 1000cac4     glsl_core:semantic.obj
 0001:0000bad0       ??_C@_0N@LCEEANFM@rs_?$CFs_?$CFs?$EA?$CFlu?$AA@ 1000cad0     glsl_core:semantic.obj
 0001:0000bae0       ??_C@_0DF@LHKHEHCK@ASTCheckNodeNumChildren?3?5Invalid@ 1000cae0     glsl_core:semantic.obj
 0001:0000bb18       ??_C@_0DM@FGOFLEOD@ASTCheckNodeNumChildren?3?5Unrecog@ 1000cb18     glsl_core:semantic.obj
 0001:0000bb58       ??_C@_0EN@ODDAMINJ@ASTSemInsertConstructor?3?5Failed?5@ 1000cb58     glsl_core:semantic.obj
 0001:0000bba8       ??_C@_0N@MKOCCMOM@fc_?$CFs_?$CFs?$EA?$CFlu?$AA@ 1000cba8     glsl_core:semantic.obj
 0001:0000bbb8       ??_C@_0ED@MPDKMMDB@ASTSemInsertConstructor?3?5?8?$CFs?8?5?3?5@ 1000cbb8     glsl_core:semantic.obj
 0001:0000bc00       ??_C@_0EA@KLIFGLOE@ASTSemInsertConstructor?3?5Failed?5@ 1000cc00     glsl_core:semantic.obj
 0001:0000bc40       ??_C@_0EG@OIOBPBJD@ASTSemInsertConstructor?3?5Failed?5@ 1000cc40     glsl_core:semantic.obj
 0001:0000bc88       ??_C@_0EA@HMDADHLN@ASTSemInsertConstructor?3?5Failed?5@ 1000cc88     glsl_core:semantic.obj
 0001:0000bcc8       ??_C@_0EG@OFBEBGJC@ASTSemInsertConstructor?3?5Only?5in@ 1000ccc8     glsl_core:semantic.obj
 0001:0000bd10       ??_C@_0EN@JMEJCANN@ASTSemInsertConstructor?3?5?8?$CFs?8?5?3?5@ 1000cd10     glsl_core:semantic.obj
 0001:0000bd60       ??_C@_0DJ@BBBGPNIJ@ASTSemInsertConstructor?3?5Failed?5@ 1000cd60     glsl_core:semantic.obj
 0001:0000bd9c       ??_C@_0DO@PDAMAKDP@ASTSemGetIdentifierData?3?5Symbol?5@ 1000cd9c     glsl_core:semantic.obj
 0001:0000bddc       ??_C@_0CP@GENGEFBB@ASTSemGetIdentifierData?3?5Symbol?5@ 1000cddc     glsl_core:semantic.obj
 0001:0000be10       ??_C@_0ED@LLHDPGAO@ASTSemReduceConstantConstructor?3@ 1000ce10     glsl_core:semantic.obj
 0001:0000be58       ??_C@_0GP@PODLBENL@ASTSemReduceConstantConstructor?3@ 1000ce58     glsl_core:semantic.obj
 0001:0000bec8       ??_C@_0GJ@DOLDFKIF@ASTSemReduceConstantConstructor?3@ 1000cec8     glsl_core:semantic.obj
 0001:0000bf38       ??_C@_0EI@HKNFIFG@ASTSemReduceConstantConstructor?3@ 1000cf38     glsl_core:semantic.obj
 0001:0000bf80       ??_C@_0GD@IALGBBFO@ASTSemReduceConstantConstructor?3@ 1000cf80     glsl_core:semantic.obj
 0001:0000bfe8       ??_C@_0EC@NGNBOAJA@ASTSemReduceConstantConstructor?3@ 1000cfe8     glsl_core:semantic.obj
 0001:0000c030       ??_C@_0EL@FIOCCOEI@ASTSemReduceConstantConstructor?3@ 1000d030     glsl_core:semantic.obj
 0001:0000c07c       ??_C@_0DI@GIIOFFEE@ASTRemoveChildNode?3?5Child?5specif@ 1000d07c     glsl_core:semantic.obj
 0001:0000c0b8       ??_C@_0FF@CLJOEOPP@ASTSemRemoveNode?3?5Cannot?5remove?5@ 1000d0b8     glsl_core:semantic.obj
 0001:0000c110       ??_C@_0ED@LENGOFL@ASTSemConvertTypes?3?5Cannot?5proce@ 1000d110     glsl_core:semantic.obj
 0001:0000c158       ??_C@_0EB@OKBAAFPD@ASTSemConvertTypes?3?5Structure?5ty@ 1000d158     glsl_core:semantic.obj
 0001:0000c1a0       ??_C@_0EJ@ODHKLGEH@ASTSemConvertTypes?3?5Cannot?5conve@ 1000d1a0     glsl_core:semantic.obj
 0001:0000c1f0       ??_C@_0EH@LCKODLML@ASTSemConvertTypes?3?5Cannot?5cover@ 1000d1f0     glsl_core:semantic.obj
 0001:0000c238       ??_C@_0EH@GDOGMFEL@ASTSemConvertTypes?3?5Cannot?5conve@ 1000d238     glsl_core:semantic.obj
 0001:0000c280       ??_C@_0EJ@GFDHOAIN@ASTSemConvertTypes?3?5Cannot?5conve@ 1000d280     glsl_core:semantic.obj
 0001:0000c2d0       ??_C@_0EN@JFFFICDL@ASTSemConvertTypes?3?5If?5expanding@ 1000d2d0     glsl_core:semantic.obj
 0001:0000c320       ??_C@_0EI@DEHGEGBL@ASTSemReduceConstantExpression?3?5@ 1000d320     glsl_core:semantic.obj
 0001:0000c368       ??_C@_0FB@FDOOLFKN@ASTSemReduceConstantArraySpecifi@ 1000d368     glsl_core:semantic.obj
 0001:0000c3c0       ??_C@_0EM@HNDDMEK@ASTSemReduceConstantArraySpecifi@ 1000d3c0     glsl_core:semantic.obj
 0001:0000c410       ??_C@_0FE@MEPOGBGC@ASTSemReduceConstantArraySpecifi@ 1000d410     glsl_core:semantic.obj
 0001:0000c464       ??_C@_0DJ@GCKDJNKM@ASTSemReduceConstantArraySpecifi@ 1000d464     glsl_core:semantic.obj
 0001:0000c4a0       ??_C@_0FC@GGODFNGP@ASTSemReducedConstantFieldSelect@ 1000d4a0     glsl_core:semantic.obj
 0001:0000c4f8       ??_C@_0EF@JPDJHOJP@ASTSemReducedConstantFieldSelect@ 1000d4f8     glsl_core:semantic.obj
 0001:0000c540       ??_C@_0EO@EAMADBHP@ASTSemReducedConstantFieldSelect@ 1000d540     glsl_core:semantic.obj
 0001:0000c590       ??_C@_0FD@PGCBJBCE@ASTSemReducedConstantFieldSelect@ 1000d590     glsl_core:semantic.obj
 0001:0000c5e8       ??_C@_0EJ@GGPFPGLA@ASTSemReducedConstantFieldSelect@ 1000d5e8     glsl_core:semantic.obj
 0001:0000c634       ??_C@_0DH@FDLDPJKF@ASTSemReducedConstantFieldSelect@ 1000d634     glsl_core:semantic.obj
 0001:0000c670       ??_C@_0EJ@DENPFNO@ASTSemReducedConstantFieldSelect@ 1000d670     glsl_core:semantic.obj
 0001:0000c6c0       ??_C@_0ED@KBFHIEE@ASTSemReducedConstantFieldSelect@ 1000d6c0     glsl_core:semantic.obj
 0001:0000c704       ??_C@_0DK@FOOEDCOP@ASTSemReducedConstantFieldSelect@ 1000d704     glsl_core:semantic.obj
 0001:0000c740       ??_C@_0EI@GJKJEKHD@ASTSemReduceConstantMaths?3?5Faile@ 1000d740     glsl_core:semantic.obj
 0001:0000c788       ??_C@_0EF@FBENKFGH@ASTSemReduceConstantMaths?3?5Unrec@ 1000d788     glsl_core:semantic.obj
 0001:0000c7d0       ??_C@_0DP@FGKGBHN@ASTSemReduceConstantMaths?3?5Unrec@ 1000d7d0     glsl_core:semantic.obj
 0001:0000c810       ??_C@_0DE@LLOEEOFO@ASTSemReduceConstantMaths?3?5Shoul@ 1000d810     glsl_core:semantic.obj
 0001:0000c844       ??_C@_0DO@IBDPACOI@ASTSemReduceConstantMaths?3?5Unsup@ 1000d844     glsl_core:semantic.obj
 0001:0000c884       ??_C@_0DC@DNHLMLEO@ASTSemReduceConstantMaths?3?5Unsup@ 1000d884     glsl_core:semantic.obj
 0001:0000c8b8       ??_C@_0DH@OCCFINIM@ASTSemReduceConstantMaths?3?5Misma@ 1000d8b8     glsl_core:semantic.obj
 0001:0000c8f0       ??_C@_0EP@HOEDJPNE@ASTSemReduceConstantMaths?3?5Unrec@ 1000d8f0     glsl_core:semantic.obj
 0001:0000c940       ??_C@_0BH@BCBDPBHB@?8?$CFs?8?5is?5not?5constant?4?6?$AA@ 1000d940     glsl_core:semantic.obj
 0001:0000c958       ??_C@_0FA@CNMFLKJM@ASTSemReduceConstantMaths?3?5Param@ 1000d958     glsl_core:semantic.obj
 0001:0000c9a8       ??_C@_0DL@JDCAIGDF@ASTSemReduceConstantMaths?3?5Type?5@ 1000d9a8     glsl_core:semantic.obj
 0001:0000c9e4       ??_C@_0DP@GOFCIAIF@ASTSemReduceConstantMaths?3?5Canno@ 1000d9e4     glsl_core:semantic.obj
 0001:0000ca28       ??_C@_0IB@GFOIJAH@?8?$CFs?8?5?3?5?5Wrong?5operand?5type?4?5No?5o@ 1000da28     glsl_core:semantic.obj
 0001:0000cab0       ??_C@_0KM@IIDJDOIG@?8?$CFs?8?5?3?5?5Wrong?5operand?5types?4?5No?5@ 1000dab0     glsl_core:semantic.obj
 0001:0000cb5c       ??_C@_0DN@OGJMDMOH@?8?$CFs?8?5?3?5?5Wrong?5operand?5types?4?5Arr@ 1000db5c     glsl_core:semantic.obj
 0001:0000cba0       ??_C@_0FA@FOGICJBC@?8?$CFs?8?5?3?5?5Wrong?5operand?5types?4?5Arr@ 1000dba0     glsl_core:semantic.obj
 0001:0000cbf0       ??_C@_0DH@HFJELJPO@ASTSemReportLValueError?3?5Incorre@ 1000dbf0     glsl_core:semantic.obj
 0001:0000cc28       ??_C@_0DM@LACJEOBJ@?8?$CFs?8?5?3?5l?9value?5of?5swizzle?5cannot@ 1000dc28     glsl_core:semantic.obj
 0001:0000cc64       ??_C@_0BK@GDICGMNC@?8?$CFs?8?5?3?5?5l?9value?5required?6?$AA@ 1000dc64     glsl_core:semantic.obj
 0001:0000cc80       ??_C@_0CO@GKOHIBMO@?8?$CFs?8?5?3?5?5l?9value?5required?5?$CIcan?8t?5@ 1000dc80     glsl_core:semantic.obj
 0001:0000ccb0       ??_C@_0HH@CLEFIBKB@Calls?5to?5any?5function?5that?5may?5r@ 1000dcb0     glsl_core:semantic.obj
 0001:0000cd28       ??_C@_0DL@NFEJNCDD@?8constructor?8?5?3?5not?5enough?5data?5@ 1000dd28     glsl_core:semantic.obj
 0001:0000cd64       ??_C@_0DB@FADFBNNI@?8constructor?8?5?3?5no?5arguments?5sup@ 1000dd64     glsl_core:semantic.obj
 0001:0000cd98       ??_C@_0CE@PGLIGOHF@?8constructor?8?5?3?5too?5many?5argumen@ 1000dd98     glsl_core:semantic.obj
 0001:0000cdc0       ??_C@_0EG@FMCDPCLF@ASTSemCheckFunctionCallParameter@ 1000ddc0     glsl_core:semantic.obj
 0001:0000ce08       ??_C@_0FO@GMHJKCLB@?8constructor?8?5?3?5only?5a?5single?5ma@ 1000de08     glsl_core:semantic.obj
 0001:0000ce68       ??_C@_0CM@MHBMNBMB@?8constructor?8?5?3?5cannot?5convert?5a@ 1000de68     glsl_core:semantic.obj
 0001:0000ce94       ??_C@_0CK@FIECGCOG@?8constructor?8?5?3?5cannot?5convert?5a@ 1000de94     glsl_core:semantic.obj
 0001:0000cec0       ??_C@_0EL@EPHDCKFB@?8?$CFs?8?5?3?5Parameter?5array?5size?5does@ 1000dec0     glsl_core:semantic.obj
 0001:0000cf10       ??_C@_0EK@DMJPANOP@?8?$CFs?8?5?3?5Cannot?5convert?5parameter?5@ 1000df10     glsl_core:semantic.obj
 0001:0000cf5c       ??_C@_0DG@BMMJAPJE@?8?$CFs?8?5?3?5Cannot?5convert?5parameter?5@ 1000df5c     glsl_core:semantic.obj
 0001:0000cf98       ??_C@_0EM@EHJBNNAN@?8Error?8?5?3?5Constant?5value?5cannot?5@ 1000df98     glsl_core:semantic.obj
 0001:0000cfe8       ??_C@_0EL@FONEDCI@ASTSemCheckFunctionCallParameter@ 1000dfe8     glsl_core:semantic.obj
 0001:0000d038       ??_C@_0EH@MEBBEHBF@ASTSemCheckFunctionCallParameter@ 1000e038     glsl_core:semantic.obj
 0001:0000d080       ??_C@_0EK@HHDAJJBJ@ASTSemCheckFunctionCallParameter@ 1000e080     glsl_core:semantic.obj
 0001:0000d0d0       ??_C@_0EK@FDOCJGFI@ASTSemCheckFunctionCallParameter@ 1000e0d0     glsl_core:semantic.obj
 0001:0000d11c       ??_C@_0DO@KFAMPACP@ASTSemCheckFunctionCallParameter@ 1000e11c     glsl_core:semantic.obj
 0001:0000d160       ??_C@_0GL@NHELLIMD@?8constructor?8?5?3?5Number?5of?5constr@ 1000e160     glsl_core:semantic.obj
 0001:0000d1d0       ??_C@_0FA@CLFIOEFA@ASTSemCheckFunctionCallParameter@ 1000e1d0     glsl_core:semantic.obj
 0001:0000d220       ??_C@_0EK@KLIBIJOP@ASTSemCheckFunctionCallParameter@ 1000e220     glsl_core:semantic.obj
 0001:0000d270       ??_C@_0EA@NEGDPMMP@ASTSemCheckFunctionCallParameter@ 1000e270     glsl_core:semantic.obj
 0001:0000d2b0       ??_C@_0M@HCIFEBGA@constructor?$AA@ 1000e2b0     glsl_core:semantic.obj
 0001:0000d2c0       ??_C@_0EH@KKBGDADD@ASTSemReduceConstantBuiltInFunct@ 1000e2c0     glsl_core:semantic.obj
 0001:0000d308       ??_C@_0EA@JKKGPCFN@ASTSemReduceConstantBuiltInFunct@ 1000e308     glsl_core:semantic.obj
 0001:0000d348       ??_C@_0EH@MJGOEAHE@ASTSemReduceConstantBuiltInFunct@ 1000e348     glsl_core:semantic.obj
 0001:0000d390       ??_C@_0GE@MDCOGGPE@ASTSemReduceConstantBuiltInFunct@ 1000e390     glsl_core:semantic.obj
 0001:0000d3f8       ??_C@_0EP@OMFOOCIO@ASTSemReduceConstantBuiltInFunct@ 1000e3f8     glsl_core:semantic.obj
 0001:0000d448       ??_C@_0DI@HANAPIPL@ASTSemReduceConstantBuiltInFunct@ 1000e448     glsl_core:semantic.obj
 0001:0000d480       ??_C@_0FC@CPFEMAHP@?8?$FL?8?5?3?5?5array?5must?5be?5redeclared?5@ 1000e480     glsl_core:semantic.obj
 0001:0000d4d4       ??_C@_0CM@CFPGAHAG@ASTSemCheckArraySize?3?5Invalid?5ar@ 1000e4d4     glsl_core:semantic.obj
 0001:0000d500       ??_C@_0CJ@FHCFPJKN@?8?$FL?8?5?3?5field?5selection?5out?5of?5ran@ 1000e500     glsl_core:semantic.obj
 0001:0000d52c       ??_C@_0BO@NHLIFECN@Array?5index?5?8?$CFd?8?5is?5negative?6?$AA@ 1000e52c     glsl_core:semantic.obj
 0001:0000d54c       ??_C@_0DC@LAGKKDPB@Array?5index?5?8?$CFd?8?5out?5of?5bounds?4?5@ 1000e54c     glsl_core:semantic.obj
 0001:0000d580       ??_C@_0CO@PMDMFNKE@ASTSemCheckArraySize?3?5Constant?5d@ 1000e580     glsl_core:semantic.obj
 0001:0000d5b0       ??_C@_0DK@KJKMOMFM@ASTSemCheckArraySize?3?5Expected?5I@ 1000e5b0     glsl_core:semantic.obj
 0001:0000d5ec       ??_C@_0DF@HAKIDKEL@ASTSemCheckAndUpdateArraySize?3?5S@ 1000e5ec     glsl_core:semantic.obj
 0001:0000d628       ??_C@_0EE@MOFDAHHI@ASTUpdateParamIdentifierUsage?3?5U@ 1000e628     glsl_core:semantic.obj
 0001:0000d670       ??_C@_0HB@DKFOGIGJ@Fragment?5shader?5may?5not?5write?5to@ 1000e670     glsl_core:semantic.obj
 0001:0000d6e8       ??_C@_0EJ@FPHLGJLK@ASTUpdateBuiltInsReferenced?3?5Fai@ 1000e6e8     glsl_core:semantic.obj
 0001:0000d734       ??_C@_0CH@HBBJIBFN@ASTUpdateIdentifierUsage?3?5Null?5C@ 1000e734     glsl_core:semantic.obj
 0001:0000d75c       ??_C@_0CL@MGDCHMGM@ASTUpdateReadIdentifierUsage?3?5Nu@ 1000e75c     glsl_core:semantic.obj
 0001:0000d788       ??_C@_0DD@MGKCOAIB@ASTSemCheckAssignment?3?5Unexpecte@ 1000e788     glsl_core:semantic.obj
 0001:0000d7bc       ??_C@_0CE@BJLLJIPM@ASTSemCheckAssignment?3?5Null?5Chil@ 1000e7bc     glsl_core:semantic.obj
 0001:0000d7e0       ??_C@_0EE@EEBMHHBC@ASTSemGetResultPrecision?3?5Unreco@ 1000e7e0     glsl_core:semantic.obj
 0001:0000d824       ??_C@_0DN@POCJANOG@ASTSemGetResultPrecision?3?5Unreco@ 1000e824     glsl_core:semantic.obj
 0001:0000d864       ??_C@_0DJ@PDPFLAAA@ASTSemGetResultPrecision?3?5Failed@ 1000e864     glsl_core:semantic.obj
 0001:0000d8a0       ??_C@_0EL@JMNKLJKP@ASTAddIdentifierToSymbolTable?3?5F@ 1000e8a0     glsl_core:semantic.obj
 0001:0000d8ec       ??_C@_0DD@NAAJAOIC@ASTAddIdentifierToSymbolTable?3?5I@ 1000e8ec     glsl_core:semantic.obj
 0001:0000d920       ??_C@_0CF@KDAONFKO@?8?$CFs?8?5?3?5only?5allowed?5at?5global?5sc@ 1000e920     glsl_core:semantic.obj
 0001:0000d948       ??_C@_0CO@NGBAHMIE@?8?$CFs?5?$CFs?8?5?3?5cannot?5declare?5arrays?5@ 1000e948     glsl_core:semantic.obj
 0001:0000d978       ??_C@_0CK@JHIFCNNH@?8?$CFs?8?5?3?5?5supported?5in?5vertex?5shad@ 1000e978     glsl_core:semantic.obj
 0001:0000d9a4       ??_C@_0DO@CDLOBBKG@?8?$CFs?8?5?3?5may?5only?5be?5a?5float?0?5floa@ 1000e9a4     glsl_core:semantic.obj
 0001:0000d9e4       ??_C@_0CA@GMKFDLOI@?8gl_?8?5?3?5reserved?5built?9in?5name?6?$AA@ 1000e9e4     glsl_core:semantic.obj
 0001:0000da04       ??_C@_03EKEJMIG@gl_?$AA@   1000ea04     glsl_core:semantic.obj
 0001:0000da08       ??_C@_0BF@IPJBEHEB@?8?$CFs?8?5?3?5redefinition?6?$AA@ 1000ea08     glsl_core:semantic.obj
 0001:0000da20       ??_C@_0DK@LPCNDBEM@ASTAddIdentifierToSymbolTable?3?5U@ 1000ea20     glsl_core:semantic.obj
 0001:0000da5c       ??_C@_0DG@MPDECNKE@?8?$CFs?8?5?3?5higher?5index?5value?5alread@ 1000ea5c     glsl_core:semantic.obj
 0001:0000da94       ??_C@_0DD@GKJIHCLB@?8?$CFs?8?5?3?5redeclaration?5of?5array?5wi@ 1000ea94     glsl_core:semantic.obj
 0001:0000dac8       ??_C@_0CJ@IINGJFMA@?8?$CFs?8?5?3?5redeclaration?5of?5array?5wi@ 1000eac8     glsl_core:semantic.obj
 0001:0000daf4       ??_C@_0CF@HEGOMBE@?8?$CFs?8?5?3?5declaring?5non?9array?5as?5ar@ 1000eaf4     glsl_core:semantic.obj
 0001:0000db20       ??_C@_0EH@BMKBCHGF@ASTAddIdentifierToSymbolTable?3?5N@ 1000eb20     glsl_core:semantic.obj
 0001:0000dbb0       ??_C@_0EC@GCJJBHHK@EmulateBuiltInFunction?3?5Unrecogn@ 1000ebb0     glsl_core:glslfns.obj
 0001:0000dbf4       ??_C@_0M@NAPNMHJB@1?45?415?42856?$AA@ 1000ebf4     glsl_binshader:esbinshader.obj
 0001:0000dc00       ??_C@_0EH@IJAJBOHH@WriteU16?3?5Value?5out?5of?5range?3?50x@ 1000ec00     glsl_binshader:esbinshader.obj
 0001:0000dc48       ??_C@_0EF@KFGDFJDO@WriteU8?3?5Value?5out?5of?5range?3?50x?$CF@ 1000ec48     glsl_binshader:esbinshader.obj
 0001:0000dc90       ??_C@_07GLJEJNB@EMITCUT?$AA@ 1000ec90     usc:usc_utils.obj
 0001:0000dc98       ??_C@_03ODLKKDDL@CUT?$AA@  1000ec98     usc:usc_utils.obj
 0001:0000dc9c       ??_C@_04GBCMHBCE@EMIT?$AA@ 1000ec9c     usc:usc_utils.obj
 0001:0000dca4       ??_C@_05IALEHOEG@MOVVI?$AA@ 1000eca4     usc:usc_utils.obj
 0001:0000dcac       ??_C@_04PHPDOHKP@DIV2?$AA@ 1000ecac     usc:usc_utils.obj
 0001:0000dcb4       ??_C@_05BFJLGMF@MOVCP?$AA@ 1000ecb4     usc:usc_utils.obj
 0001:0000dcbc       ??_C@_06FGGEKBGC@DOT4CP?$AA@ 1000ecbc     usc:usc_utils.obj
 0001:0000dcc4       ??_C@_04KIMHDDNA@LOGP?$AA@ 1000ecc4     usc:usc_utils.obj
 0001:0000dccc       ??_C@_04HBHAILHC@EXPP?$AA@ 1000eccc     usc:usc_utils.obj
 0001:0000dcd4       ??_C@_08LKBLKNDD@MOVA_INT?$AA@ 1000ecd4     usc:usc_utils.obj
 0001:0000dce0       ??_C@_08GONKFOLN@MOVA_RNE?$AA@ 1000ece0     usc:usc_utils.obj
 0001:0000dcec       ??_C@_08INHPMPD@MOVA_TRC?$AA@ 1000ecec     usc:usc_utils.obj
 0001:0000dcf8       ??_C@_09IHCHNAND@ENDSWITCH?$AA@ 1000ecf8     usc:usc_utils.obj
 0001:0000dd04       ??_C@_07MGCPDNLD@DEFAULT?$AA@ 1000ed04     usc:usc_utils.obj
 0001:0000dd0c       ??_C@_04OGNCDOIK@CASE?$AA@ 1000ed0c     usc:usc_utils.obj
 0001:0000dd14       ??_C@_06DKNFLPLN@SWITCH?$AA@ 1000ed14     usc:usc_utils.obj
 0001:0000dd1c       ??_C@_07FMKELLMM@IFNZBIT?$AA@ 1000ed1c     usc:usc_utils.obj
 0001:0000dd24       ??_C@_0O@DACOILJI@CONTINUENZBIT?$AA@ 1000ed24     usc:usc_utils.obj
 0001:0000dd34       ??_C@_08CEMFIBFD@RETNZBIT?$AA@ 1000ed34     usc:usc_utils.obj
 0001:0000dd40       ??_C@_09IKPIPGBO@CALLNZBIT?$AA@ 1000ed40     usc:usc_utils.obj
 0001:0000dd4c       ??_C@_0L@EHPDBPCP@BREAKNZBIT?$AA@ 1000ed4c     usc:usc_utils.obj
 0001:0000dd58       ??_C@_0N@NLKMEFNE@GLSLLOOPTAIL?$AA@ 1000ed58     usc:usc_utils.obj
 0001:0000dd68       ??_C@_0N@DNBOGBJP@GLSLCONTINUE?$AA@ 1000ed68     usc:usc_utils.obj
 0001:0000dd78       ??_C@_0M@IIPMBMC@GLSLENDLOOP?$AA@ 1000ed78     usc:usc_utils.obj
 0001:0000dd84       ??_C@_0P@BNMDBKOA@GLSLSTATICLOOP?$AA@ 1000ed84     usc:usc_utils.obj
 0001:0000dd94       ??_C@_08CIJJABIK@GLSLLOOP?$AA@ 1000ed94     usc:usc_utils.obj
 0001:0000dda0       ??_C@_05LAJLJJBC@CALLP?$AA@ 1000eda0     usc:usc_utils.obj
 0001:0000dda8       ??_C@_06IFIODKDJ@BREAKP?$AA@ 1000eda8     usc:usc_utils.obj
 0001:0000ddb0       ??_C@_03PGALJLHC@IFP?$AA@  1000edb0     usc:usc_utils.obj
 0001:0000ddb4       ??_C@_04DLKKMOMO@SETP?$AA@ 1000edb4     usc:usc_utils.obj
 0001:0000ddbc       ??_C@_06OEGBHLKL@BREAKC?$AA@ 1000edbc     usc:usc_utils.obj
 0001:0000ddc4       ??_C@_03JHOENKOA@IFC?$AA@  1000edc4     usc:usc_utils.obj
 0001:0000ddc8       ??_C@_06EBGPDKJM@ENDREP?$AA@ 1000edc8     usc:usc_utils.obj
 0001:0000ddd0       ??_C@_03HDFFPFLF@REP?$AA@  1000edd0     usc:usc_utils.obj
 0001:0000ddd4       ??_C@_06KFOFNBHF@CALLNZ?$AA@ 1000edd4     usc:usc_utils.obj
 0001:0000dddc       ??_C@_07BKIPBFEF@KPNZBIT?$AA@ 1000eddc     usc:usc_utils.obj
 0001:0000dde4       ??_C@_04CJHNKBPM@KPLE?$AA@ 1000ede4     usc:usc_utils.obj
 0001:0000ddec       ??_C@_04HKKEICOM@KPLT?$AA@ 1000edec     usc:usc_utils.obj
 0001:0000ddf4       ??_C@_05GGJNPOKM@LDBUF?$AA@ 1000edf4     usc:usc_utils.obj
 0001:0000ddfc       ??_C@_05CLKBFMGL@LDCLZ?$AA@ 1000edfc     usc:usc_utils.obj
 0001:0000de04       ??_C@_03KDLOPOLM@LDC?$AA@  1000ee04     usc:usc_utils.obj
 0001:0000de08       ??_C@_03OMPPGIHL@LDD?$AA@  1000ee08     usc:usc_utils.obj
 0001:0000de0c       ??_C@_07DFIAJNK@LDPIFTC?$AA@ 1000ee0c     usc:usc_utils.obj
 0001:0000de14       ??_C@_03MCFBLPCO@LDP?$AA@  1000ee14     usc:usc_utils.obj
 0001:0000de18       ??_C@_03CECGOCHD@LDL?$AA@  1000ee18     usc:usc_utils.obj
 0001:0000de1c       ??_C@_03LKKFMPPN@LDB?$AA@  1000ee1c     usc:usc_utils.obj
 0001:0000de20       ??_C@_02ONCLNIEI@LD?$AA@   1000ee20     usc:usc_utils.obj
 0001:0000de24       ??_C@_03CDEJPCIF@XOR?$AA@  1000ee24     usc:usc_utils.obj
 0001:0000de28       ??_C@_03PBAHGDAB@SHR?$AA@  1000ee28     usc:usc_utils.obj
 0001:0000de2c       ??_C@_02PDPFNDMG@OR?$AA@   1000ee2c     usc:usc_utils.obj
 0001:0000de30       ??_C@_03BLGELAIE@ASR?$AA@  1000ee30     usc:usc_utils.obj
 0001:0000de34       ??_C@_03CFEGFMNO@SHL?$AA@  1000ee34     usc:usc_utils.obj
 0001:0000de38       ??_C@_03BDACDFHA@AND?$AA@  1000ee38     usc:usc_utils.obj
 0001:0000de3c       ??_C@_04IEDALHLA@SQRT?$AA@ 1000ee3c     usc:usc_utils.obj
 0001:0000de44       ??_C@_07MPADIFOA@MOVCBIT?$AA@ 1000ee44     usc:usc_utils.obj
 0001:0000de4c       ??_C@_06CELPKKED@SETBNE?$AA@ 1000ee4c     usc:usc_utils.obj
 0001:0000de54       ??_C@_06HEOCFNDN@SETBLT?$AA@ 1000ee54     usc:usc_utils.obj
 0001:0000de5c       ??_C@_06CLGOJBMM@SETBGE?$AA@ 1000ee5c     usc:usc_utils.obj
 0001:0000de64       ??_C@_06GEEJCPH@SETBEQ?$AA@ 1000ee64     usc:usc_utils.obj
 0001:0000de6c       ??_C@_06CPNAGDBH@OGLLIT?$AA@ 1000ee6c     usc:usc_utils.obj
 0001:0000de74       ??_C@_03KOOFOJHJ@LIT?$AA@  1000ee74     usc:usc_utils.obj
 0001:0000de78       ??_C@_03HKOAOHDA@DST?$AA@  1000ee78     usc:usc_utils.obj
 0001:0000de7c       ??_C@_03MPEOJJHN@DSY?$AA@  1000ee7c     usc:usc_utils.obj
 0001:0000de80       ??_C@_03NGFFKIDM@DSX?$AA@  1000ee80     usc:usc_utils.obj
 0001:0000de84       ??_C@_04PEPPOICM@M3X2?$AA@ 1000ee84     usc:usc_utils.obj
 0001:0000de8c       ??_C@_04ONOENJGN@M3X3?$AA@ 1000ee8c     usc:usc_utils.obj
 0001:0000de94       ??_C@_04KCKFEPKK@M3X4?$AA@ 1000ee94     usc:usc_utils.obj
 0001:0000de9c       ??_C@_04HADDOBNE@M4X3?$AA@ 1000ee9c     usc:usc_utils.obj
 0001:0000dea4       ??_C@_04DPHCHHBD@M4X4?$AA@ 1000eea4     usc:usc_utils.obj
 0001:0000deac       ??_C@_07PKBLCBGP@SINCOS2?$AA@ 1000eeac     usc:usc_utils.obj
 0001:0000deb4       ??_C@_06NMMLFNJO@SINCOS?$AA@ 1000eeb4     usc:usc_utils.obj
 0001:0000debc       ??_C@_03IPJPMEHL@NRM?$AA@  1000eebc     usc:usc_utils.obj
 0001:0000dec0       ??_C@_03KJLECDHJ@CRS?$AA@  1000eec0     usc:usc_utils.obj
 0001:0000dec4       ??_C@_03NKPKGAOM@LRP?$AA@  1000eec4     usc:usc_utils.obj
 0001:0000dec8       ??_C@_03FBKOMNAB@RND?$AA@  1000eec8     usc:usc_utils.obj
 0001:0000decc       ??_C@_03EILFPMEA@RNE?$AA@  1000eecc     usc:usc_utils.obj
 0001:0000ded0       ??_C@_03COLIFOAO@TRC?$AA@  1000eed0     usc:usc_utils.obj
 0001:0000ded4       ??_C@_03JBMJGMHA@FLR?$AA@  1000eed4     usc:usc_utils.obj
 0001:0000ded8       ??_C@_03LJALPNPL@CND?$AA@  1000eed8     usc:usc_utils.obj
 0001:0000dedc       ??_C@_03JFODJEPH@CMP?$AA@  1000eedc     usc:usc_utils.obj
 0001:0000dee0       ??_C@_05LCJGEIPC@RSQRT?$AA@ 1000eee0     usc:usc_utils.obj
 0001:0000dee8       ??_C@_05NDDJDMFB@RECIP?$AA@ 1000eee8     usc:usc_utils.obj
 0001:0000def0       ??_C@_04IHEGMLJL@DOT4?$AA@ 1000eef0     usc:usc_utils.obj
 0001:0000def8       ??_C@_04MIAHFNFM@DOT3?$AA@ 1000eef8     usc:usc_utils.obj
 0001:0000df00       ??_C@_07JJJNIFD@DOT2ADD?$AA@ 1000ef00     usc:usc_utils.obj
 0001:0000df08       g_asInputInstDesc          1000ef08     usc:usc_utils.obj
 0001:0000e468       ??_C@_05JOMODIAJ@_h?$CFlu?$AA@ 1000f468     usc:usc_utils.obj
 0001:0000e470       ??_C@_04FGKDHNNF@?$CF?45s?$AA@ 1000f470     usc:usc_utils.obj
 0001:0000e478       ??_C@_04EPEFPFOF@_abs?$AA@ 1000f478     usc:usc_utils.obj
 0001:0000e480       ??_C@_04DMMHCEGD@_neg?$AA@ 1000f480     usc:usc_utils.obj
 0001:0000e488       ??_C@_07PKPAKH@_r?$CFlu?$CFs?$AA@ 1000f488     usc:usc_utils.obj
 0001:0000e490       ??_C@_04KLKHHPIG@MAIN?$AA@ 1000f490     usc:usc_utils.obj
 0001:0000e498       ??_C@_04HDOCAJNK@?$CFs?$CFs?$AA@ 1000f498     usc:usc_utils.obj
 0001:0000e4a0       ??_C@_02HHFHKOHM@?$DP?$DP?$AA@ 1000f4a0     usc:usc_utils.obj
 0001:0000e4a4       ??_C@_01BIAFAFID@F?$AA@    1000f4a4     usc:usc_utils.obj
 0001:0000e4a8       ??_C@_01DGKLNCNG@R?$AA@    1000f4a8     usc:usc_utils.obj
 0001:0000e4ac       ??_C@_01GAPBHFFA@T?$AA@    1000f4ac     usc:usc_utils.obj
 0001:0000e4b0       ??_C@_01HMGJMAIH@B?$AA@    1000f4b0     usc:usc_utils.obj
 0001:0000e4b4       ??_C@_06GAMDLPO@?$CFs?$CI?$CFs?$CJ?$AA@ 1000f4b4     usc:usc_utils.obj
 0001:0000e4bc       ??_C@_02KEGNLNML@?0?5?$AA@ 1000f4bc     usc:usc_utils.obj
 0001:0000e4c0       ??_C@_06GLBEMCJK@null?0?5?$AA@ 1000f4c0     usc:usc_utils.obj
 0001:0000e4c8       ??_C@_01MIFGBAGJ@?$CL?$AA@ 1000f4c8     usc:usc_utils.obj
 0001:0000e4cc       ??_C@_03HHEBJBCJ@_?$CFs?$AA@ 1000f4cc     usc:usc_utils.obj
 0001:0000e4d0       ??_C@_05DLNOECIK@_t?$CFlu?$AA@ 1000f4d0     usc:usc_utils.obj
 0001:0000e4d8       ??_C@_05CDOLKOAF@?$CFlu?$CFs?$AA@ 1000f4d8     usc:usc_utils.obj
 0001:0000e4e0       ??_C@_06DIJPEION@?$CFs?$CFs?$CFs?$AA@ 1000f4e0     usc:usc_utils.obj
 0001:0000e4e8       ??_C@_05CDEHLADN@?$CFs?$CFlu?$AA@ 1000f4e8     usc:usc_utils.obj
 0001:0000e4f0       ??_C@_01POHCFINO@Z?$AA@    1000f4f0     usc:usc_utils.obj
 0001:0000e4f4       ??_C@_05LLMNIFP@null?$CL?$AA@ 1000f4f4     usc:usc_utils.obj
 0001:0000e4fc       ??_C@_03MOCCBCKP@?$CFs?7?$AA@ 1000f4fc     usc:usc_utils.obj
 0001:0000e500       ??_C@_01DCLJPIOD@?$CB?$AA@ 1000f500     usc:usc_utils.obj
 0001:0000e504       ??_C@_03COOPGOJP@u16?$AA@  1000f504     usc:usc_utils.obj
 0001:0000e508       ??_C@_03DECAIGLI@i16?$AA@  1000f508     usc:usc_utils.obj
 0001:0000e50c       ??_C@_03EJAHHPPF@u32?$AA@  1000f50c     usc:usc_utils.obj
 0001:0000e510       ??_C@_03FDMIJHNC@i32?$AA@  1000f510     usc:usc_utils.obj
 0001:0000e514       ??_C@_02EFBLDAKN@u8?$AA@   1000f514     usc:usc_utils.obj
 0001:0000e518       ??_C@_03NMHMBFK@c10?$AA@   1000f518     usc:usc_utils.obj
 0001:0000e51c       ??_C@_03GMEDJGOO@f16?$AA@  1000f51c     usc:usc_utils.obj
 0001:0000e520       ??_C@_03LKLIHIE@f32?$AA@   1000f520     usc:usc_utils.obj
 0001:0000e524       ??_C@_03MNIILKKL@_al?$AA@  1000f524     usc:usc_utils.obj
 0001:0000e528       ??_C@_04EEBBMKDP@_a0w?$AA@ 1000f528     usc:usc_utils.obj
 0001:0000e530       ??_C@_04PBLPLEHC@_a0z?$AA@ 1000f530     usc:usc_utils.obj
 0001:0000e538       ??_C@_04NKJCOHLB@_a0y?$AA@ 1000f538     usc:usc_utils.obj
 0001:0000e540       ??_C@_04MDIJNGPA@_a0x?$AA@ 1000f540     usc:usc_utils.obj
 0001:0000e548       ??_C@_05DPJCNGPF@orall?$AA@ 1000f548     usc:usc_utils.obj
 0001:0000e550       ??_C@_06BKABFOPO@andall?$AA@ 1000f550     usc:usc_utils.obj
 0001:0000e558       ??_C@_02EHCHHCKH@?$DM?$DN?$AA@ 1000f558     usc:usc_utils.obj
 0001:0000e55c       ??_C@_02FDNJECIE@?$CB?$DN?$AA@ 1000f55c     usc:usc_utils.obj
 0001:0000e560       ??_C@_01MNNFJEPP@?$DM?$AA@ 1000f560     usc:usc_utils.obj
 0001:0000e564       ??_C@_02EEKDKGMJ@?$DO?$DN?$AA@ 1000f564     usc:usc_utils.obj
 0001:0000e568       ??_C@_02EGOFBIJA@?$DN?$DN?$AA@ 1000f568     usc:usc_utils.obj
 0001:0000e56c       ??_C@_01PPODPGHN@?$DO?$AA@ 1000f56c     usc:usc_utils.obj
 0001:0000e570       ??_C@_02FCBDKCDG@?4w?$AA@  1000f570     usc:usc_utils.obj
 0001:0000e574       ??_C@_02OHLNNMHL@?4z?$AA@  1000f574     usc:usc_utils.obj
 0001:0000e578       ??_C@_02MMJAIPLI@?4y?$AA@  1000f578     usc:usc_utils.obj
 0001:0000e57c       ??_C@_02NFILLOPJ@?4x?$AA@  1000f57c     usc:usc_utils.obj
 0001:0000e580       ??_C@_08FINKBBAF@reserved?$AA@ 1000f580     usc:usc_utils.obj
 0001:0000e58c       ??_C@_04CGFJFPFD@none?$AA@ 1000f58c     usc:usc_utils.obj
 0001:0000e594       ??_C@_09GNCNHEKA@_timestwo?$AA@ 1000f594     usc:usc_utils.obj
 0001:0000e5a0       ??_C@_05FLDOPDPI@_bias?$AA@ 1000f5a0     usc:usc_utils.obj
 0001:0000e5a8       ??_C@_07FLMGNJNN@_signed?$AA@ 1000f5a8     usc:usc_utils.obj
 0001:0000e5b0       ??_C@_05GBACCPDD@_comp?$AA@ 1000f5b0     usc:usc_utils.obj
 0001:0000e5b8       ??_C@_04NGGIBDJF@?4gba?$AA@ 1000f5b8     usc:usc_utils.obj
 0001:0000e5c0       ??_C@_04LBKPLEDI@?4rba?$AA@ 1000f5c0     usc:usc_utils.obj
 0001:0000e5c8       ??_C@_03KJODLNEG@?4ba?$AA@ 1000f5c8     usc:usc_utils.obj
 0001:0000e5cc       ??_C@_04LHGEHGND@?4rga?$AA@ 1000f5cc     usc:usc_utils.obj
 0001:0000e5d4       ??_C@_03KPCIHPKN@?4ga?$AA@ 1000f5d4     usc:usc_utils.obj
 0001:0000e5d8       ??_C@_03LFMFBODG@?4ra?$AA@ 1000f5d8     usc:usc_utils.obj
 0001:0000e5dc       ??_C@_02EOILBHOB@?4a?$AA@  1000f5dc     usc:usc_utils.obj
 0001:0000e5e0       ??_C@_04JMEJCFBA@?4rgb?$AA@ 1000f5e0     usc:usc_utils.obj
 0001:0000e5e8       ??_C@_03IEAFCMGO@?4gb?$AA@ 1000f5e8     usc:usc_utils.obj
 0001:0000e5ec       ??_C@_03JOOIENPF@?4rb?$AA@ 1000f5ec     usc:usc_utils.obj
 0001:0000e5f0       ??_C@_02GFKGEECC@?4b?$AA@  1000f5f0     usc:usc_utils.obj
 0001:0000e5f4       ??_C@_03ODJPLJLA@?4rg?$AA@ 1000f5f4     usc:usc_utils.obj
 0001:0000e5f8       ??_C@_02BINBLAGH@?4g?$AA@  1000f5f8     usc:usc_utils.obj
 0001:0000e5fc       ??_C@_02CPGEFGHD@?4r?$AA@  1000f5fc     usc:usc_utils.obj
 0001:0000e600       ??_C@_02PEOAMJM@?4_?$AA@   1000f600     usc:usc_utils.obj
 0001:0000e604       ??_C@_02MCEHGFCK@MP?$AA@   1000f604     usc:usc_utils.obj
 0001:0000e608       ??_C@_02GFBACKGC@cp?$AA@   1000f608     usc:usc_utils.obj
 0001:0000e60c       ??_C@_02BHMOPGG@ct?$AA@    1000f60c     usc:usc_utils.obj
 0001:0000e610       ??_C@_02LCKHEFGH@vo?$AA@   1000f610     usc:usc_utils.obj
 0001:0000e614       ??_C@_02OEPNOCOB@vi?$AA@   1000f614     usc:usc_utils.obj
 0001:0000e618       ??_C@_07JEPMKBEO@tcpiftc?$AA@ 1000f618     usc:usc_utils.obj
 0001:0000e620       ??_C@_03FPEIBLKH@tcp?$AA@  1000f620     usc:usc_utils.obj
 0001:0000e624       ??_C@_01OCOKONAJ@L?$AA@    1000f624     usc:usc_utils.obj
 0001:0000e628       ??_C@_03JLJMINOF@cop?$AA@  1000f628     usc:usc_utils.obj
 0001:0000e62c       ??_C@_01GOHFPIOK@m?$AA@    1000f62c     usc:usc_utils.obj
 0001:0000e630       ??_C@_01OJONOECF@b?$AA@    1000f630     usc:usc_utils.obj
 0001:0000e634       ??_C@_01KBJDNOO@i?$AA@     1000f634     usc:usc_utils.obj
 0001:0000e638       ??_C@_02KDKICELI@MC?$AA@   1000f638     usc:usc_utils.obj
 0001:0000e63c       ??_C@_01BDACAMKP@h?$AA@    1000f63c     usc:usc_utils.obj
 0001:0000e640       ??_C@_01PFHFFBPC@t?$AA@    1000f640     usc:usc_utils.obj
 0001:0000e644       ??_C@_01PAPGNFGE@c?$AA@    1000f644     usc:usc_utils.obj
 0001:0000e648       ??_C@_02BNJGNOAF@tc?$AA@   1000f648     usc:usc_utils.obj
 0001:0000e64c       ??_C@_01MHEDDDHA@v?$AA@    1000f64c     usc:usc_utils.obj
 0001:0000e650       ??_C@_01KDCPPGHE@r?$AA@    1000f650     usc:usc_utils.obj
 0001:0000e654       ??_C@_02NONPHDEB@?12?$AA@  1000f654     usc:usc_utils.obj
 0001:0000e658       ??_C@_02IIIFNEMH@?14?$AA@  1000f658     usc:usc_utils.obj
 0001:0000e65c       ??_C@_02CEDAJLML@?18?$AA@  1000f65c     usc:usc_utils.obj
 0001:0000e660       ??_C@_03IKFPIBFJ@?116?$AA@ 1000f660     usc:usc_utils.obj
 0001:0000e664       ??_C@_03KILKAE@_x8?$AA@    1000f664     usc:usc_utils.obj
 0001:0000e668       ??_C@_03KMBNPFAI@_x4?$AA@  1000f668     usc:usc_utils.obj
 0001:0000e66c       ??_C@_03PKEHFCIO@_x2?$AA@  1000f66c     usc:usc_utils.obj
 0001:0000e670       ??_C@_08PFLKNDPJ@_satplus?$AA@ 1000f670     usc:usc_utils.obj
 0001:0000e67c       ??_C@_06JJEDCHJD@_sat11?$AA@ 1000f67c     usc:usc_utils.obj
 0001:0000e684       ??_C@_06JIIBENKE@_sat01?$AA@ 1000f684     usc:usc_utils.obj
 0001:0000e690       g_auSetBitCount            1000f690     usc:usc.obj
 0001:0000e6d0       g_abSingleBitSet           1000f6d0     usc:usc.obj
 0001:0000e710       g_puSwapRedAndBlueChan     1000f710     usc:usc.obj
 0001:0000e730       g_puSwapRedAndBlueMask     1000f730     usc:usc.obj
 0001:0000e770       g_aiSingleComponent        1000f770     usc:usc.obj
 0001:0000e7b0       g_puInvertCompOp           1000f7b0     usc:usc.obj
 0001:0000e7cc       g_puNegateCompOp           1000f7cc     usc:usc.obj
 0001:0000e7e8       ??_C@_0CF@HNHPMPFI@?6?$CK?$CK?$CK?5USC_ABORT?3?5?$CFs?$CI?$CFld?$CJ?3?5?$CFs?3?5?$CFs?5@ 1000f7e8     usc:usc.obj
 0001:0000e810       ??_C@_0O@NPFKCNOE@Unknown?5Error?$AA@ 1000f810     usc:usc.obj
 0001:0000e820       ??_C@_0BB@KINPANLI@UF_ERR_NO_MEMORY?$AA@ 1000f820     usc:usc.obj
 0001:0000e834       ??_C@_0BG@CAKOEBNL@UF_ERR_TOO_MANY_INSTS?$AA@ 1000f834     usc:usc.obj
 0001:0000e850       ??_C@_1FK@FNONLNGN@?$AA?$CF?$AAs?$AA?3?$AA?5?$AAD?$AAE?$AAB?$AAU?$AAG?$AAC?$AAH?$AAK?$AA?5?$AAf?$AAa?$AAi?$AAl?$AAe?$AAd?$AA?5?$AAi?$AAn?$AA?5?$AAf?$AAi?$AAl?$AAe?$AA?5?$AA?$CF?$AAs?$AA?5?$AAa@ 1000f850     usc:usc.obj
 0001:0000e8ac       ??_C@_1BA@LEPJIIOK@?$AAU?$AAn?$AAk?$AAn?$AAo?$AAw?$AAn?$AA?$AA@ 1000f8ac     usc:usc.obj
 0001:0000e8c0       ??_C@_1GO@MKBGGLDL@?$AAC?$AA?3?$AA?2?$AAW?$AAi?$AAn?$AAC?$AAE?$AA?2?$AAO?$AAM?$AAA?$AAP?$AA?2?$AAD?$AAD?$AAK?$AA1?$AA?4?$AA5?$AA?2?$AAe?$AAu?$AAr?$AAa?$AAs?$AAi?$AAa?$AA?2?$AAt?$AAo?$AAo@ 1000f8c0     usc:usc.obj
 0001:0000e930       ??_C@_0DH@KIEGJJBM@C?3?2WinCE?2OMAP?2DDK1?45?2eurasia?2too@ 1000f930     usc:usc.obj
 0001:0000e968       ??_C@_0BM@HLJHAANA@?$DL?9?9?9?9?9?9?5Raw?5Input?5?9?9?9?9?9?9?9?$AN?6?$AA@ 1000f968     usc:usc.obj
 0001:0000e984       ??_C@_0BN@OGDAFALI@?$DL?9?9?9?9?9?9?5End?5Raw?5Input?5?9?9?9?9?$AN?6?$AA@ 1000f984     usc:usc.obj
 0001:0000e9b0       ??_C@_1HA@FCNGDIAI@?$AAC?$AA?3?$AA?2?$AAW?$AAi?$AAn?$AAC?$AAE?$AA?2?$AAO?$AAM?$AAA?$AAP?$AA?2?$AAD?$AAD?$AAK?$AA1?$AA?4?$AA5?$AA?2?$AAe?$AAu?$AAr?$AAa?$AAs?$AAi?$AAa?$AA?2?$AAt?$AAo?$AAo@ 1000f9b0     usc:data.obj
 0001:0000ea20       ??_C@_0DI@LMDLALDC@C?3?2WinCE?2OMAP?2DDK1?45?2eurasia?2too@ 1000fa20     usc:data.obj
 0001:0000ea58       ??_C@_1HI@EOAFLHCB@?$AAc?$AA?3?$AA?2?$AAw?$AAi?$AAn?$AAc?$AAe?$AA?2?$AAo?$AAm?$AAa?$AAp?$AA?2?$AAd?$AAd?$AAk?$AA1?$AA?4?$AA5?$AA?2?$AAe?$AAu?$AAr?$AAa?$AAs?$AAi?$AAa?$AA?2?$AAt?$AAo?$AAo@ 1000fa58     usc:data.obj
 0001:0000ead0       ??_C@_0DH@CFEHIAHM@C?3?2WinCE?2OMAP?2DDK1?45?2eurasia?2too@ 1000fad0     usc:dce.obj
 0001:0000eb08       ??_C@_1GO@LMGKECMH@?$AAC?$AA?3?$AA?2?$AAW?$AAi?$AAn?$AAC?$AAE?$AA?2?$AAO?$AAM?$AAA?$AAP?$AA?2?$AAD?$AAD?$AAK?$AA1?$AA?4?$AA5?$AA?2?$AAe?$AAu?$AAr?$AAa?$AAs?$AAi?$AAa?$AA?2?$AAt?$AAo?$AAo@ 1000fb08     usc:dce.obj
 0001:0000eb78       ??_C@_0BA@GBOIHAHE@Invalid_Max_Arg?$AA@ 1000fb78     usc:inst.obj
 0001:0000eb88       ??_C@_05DOJLHMDO@IEMIT?$AA@ 1000fb88     usc:inst.obj
 0001:0000eb90       ??_C@_07KMCIDPAC@IIADD16?$AA@ 1000fb90     usc:inst.obj
 0001:0000eb98       ??_C@_08GBDOAHMO@IISUBU16?$AA@ 1000fb98     usc:inst.obj
 0001:0000eba4       ??_C@_04PLJJJCGI@IWOP?$AA@ 1000fba4     usc:inst.obj
 0001:0000ebac       ??_C@_0N@LFLGJNGE@ISMP_USP_NDR?$AA@ 1000fbac     usc:inst.obj
 0001:0000ebbc       ??_C@_0N@GMCKLOJH@ISMPGRAD_USP?$AA@ 1000fbbc     usc:inst.obj
 0001:0000ebcc       ??_C@_0BA@CLBBCJAE@ISMPREPLACE_USP?$AA@ 1000fbcc     usc:inst.obj
 0001:0000ebdc       ??_C@_0N@BJLPOEIG@ISMPBIAS_USP?$AA@ 1000fbdc     usc:inst.obj
 0001:0000ebec       ??_C@_08LONNMFB@ISMP_USP?$AA@ 1000fbec     usc:inst.obj
 0001:0000ebf8       ??_C@_09HGMODOHB@ISTARRC10?$AA@ 1000fbf8     usc:inst.obj
 0001:0000ec04       ??_C@_09BHEKGJMF@ISTARRF16?$AA@ 1000fc04     usc:inst.obj
 0001:0000ec10       ??_C@_09HAKCHIKP@ISTARRF32?$AA@ 1000fc10     usc:inst.obj
 0001:0000ec1c       ??_C@_09HJAMICPK@ILDARRC10?$AA@ 1000fc1c     usc:inst.obj
 0001:0000ec28       ??_C@_09BIIINFEO@ILDARRF16?$AA@ 1000fc28     usc:inst.obj
 0001:0000ec34       ??_C@_09HPGAMECE@ILDARRF32?$AA@ 1000fc34     usc:inst.obj
 0001:0000ec40       ??_C@_07CDGDIKMM@IMOVIDX?$AA@ 1000fc40     usc:inst.obj
 0001:0000ec48       ??_C@_07OFECAAOA@IFMAD16?$AA@ 1000fc48     usc:inst.obj
 0001:0000ec50       ??_C@_07LFJGBJEN@IFMUL16?$AA@ 1000fc50     usc:inst.obj
 0001:0000ec58       ??_C@_07FKGAEPOL@IFADD16?$AA@ 1000fc58     usc:inst.obj
 0001:0000ec60       ??_C@_07KAGCCBJF@IFMOV16?$AA@ 1000fc60     usc:inst.obj
 0001:0000ec68       ??_C@_09JIJJHKMC@IMOVC_I16?$AA@ 1000fc68     usc:inst.obj
 0001:0000ec74       ??_C@_09PPHBGLKI@IMOVC_I32?$AA@ 1000fc74     usc:inst.obj
 0001:0000ec80       ??_C@_08EABOAKIG@IMOVC_U8?$AA@ 1000fc80     usc:inst.obj
 0001:0000ec8c       ??_C@_09KBHODNCA@IMOVC_C10?$AA@ 1000fc8c     usc:inst.obj
 0001:0000ec98       ??_C@_05LGBLJPKP@IMOVC?$AA@ 1000fc98     usc:inst.obj
 0001:0000eca0       ??_C@_08PHMAHIDJ@IFP16DOT?$AA@ 1000fca0     usc:inst.obj
 0001:0000ecac       ??_C@_06ODHFKLFG@IFPDOT?$AA@ 1000fcac     usc:inst.obj
 0001:0000ecb4       ??_C@_05BCEHFFAN@IFDPC?$AA@ 1000fcb4     usc:inst.obj
 0001:0000ecbc       ??_C@_07GALLBODK@IFPSUB8?$AA@ 1000fcbc     usc:inst.obj
 0001:0000ecc4       ??_C@_07JGLDJGJA@IFPADD8?$AA@ 1000fcc4     usc:inst.obj
 0001:0000eccc       ??_C@_05OLPEMHGE@IFPMA?$AA@ 1000fccc     usc:inst.obj
 0001:0000ecd4       ??_C@_05DAIMFOJL@ILRP1?$AA@ 1000fcd4     usc:inst.obj
 0001:0000ecdc       ??_C@_05ECHJLDAI@ISOP3?$AA@ 1000fcdc     usc:inst.obj
 0001:0000ece4       ??_C@_05FLGCICEJ@ISOP2?$AA@ 1000fce4     usc:inst.obj
 0001:0000ecec       ??_C@_06EJAKDDF@ISOPWM?$AA@ 1000fcec     usc:inst.obj
 0001:0000ecf4       ??_C@_04NGIIIKHN@INOP?$AA@ 1000fcf4     usc:inst.obj
 0001:0000ecfc       ??_C@_05HEFIDKGH@ISMBO?$AA@ 1000fcfc     usc:inst.obj
 0001:0000ed04       ??_C@_06ECCFMIAK@ISETFC?$AA@ 1000fd04     usc:inst.obj
 0001:0000ed0c       ??_C@_04EFEJLDND@ISMR?$AA@ 1000fd0c     usc:inst.obj
 0001:0000ed14       ??_C@_06HPKHFKK@ISMLSI?$AA@ 1000fd14     usc:inst.obj
 0001:0000ed1c       ??_C@_0M@FOBIOFFC@IDRVPADDING?$AA@ 1000fd1c     usc:inst.obj
 0001:0000ed28       ??_C@_05OIMNNLA@ISAVL?$AA@ 1000fd28     usc:inst.obj
 0001:0000ed30       ??_C@_05ICGKJOIJ@ISETL?$AA@ 1000fd30     usc:inst.obj
 0001:0000ed38       ??_C@_05GPCJLNJO@ILAPC?$AA@ 1000fd38     usc:inst.obj
 0001:0000ed40       ??_C@_06LFIJHEFB@ILABEL?$AA@ 1000fd40     usc:inst.obj
 0001:0000ed48       ??_C@_05HPNNGMJE@ICALL?$AA@ 1000fd48     usc:inst.obj
 0001:0000ed50       ??_C@_03MDDEFBCM@IBR?$AA@  1000fd50     usc:inst.obj
 0001:0000ed54       ??_C@_04MOABNMAD@IRLP?$AA@ 1000fd54     usc:inst.obj
 0001:0000ed5c       ??_C@_03MLOMMCHP@IOR?$AA@  1000fd5c     usc:inst.obj
 0001:0000ed60       ??_C@_04JBMMOALM@IXOR?$AA@ 1000fd60     usc:inst.obj
 0001:0000ed68       ??_C@_04KBIHCHEJ@IAND?$AA@ 1000fd68     usc:inst.obj
 0001:0000ed70       ??_C@_04KJOBKCLN@IASR?$AA@ 1000fd70     usc:inst.obj
 0001:0000ed78       ??_C@_04EDICHBDI@ISHR?$AA@ 1000fd78     usc:inst.obj
 0001:0000ed80       ??_C@_04JHMDEOOH@ISHL?$AA@ 1000fd80     usc:inst.obj
 0001:0000ed88       ??_C@_08PHKGJIOA@ISMPGRAD?$AA@ 1000fd88     usc:inst.obj
 0001:0000ed94       ??_C@_0M@JNGNGGOJ@ISMPREPLACE?$AA@ 1000fd94     usc:inst.obj
 0001:0000eda0       ??_C@_08LNNNEDJI@ISMPBIAS?$AA@ 1000fda0     usc:inst.obj
 0001:0000edac       ??_C@_04HHHPNBFB@ISMP?$AA@ 1000fdac     usc:inst.obj
 0001:0000edb4       ??_C@_08JMCNMCIP@ICOMBC10?$AA@ 1000fdb4     usc:inst.obj
 0001:0000edc0       ??_C@_0L@BKKPBEBB@IPCKC10F16?$AA@ 1000fdc0     usc:inst.obj
 0001:0000edcc       ??_C@_0N@KMJHJNGP@IUNPCKF32F16?$AA@ 1000fdcc     usc:inst.obj
 0001:0000eddc       ??_C@_0N@MLFADKMC@IUNPCKF32S16?$AA@ 1000fddc     usc:inst.obj
 0001:0000edec       ??_C@_0N@OODLGFBO@IUNPCKF32U16?$AA@ 1000fdec     usc:inst.obj
 0001:0000edfc       ??_C@_0M@CPPBGAGA@IUNPCKF32S8?$AA@ 1000fdfc     usc:inst.obj
 0001:0000ee08       ??_C@_0M@CLHMBMNC@IUNPCKF32U8?$AA@ 1000fe08     usc:inst.obj
 0001:0000ee14       ??_C@_0M@DKMNDKHE@IUNPCKF32O8?$AA@ 1000fe14     usc:inst.obj
 0001:0000ee20       ??_C@_0N@MNBDMKNL@IUNPCKF32C10?$AA@ 1000fe20     usc:inst.obj
 0001:0000ee30       ??_C@_0L@KADPNPHM@IPCKF16F32?$AA@ 1000fe30     usc:inst.obj
 0001:0000ee3c       ??_C@_0L@MHNHMOBG@IPCKF16F16?$AA@ 1000fe3c     usc:inst.obj
 0001:0000ee48       ??_C@_0N@HDBIDNAJ@IUNPCKF16S16?$AA@ 1000fe48     usc:inst.obj
 0001:0000ee58       ??_C@_0N@FGHDGCNF@IUNPCKF16U16?$AA@ 1000fe58     usc:inst.obj
 0001:0000ee68       ??_C@_0M@NKFDKEFH@IUNPCKF16S8?$AA@ 1000fe68     usc:inst.obj
 0001:0000ee74       ??_C@_0M@NONONIOF@IUNPCKF16U8?$AA@ 1000fe74     usc:inst.obj
 0001:0000ee80       ??_C@_0M@MPGPPOED@IUNPCKF16O8?$AA@ 1000fe80     usc:inst.obj
 0001:0000ee8c       ??_C@_0N@HFFLMNBA@IUNPCKF16C10?$AA@ 1000fe8c     usc:inst.obj
 0001:0000ee9c       ??_C@_0L@HNEHAFHL@IPCKC10F32?$AA@ 1000fe9c     usc:inst.obj
 0001:0000eea8       ??_C@_0L@HLCLEDKF@IPCKC10C10?$AA@ 1000fea8     usc:inst.obj
 0001:0000eeb4       ??_C@_09FFKGHMEC@IPCKU8F32?$AA@ 1000feb4     usc:inst.obj
 0001:0000eec0       ??_C@_09DCEOGNCI@IPCKU8F16?$AA@ 1000fec0     usc:inst.obj
 0001:0000eecc       ??_C@_0L@INMOFKDI@IUNPCKU8U8?$AA@ 1000fecc     usc:inst.obj
 0001:0000eed8       ??_C@_0N@EGNBDIKH@IUNPCKS16F32?$AA@ 1000fed8     usc:inst.obj
 0001:0000eee8       ??_C@_0L@PGAJFJCP@IPCKU16F32?$AA@ 1000fee8     usc:inst.obj
 0001:0000eef4       ??_C@_0N@ECOJBMPH@IUNPCKU16F16?$AA@ 1000fef4     usc:inst.obj
 0001:0000ef04       ??_C@_0N@EFOEIG@IUNPCKU16U16?$AA@ 1000ff04     usc:inst.obj
 0001:0000ef14       ??_C@_0M@FLJMKINA@IUNPCKU16U8?$AA@ 1000ff14     usc:inst.obj
 0001:0000ef20       ??_C@_0M@IJEIDHHP@IUNPCKS16S8?$AA@ 1000ff20     usc:inst.obj
 0001:0000ef2c       ??_C@_05KGKBODJH@IIMAE?$AA@ 1000ff2c     usc:inst.obj
 0001:0000ef34       ??_C@_06LECJPGPN@IIMA16?$AA@ 1000ff34     usc:inst.obj
 0001:0000ef3c       ??_C@_04OLFEMIFO@IWDF?$AA@ 1000ff3c     usc:inst.obj
 0001:0000ef44       ??_C@_04FLJCOIPC@IIDF?$AA@ 1000ff44     usc:inst.obj
 0001:0000ef4c       ??_C@_05PDIIHMEN@IELDQ?$AA@ 1000ff4c     usc:inst.obj
 0001:0000ef54       ??_C@_05MEDNJKFJ@IELDD?$AA@ 1000ff54     usc:inst.obj
 0001:0000ef5c       ??_C@_05LACDNGLD@ISTLD?$AA@ 1000ff5c     usc:inst.obj
 0001:0000ef64       ??_C@_05CIKIBHP@ILDLD?$AA@ 1000ff64     usc:inst.obj
 0001:0000ef6c       ??_C@_05LIPLEFOA@ISTAD?$AA@ 1000ff6c     usc:inst.obj
 0001:0000ef74       ??_C@_05KFCBCCM@ILDAD?$AA@ 1000ff74     usc:inst.obj
 0001:0000ef7c       ??_C@_05NBMMJHCB@ISTLW?$AA@ 1000ff7c     usc:inst.obj
 0001:0000ef84       ??_C@_05GDGFMAON@ILDLW?$AA@ 1000ff84     usc:inst.obj
 0001:0000ef8c       ??_C@_05NJBEAEHC@ISTAW?$AA@ 1000ff8c     usc:inst.obj
 0001:0000ef94       ??_C@_05GLLNFDLO@ILDAW?$AA@ 1000ff94     usc:inst.obj
 0001:0000ef9c       ??_C@_05OGHJHBDF@ISTLB?$AA@ 1000ff9c     usc:inst.obj
 0001:0000efa4       ??_C@_05FENACGPJ@ILDLB?$AA@ 1000ffa4     usc:inst.obj
 0001:0000efac       ??_C@_05OOKBOCGG@ISTAB?$AA@ 1000ffac     usc:inst.obj
 0001:0000efb4       ??_C@_05FMAILFKK@ILDAB?$AA@ 1000ffb4     usc:inst.obj
 0001:0000efbc       ??_C@_0L@HBCKEBHF@ILOADCONST?$AA@ 1000ffbc     usc:inst.obj
 0001:0000efc8       ??_C@_09ELIHHLFM@ITESTMASK?$AA@ 1000ffc8     usc:inst.obj
 0001:0000efd4       ??_C@_04MDACDIGN@IEFO?$AA@ 1000ffd4     usc:inst.obj
 0001:0000efdc       ??_C@_08KHAKLILD@IFSUBFLR?$AA@ 1000ffdc     usc:inst.obj
 0001:0000efe8       ??_C@_05NLJNBIFK@IFMAX?$AA@ 1000ffe8     usc:inst.obj
 0001:0000eff0       ??_C@_05MJBGPMDF@IFMIN?$AA@ 1000fff0     usc:inst.obj
 0001:0000eff8       ??_C@_05KACMBBIP@IFDSY?$AA@ 1000fff8     usc:inst.obj
 0001:0000f000       ??_C@_05LJDHCAMO@IFDSX?$AA@ 10010000     usc:inst.obj
 0001:0000f008       ??_C@_05MFAHCCEC@IFEXP?$AA@ 10010008     usc:inst.obj
 0001:0000f010       ??_C@_05KEOFFMKL@IFLOG?$AA@ 10010010     usc:inst.obj
 0001:0000f018       ??_C@_05BNIHJDME@IFRSQ?$AA@ 10010018     usc:inst.obj
 0001:0000f020       ??_C@_05BILKABPF@IFRCP?$AA@ 10010020     usc:inst.obj
 0001:0000f028       ??_C@_05GIIHBPDD@IFDDP?$AA@ 10010028     usc:inst.obj
 0001:0000f030       ??_C@_04BPGJENHD@IFDP?$AA@ 10010030     usc:inst.obj
 0001:0000f038       ??_C@_05FPDPMGFM@IFMSA?$AA@ 10010038     usc:inst.obj
 0001:0000f040       ??_C@_05KADFIDBN@IFADM?$AA@ 10010040     usc:inst.obj
 0001:0000f048       ??_C@_05DNOKEFAH@IFMAD?$AA@ 10010048     usc:inst.obj
 0001:0000f050       ??_C@_05OOBMMEKD@IFMUL?$AA@ 10010050     usc:inst.obj
 0001:0000f058       ??_C@_05MAFJMJIB@IFSUB?$AA@ 10010058     usc:inst.obj
 0001:0000f060       ??_C@_05HBPHDIFE@IFADD?$AA@ 10010060     usc:inst.obj
 0001:0000f068       ??_C@_05EPIABINO@IFMOV?$AA@ 10010068     usc:inst.obj
 0001:0000f070       ??_C@_05CAOAIINM@ILIMM?$AA@ 10010070     usc:inst.obj
 0001:0000f078       ??_C@_04JCGHICBF@IMOV?$AA@ 10010078     usc:inst.obj
 0001:0000f080       ??_C@_07DJMIGIHO@Invalid?$AA@ 10010080     usc:inst.obj
 0001:0000f088       g_psInstDesc               10010088     usc:inst.obj
 0001:00010cf8       ??_C@_1HA@EBDPPDBE@?$AAC?$AA?3?$AA?2?$AAW?$AAi?$AAn?$AAC?$AAE?$AA?2?$AAO?$AAM?$AAA?$AAP?$AA?2?$AAD?$AAD?$AAK?$AA1?$AA?4?$AA5?$AA?2?$AAe?$AAu?$AAr?$AAa?$AAs?$AAi?$AAa?$AA?2?$AAt?$AAo?$AAo@ 10011cf8     usc:inst.obj
 0001:00010d68       ??_C@_0DI@PJFNKDJK@C?3?2WinCE?2OMAP?2DDK1?45?2eurasia?2too@ 10011d68     usc:inst.obj
 0001:00010da0       ??_C@_1HG@CLLHGDCK@?$AAC?$AA?3?$AA?2?$AAW?$AAi?$AAn?$AAC?$AAE?$AA?2?$AAO?$AAM?$AAA?$AAP?$AA?2?$AAD?$AAD?$AAK?$AA1?$AA?4?$AA5?$AA?2?$AAe?$AAu?$AAr?$AAa?$AAs?$AAi?$AAa?$AA?2?$AAt?$AAo?$AAo@ 10011da0     usc:domcalc.obj
 0001:00010e18       ??_C@_1HI@JKNAGCGO@?$AAC?$AA?3?$AA?2?$AAW?$AAi?$AAn?$AAC?$AAE?$AA?2?$AAO?$AAM?$AAA?$AAP?$AA?2?$AAD?$AAD?$AAK?$AA1?$AA?4?$AA5?$AA?2?$AAe?$AAu?$AAr?$AAa?$AAs?$AAi?$AAa?$AA?2?$AAt?$AAo?$AAo@ 10011e18     usc:finalise.obj
 0001:00010e90       ??_C@_0DM@GGMBHHBI@C?3?2WinCE?2OMAP?2DDK1?45?2eurasia?2too@ 10011e90     usc:finalise.obj
 0001:00010ee0       ??_C@_1HI@CHONIBNI@?$AAC?$AA?3?$AA?2?$AAW?$AAi?$AAn?$AAC?$AAE?$AA?2?$AAO?$AAM?$AAA?$AAP?$AA?2?$AAD?$AAD?$AAK?$AA1?$AA?4?$AA5?$AA?2?$AAe?$AAu?$AAr?$AAa?$AAs?$AAi?$AAa?$AA?2?$AAt?$AAo?$AAo@ 10011ee0     usc:regalloc.obj
 0001:00010f58       ??_C@_0DM@BOMHCCGI@C?3?2WinCE?2OMAP?2DDK1?45?2eurasia?2too@ 10011f58     usc:regalloc.obj
 0001:00010f98       ??_C@_1HG@JBFJHDPG@?$AAC?$AA?3?$AA?2?$AAW?$AAi?$AAn?$AAC?$AAE?$AA?2?$AAO?$AAM?$AAA?$AAP?$AA?2?$AAD?$AAD?$AAK?$AA1?$AA?4?$AA5?$AA?2?$AAe?$AAu?$AAr?$AAa?$AAs?$AAi?$AAa?$AA?2?$AAt?$AAo?$AAo@ 10011f98     usc:regpack.obj
 0001:00011010       ??_C@_0DL@FPPLJLIJ@C?3?2WinCE?2OMAP?2DDK1?45?2eurasia?2too@ 10012010     usc:regpack.obj
 0001:00011070       ??_C@_1HG@OEIDDOM@?$AAC?$AA?3?$AA?2?$AAW?$AAi?$AAn?$AAC?$AAE?$AA?2?$AAO?$AAM?$AAA?$AAP?$AA?2?$AAD?$AAD?$AAK?$AA1?$AA?4?$AA5?$AA?2?$AAe?$AAu?$AAr?$AAa?$AAs?$AAi?$AAa?$AA?2?$AAt?$AAo?$AAo@ 10012070     usc:iselect.obj
 0001:000110e8       ??_C@_0DL@CONPCOHF@C?3?2WinCE?2OMAP?2DDK1?45?2eurasia?2too@ 100120e8     usc:iselect.obj
 0001:00011160       ??_C@_1HE@IANJFHMK@?$AAC?$AA?3?$AA?2?$AAW?$AAi?$AAn?$AAC?$AAE?$AA?2?$AAO?$AAM?$AAA?$AAP?$AA?2?$AAD?$AAD?$AAK?$AA1?$AA?4?$AA5?$AA?2?$AAe?$AAu?$AAr?$AAa?$AAs?$AAi?$AAa?$AA?2?$AAt?$AAo?$AAo@ 10012160     usc:uspbin.obj
 0001:000111d4       ??_C@_0CI@HIPBGDKP@Failed?5to?5alloc?5space?5for?5USP?5PC@ 100121d4     usc:uspbin.obj
 0001:000111fc       ??_C@_0DK@OJOGAIBB@C?3?2WinCE?2OMAP?2DDK1?45?2eurasia?2too@ 100121fc     usc:uspbin.obj
 0001:00011238       ??_C@_1HK@GCJPGJKL@?$AAC?$AA?3?$AA?2?$AAW?$AAi?$AAn?$AAC?$AAE?$AA?2?$AAO?$AAM?$AAA?$AAP?$AA?2?$AAD?$AAD?$AAK?$AA1?$AA?4?$AA5?$AA?2?$AAe?$AAu?$AAr?$AAa?$AAs?$AAi?$AAa?$AA?2?$AAt?$AAo?$AAo@ 10012238     usc:iregalloc.obj
 0001:000112b4       ??_C@_0CA@JOBGIMJA@Can?8t?5assign?5internal?5registers?$AA@ 100122b4     usc:iregalloc.obj
 0001:000112d4       ??_C@_0DN@EJFCDDCM@C?3?2WinCE?2OMAP?2DDK1?45?2eurasia?2too@ 100122d4     usc:iregalloc.obj
 0001:00011318       ??_C@_1HK@EONMEPAP@?$AAC?$AA?3?$AA?2?$AAW?$AAi?$AAn?$AAC?$AAE?$AA?2?$AAO?$AAM?$AAA?$AAP?$AA?2?$AAD?$AAD?$AAK?$AA1?$AA?4?$AA5?$AA?2?$AAe?$AAu?$AAr?$AAa?$AAs?$AAi?$AAa?$AA?2?$AAt?$AAo?$AAo@ 10012318     usc:pregalloc.obj
 0001:00011394       ??_C@_0DN@NIODOEEB@C?3?2WinCE?2OMAP?2DDK1?45?2eurasia?2too@ 10012394     usc:pregalloc.obj
 0001:000113d8       ??_C@_1HG@PFGNAFED@?$AAC?$AA?3?$AA?2?$AAW?$AAi?$AAn?$AAC?$AAE?$AA?2?$AAO?$AAM?$AAA?$AAP?$AA?2?$AAD?$AAD?$AAK?$AA1?$AA?4?$AA5?$AA?2?$AAe?$AAu?$AAr?$AAa?$AAs?$AAi?$AAa?$AA?2?$AAt?$AAo?$AAo@ 100123d8     usc:reorder.obj
 0001:00011450       ??_C@_04GHFGAMGM@BEEF?$AA@ 10012450     usc:efo.obj
 0001:00011458       ??_C@_04CAPGHGLM@AEEF?$AA@ 10012458     usc:efo.obj
 0001:00011460       ??_C@_04BMCBJMBE@AFBE?$AA@ 10012460     usc:efo.obj
 0001:00011468       ??_C@_04CFLJGADJ@AEBF?$AA@ 10012468     usc:efo.obj
 0001:00011470       ??_C@_03MIIOGCGK@FBC?$AA@  10012470     usc:efo.obj
 0001:00011474       ??_C@_03MKMINMDD@FAC?$AA@  10012474     usc:efo.obj
 0001:00011478       ??_C@_03NKDLMNIE@EBC?$AA@  10012478     usc:efo.obj
 0001:0001147c       ??_C@_03NIHNHDNN@EAC?$AA@  1001247c     usc:efo.obj
 0001:00011480       ??_C@_04GDNLHANO@BECF?$AA@ 10012480     usc:efo.obj
 0001:00011488       ??_C@_04CEHLAKAO@AECF?$AA@ 10012488     usc:efo.obj
 0001:00011490       ??_C@_03EFKKELGE@BAC?$AA@  10012490     usc:efo.obj
 0001:00011494       ??_C@_03FFFJFKND@ABC?$AA@  10012494     usc:efo.obj
 0001:00011498       ??_C@_02MJNHLAAE@EG?$AA@   10012498     usc:efo.obj
 0001:0001149c       ??_C@_03BGNCNGMO@A?9C?$AA@ 1001249c     usc:efo.obj
 0001:000114a0       ??_C@_03EGHHJCA@B?9C?$AA@  100124a0     usc:efo.obj
 0001:000114a4       ??_C@_02MLJBAOFN@FG?$AA@   100124a4     usc:efo.obj
 0001:000114a8       ??_C@_03PNNMIEJN@E?9G?$AA@ 100124a8     usc:efo.obj
 0001:000114ac       ??_C@_02KKLCNNNM@AC?$AA@   100124ac     usc:efo.obj
 0001:000114b0       ??_C@_03OPGJCLHD@F?9G?$AA@ 100124b0     usc:efo.obj
 0001:000114b4       ??_C@_02KIPEGDIF@BC?$AA@   100124b4     usc:efo.obj
 0001:000114b8       ??_C@_03HAJFIBDK@BEA?$AA@  100124b8     usc:efo.obj
 0001:000114bc       ??_C@_03HCNDDPGD@BFA?$AA@  100124bc     usc:efo.obj
 0001:000114c0       ??_C@_03EJANHNBH@AEB?$AA@  100124c0     usc:efo.obj
 0001:000114c4       ??_C@_03ELELMDEO@AFB?$AA@  100124c4     usc:efo.obj
 0001:000114c8       ??_C@_02IPBDCKJM@?9G?$AA@  100124c8     usc:efo.obj
 0001:000114cc       ??_C@_02OLHPOPJI@?9C?$AA@  100124cc     usc:efo.obj
 0001:000114d0       ??_C@_01BBODEMC@G?$AA@     100124d0     usc:efo.obj
 0001:000114d4       ??_C@_03JNKHJILP@_EF?$AA@  100124d4     usc:efo.obj
 0001:000114d8       ??_C@_02NJEJINBK@?9A?$AA@  100124d8     usc:efo.obj
 0001:000114dc       ??_C@_03MIGDBDOF@F1E?$AA@  100124dc     usc:efo.obj
 0001:000114e0       ??_C@_02PCGENONJ@?9B?$AA@  100124e0     usc:efo.obj
 0001:000114e4       ??_C@_03PBPLOPMI@E1F?$AA@  100124e4     usc:efo.obj
 0001:000114e8       ??_C@_02LNCFEIBO@?9E?$AA@  100124e8     usc:efo.obj
 0001:000114ec       ??_C@_03CDGNEBLG@B1A?$AA@  100124ec     usc:efo.obj
 0001:000114f0       ??_C@_02JGAIBLNN@?9F?$AA@  100124f0     usc:efo.obj
 0001:000114f4       ??_C@_03BKPFLNJL@A1B?$AA@  100124f4     usc:efo.obj
 0001:000114f8       ??_C@_03MBGGECJM@EAB?$AA@  100124f8     usc:efo.obj
 0001:000114fc       ??_C@_02NAMMIBEF@EF?$AA@   100124fc     usc:efo.obj
 0001:00011500       ??_C@_03CNGBLIBD@AEF?$AA@  10012500     usc:efo.obj
 0001:00011504       ??_C@_02LDKJOMJN@AB?$AA@   10012504     usc:efo.obj
 0001:00011508       ??_C@_03BDPAOMOC@BAE?$AA@  10012508     usc:efo.obj
 0001:0001150c       ??_C@_02NFIDJHMA@BF?$AA@   1001250c     usc:efo.obj
 0001:00011510       ??_C@_03DINNLPCB@BAF?$AA@  10012510     usc:efo.obj
 0001:00011514       ??_C@_02POKOMEAD@BE?$AA@   10012514     usc:efo.obj
 0001:00011518       ??_C@_03DADPNFF@ABE?$AA@   10012518     usc:efo.obj
 0001:0001151c       ??_C@_02NHMFCJJJ@AF?$AA@   1001251c     usc:efo.obj
 0001:00011520       ??_C@_03CICOKOJG@ABF?$AA@  10012520     usc:efo.obj
 0001:00011524       ??_C@_02PMOIHKFK@AE?$AA@   10012524     usc:efo.obj
 0001:00011528       ??_C@_03KGJCAALM@BF_?$AA@  10012528     usc:efo.obj
 0001:0001152c       ??_C@_03KENELOOF@BE_?$AA@  1001252c     usc:efo.obj
 0001:00011530       ??_C@_03LECHKPFC@AF_?$AA@  10012530     usc:efo.obj
 0001:00011534       ??_C@_03LGGBBBAL@AE_?$AA@  10012534     usc:efo.obj
 0001:00011538       ??_C@_03COPJDPDH@FB_?$AA@  10012538     usc:efo.obj
 0001:0001153c       ??_C@_01FHEEJDEE@A?$AA@    1001253c     usc:efo.obj
 0001:00011540       ??_C@_03DMEMJANJ@EB_?$AA@  10012540     usc:efo.obj
 0001:00011544       ??_C@_01DDCIFGEA@E?$AA@    10012544     usc:efo.obj
 0001:00011548       ??_C@_03CMLPIBGO@FA_?$AA@  10012548     usc:efo.obj
 0001:0001154c       ??_C@_03DOAKCOIA@EA_?$AA@  1001254c     usc:efo.obj
 0001:00012110       ??_C@_1GO@FACGNJCE@?$AAC?$AA?3?$AA?2?$AAW?$AAi?$AAn?$AAC?$AAE?$AA?2?$AAO?$AAM?$AAA?$AAP?$AA?2?$AAD?$AAD?$AAK?$AA1?$AA?4?$AA5?$AA?2?$AAe?$AAu?$AAr?$AAa?$AAs?$AAi?$AAa?$AA?2?$AAt?$AAo?$AAo@ 10013110     usc:efo.obj
 0001:00012180       ??_C@_0DH@EJEGDMMN@C?3?2WinCE?2OMAP?2DDK1?45?2eurasia?2too@ 10013180     usc:efo.obj
 0001:000121b8       ??_C@_0DK@NOACKCKA@C?3?2WinCE?2OMAP?2DDK1?45?2eurasia?2too@ 100131b8     usc:f16opt.obj
 0001:000121f8       ??_C@_1HE@PMDGDPEB@?$AAC?$AA?3?$AA?2?$AAW?$AAi?$AAn?$AAC?$AAE?$AA?2?$AAO?$AAM?$AAA?$AAP?$AA?2?$AAD?$AAD?$AAK?$AA1?$AA?4?$AA5?$AA?2?$AAe?$AAu?$AAr?$AAa?$AAs?$AAi?$AAa?$AA?2?$AAt?$AAo?$AAo@ 100131f8     usc:f16opt.obj
 0001:00012270       ??_C@_1HI@LLLFJOC@?$AAC?$AA?3?$AA?2?$AAW?$AAi?$AAn?$AAC?$AAE?$AA?2?$AAO?$AAM?$AAA?$AAP?$AA?2?$AAD?$AAD?$AAK?$AA1?$AA?4?$AA5?$AA?2?$AAe?$AAu?$AAr?$AAa?$AAs?$AAi?$AAa?$AA?2?$AAt?$AAo?$AAo@ 10013270     usc:indexreg.obj
 0001:000122e8       ??_C@_1GO@GHAOMJKG@?$AAC?$AA?3?$AA?2?$AAW?$AAi?$AAn?$AAC?$AAE?$AA?2?$AAO?$AAM?$AAA?$AAP?$AA?2?$AAD?$AAD?$AAK?$AA1?$AA?4?$AA5?$AA?2?$AAe?$AAu?$AAr?$AAa?$AAs?$AAi?$AAa?$AA?2?$AAt?$AAo?$AAo@ 100132e8     usc:ssa.obj
 0001:00012358       ??_C@_0DH@NEBGLCIK@C?3?2WinCE?2OMAP?2DDK1?45?2eurasia?2too@ 10013358     usc:ssa.obj
 0001:00012390       ??_C@_1HE@OEDJDKON@?$AAC?$AA?3?$AA?2?$AAW?$AAi?$AAn?$AAC?$AAE?$AA?2?$AAO?$AAM?$AAA?$AAP?$AA?2?$AAD?$AAD?$AAK?$AA1?$AA?4?$AA5?$AA?2?$AAe?$AAu?$AAr?$AAa?$AAs?$AAi?$AAa?$AA?2?$AAt?$AAo?$AAo@ 10013390     usc:intcvt.obj
 0001:00012404       ??_C@_0DK@KGKLNNJA@C?3?2WinCE?2OMAP?2DDK1?45?2eurasia?2too@ 10013404     usc:intcvt.obj
 0001:00012440       ??_C@_05GANEADHA@?4or02?$AA@ 10013440     usc:debug.obj
 0001:00012448       ??_C@_06GFOEKGCG@?4and02?$AA@ 10013448     usc:debug.obj
 0001:00012450       ??_C@_06IMLOOKOJ@?4orall?$AA@ 10013450     usc:debug.obj
 0001:00012458       ??_C@_07OLDCOIN@?4andall?$AA@ 10013458     usc:debug.obj
 0001:00012460       ??_C@_03CAKMOIKH@?4c3?$AA@ 10013460     usc:debug.obj
 0001:00012464       ??_C@_03DJLHNJOG@?4c2?$AA@ 10013464     usc:debug.obj
 0001:00012468       ??_C@_03BCJKIKCF@?4c1?$AA@ 10013468     usc:debug.obj
 0001:0001246c       ??_C@_07NLPEPIDE@?4swzf32?$AA@ 1001346c     usc:debug.obj
 0001:00012474       ??_C@_06NEDHBKDP@?4swzhh?$AA@ 10013474     usc:debug.obj
 0001:0001247c       ??_C@_06LHFCHHOH@?4swzll?$AA@ 1001347c     usc:debug.obj
 0001:00012484       ??_C@_03JACDOOAM@vec?$AA@  10013484     usc:debug.obj
 0001:00012488       ??_C@_03KAPELGOC@sac?$AA@  10013488     usc:debug.obj
 0001:0001248c       ??_C@_03JKMCOJLO@gsi?$AA@  1001348c     usc:debug.obj
 0001:00012490       ??_C@_0L@HLINAGMB@unuseddest?$AA@ 10013490     usc:debug.obj
 0001:0001249c       ??_C@_0N@MAFAPJHG@unusedsource?$AA@ 1001349c     usc:debug.obj
 0001:000124ac       ??_C@_09DNMJGDIB@arraybase?$AA@ 100134ac     usc:debug.obj
 0001:000124b8       ??_C@_08CHNNLIFJ@regarray?$AA@ 100134b8     usc:debug.obj
 0001:000124c4       ??_C@_07JENEGICC@dpaccum?$AA@ 100134c4     usc:debug.obj
 0001:000124cc       ??_C@_05JLNEMJLN@dummy?$AA@ 100134cc     usc:debug.obj
 0001:000124d4       ??_C@_0P@OHFOHFGJ@floatimmediate?$AA@ 100134d4     usc:debug.obj
 0001:000124e4       ??_C@_05FOFAOGDN@named?$AA@ 100134e4     usc:debug.obj
 0001:000124ec       ??_C@_03IOHFNHHA@fcs?$AA@  100134ec     usc:debug.obj
 0001:000124f0       ??_C@_09DGBKDEJM@intsrcsel?$AA@ 100134f0     usc:debug.obj
 0001:000124fc       ??_C@_07FAJBBDOC@swizzle?$AA@ 100134fc     usc:debug.obj
 0001:00012504       ??_C@_0M@EMAHAAKF@addressmode?$AA@ 10013504     usc:debug.obj
 0001:00012510       ??_C@_09DBIHEPNC@clipplane?$AA@ 10013510     usc:debug.obj
 0001:0001251c       ??_C@_05IDCCNNGI@label?$AA@ 1001351c     usc:debug.obj
 0001:00012524       ??_C@_03HDFKMEON@drc?$AA@  10013524     usc:debug.obj
 0001:00012528       ??_C@_06NODHPLNN@pclink?$AA@ 10013528     usc:debug.obj
 0001:00012530       ??_C@_03IMJNFPD@imm?$AA@   10013530     usc:debug.obj
 0001:00012534       ??_C@_01JEJKBAGA@g?$AA@    10013534     usc:debug.obj
 0001:00012538       ??_C@_03DAKNAIGI@idx?$AA@  10013538     usc:debug.obj
 0001:0001253c       ??_C@_02CKOPKKAC@sa?$AA@   1001353c     usc:debug.obj
 0001:00012540       ??_C@_02CIKJBEFL@pa?$AA@   10013540     usc:debug.obj
 0001:00012544       ??_C@_01FMEDJKGI@o?$AA@    10013544     usc:debug.obj
 0001:00012548       ??_C@_04GBGPFKGN@half?$AA@ 10013548     usc:debug.obj
 0001:00012550       ??_C@_01FDFGLJHB@2?$AA@    10013550     usc:debug.obj
 0001:00012554       ??_C@_02LLHJKEJF@s2?$AA@   10013554     usc:debug.obj
 0001:00012558       ??_C@_02JAFEPHFG@s1?$AA@   10013558     usc:debug.obj
 0001:0001255c       ??_C@_02IJEPMGBH@s0?$AA@   1001355c     usc:debug.obj
 0001:00012560       ??_C@_02IGOMHJCM@m1?$AA@   10013560     usc:debug.obj
 0001:00012564       ??_C@_02JPPHEIGN@m0?$AA@   10013564     usc:debug.obj
 0001:00012568       ??_C@_02IPPGIAEI@a1?$AA@   10013568     usc:debug.obj
 0001:0001256c       ??_C@_02JGONLBAJ@a0?$AA@   1001356c     usc:debug.obj
 0001:00012570       ??_C@_02IBOFNBPA@i1?$AA@   10013570     usc:debug.obj
 0001:00012574       ??_C@_02JIPOOALB@i0?$AA@   10013574     usc:debug.obj
 0001:00012578       ??_C@_05GEMPGFLK@?5max?5?$AA@ 10013578     usc:debug.obj
 0001:00012580       ??_C@_05LJNAJCJH@?5min?5?$AA@ 10013580     usc:debug.obj
 0001:00012588       ??_C@_03GBOCFEHI@neg?$AA@  10013588     usc:debug.obj
 0001:0001258c       ??_C@_03IICDNMEI@AX8?$AA@  1001358c     usc:debug.obj
 0001:00012590       ??_C@_03CEJGJDEE@AX4?$AA@  10013590     usc:debug.obj
 0001:00012594       ??_C@_03HCMMDEMC@AX2?$AA@  10013594     usc:debug.obj
 0001:00012598       ??_C@_03FJOBGHAB@AX1?$AA@  10013598     usc:debug.obj
 0001:0001259c       ??_C@_03CCCKBEMD@CX8?$AA@  1001359c     usc:debug.obj
 0001:000125a0       ??_C@_03IOJPFLMP@CX4?$AA@  100135a0     usc:debug.obj
 0001:000125a4       ??_C@_03NIMFPMEJ@CX2?$AA@  100135a4     usc:debug.obj
 0001:000125a8       ??_C@_03PDOIKPIK@CX1?$AA@  100135a8     usc:debug.obj
 0001:000125ac       ??_C@_09HALBHHDD@src2alpha?$AA@ 100135ac     usc:debug.obj
 0001:000125b8       ??_C@_09EBFJGNKO@src1alpha?$AA@ 100135b8     usc:debug.obj
 0001:000125c4       ??_C@_09OHCOGGBK@src0alpha?$AA@ 100135c4     usc:debug.obj
 0001:000125d0       ??_C@_04OBHINLOC@src2?$AA@ 100135d0     usc:debug.obj
 0001:000125d8       ??_C@_04MKFFIICB@src1?$AA@ 100135d8     usc:debug.obj
 0001:000125e0       ??_C@_04NDEOLJGA@src0?$AA@ 100135e0     usc:debug.obj
 0001:000125e8       ??_C@_0N@POGEEGJC@rsrcalphasat?$AA@ 100135e8     usc:debug.obj
 0001:000125f8       ??_C@_0M@FAGNAPLA@srcalphasat?$AA@ 100135f8     usc:debug.obj
 0001:00012604       ??_C@_03OHDNLOHO@one?$AA@  10013604     usc:debug.obj
 0001:00012608       ??_C@_04DDFHDMOL@zero?$AA@ 10013608     usc:debug.obj
 0001:00012610       ??_C@_04BLGJDDHA@?0?5C3?$AA@ 10013610     usc:debug.obj
 0001:00012618       ??_C@_04CHCACDB@?0?5C2?$AA@ 10013618     usc:debug.obj
 0001:00012620       ??_C@_04CJFPFBPC@?0?5C1?$AA@ 10013620     usc:debug.obj
 0001:00012628       ??_C@_0M@FEEAIJGL@UINT16UINT2?$AA@ 10013628     usc:debug.obj
 0001:00012634       ??_C@_0N@HDEHAPD@UINT16UINT10?$AA@ 10013634     usc:debug.obj
 0001:00012644       ??_C@_06DAAIPJGK@SINT32?$AA@ 10013644     usc:debug.obj
 0001:0001264c       ??_C@_06FHOAOIAA@SINT16?$AA@ 1001364c     usc:debug.obj
 0001:00012654       ??_C@_05JGCFALKE@SINT8?$AA@ 10013654     usc:debug.obj
 0001:0001265c       ??_C@_06FDNIMMFA@UINT32?$AA@ 1001365c     usc:debug.obj
 0001:00012664       ??_C@_06DEDANNDK@UINT16?$AA@ 10013664     usc:debug.obj
 0001:0001266c       ??_C@_05EAHMOILJ@UINT8?$AA@ 1001366c     usc:debug.obj
 0001:00012674       ??_C@_03KNPFGOGE@C10?$AA@  10013674     usc:debug.obj
 0001:00012678       ??_C@_04PIDMBGMH@U8UN?$AA@ 10013678     usc:debug.obj
 0001:00012680       ??_C@_03LOKNBNHK@U24?$AA@  10013680     usc:debug.obj
 0001:00012684       ??_C@_03OKMGHDAC@ONE?$AA@  10013684     usc:debug.obj
 0001:00012688       ??_C@_04PPGNNOJD@ZERO?$AA@ 10013688     usc:debug.obj
 0001:00012690       ??_C@_03KLJJCILK@F32?$AA@  10013690     usc:debug.obj
 0001:00012694       ??_C@_03MMHBDJNA@F16?$AA@  10013694     usc:debug.obj
 0001:00012698       ??_C@_03KLLGJOHN@S16?$AA@  10013698     usc:debug.obj
 0001:0001269c       ??_C@_03IONNMBKB@U16?$AA@  1001369c     usc:debug.obj
 0001:000126a0       ??_C@_02HJNLAKPP@S8?$AA@   100136a0     usc:debug.obj
 0001:000126a4       ??_C@_02HNFGHGEN@U8?$AA@   100136a4     usc:debug.obj
 0001:000126a8       ??_C@_03KOECGNEM@INV?$AA@  100136a8     usc:debug.obj
 0001:000127c0       g_pszRegType               100137c0     usc:debug.obj
 0001:00012880       ??_C@_0CL@IBNDAPDD@TEX?7?$CFd?0?5?$CFd?$CFs?0?5?$CFs?0?5?$CFs?0?5?$CFs?0?5?$CFs?$CFs?$CFs@ 10013880     usc:debug.obj
 0001:000128ac       ??_C@_05KFOPEHBP@?0?5TWO?$AA@ 100138ac     usc:debug.obj
 0001:000128b4       ??_C@_05OAGAGAKN@?0?5PCF?$AA@ 100138b4     usc:debug.obj
 0001:000128bc       ??_C@_09BIODNKFJ@?0?5SWAPF16?$AA@ 100138bc     usc:debug.obj
 0001:000128c8       ??_C@_03EJMFEHMN@?0?5M?$AA@ 100138c8     usc:debug.obj
 0001:000128cc       ??_C@_06DJOGJFP@?0?5?$CF?44s?$AA@ 100138cc     usc:debug.obj
 0001:000128d4       ??_C@_08FNHBBHAA@?0?5YUV?$CFlu?$AA@ 100138d4     usc:debug.obj
 0001:000128e0       ??_C@_0BN@FDBAMCOP@CONSTBUFFDESC?5?$CFd?0?5?$CFs?0?5?$CFd?0?5?$CFd?$AA@ 100138e0     usc:debug.obj
 0001:00012900       ??_C@_0BE@NGPEHCPA@CONSTF?7c?$CFd?4?$CFd?0?50x?$CFX?$AA@ 10013900     usc:debug.obj
 0001:00012914       ??_C@_0BJ@KDDJPPFD@CONSTRANGE?5?$CFlu?0?5?$CFlu?0?5?$CFlu?$AA@ 10013914     usc:debug.obj
 0001:00012930       ??_C@_0BE@BHGGADFE@CONSTRANGE?5?$CFlu?0?5?$CFlu?$AA@ 10013930     usc:debug.obj
 0001:00012944       ??_C@_0BA@JFAIMBBC@MAXOPTLEVEL?5?$CFlu?$AA@ 10013944     usc:debug.obj
 0001:00012954       ??_C@_0O@HGJFFEFB@MAXBBSIZE?5?$CFlu?$AA@ 10013954     usc:debug.obj
 0001:00012964       ??_C@_0BD@EHNNDAFM@SPECULAROUTPUT?5?$CFlu?$AA@ 10013964     usc:debug.obj
 0001:00012978       ??_C@_0BC@PMLIHIFE@DIFFUSEOUTPUT?5?$CFlu?$AA@ 10013978     usc:debug.obj
 0001:0001298c       ??_C@_0BE@EBFGHDHB@POINTSIZEOUTPUT?5?$CFlu?$AA@ 1001398c     usc:debug.obj
 0001:000129a0       ??_C@_0BD@LEGMECAC@TEMPARRAY?5?$CFlu?0?5?$CFlu?$AA@ 100139a0     usc:debug.obj
 0001:000129b4       ??_C@_0N@EAGLHBNA@PROJCOORD?5?$CFX?$AA@ 100139b4     usc:debug.obj
 0001:000129c4       ??_C@_0N@HEOBLGMF@NUMTEMPS?5?$CFlu?$AA@ 100139c4     usc:debug.obj
 0001:000129d4       ??_C@_0BE@DHJICKIA@TEMPARRAYSABASE?5?$CFlu?$AA@ 100139d4     usc:debug.obj
 0001:000129e8       ??_C@_0P@DDDNGJAE@GAMMASTAGES?5?$CFX?$AA@ 100139e8     usc:debug.obj
 0001:000129f8       ??_C@_0CJ@JNLDLGKL@SAOFFSETS?5?$CFu?0?5?$CFu?0?5?$CFu?0?5?$CFu?0?5?$CFu?0?5?$CFu@ 100139f8     usc:debug.obj
 0001:00012a24       ??_C@_0BF@NJBOHFA@VSOUTPUTSALWAYSVALID?$AA@ 10013a24     usc:debug.obj
 0001:00012a3c       ??_C@_0BC@GEOBAHH@RANGECHECK?5?$CFu?0?5?$CFu?$AA@ 10013a3c     usc:debug.obj
 0001:00012a50       ??_C@_0O@LHMPGOBI@RANGECHECK?5?$CFu?$AA@ 10013a50     usc:debug.obj
 0001:00012a60       ??_C@_0BD@PGMLICMJ@SMPIMMCOORDOFFSETS?$AA@ 10013a60     usc:debug.obj
 0001:00012a74       ??_C@_0BJ@LFAAILGK@MULTIPLECONSTANTSBUFFERS?$AA@ 10013a74     usc:debug.obj
 0001:00012a90       ??_C@_0BL@LJGABCNP@TEXTURESTATECONSTOFFSET?5?$CFu?$AA@ 10013a90     usc:debug.obj
 0001:00012aac       ??_C@_0P@HOPDBFNJ@NONDIRLIMIT?5?$CFu?$AA@ 10013aac     usc:debug.obj
 0001:00012abc       ??_C@_0BF@KDNAGLDG@EXTRACTCONSTANTCALCS?$AA@ 10013abc     usc:debug.obj
 0001:00012ad4       ??_C@_0N@BLNDCDOB@TARGETREV?5?$CFu?$AA@ 10013ad4     usc:debug.obj
 0001:00012ae4       ??_C@_09PLGMOKGH@TARGET?5?$CFs?$AA@ 10013ae4     usc:debug.obj
 0001:00012af0       ??_C@_0BJ@CGFNMHMF@OUTPUTSAT?5?$CFu?0?5?$CFu?0?5?$CFu?0?5?$CFu?$AA@ 10013af0     usc:debug.obj
 0001:00012b0c       ??_C@_0M@OLILJAFC@PACKPREC?5?$CFu?$AA@ 10013b0c     usc:debug.obj
 0001:00012b18       ??_C@_07FFMOOIFB@INTPACK?$AA@ 10013b18     usc:debug.obj
 0001:00012b20       ??_C@_0L@LKMIJFFH@PACKDEST?5?$DP?$AA@ 10013b20     usc:debug.obj
 0001:00012b2c       ??_C@_0L@JFPHOMKB@PACKDEST?5O?$AA@ 10013b2c     usc:debug.obj
 0001:00012b38       ??_C@_0L@FIKNOCDP@PACKDEST?5P?$AA@ 10013b38     usc:debug.obj
 0001:00012b44       ??_C@_0L@GKJLIALN@PACKDEST?5R?$AA@ 10013b44     usc:debug.obj
 0001:00012b50       ??_C@_0M@CPFIAIMG@EXTRAITR?5?$CFu?$AA@ 10013b50     usc:debug.obj
 0001:00012b5c       ??_C@_0BB@MGHONOMJ@PREAMBLECOUNT?5?$CFu?$AA@ 10013b5c     usc:debug.obj
 0001:00012b70       ??_C@_0L@BGMPEHOK@NOMOERESET?$AA@ 10013b70     usc:debug.obj
 0001:00012b7c       ??_C@_0N@LMKHIKLG@NOCONSTREMAP?$AA@ 10013b7c     usc:debug.obj
 0001:00012b8c       ??_C@_04DAPKPLNO@GLSL?$AA@ 10013b8c     usc:debug.obj
 0001:00012b94       ??_C@_09CGFDJNNL@MSAATRANS?$AA@ 10013b94     usc:debug.obj
 0001:00012ba0       ??_C@_0BL@KLBHJNIK@SHADEROUTPUTRANGE?5?$CFlu?0?5?$CFlu?$AA@ 10013ba0     usc:debug.obj
 0001:00012bbc       ??_C@_0BG@MAOIPFAN@GEOMETRYSHADER?5?$CFu?0?5?$CFu?$AA@ 10013bbc     usc:debug.obj
 0001:00012bd4       ??_C@_0BC@NIBEKBNM@REDIRECTVSOUTPUTS?$AA@ 10013bd4     usc:debug.obj
 0001:00012be8       ??_C@_0N@NMAMIJI@VERTEXSHADER?$AA@ 10013be8     usc:debug.obj
 0001:00012bf8       ??_C@_0M@GGKEPEHG@NOALPHATEST?$AA@ 10013bf8     usc:debug.obj
 0001:00012c04       ??_C@_0L@CCBANDNB@SPLITFB?5?$CFu?$AA@ 10013c04     usc:debug.obj
 0001:00012c10       ??_C@_06FNFOAAEI@?5?$CF08lX?$AA@ 10013c10     usc:debug.obj
 0001:00012c18       ??_C@_0BE@DDMPILOG@VALIDSHADEROUTPUTS?7?$AA@ 10013c18     usc:debug.obj
 0001:00012c2c       ??_C@_0BI@KLHNHIA@INVARIANTSHADEROUTPUTS?7?$AA@ 10013c2c     usc:debug.obj
 0001:00012c44       ??_C@_07NCCOPCOO@_killed?$AA@ 10013c44     usc:debug.obj
 0001:00012c4c       ??_C@_08NEDLOCJC@?4chan?$CFlu?$AA@ 10013c4c     usc:debug.obj
 0001:00012c58       ??_C@_04OCDPINAG@t?$CFld?$AA@ 10013c58     usc:debug.obj
 0001:00012c60       ??_C@_06LGMAPDLL@?0?5t?$CFld?$AA@ 10013c60     usc:debug.obj
 0001:00012c68       ??_C@_01PKGAHCOL@?$CJ?$AA@ 10013c68     usc:debug.obj
 0001:00012c6c       ??_C@_05NHKMNPPN@tc?$CFld?$AA@ 10013c6c     usc:debug.obj
 0001:00012c74       ??_C@_05EENDDFID@cent?$CI?$AA@ 10013c74     usc:debug.obj
 0001:00012c7c       ??_C@_05LNFFOHDL@proj?$CI?$AA@ 10013c7c     usc:debug.obj
 0001:00012c84       ??_C@_06HNGKDFOL@p?$CFlu?0?5?$AA@ 10013c84     usc:debug.obj
 0001:00012c8c       ??_C@_0L@EJCOOPFL@m1?$DN?$CFs?$CK?$CFs?0?5?$AA@ 10013c8c     usc:debug.obj
 0001:00012c98       ??_C@_0L@KGOMIEGF@m0?$DN?$CFs?$CK?$CFs?0?5?$AA@ 10013c98     usc:debug.obj
 0001:00012ca4       ??_C@_0N@PKMDJGAD@a1?$DN?$CFs?$CFs?$CL?$CFs?0?5?$AA@ 10013ca4     usc:debug.obj
 0001:00012cb4       ??_C@_0M@KMEIFHII@a0?$DN?$CFs?$CFs?$CFs?0?5?$AA@ 10013cb4     usc:debug.obj
 0001:00012cc0       ??_C@_04FDGMDGHG@?$CF?9?$CKs?$AA@ 10013cc0     usc:debug.obj
 0001:00012cc8       ??_C@_09OENPHDLP@_?$CFs?$CFs?$CFs?$CFs?$AA@ 10013cc8     usc:debug.obj
 0001:00012cd4       ??_C@_01IDAFKMJL@_?$AA@    10013cd4     usc:debug.obj
 0001:00012cd8       ??_C@_0O@FLIBJBJC@_mask?$CFs?$CFs?$CFs?$CFs?$AA@ 10013cd8     usc:debug.obj
 0001:00012ce8       ??_C@_0M@KCKDHPJE@?$FL?$CFld?$CFld?$CFld?$FN?$AA@ 10013ce8     usc:debug.obj
 0001:00012cf4       ??_C@_07OODFKLML@_rpt?$CFlu?$AA@ 10013cf4     usc:debug.obj
 0001:00012cfc       ??_C@_05DGBDNAPP@?4SINF?$AA@ 10013cfc     usc:debug.obj
 0001:00012d04       ??_C@_04HKCNBKFP@?4CUT?$AA@ 10013d04     usc:debug.obj
 0001:00012d0c       ??_C@_04BCACPCCD@_x?$CFd?$AA@ 10013d0c     usc:debug.obj
 0001:00012d14       ??_C@_03MPPIHBHJ@OFF?$AA@  10013d14     usc:debug.obj
 0001:00012d18       ??_C@_01FAMBOPH@4?$AA@     10013d18     usc:debug.obj
 0001:00012d20       ??_C@_1HC@JIJABOEM@?$AAC?$AA?3?$AA?2?$AAW?$AAi?$AAn?$AAC?$AAE?$AA?2?$AAO?$AAM?$AAA?$AAP?$AA?2?$AAD?$AAD?$AAK?$AA1?$AA?4?$AA5?$AA?2?$AAe?$AAu?$AAr?$AAa?$AAs?$AAi?$AAa?$AA?2?$AAt?$AAo?$AAo@ 10013d20     usc:debug.obj
 0001:00012d94       ??_C@_01EKENIIDA@3?$AA@    10013d94     usc:debug.obj
 0001:00012d98       ??_C@_09GGCCPCBD@_test?$CFs?$CFs?$AA@ 10013d98     usc:debug.obj
 0001:00012da4       ??_C@_06IHECKAFB@TM?$FL?$CFs?$FN?$AA@ 10013da4     usc:debug.obj
 0001:00012dac       ??_C@_08DJNMFGEF@?$CF?96s?5?5?5?5?$AA@ 10013dac     usc:debug.obj
 0001:00012db8       ??_C@_03ONMMBCEC@SI?5?$AA@ 10013db8     usc:debug.obj
 0001:00012dbc       ??_C@_03NDEAONJP@?5?5?5?$AA@ 10013dbc     usc:debug.obj
 0001:00012dc0       ??_C@_03FOAOLLKG@NS?5?$AA@ 10013dc0     usc:debug.obj
 0001:00012dc4       ??_C@_04PFOHOKJK@?5?5?5?5?$AA@ 10013dc4     usc:debug.obj
 0001:00012dcc       ??_C@_04BBFBANHC@?$CF3s?5?$AA@ 10013dcc     usc:debug.obj
 0001:00012dd4       ??_C@_07ECIGONAF@?$CFsp?$CFlu?5?$AA@ 10013dd4     usc:debug.obj
 0001:00012ddc       ??_C@_02MJBGEIB@p?$DP?$AA@ 10013ddc     usc:debug.obj
 0001:00012de0       ??_C@_02DKLFCMDG@pN?$AA@   10013de0     usc:debug.obj
 0001:00012de4       ??_C@_04LOCDIMHA@?0?5a?$DN?$AA@ 10013de4     usc:debug.obj
 0001:00012dec       ??_C@_01NBENCBCI@?$CK?$AA@ 10013dec     usc:debug.obj
 0001:00012df0       ??_C@_06GJHKFNLK@?0?5rgb?$DN?$AA@ 10013df0     usc:debug.obj
 0001:00012df8       ??_C@_03LOLOHCHK@?$CI1?9?$AA@ 10013df8     usc:debug.obj
 0001:00012dfc       ??_C@_06JMNHKEAO@?4fmt?$CFs?$AA@ 10013dfc     usc:debug.obj
 0001:00012e04       ??_C@_04PIHFONBM@?4neg?$AA@ 10013e04     usc:debug.obj
 0001:00012e0c       ??_C@_04ILPHDMJK@?4abs?$AA@ 10013e0c     usc:debug.obj
 0001:00012e14       ??_C@_0O@HJKHCAFA@sac?$CFlu?$CI?$DNr?$CFlu?$CJ?$AA@ 10013e14     usc:debug.obj
 0001:00012e24       ??_C@_06OJAIHGIC@unused?$AA@ 10013e24     usc:debug.obj
 0001:00012e2c       ??_C@_0L@LMKNFALH@R?$CFlu?$CI?$CL?$CFlu?$CJ?$AA@ 10013e2c     usc:debug.obj
 0001:00012e38       ??_C@_08IMJCEJKM@VB?$CI?$CL?$CFlu?$CJ?$AA@ 10013e38     usc:debug.obj
 0001:00012e44       ??_C@_0M@FLPDFJCM@?$CGR?$CFlu?$CI?$CL?$CFlu?$CJ?$AA@ 10013e44     usc:debug.obj
 0001:00012e50       ??_C@_06LGIGCGCP@?$CIr?$CFlu?$CJ?$AA@ 10013e50     usc:debug.obj
 0001:00012e58       ??_C@_08NHGAKILA@?$CD0x?$CF?48lX?$AA@ 10013e58     usc:debug.obj
 0001:00012e64       ??_C@_04DLNFLNMN@?$CD?$CFlu?$AA@ 10013e64     usc:debug.obj
 0001:00012e6c       ??_C@_04GIAMJONN@?$CD?$CFld?$AA@ 10013e6c     usc:debug.obj
 0001:00012e74       ??_C@_05FIGEBGHB@idx?4l?$AA@ 10013e74     usc:debug.obj
 0001:00012e7c       ??_C@_0L@CLGLKBDG@?$FLidx?$DNr?$CFld?$FN?$AA@ 10013e7c     usc:debug.obj
 0001:00012e88       ??_C@_08OGCFDEJ@?$FLidx?4?$CFs?$FN?$AA@ 10013e88     usc:debug.obj
 0001:00012e94       ??_C@_01HHGOMJKL@l?$AA@    10013e94     usc:debug.obj
 0001:00012e98       ??_C@_0BC@DKLIBJMG@swizzle?$CI?$CFs?$CFs?$CFs?$CFs?$CJ?$AA@ 10013e98     usc:debug.obj
 0001:00012eac       ??_C@_0DJ@KMEFKPBM@C?3?2WinCE?2OMAP?2DDK1?45?2eurasia?2too@ 10013eac     usc:debug.obj
 0001:00012ee8       ??_C@_03FNKBPHIC@?$DNi1?$AA@ 10013ee8     usc:debug.obj
 0001:00012eec       ??_C@_03EELKMGMD@?$DNi0?$AA@ 10013eec     usc:debug.obj
 0001:00012ef0       ??_C@_03OGGOKOKB@?$DN?$CFs?$AA@ 10013ef0     usc:debug.obj
 0001:00012ef4       ??_C@_0BA@KJPAFNAA@?$CI_live?$CFd?$CFd?$CFd?$CFd?$CJ?$AA@ 10013ef4     usc:debug.obj
 0001:00012f04       ??_C@_0BC@HPJFBFEH@_bytemask?$CFd?$CFd?$CFd?$CFd?$AA@ 10013f04     usc:debug.obj
 0001:00012f18       ??_C@_0BA@HLHEPLNI@?$CIlive?$DN?$CFs?$CFs?$CFs?$CFs?$CJ?$AA@ 10013f18     usc:debug.obj
 0001:00012f28       ??_C@_09PNFEJNBJ@?4?$CFs?$CFs?$CFs?$CFs?$AA@ 10013f28     usc:debug.obj
 0001:00012f34       ??_C@_0CA@LOEKFHPM@Memory?5use?5high?9water?5mark?3?5?$CFd?6?$AA@ 10013f34     usc:debug.obj
 0001:00012f54       ??_C@_0BK@LJLPAKCG@?$CK?$CK?$CK?$CK?5UNDEFINED?5CBTYPE?$CK?$CK?$CK?$CK?$AA@ 10013f54     usc:debug.obj
 0001:00012f70       ??_C@_08HPBPMMBL@?5?9?9?$DO?5?$CFld?$AA@ 10013f70     usc:debug.obj
 0001:00012f7c       ??_C@_0N@CLLLCDJD@?5?5?5?5case?5?$CFlu?$AA@ 10013f7c     usc:debug.obj
 0001:00012f8c       ??_C@_0M@HGIEENGN@?5?5?5?5default?$AA@ 10013f8c     usc:debug.obj
 0001:00012f98       ??_C@_09MCMEPIFF@SWITCH?5?$CFs?$AA@ 10013f98     usc:debug.obj
 0001:00012fa4       ??_C@_05JJOJCLAE@?5?9?9?$DO?5?$AA@ 10013fa4     usc:debug.obj
 0001:00012fac       ??_C@_0N@FPLLAKP@CONDITIONAL?5?$AA@ 10013fac     usc:debug.obj
 0001:00012fbc       ??_C@_08GDGEEGHG@?5syncend?$AA@ 10013fbc     usc:debug.obj
 0001:00012fc8       ??_C@_0BG@OPOJHBAP@UNCONDITIONAL?5?9?9?$DO?5?$CFld?$AA@ 10013fc8     usc:debug.obj
 0001:00012fe0       ??_C@_0BN@IFKCKBDF@SPLIT?5FEEDBACK?0?5THEN?5?9?9?$DO?5?$CFld?$AA@ 10013fe0     usc:debug.obj
 0001:00013000       ??_C@_04LPCPHLCL@?$CF?$CKld?$AA@ 10014000     usc:debug.obj
 0001:00013008       ??_C@_09GKNPKLND@BLOCK?5?$CFi?3?$AA@ 10014008     usc:debug.obj
 0001:00013014       ??_C@_0O@JEAILFJJ@FUNCTION?5?$CFd?5?3?$AA@ 10014014     usc:debug.obj
 0001:00013024       ??_C@_0BK@NBKDOFLM@SECONDARY?5UPDATE?5PROGRAM?3?$AA@ 10014024     usc:debug.obj
 0001:000130bc       ??_C@_0DN@CCHOCDJP@C?3?2WinCE?2OMAP?2DDK1?45?2eurasia?2too@ 100140bc     usc:icvt_core.obj
 0001:00013100       ??_C@_1HK@LDKFPGCO@?$AAC?$AA?3?$AA?2?$AAW?$AAi?$AAn?$AAC?$AAE?$AA?2?$AAO?$AAM?$AAA?$AAP?$AA?2?$AAD?$AAD?$AAK?$AA1?$AA?4?$AA5?$AA?2?$AAe?$AAu?$AAr?$AAa?$AAs?$AAi?$AAa?$AA?2?$AAt?$AAo?$AAo@ 10014100     usc:icvt_core.obj
 0001:0001317c       ??_C@_0CK@IIKBJMGF@Texture?5dimensionality?5must?5be?51@ 1001417c     usc:icvt_core.obj
 0001:000131a8       ??_C@_0EG@PONEANLB@Destination?5modifiers?5on?5texture@ 100141a8     usc:icvt_core.obj
 0001:000131f0       ??_C@_0DF@BEHGFGAJ@Pixelflex?5only?5supports?5texture?5@ 100141f0     usc:icvt_core.obj
 0001:00013228       ??_C@_0BB@FLLMPGAP@SECONDARY?5UPDATE?$AA@ 10014228     usc:icvt_core.obj
 0001:0001323c       ??_C@_0O@MNLANCOH@MAIN?5FUNCTION?$AA@ 1001423c     usc:icvt_core.obj
 0001:0001324c       ??_C@_0CI@BNIJLCI@?$HLIF?1BREAK?1CALL?$HNP?5with?5invalid?5sw@ 1001424c     usc:icvt_core.obj
 0001:00013274       ??_C@_0CM@FBJPAGGL@if?5source?5argument?5must?5be?5a?5boo@ 10014274     usc:icvt_core.obj
 0001:000132a0       ??_C@_0DI@IPLDEMFP@if?5source?5argument?5must?5be?5eithe@ 100142a0     usc:icvt_core.obj
 0001:000132d8       ??_C@_0BF@MFMPPLG@No?5loop?5terminator?4?6?$AA@ 100142d8     usc:icvt_core.obj
 0001:00013380       ??_C@_1HK@BHPGJGEJ@?$AAC?$AA?3?$AA?2?$AAW?$AAi?$AAn?$AAC?$AAE?$AA?2?$AAO?$AAM?$AAA?$AAP?$AA?2?$AAD?$AAD?$AAK?$AA1?$AA?4?$AA5?$AA?2?$AAe?$AAu?$AAr?$AAa?$AAs?$AAi?$AAa?$AA?2?$AAt?$AAo?$AAo@ 10014380     usc:groupinst.obj
 0001:000133fc       ??_C@_0DK@GEKJFBBI@C?3?2WinCE?2OMAP?2DDK1?45?2eurasia?2too@ 100143fc     usc:layout.obj
 0001:00013438       ??_C@_1HE@NHOOLKOJ@?$AAC?$AA?3?$AA?2?$AAW?$AAi?$AAn?$AAC?$AAE?$AA?2?$AAO?$AAM?$AAA?$AAP?$AA?2?$AAD?$AAD?$AAK?$AA1?$AA?4?$AA5?$AA?2?$AAe?$AAu?$AAr?$AAa?$AAs?$AAi?$AAa?$AA?2?$AAt?$AAo?$AAo@ 10014438     usc:layout.obj
 0001:000134ac       ??_C@_0CF@PJEBCOKN@Error?5generating?5SA?9update?5USSE?5@ 100144ac     usc:layout.obj
 0001:000134d4       ??_C@_0CA@BIADDCMB@Error?5generating?5main?5USSE?5code?$AA@ 100144d4     usc:layout.obj
 0001:000134f4       ??_C@_0CG@HHEEPOEO@Error?5generating?5subroutine?5USSE@ 100144f4     usc:layout.obj
 0001:0001351c       ??_C@_0DM@CHKIKECB@C?3?2WinCE?2OMAP?2DDK1?45?2eurasia?2too@ 1001451c     usc:icvt_c10.obj
 0001:00013558       ??_C@_1HI@ONKGILN@?$AAC?$AA?3?$AA?2?$AAW?$AAi?$AAn?$AAC?$AAE?$AA?2?$AAO?$AAM?$AAA?$AAP?$AA?2?$AAD?$AAD?$AAK?$AA1?$AA?4?$AA5?$AA?2?$AAe?$AAu?$AAr?$AAa?$AAs?$AAi?$AAa?$AA?2?$AAt?$AAo?$AAo@ 10014558     usc:icvt_c10.obj
 0001:000135d0       ??_C@_0DH@IDGMMIIA@Texture?5array?5of?5arrays?0?5dimensi@ 100145d0     usc:icvt_c10.obj
 0001:00013608       ??_C@_1HE@PIBKHKNC@?$AAC?$AA?3?$AA?2?$AAW?$AAi?$AAn?$AAC?$AAE?$AA?2?$AAO?$AAM?$AAA?$AAP?$AA?2?$AAD?$AAD?$AAK?$AA1?$AA?4?$AA5?$AA?2?$AAe?$AAu?$AAr?$AAa?$AAs?$AAi?$AAa?$AA?2?$AAt?$AAo?$AAo@ 10014608     usc:dgraph.obj
 0001:00013688       ??_C@_1GO@NAICKPIK@?$AAC?$AA?3?$AA?2?$AAW?$AAi?$AAn?$AAC?$AAE?$AA?2?$AAO?$AAM?$AAA?$AAP?$AA?2?$AAD?$AAD?$AAK?$AA1?$AA?4?$AA5?$AA?2?$AAe?$AAu?$AAr?$AAa?$AAs?$AAi?$AAa?$AA?2?$AAt?$AAo?$AAo@ 10014688     usc:asm.obj
 0001:000136f8       ??_C@_0DH@NANOKOKC@C?3?2WinCE?2OMAP?2DDK1?45?2eurasia?2too@ 100146f8     usc:asm.obj
 0001:00013740       ??_C@_1HI@FABGBGCK@?$AAC?$AA?3?$AA?2?$AAW?$AAi?$AAn?$AAC?$AAE?$AA?2?$AAO?$AAM?$AAA?$AAP?$AA?2?$AAD?$AAD?$AAK?$AA1?$AA?4?$AA5?$AA?2?$AAe?$AAu?$AAr?$AAa?$AAs?$AAi?$AAa?$AA?2?$AAt?$AAo?$AAo@ 10014740     usc:icvt_f16.obj
 0001:000137b8       ??_C@_0DM@FCAOGKEO@C?3?2WinCE?2OMAP?2DDK1?45?2eurasia?2too@ 100147b8     usc:icvt_f16.obj
 0001:000137f8       ??_C@_1HI@NAKJMION@?$AAC?$AA?3?$AA?2?$AAW?$AAi?$AAn?$AAC?$AAE?$AA?2?$AAO?$AAM?$AAA?$AAP?$AA?2?$AAD?$AAD?$AAK?$AA1?$AA?4?$AA5?$AA?2?$AAe?$AAu?$AAr?$AAa?$AAs?$AAi?$AAa?$AA?2?$AAt?$AAo?$AAo@ 100147f8     usc:icvt_f32.obj
 0001:00013870       ??_C@_0DM@KHKMKOHJ@C?3?2WinCE?2OMAP?2DDK1?45?2eurasia?2too@ 10014870     usc:icvt_f32.obj
 0001:000138ac       ??_C@_0CM@FKMLGAIF@LDBUF?5not?5supported?5for?5USP?5Bina@ 100148ac     usc:icvt_f32.obj
 0001:000138d8       ??_C@_0DL@DIKHIELF@C?3?2WinCE?2OMAP?2DDK1?45?2eurasia?2too@ 100148d8     usc:precovr.obj
 0001:00013918       ??_C@_1HG@ECCLNMGA@?$AAC?$AA?3?$AA?2?$AAW?$AAi?$AAn?$AAC?$AAE?$AA?2?$AAO?$AAM?$AAA?$AAP?$AA?2?$AAD?$AAD?$AAK?$AA1?$AA?4?$AA5?$AA?2?$AAe?$AAu?$AAr?$AAa?$AAs?$AAi?$AAa?$AA?2?$AAt?$AAo?$AAo@ 10014918     usc:precovr.obj
 0001:00013990       ??_C@_0BK@FGDIKLKK@Invalid?5program?5structure?$AA@ 10014990     usc:precovr.obj
 0001:000139b0       ??_C@_1HI@KCDNFHJM@?$AAC?$AA?3?$AA?2?$AAW?$AAi?$AAn?$AAC?$AAE?$AA?2?$AAO?$AAM?$AAA?$AAP?$AA?2?$AAD?$AAD?$AAK?$AA1?$AA?4?$AA5?$AA?2?$AAe?$AAu?$AAr?$AAa?$AAs?$AAi?$AAa?$AA?2?$AAt?$AAo?$AAo@ 100149b0     usc:icvt_i32.obj
 0001:00013a28       ??_C@_0DM@FGPKBMKM@C?3?2WinCE?2OMAP?2DDK1?45?2eurasia?2too@ 10014a28     usc:icvt_i32.obj
 0001:00013a64       ??_C@_06CMDGOKBM@SGX545?$AA@ 10014a64     useasm:utils.obj
 0001:00013a6c       ??_C@_06HKGMENJK@SGX543?$AA@ 10014a6c     useasm:utils.obj
 0001:00013a74       ??_C@_06EIFKCPBI@SGX541?$AA@ 10014a74     useasm:utils.obj
 0001:00013a7c       ??_C@_06FBEBBOFJ@SGX540?$AA@ 10014a7c     useasm:utils.obj
 0001:00013a84       ??_C@_06CJHJPMJJ@SGX535?$AA@ 10014a84     useasm:utils.obj
 0001:00013a8c       ??_C@_06ENBFDJJN@SGX531?$AA@ 10014a8c     useasm:utils.obj
 0001:00013a94       ??_C@_06FEAOAINM@SGX530?$AA@ 10014a94     useasm:utils.obj
 0001:00013a9c       ??_C@_06FFMMGCOL@SGX520?$AA@ 10014a9c     useasm:utils.obj
 0001:00013d78       ??_C@_07KHFILGPJ@isubu32?$AA@ 10014d78     useasm:usetab.obj
 0001:00013d80       ??_C@_06JKELAJFH@isub32?$AA@ 10014d80     useasm:usetab.obj
 0001:00013d88       ??_C@_05NCHGGDHJ@sprvv?$AA@ 10014d88     useasm:usetab.obj
 0001:00013d90       ??_C@_06HFBPFKMP@idxscw?$AA@ 10014d90     useasm:usetab.obj
 0001:00013d98       ??_C@_06IGIKOIK@idxscr?$AA@ 10014d98     useasm:usetab.obj
 0001:00013da0       ??_C@_0L@JLOMIJPI@vpckc10c10?$AA@ 10014da0     useasm:usetab.obj
 0001:00013dac       ??_C@_0L@JNIAMPCG@vpckc10f32?$AA@ 10014dac     useasm:usetab.obj
 0001:00013db8       ??_C@_0L@PKGINOEM@vpckc10f16?$AA@ 10014db8     useasm:usetab.obj
 0001:00013dc4       ??_C@_0L@PONMFEDE@vpckf32c10?$AA@ 10014dc4     useasm:usetab.obj
 0001:00013dd0       ??_C@_0L@PILABCOK@vpckf32f32?$AA@ 10014dd0     useasm:usetab.obj
 0001:00013ddc       ??_C@_0L@JPFIADIA@vpckf32f16?$AA@ 10014ddc     useasm:usetab.obj
 0001:00013de8       ??_C@_0L@PIJPKECN@vpckf32s16?$AA@ 10014de8     useasm:usetab.obj
 0001:00013df4       ??_C@_0L@NNPEPLPB@vpckf32u16?$AA@ 10014df4     useasm:usetab.obj
 0001:00013e00       ??_C@_09PGEODABJ@vpckf32o8?$AA@ 10014e00     useasm:usetab.obj
 0001:00013e0c       ??_C@_09ODHCGKAN@vpckf32s8?$AA@ 10014e0c     useasm:usetab.obj
 0001:00013e18       ??_C@_09OHPPBGLP@vpckf32u8?$AA@ 10014e18     useasm:usetab.obj
 0001:00013e24       ??_C@_0L@EGJEFDPP@vpckf16c10?$AA@ 10014e24     useasm:usetab.obj
 0001:00013e30       ??_C@_0L@EAPIBFCB@vpckf16f32?$AA@ 10014e30     useasm:usetab.obj
 0001:00013e3c       ??_C@_0L@CHBAAEEL@vpckf16f16?$AA@ 10014e3c     useasm:usetab.obj
 0001:00013e48       ??_C@_0L@EANHKDOG@vpckf16s16?$AA@ 10014e48     useasm:usetab.obj
 0001:00013e54       ??_C@_0L@GFLMPMDK@vpckf16u16?$AA@ 10014e54     useasm:usetab.obj
 0001:00013e60       ??_C@_09DOMPECO@vpckf16o8?$AA@ 10014e60     useasm:usetab.obj
 0001:00013e6c       ??_C@_09BGNAKODK@vpckf16s8?$AA@ 10014e6c     useasm:usetab.obj
 0001:00013e78       ??_C@_09BCFNNCII@vpckf16u8?$AA@ 10014e78     useasm:usetab.obj
 0001:00013e84       ??_C@_0L@HFBOKGEI@vpcks16f32?$AA@ 10014e84     useasm:usetab.obj
 0001:00013e90       ??_C@_0L@BCPGLHCC@vpcks16f16?$AA@ 10014e90     useasm:usetab.obj
 0001:00013e9c       ??_C@_0L@HFDBBAIP@vpcks16s16?$AA@ 10014e9c     useasm:usetab.obj
 0001:00013ea8       ??_C@_0L@FAFKEPFD@vpcks16u16?$AA@ 10014ea8     useasm:usetab.obj
 0001:00013eb4       ??_C@_09FAPHGHAG@vpcks16o8?$AA@ 10014eb4     useasm:usetab.obj
 0001:00013ec0       ??_C@_09EFMLDNBC@vpcks16s8?$AA@ 10014ec0     useasm:usetab.obj
 0001:00013ecc       ??_C@_09EBEGEBKA@vpcks16u8?$AA@ 10014ecc     useasm:usetab.obj
 0001:00013ed8       ??_C@_0L@BGMOJDHC@vpcku16f32?$AA@ 10014ed8     useasm:usetab.obj
 0001:00013ee4       ??_C@_0L@HBCGICBI@vpcku16f16?$AA@ 10014ee4     useasm:usetab.obj
 0001:00013ef0       ??_C@_0L@BGOBCFLF@vpcku16s16?$AA@ 10014ef0     useasm:usetab.obj
 0001:00013efc       ??_C@_0L@DDIKHKGJ@vpcku16u16?$AA@ 10014efc     useasm:usetab.obj
 0001:00013f08       ??_C@_09IGKOIEBL@vpcku16o8?$AA@ 10014f08     useasm:usetab.obj
 0001:00013f14       ??_C@_09JDJCNOAP@vpcku16s8?$AA@ 10014f14     useasm:usetab.obj
 0001:00013f20       ??_C@_09JHBPKCLN@vpcku16u8?$AA@ 10014f20     useasm:usetab.obj
 0001:00013f2c       ??_C@_09HNLHPHGL@vpcko8f32?$AA@ 10014f2c     useasm:usetab.obj
 0001:00013f38       ??_C@_09BKFPOGAB@vpcko8f16?$AA@ 10014f38     useasm:usetab.obj
 0001:00013f44       ??_C@_09HNJIEBKM@vpcko8s16?$AA@ 10014f44     useasm:usetab.obj
 0001:00013f50       ??_C@_09FIPDBOHA@vpcko8u16?$AA@ 10014f50     useasm:usetab.obj
 0001:00013f5c       ??_C@_08JEJLGJEL@vpcko8o8?$AA@ 10014f5c     useasm:usetab.obj
 0001:00013f68       ??_C@_08IBKHDDFP@vpcko8s8?$AA@ 10014f68     useasm:usetab.obj
 0001:00013f74       ??_C@_08IFCKEPON@vpcko8u8?$AA@ 10014f74     useasm:usetab.obj
 0001:00013f80       ??_C@_09JKDDFIL@vpcks8f32?$AA@ 10014f80     useasm:usetab.obj
 0001:00013f8c       ??_C@_09GOELCEOB@vpcks8f16?$AA@ 10014f8c     useasm:usetab.obj
 0001:00013f98       ??_C@_09JIMIDEM@vpcks8s16?$AA@ 10014f98     useasm:usetab.obj
 0001:00013fa4       ??_C@_09CMOHNMJA@vpcks8u16?$AA@ 10014fa4     useasm:usetab.obj
 0001:00013fb0       ??_C@_08DBILBDMI@vpcks8o8?$AA@ 10014fb0     useasm:usetab.obj
 0001:00013fbc       ??_C@_08CELHEJNM@vpcks8s8?$AA@ 10014fbc     useasm:usetab.obj
 0001:00013fc8       ??_C@_08CADKDFGO@vpcks8u8?$AA@ 10014fc8     useasm:usetab.obj
 0001:00013fd4       ??_C@_09NPPKNGJG@vpcku8f32?$AA@ 10014fd4     useasm:usetab.obj
 0001:00013fe0       ??_C@_09LIBCMHPM@vpcku8f16?$AA@ 10014fe0     useasm:usetab.obj
 0001:00013fec       ??_C@_09NPNFGAFB@vpcku8s16?$AA@ 10014fec     useasm:usetab.obj
 0001:00013ff8       ??_C@_09PKLODPIN@vpcku8u16?$AA@ 10014ff8     useasm:usetab.obj
 0001:00014004       ??_C@_08LOMLOGGI@vpcku8o8?$AA@ 10015004     useasm:usetab.obj
 0001:00014010       ??_C@_08KLPHLMHM@vpcku8s8?$AA@ 10015010     useasm:usetab.obj
 0001:0001401c       ??_C@_08KPHKMAMO@vpcku8u8?$AA@ 1001501c     useasm:usetab.obj
 0001:00014028       ??_C@_04DGGKFKKC@vexp?$AA@ 10015028     useasm:usetab.obj
 0001:00014030       ??_C@_04FHIICEEL@vlog?$AA@ 10015030     useasm:usetab.obj
 0001:00014038       ??_C@_04OOOKOLCE@vrsq?$AA@ 10015038     useasm:usetab.obj
 0001:00014040       ??_C@_04OLNHHJBF@vrcp?$AA@ 10015040     useasm:usetab.obj
 0001:00014048       ??_C@_07IFLIPEJM@vf16sub?$AA@ 10015048     useasm:usetab.obj
 0001:00014050       ??_C@_06BKGGAFJG@vf16dp?$AA@ 10015050     useasm:usetab.obj
 0001:00014058       ??_C@_07JOHMCFEH@vf16max?$AA@ 10015058     useasm:usetab.obj
 0001:00014060       ??_C@_07IMPHMBCI@vf16min?$AA@ 10015060     useasm:usetab.obj
 0001:00014068       ??_C@_07OFMNCMJC@vf16dsy?$AA@ 10015068     useasm:usetab.obj
 0001:00014070       ??_C@_07PMNGBNND@vf16dsx?$AA@ 10015070     useasm:usetab.obj
 0001:00014078       ??_C@_07POCLHEPF@vf16frc?$AA@ 10015078     useasm:usetab.obj
 0001:00014080       ??_C@_07DEBGAFEJ@vf16add?$AA@ 10015080     useasm:usetab.obj
 0001:00014088       ??_C@_07KLPNPJLO@vf16mul?$AA@ 10015088     useasm:usetab.obj
 0001:00014090       ??_C@_07HIALHIBK@vf16mad?$AA@ 10015090     useasm:usetab.obj
 0001:00014098       ??_C@_04DDDELBGB@vsub?$AA@ 10015098     useasm:usetab.obj
 0001:000140a0       ??_C@_03PAAOMFKJ@vdp?$AA@  100150a0     useasm:usetab.obj
 0001:000140a4       ??_C@_04FDEBGJGP@vdsy?$AA@ 100150a4     useasm:usetab.obj
 0001:000140ac       ??_C@_04EKFKFICO@vdsx?$AA@ 100150ac     useasm:usetab.obj
 0001:000140b4       ??_C@_04CIPAGALK@vmax?$AA@ 100150b4     useasm:usetab.obj
 0001:000140bc       ??_C@_04DKHLIENF@vmin?$AA@ 100150bc     useasm:usetab.obj
 0001:000140c4       ??_C@_04EIKHDBAI@vfrc?$AA@ 100150c4     useasm:usetab.obj
 0001:000140cc       ??_C@_04ICJKEALE@vadd?$AA@ 100150cc     useasm:usetab.obj
 0001:000140d4       ??_C@_04BNHBLMED@vmul?$AA@ 100150d4     useasm:usetab.obj
 0001:000140dc       ??_C@_04MOIHDNOH@vmad?$AA@ 100150dc     useasm:usetab.obj
 0001:000140e4       ??_C@_07PJIFHDOJ@vmovcu8?$AA@ 100150e4     useasm:usetab.obj
 0001:000140ec       ??_C@_05IPANMIKP@vmovc?$AA@ 100150ec     useasm:usetab.obj
 0001:000140f4       ??_C@_04LMONGADO@vmov?$AA@ 100150f4     useasm:usetab.obj
 0001:000140fc       ??_C@_05HKPHADDM@vmov4?$AA@ 100150fc     useasm:usetab.obj
 0001:00014104       ??_C@_05DFLGJFPL@vmov3?$AA@ 10015104     useasm:usetab.obj
 0001:0001410c       ??_C@_05LKKHNEHN@vssq4?$AA@ 1001510c     useasm:usetab.obj
 0001:00014114       ??_C@_05PFOGECLK@vssq3?$AA@ 10015114     useasm:usetab.obj
 0001:0001411c       ??_C@_05IBKMJGII@vsub4?$AA@ 1001511c     useasm:usetab.obj
 0001:00014124       ??_C@_05MOONAAEP@vsub3?$AA@ 10015124     useasm:usetab.obj
 0001:0001412c       ??_C@_05HHKEBOCC@vadd4?$AA@ 1001512c     useasm:usetab.obj
 0001:00014134       ??_C@_05DIOFIIOF@vadd3?$AA@ 10015134     useasm:usetab.obj
 0001:0001413c       ??_C@_05FEOCJCGB@vmul4?$AA@ 1001513c     useasm:usetab.obj
 0001:00014144       ??_C@_05BLKDAEKG@vmul3?$AA@ 10015144     useasm:usetab.obj
 0001:0001414c       ??_C@_05IFIKADBB@vmad4?$AA@ 1001514c     useasm:usetab.obj
 0001:00014154       ??_C@_05MKMLJFNG@vmad3?$AA@ 10015154     useasm:usetab.obj
 0001:0001415c       ??_C@_04BENAOGHO@vdp4?$AA@ 1001515c     useasm:usetab.obj
 0001:00014164       ??_C@_04FLJBHALJ@vdp3?$AA@ 10015164     useasm:usetab.obj
 0001:0001416c       ??_C@_09NODGMHNE@emitvcbst?$AA@ 1001516c     useasm:usetab.obj
 0001:00014178       ??_C@_0L@FBFICDMG@emitvcbvtx?$AA@ 10015178     useasm:usetab.obj
 0001:00014184       ??_C@_09PIDAEGKH@emitmtest?$AA@ 10015184     useasm:usetab.obj
 0001:00014190       ??_C@_0L@JIHCAFMB@emitmtevtx?$AA@ 10015190     useasm:usetab.obj
 0001:0001419c       ??_C@_03PENBPHC@cfi?$AA@   1001519c     useasm:usetab.obj
 0001:000141a0       ??_C@_02POBAIDHK@ci?$AA@   100151a0     useasm:usetab.obj
 0001:000141a4       ??_C@_02HJIIJPLF@cf?$AA@   100151a4     useasm:usetab.obj
 0001:000141a8       ??_C@_05PACJMPIO@moest?$AA@ 100151a8     useasm:usetab.obj
 0001:000141b0       ??_C@_06FOOALFNH@fnrm16?$AA@ 100151b0     useasm:usetab.obj
 0001:000141b8       ??_C@_06DJAIKELN@fnrm32?$AA@ 100151b8     useasm:usetab.obj
 0001:000141c0       ??_C@_06KNGBBCNH@sablnd?$AA@ 100151c0     useasm:usetab.obj
 0001:000141c8       ??_C@_06DPIIDNJL@fpsub8?$AA@ 100151c8     useasm:usetab.obj
 0001:000141d0       ??_C@_06MJIALFDB@fpadd8?$AA@ 100151d0     useasm:usetab.obj
 0001:000141d8       ??_C@_06OKMGDJHC@fpmul8?$AA@ 100151d8     useasm:usetab.obj
 0001:000141e0       ??_C@_06BELDBAKP@isubu8?$AA@ 100151e0     useasm:usetab.obj
 0001:000141e8       ??_C@_06CCEGFCNB@iaddu8?$AA@ 100151e8     useasm:usetab.obj
 0001:000141f0       ??_C@_04HIHJCIAG@fpma?$AA@ 100151f0     useasm:usetab.obj
 0001:000141f8       ??_C@_06BODAOOPP@movmsk?$AA@ 100151f8     useasm:usetab.obj
 0001:00014200       ??_C@_04CFJGHAMN@movc?$AA@ 10015200     useasm:usetab.obj
 0001:00014208       ??_C@_07BANDBPIA@iaddu32?$AA@ 10015208     useasm:usetab.obj
 0001:00014210       ??_C@_06DBFEDEDN@imov16?$AA@ 10015210     useasm:usetab.obj
 0001:00014218       ??_C@_06MNLAAEHH@imulu8?$AA@ 10015218     useasm:usetab.obj
 0001:00014220       ??_C@_05KNHGNCD@imul8?$AA@ 10015220     useasm:usetab.obj
 0001:00014228       ??_C@_05NPJJGJMK@isub8?$AA@ 10015228     useasm:usetab.obj
 0001:00014230       ??_C@_05CJJBOBGA@iadd8?$AA@ 10015230     useasm:usetab.obj
 0001:00014238       ??_C@_06KMLOELCJ@iadd32?$AA@ 10015238     useasm:usetab.obj
 0001:00014240       ??_C@_07EIGBPOGB@imulu16?$AA@ 10015240     useasm:usetab.obj
 0001:00014248       ??_C@_07MALAKHJD@isubu16?$AA@ 10015248     useasm:usetab.obj
 0001:00014250       ??_C@_07HHDLAOOK@iaddu16?$AA@ 10015250     useasm:usetab.obj
 0001:00014258       ??_C@_06CEKAAMOF@imul16?$AA@ 10015258     useasm:usetab.obj
 0001:00014260       ??_C@_06PNKDBIDN@isub16?$AA@ 10015260     useasm:usetab.obj
 0001:00014268       ??_C@_06MLFGFKED@iadd16?$AA@ 10015268     useasm:usetab.obj
 0001:00014270       ??_C@_05OJCDMDMI@asop2?$AA@ 10015270     useasm:usetab.obj
 0001:00014278       ??_C@_04BNKIMGJI@lrp2?$AA@ 10015278     useasm:usetab.obj
 0001:00014280       ??_C@_04DGIFJFFL@lrp1?$AA@ 10015280     useasm:usetab.obj
 0001:00014288       ??_C@_04JEDFNLGM@alrp?$AA@ 10015288     useasm:usetab.obj
 0001:00014290       ??_C@_05BLLJMLJF@arsop?$AA@ 10015290     useasm:usetab.obj
 0001:00014298       ??_C@_04IILBKMIG@asop?$AA@ 10015298     useasm:usetab.obj
 0001:000142a0       ??_C@_04OBPEPKPD@asub?$AA@ 100152a0     useasm:usetab.obj
 0001:000142a8       ??_C@_04FAFKALCG@aadd?$AA@ 100152a8     useasm:usetab.obj
 0001:000142b0       ??_C@_07NOKJPFJG@aintrp2?$AA@ 100152b0     useasm:usetab.obj
 0001:000142b8       ??_C@_07PFIEKGFF@aintrp1?$AA@ 100152b8     useasm:usetab.obj
 0001:000142c0       ??_C@_04HDJKLMOD@phas?$AA@ 100152c0     useasm:usetab.obj
 0001:000142c8       ??_C@_04IPMEAKK@setm?$AA@  100152c8     useasm:usetab.obj
 0001:000142d0       ??_C@_03EEOHENCN@wop?$AA@  100152d0     useasm:usetab.obj
 0001:000142d4       ??_C@_06CNLPFHCD@depthf?$AA@ 100152d4     useasm:usetab.obj
 0001:000142dc       ??_C@_05LMCKLHKJ@atst8?$AA@ 100152dc     useasm:usetab.obj
 0001:000142e4       ??_C@_05FFPFIJHE@ptoff?$AA@ 100152e4     useasm:usetab.obj
 0001:000142ec       ??_C@_06GIPMBBEA@pcoeff?$AA@ 100152ec     useasm:usetab.obj
 0001:000142f4       ??_C@_03OJMAPEGJ@str?$AA@  100152f4     useasm:usetab.obj
 0001:000142f8       ??_C@_03PNJMBANA@ldr?$AA@  100152f8     useasm:usetab.obj
 0001:000142fc       ??_C@_07KLENHKKM@fsubflr?$AA@ 100152fc     useasm:usetab.obj
 0001:00014304       ??_C@_07EOGFDLKI@release?$AA@ 10015304     useasm:usetab.obj
 0001:0001430c       ??_C@_04MKMCLCOO@lock?$AA@ 1001530c     useasm:usetab.obj
 0001:00014314       ??_C@_06OPKGODIN@fddpc4?$AA@ 10015314     useasm:usetab.obj
 0001:0001431c       ??_C@_06KAOHHFEK@fddpc3?$AA@ 1001531c     useasm:usetab.obj
 0001:00014324       ??_C@_05FCEHFDPG@fddpc?$AA@ 10015324     useasm:usetab.obj
 0001:0001432c       ??_C@_05KHLNJIGF@fddp4?$AA@ 1001532c     useasm:usetab.obj
 0001:00014334       ??_C@_05OIPMAOKC@fddp3?$AA@ 10015334     useasm:usetab.obj
 0001:0001433c       ??_C@_04PLAKPAFB@fddp?$AA@ 1001533c     useasm:usetab.obj
 0001:00014344       ??_C@_05GGKGEFIE@fdpc4?$AA@ 10015344     useasm:usetab.obj
 0001:0001434c       ??_C@_05CJOHNDED@fdpc3?$AA@ 1001534c     useasm:usetab.obj
 0001:00014354       ??_C@_04IBMKLKGP@fdpc?$AA@ 10015354     useasm:usetab.obj
 0001:0001435c       ??_C@_04HEDAHBPM@fdp4?$AA@ 1001535c     useasm:usetab.obj
 0001:00014364       ??_C@_04DLHBOHDL@fdp3?$AA@ 10015364     useasm:usetab.obj
 0001:0001436c       ??_C@_05HEIOGBDD@setfc?$AA@ 1001536c     useasm:usetab.obj
 0001:00014374       ??_C@_03DKPPLHHB@imo?$AA@  10015374     useasm:usetab.obj
 0001:00014378       ??_C@_04OHNFNFAF@smbo?$AA@ 10015378     useasm:usetab.obj
 0001:00014380       ??_C@_05DBFBNMJD@smlsi?$AA@ 10015380     useasm:usetab.obj
 0001:00014388       ??_C@_03PKDHGMJG@smr?$AA@  10015388     useasm:usetab.obj
 0001:0001438c       ??_C@_04HBIOGLNI@smoa?$AA@ 1001538c     useasm:usetab.obj
 0001:00014394       ??_C@_06EOEAAGLO@u16tnz?$AA@ 10015394     useasm:usetab.obj
 0001:0001439c       ??_C@_05NKPLKFJF@u16tz?$AA@ 1001539c     useasm:usetab.obj
 0001:000143a4       ??_C@_04FMGLMKJC@ftnz?$AA@ 100153a4     useasm:usetab.obj
 0001:000143ac       ??_C@_03EGNONJMM@ftz?$AA@  100153ac     useasm:usetab.obj
 0001:000143b0       ??_C@_03GJPGFFDI@nop?$AA@  100153b0     useasm:usetab.obj
 0001:000143b4       ??_C@_03FGBGECCC@dma?$AA@  100153b4     useasm:usetab.obj
 0001:000143b8       ??_C@_03ODCMFNNH@sms?$AA@  100153b8     useasm:usetab.obj
 0001:000143bc       ??_C@_03BJDMMCMD@ams?$AA@  100153bc     useasm:usetab.obj
 0001:000143c0       ??_C@_03DHGNGCAI@smm?$AA@  100153c0     useasm:usetab.obj
 0001:000143c4       ??_C@_03MNHNPNBM@amm?$AA@  100153c4     useasm:usetab.obj
 0001:000143c8       ??_C@_03JEAJBGIL@sda?$AA@  100153c8     useasm:usetab.obj
 0001:000143cc       ??_C@_03DILMFJIH@sdm?$AA@  100153cc     useasm:usetab.obj
 0001:000143d0       ??_C@_07KLCMLLPD@setpneq?$AA@ 100153d0     useasm:usetab.obj
 0001:000143d8       ??_C@_07DCGPGNGK@setplte?$AA@ 100153d8     useasm:usetab.obj
 0001:000143e0       ??_C@_06IKNJBMPL@setplt?$AA@ 100153e0     useasm:usetab.obj
 0001:000143e8       ??_C@_06PIHPNDDB@setpeq?$AA@ 100153e8     useasm:usetab.obj
 0001:000143f0       ??_C@_07OFGOOKGL@setpgte?$AA@ 100153f0     useasm:usetab.obj
 0001:000143f8       ??_C@_06IGIMPDBK@setpgt?$AA@ 100153f8     useasm:usetab.obj
 0001:00014400       ??_C@_04FDNECGOD@fsub?$AA@ 10015400     useasm:usetab.obj
 0001:00014408       ??_C@_04DGLGBLMD@fssq?$AA@ 10015408     useasm:usetab.obj
 0001:00014410       ??_C@_04OCHKNHDG@fadd?$AA@ 10015410     useasm:usetab.obj
 0001:00014418       ??_C@_04HNJBCLMB@fmul?$AA@ 10015418     useasm:usetab.obj
 0001:00014420       ??_C@_04NMANPHLM@fmov?$AA@ 10015420     useasm:usetab.obj
 0001:00014428       ??_C@_03CNBJFNFA@mov?$AA@  10015428     useasm:usetab.obj
 0001:0001442c       ??_C@_07OLONFCKE@emitpds?$AA@ 1001542c     useasm:usetab.obj
 0001:00014434       ??_C@_0O@LEENHJNO@emitprimitive?$AA@ 10015434     useasm:usetab.obj
 0001:00014444       ??_C@_07DBFEHHMD@emitvtx?$AA@ 10015444     useasm:usetab.obj
 0001:0001444c       ??_C@_06GCOMBHEL@emitst?$AA@ 1001544c     useasm:usetab.obj
 0001:00014454       ??_C@_07MBBIDM@emitpix?$AA@ 10015454     useasm:usetab.obj
 0001:0001445c       ??_C@_08MCBPOJOO@emitpix2?$AA@ 1001545c     useasm:usetab.obj
 0001:00014468       ??_C@_08OJDCLKCN@emitpix1?$AA@ 10015468     useasm:usetab.obj
 0001:00014474       ??_C@_04LDGNGHLO@limm?$AA@ 10015474     useasm:usetab.obj
 0001:0001447c       ??_C@_03FECKBHBL@wdf?$AA@  1001547c     useasm:usetab.obj
 0001:00014480       ??_C@_03OEOMDHLH@idf?$AA@  10015480     useasm:usetab.obj
 0001:00014484       ??_C@_0L@JODEDCHK@bexception?$AA@ 10015484     useasm:usetab.obj
 0001:00014490       ??_C@_04PMKEFCPM@lapc?$AA@ 10015490     useasm:usetab.obj
 0001:00014498       ??_C@_02FGOECCNH@br?$AA@   10015498     useasm:usetab.obj
 0001:0001449c       ??_C@_02DHALGDEF@ba?$AA@   1001549c     useasm:usetab.obj
 0001:000144a0       ??_C@_04GAAFJDCP@eldq?$AA@ 100154a0     useasm:usetab.obj
 0001:000144a8       ??_C@_04FHLAHFDL@eldd?$AA@ 100154a8     useasm:usetab.obj
 0001:000144b0       ??_C@_04GCOCNAN@sttq?$AA@  100154b0     useasm:usetab.obj
 0001:000144b8       ??_C@_04DBJLMLBJ@sttd?$AA@ 100154b8     useasm:usetab.obj
 0001:000144c0       ??_C@_04FAHEIKIL@sttw?$AA@ 100154c0     useasm:usetab.obj
 0001:000144c8       ??_C@_04GHMBGMJP@sttb?$AA@ 100154c8     useasm:usetab.obj
 0001:000144d0       ??_C@_04LEIHHKMB@ldtq?$AA@ 100154d0     useasm:usetab.obj
 0001:000144d8       ??_C@_04IDDCJMNF@ldtd?$AA@ 100154d8     useasm:usetab.obj
 0001:000144e0       ??_C@_04OCNNNNEH@ldtw?$AA@ 100154e0     useasm:usetab.obj
 0001:000144e8       ??_C@_04NFGIDLFD@ldtb?$AA@ 100154e8     useasm:usetab.obj
 0001:000144f0       ??_C@_04BEBLNPMF@stlq?$AA@ 100154f0     useasm:usetab.obj
 0001:000144f8       ??_C@_04CDKODJNB@stld?$AA@ 100154f8     useasm:usetab.obj
 0001:00014500       ??_C@_04ECEBHIED@stlw?$AA@ 10015500     useasm:usetab.obj
 0001:00014508       ??_C@_04HFPEJOFH@stlb?$AA@ 10015508     useasm:usetab.obj
 0001:00014510       ??_C@_04KGLCIIAJ@ldlq?$AA@ 10015510     useasm:usetab.obj
 0001:00014518       ??_C@_04JBAHGOBN@ldld?$AA@ 10015518     useasm:usetab.obj
 0001:00014520       ??_C@_04PAOICPIP@ldlw?$AA@ 10015520     useasm:usetab.obj
 0001:00014528       ??_C@_04MHFNMJJL@ldlb?$AA@ 10015528     useasm:usetab.obj
 0001:00014530       ??_C@_04BMMDEMJG@staq?$AA@ 10015530     useasm:usetab.obj
 0001:00014538       ??_C@_04CLHGKKIC@stad?$AA@ 10015538     useasm:usetab.obj
 0001:00014540       ??_C@_04EKJJOLBA@staw?$AA@ 10015540     useasm:usetab.obj
 0001:00014548       ??_C@_04HNCMANAE@stab?$AA@ 10015548     useasm:usetab.obj
 0001:00014550       ??_C@_04KOGKBLFK@ldaq?$AA@ 10015550     useasm:usetab.obj
 0001:00014558       ??_C@_04JJNPPNEO@ldad?$AA@ 10015558     useasm:usetab.obj
 0001:00014560       ??_C@_04PIDALMNM@ldaw?$AA@ 10015560     useasm:usetab.obj
 0001:00014568       ??_C@_04MPIFFKMI@ldab?$AA@ 10015568     useasm:usetab.obj
 0001:00014570       ??_C@_09KIDJGAAM@smp3dgrad?$AA@ 10015570     useasm:usetab.obj
 0001:0001457c       ??_C@_09OEOGLLI@smp2dgrad?$AA@ 1001557c     useasm:usetab.obj
 0001:00014588       ??_C@_09DPKGHBCF@smp1dgrad?$AA@ 10015588     useasm:usetab.obj
 0001:00014594       ??_C@_0N@IMLLGHGO@smp3dreplace?$AA@ 10015594     useasm:usetab.obj
 0001:000145a4       ??_C@_0N@GDHJAMFA@smp2dreplace?$AA@ 100155a4     useasm:usetab.obj
 0001:000145b4       ??_C@_0N@IIEOLHFD@smp1dreplace?$AA@ 100155b4     useasm:usetab.obj
 0001:000145c4       ??_C@_09OCECLLHE@smp3dbias?$AA@ 100155c4     useasm:usetab.obj
 0001:000145d0       ??_C@_09EEDFLAMA@smp2dbias?$AA@ 100155d0     useasm:usetab.obj
 0001:000145dc       ??_C@_09HFNNKKFN@smp1dbias?$AA@ 100155dc     useasm:usetab.obj
 0001:000145e8       ??_C@_05OOKKMHDJ@smp3d?$AA@ 100155e8     useasm:usetab.obj
 0001:000145f0       ??_C@_05OPGIKNAO@smp2d?$AA@ 100155f0     useasm:usetab.obj
 0001:000145f8       ??_C@_05ONCOBDFH@smp1d?$AA@ 100155f8     useasm:usetab.obj
 0001:00014600       ??_C@_06GGGOMLOL@ssum16?$AA@ 10015600     useasm:usetab.obj
 0001:00014608       ??_C@_05COGELEAH@firhh?$AA@ 10015608     useasm:usetab.obj
 0001:00014610       ??_C@_04JDNAGPBH@firh?$AA@ 10015610     useasm:usetab.obj
 0001:00014618       ??_C@_05FCKLBLAM@bilin?$AA@ 10015618     useasm:usetab.obj
 0001:00014620       ??_C@_05DINMDKHN@firvh?$AA@ 10015620     useasm:usetab.obj
 0001:00014628       ??_C@_04EHJBFAMI@firv?$AA@ 10015628     useasm:usetab.obj
 0001:00014630       ??_C@_07DLAPIEBJ@adifsum?$AA@ 10015630     useasm:usetab.obj
 0001:00014638       ??_C@_04FNGKAKMF@adif?$AA@ 10015638     useasm:usetab.obj
 0001:00014640       ??_C@_04CHNIFDFF@idiv?$AA@ 10015640     useasm:usetab.obj
 0001:00014648       ??_C@_05EIKDCMOM@ima32?$AA@ 10015648     useasm:usetab.obj
 0001:00014650       ??_C@_04DFCMAMPF@imae?$AA@ 10015650     useasm:usetab.obj
 0001:00014658       ??_C@_05CPELDNIG@ima16?$AA@ 10015658     useasm:usetab.obj
 0001:00014660       ??_C@_04DKDJCPOM@ima8?$AA@ 10015660     useasm:usetab.obj
 0001:00014668       ??_C@_0L@DAOCLPMG@u16dot4off?$AA@ 10015668     useasm:usetab.obj
 0001:00014674       ??_C@_0L@ICMCGDNG@u16dot3off?$AA@ 10015674     useasm:usetab.obj
 0001:00014680       ??_C@_09GIAJOEKF@u8dot4off?$AA@ 10015680     useasm:usetab.obj
 0001:0001468c       ??_C@_09NKCJDILF@u8dot3off?$AA@ 1001568c     useasm:usetab.obj
 0001:00014698       ??_C@_07EFHPPAJH@u16dot4?$AA@ 10015698     useasm:usetab.obj
 0001:000146a0       ??_C@_07KDOGGFA@u16dot3?$AA@ 100156a0     useasm:usetab.obj
 0001:000146a8       ??_C@_06NDMPFPGO@u8dot4?$AA@ 100156a8     useasm:usetab.obj
 0001:000146b0       ??_C@_06JMIOMJKJ@u8dot3?$AA@ 100156b0     useasm:usetab.obj
 0001:000146b8       ??_C@_04EEHAHIMI@sop3?$AA@ 100156b8     useasm:usetab.obj
 0001:000146c0       ??_C@_06GEKMOMGC@sop2wm?$AA@ 100156c0     useasm:usetab.obj
 0001:000146c8       ??_C@_04FNGLEJIJ@sop2?$AA@ 100156c8     useasm:usetab.obj
 0001:000146d0       ??_C@_03HBHPADEG@rlp?$AA@  100156d0     useasm:usetab.obj
 0001:000146d4       ??_C@_03JFEOOAEC@rol?$AA@  100156d4     useasm:usetab.obj
 0001:000146d8       ??_C@_03BGJPHNPI@asr?$AA@  100156d8     useasm:usetab.obj
 0001:000146dc       ??_C@_03PMPMKOHN@shr?$AA@  100156dc     useasm:usetab.obj
 0001:000146e0       ??_C@_03CILNJBKC@shl?$AA@  100156e0     useasm:usetab.obj
 0001:000146e4       ??_C@_03COLCDPPJ@xor?$AA@  100156e4     useasm:usetab.obj
 0001:000146e8       ??_C@_02FODMLBIE@or?$AA@   100156e8     useasm:usetab.obj
 0001:000146ec       ??_C@_03BOPJPIAM@and?$AA@  100156ec     useasm:usetab.obj
 0001:000146f0       ??_C@_0M@CDGCCNBB@unpckc10c10?$AA@ 100156f0     useasm:usetab.obj
 0001:000146fc       ??_C@_09KNIBBCKD@unpcku8u8?$AA@ 100156fc     useasm:usetab.obj
 0001:00014708       ??_C@_0M@MLPMEEHP@unpcks16c10?$AA@ 10015708     useasm:usetab.obj
 0001:00014714       ??_C@_0L@GDPGIBDB@unpcks16o8?$AA@ 10015714     useasm:usetab.obj
 0001:00014720       ??_C@_0L@HGMKNLCF@unpcks16s8?$AA@ 10015720     useasm:usetab.obj
 0001:0001472c       ??_C@_0L@HCEHKHJH@unpcks16u8?$AA@ 1001572c     useasm:usetab.obj
 0001:00014738       ??_C@_0M@MNLPLEGG@unpcks16s16?$AA@ 10015738     useasm:usetab.obj
 0001:00014744       ??_C@_0M@OINEOLLK@unpcks16u16?$AA@ 10015744     useasm:usetab.obj
 0001:00014750       ??_C@_0M@KKHIBDML@unpcks16f16?$AA@ 10015750     useasm:usetab.obj
 0001:0001475c       ??_C@_0M@KICMHBEF@unpcku16c10?$AA@ 1001575c     useasm:usetab.obj
 0001:00014768       ??_C@_0L@LFKPGCCM@unpcku16o8?$AA@ 10015768     useasm:usetab.obj
 0001:00014774       ??_C@_0L@KAJDDIDI@unpcku16s8?$AA@ 10015774     useasm:usetab.obj
 0001:00014780       ??_C@_0L@KEBOEEIK@unpcku16u8?$AA@ 10015780     useasm:usetab.obj
 0001:0001478c       ??_C@_0M@KOGPIBFM@unpcku16s16?$AA@ 1001578c     useasm:usetab.obj
 0001:00014798       ??_C@_0M@ILAENOIA@unpcku16u16?$AA@ 10015798     useasm:usetab.obj
 0001:000147a4       ??_C@_0M@MJKICGPB@unpcku16f16?$AA@ 100157a4     useasm:usetab.obj
 0001:000147b0       ??_C@_0M@POBKPHBG@unpckf16c10?$AA@ 100157b0     useasm:usetab.obj
 0001:000147bc       ??_C@_0L@DAONBCBJ@unpckf16o8?$AA@ 100157bc     useasm:usetab.obj
 0001:000147c8       ??_C@_0L@CFNBEIAN@unpckf16s8?$AA@ 100157c8     useasm:usetab.obj
 0001:000147d4       ??_C@_0L@CBFMDELP@unpckf16u8?$AA@ 100157d4     useasm:usetab.obj
 0001:000147e0       ??_C@_0M@PIFJAHAP@unpckf16s16?$AA@ 100157e0     useasm:usetab.obj
 0001:000147ec       ??_C@_0M@NNDCFIND@unpckf16u16?$AA@ 100157ec     useasm:usetab.obj
 0001:000147f8       ??_C@_0M@JPJOKAKC@unpckf16f16?$AA@ 100157f8     useasm:usetab.obj
 0001:00014804       ??_C@_0M@EGFCPANN@unpckf32c10?$AA@ 10015804     useasm:usetab.obj
 0001:00014810       ??_C@_0L@MFEPNGCO@unpckf32o8?$AA@ 10015810     useasm:usetab.obj
 0001:0001481c       ??_C@_0L@NAHDIMDK@unpckf32s8?$AA@ 1001581c     useasm:usetab.obj
 0001:00014828       ??_C@_0L@NEPOPAII@unpckf32u8?$AA@ 10015828     useasm:usetab.obj
 0001:00014834       ??_C@_0M@EABBAAME@unpckf32s16?$AA@ 10015834     useasm:usetab.obj
 0001:00014840       ??_C@_0M@GFHKFPBI@unpckf32u16?$AA@ 10015840     useasm:usetab.obj
 0001:0001484c       ??_C@_0M@CHNGKHGJ@unpckf32f16?$AA@ 1001584c     useasm:usetab.obj
 0001:00014858       ??_C@_0M@EADOLGAD@unpckf32f32?$AA@ 10015858     useasm:usetab.obj
 0001:00014864       ??_C@_09DDFDIML@pckc10s16?$AA@ 10015864     useasm:usetab.obj
 0001:00014870       ??_C@_09CGFOGHBH@pckc10u16?$AA@ 10015870     useasm:usetab.obj
 0001:0001487c       ??_C@_09GEPCJPGG@pckc10f16?$AA@ 1001587c     useasm:usetab.obj
 0001:00014888       ??_C@_09DBKIOAM@pckc10f32?$AA@ 10015888     useasm:usetab.obj
 0001:00014894       ??_C@_08IDEMMIKL@pcko8s16?$AA@ 10015894     useasm:usetab.obj
 0001:000148a0       ??_C@_08KGCHJHHH@pcko8u16?$AA@ 100158a0     useasm:usetab.obj
 0001:000148ac       ??_C@_08OEILGPAG@pcko8f16?$AA@ 100158ac     useasm:usetab.obj
 0001:000148b8       ??_C@_08IDGDHOGM@pcko8f32?$AA@ 100158b8     useasm:usetab.obj
 0001:000148c4       ??_C@_08PHFIAKEL@pcks8s16?$AA@ 100158c4     useasm:usetab.obj
 0001:000148d0       ??_C@_08NCDDFFJH@pcks8u16?$AA@ 100158d0     useasm:usetab.obj
 0001:000148dc       ??_C@_08JAJPKNOG@pcks8f16?$AA@ 100158dc     useasm:usetab.obj
 0001:000148e8       ??_C@_08PHHHLMIM@pcks8f32?$AA@ 100158e8     useasm:usetab.obj
 0001:000148f4       ??_C@_08CBABOJFG@pcku8s16?$AA@ 100158f4     useasm:usetab.obj
 0001:00014900       ??_C@_08EGKLGIK@pcku8u16?$AA@ 10015900     useasm:usetab.obj
 0001:0001490c       ??_C@_08EGMGEOPL@pcku8f16?$AA@ 1001590c     useasm:usetab.obj
 0001:00014918       ??_C@_08CBCOFPJB@pcku8f32?$AA@ 10015918     useasm:usetab.obj
 0001:00014924       ??_C@_09OLKLFBKF@pcks16s16?$AA@ 10015924     useasm:usetab.obj
 0001:00014930       ??_C@_09MOMAAOHJ@pcks16u16?$AA@ 10015930     useasm:usetab.obj
 0001:0001493c       ??_C@_09IMGMPGAI@pcks16f16?$AA@ 1001593c     useasm:usetab.obj
 0001:00014948       ??_C@_09OLIEOHGC@pcks16f32?$AA@ 10015948     useasm:usetab.obj
 0001:00014954       ??_C@_09IIHLGEJP@pcku16s16?$AA@ 10015954     useasm:usetab.obj
 0001:00014960       ??_C@_09KNBADLED@pcku16u16?$AA@ 10015960     useasm:usetab.obj
 0001:0001496c       ??_C@_09OPLMMDDC@pcku16f16?$AA@ 1001596c     useasm:usetab.obj
 0001:00014978       ??_C@_09IIFENCFI@pcku16f32?$AA@ 10015978     useasm:usetab.obj
 0001:00014984       ??_C@_09NOENOCMM@pckf16s16?$AA@ 10015984     useasm:usetab.obj
 0001:00014990       ??_C@_09PLCGLNBA@pckf16u16?$AA@ 10015990     useasm:usetab.obj
 0001:0001499c       ??_C@_09LJIKEFGB@pckf16f16?$AA@ 1001599c     useasm:usetab.obj
 0001:000149a8       ??_C@_09NOGCFEAL@pckf16f32?$AA@ 100159a8     useasm:usetab.obj
 0001:000149b4       ??_C@_03HMHMOHCI@efo?$AA@  100159b4     useasm:usetab.obj
 0001:000149b8       ??_C@_07BJAGEKCG@fmaxmin?$AA@ 100159b8     useasm:usetab.obj
 0001:000149c0       ??_C@_07IHOEOAG@fminmax?$AA@ 100159c0     useasm:usetab.obj
 0001:000149c8       ??_C@_06ICDMGFKB@fmad16?$AA@ 100159c8     useasm:usetab.obj
 0001:000149d0       ??_C@_04DDKBPOON@fdsy?$AA@ 100159d0     useasm:usetab.obj
 0001:000149d8       ??_C@_04CKLKMPKM@fdsx?$AA@ 100159d8     useasm:usetab.obj
 0001:000149e0       ??_C@_04EIBAPHDI@fmax?$AA@ 100159e0     useasm:usetab.obj
 0001:000149e8       ??_C@_04FKJLBDFH@fmin?$AA@ 100159e8     useasm:usetab.obj
 0001:000149f0       ??_C@_03KABHJCDG@fdp?$AA@  100159f0     useasm:usetab.obj
 0001:000149f4       ??_C@_04EBKFHEMK@fcos?$AA@ 100159f4     useasm:usetab.obj
 0001:000149fc       ??_C@_04OKFNDDPL@fsin?$AA@ 100159fc     useasm:usetab.obj
 0001:00014a04       ??_C@_05OBEHOPDB@fsqrt?$AA@ 10015a04     useasm:usetab.obj
 0001:00014a0c       ??_C@_04FGIKMNCA@fexp?$AA@ 10015a0c     useasm:usetab.obj
 0001:00014a14       ??_C@_04DHGILDMJ@flog?$AA@ 10015a14     useasm:usetab.obj
 0001:00014a1c       ??_C@_04IOAKHMKG@frsq?$AA@ 10015a1c     useasm:usetab.obj
 0001:00014a24       ??_C@_04ILDHOOJH@frcp?$AA@ 10015a24     useasm:usetab.obj
 0001:00014a2c       ??_C@_04CIEHKGIK@ffrc?$AA@ 10015a2c     useasm:usetab.obj
 0001:00014a34       ??_C@_04MMLCCJDO@fmsa?$AA@ 10015a34     useasm:usetab.obj
 0001:00014a3c       ??_C@_04DDLIGMHP@fadm?$AA@ 10015a3c     useasm:usetab.obj
 0001:00014a44       ??_C@_04KOGHKKGF@fmad?$AA@ 10015a44     useasm:usetab.obj
 0001:00014a4c       ??_C@_0BA@LLCLJIP@float?5immediate?$AA@ 10015a4c     useasm:usetab.obj
 0001:00014a5c       ??_C@_0BA@GKADHLJN@named?5temporary?$AA@ 10015a5c     useasm:usetab.obj
 0001:00014a6c       ??_C@_0BC@EOODDAGN@filter?5coefficent?$AA@ 10015a6c     useasm:usetab.obj
 0001:00014a80       ??_C@_0BE@FBIDIDIB@8?9bit?5source?5select?$AA@ 10015a80     useasm:usetab.obj
 0001:00014a94       ??_C@_0N@KBLPGIGB@address?5mode?$AA@ 10015a94     useasm:usetab.obj
 0001:00014aa4       ??_C@_09OKBKKDGM@predicate?$AA@ 10015aa4     useasm:usetab.obj
 0001:00014ab0       ??_C@_04OHHBHOGB@link?$AA@ 10015ab0     useasm:usetab.obj
 0001:00014ab8       ??_C@_09MBGEJPJA@immediate?$AA@ 10015ab8     useasm:usetab.obj
 0001:00014ac4       ??_C@_08LEPPLCNF@internal?$AA@ 10015ac4     useasm:usetab.obj
 0001:00014ad0       ??_C@_08KFDOCAEB@constant?$AA@ 10015ad0     useasm:usetab.obj
 0001:00014adc       ??_C@_06FJKEMHGD@global?$AA@ 10015adc     useasm:usetab.obj
 0001:00014ae4       ??_C@_05FKHKFDID@index?$AA@ 10015ae4     useasm:usetab.obj
 0001:00014aec       ??_C@_0BE@EDPEAKOB@secondary?5attribute?$AA@ 10015aec     useasm:usetab.obj
 0001:00014b00       ??_C@_0BC@FEBGALFK@primary?5attribute?$AA@ 10015b00     useasm:usetab.obj
 0001:00014b14       ??_C@_06DKIGHACF@output?$AA@ 10015b14     useasm:usetab.obj
 0001:00014b1c       ??_C@_09CAHPDAG@temporary?$AA@ 10015b1c     useasm:usetab.obj
 0001:00014b28       pszTypeToString            10015b28     useasm:usetab.obj
 0001:00014b80       g_pfHardwareConstants      10015b80     useasm:usetab.obj
 0001:00014c60       g_asUseInstDesc            10015c60     useasm:usetab.obj
 0001:00015d4c       ??_C@_08CGPOONCN@source?52?$AA@ 10016d4c     useasm:useasm.obj
 0001:00015d58       ??_C@_08NNDLOOO@source?51?$AA@ 10016d58     useasm:useasm.obj
 0001:00015d64       ??_C@_08BEMIIPKP@source?50?$AA@ 10016d64     useasm:useasm.obj
 0001:00015d70       ??_C@_0M@BLMAJMLK@destination?$AA@ 10016d70     useasm:useasm.obj
 0001:00015db4       ??_C@_0BE@CMNIOOMH@Unknown?5instruction?$AA@ 10016db4     useasm:useasm.obj
 0001:00015dc8       ??_C@_0BN@FNBEMNH@?$CFs?5should?5have?5been?5coissued?$AA@ 10016dc8     useasm:useasm.obj
 0001:00015de8       ??_C@_0EL@CEJMDIFD@Branch?5destination?5is?5out?5of?5ran@ 10016de8     useasm:useasm.obj
 0001:00015e38       ??_C@_0EM@IGAKCAGC@Branch?5destination?5is?5out?5of?5ran@ 10016e38     useasm:useasm.obj
 0001:00015e88       ??_C@_0JC@CGJAIGHK@The?5destination?5label?5for?5a?5bran@ 10016e88     useasm:useasm.obj
 0001:00015f1c       ??_C@_0DN@GHBJDHKE@The?5third?5argument?5to?5dot3?1dot4?5@ 10016f1c     useasm:useasm.obj
 0001:00015f5c       ??_C@_0DH@BBGJEJBC@No?5flags?5are?5valid?5for?5the?5third@ 10016f5c     useasm:useasm.obj
 0001:00015f98       ??_C@_0EE@JPJEDBPB@The?5third?5argument?5to?5dot3?1dot4?5@ 10016f98     useasm:useasm.obj
 0001:00015fdc       ??_C@_0DP@MPNPCIOH@The?5second?5argument?5to?5dot3?1dot4@ 10016fdc     useasm:useasm.obj
 0001:0001601c       ??_C@_0DI@NLNHCCFG@No?5flags?5are?5valid?5for?5the?5secon@ 1001701c     useasm:useasm.obj
 0001:00016058       ??_C@_0EF@EFCBABKE@The?5second?5argument?5to?5dot3?1dot4@ 10017058     useasm:useasm.obj
 0001:000160a0       ??_C@_0CM@NAFINKIH@The?5fifth?5argument?5to?5aadd?1asub?5@ 100170a0     useasm:useasm.obj
 0001:000160cc       ??_C@_0DH@LBMFOABC@No?5flags?5are?5valid?5for?5the?5fifth@ 100170cc     useasm:useasm.obj
 0001:00016108       ??_C@_0EE@NHDHBHPH@The?5fifth?5argument?5to?5aadd?1asub?5@ 10017108     useasm:useasm.obj
 0001:00016150       ??_C@_0EH@BNLGGDIJ@Only?5the?5complement?5flag?5is?5vali@ 10017150     useasm:useasm.obj
 0001:00016198       ??_C@_0EF@BHNJGLAO@The?5fourth?5argument?5to?5aadd?1asub@ 10017198     useasm:useasm.obj
 0001:000161e0       ??_C@_0CM@LAIDNOIF@The?5third?5argument?5to?5aadd?1asub?5@ 100171e0     useasm:useasm.obj
 0001:00016210       ??_C@_0EG@KPNPAEGJ@Only?5the?5complement?5flag?5is?5vali@ 10017210     useasm:useasm.obj
 0001:00016258       ??_C@_0EE@HCICJMII@The?5third?5argument?5to?5aadd?1asub?5@ 10017258     useasm:useasm.obj
 0001:000162a0       ??_C@_0FM@FCNEOKCI@Invalid?5choice?5for?5the?5second?5ar@ 100172a0     useasm:useasm.obj
 0001:00016300       ??_C@_0EH@COHNMHNB@Only?5the?5complement?5flag?5is?5vali@ 10017300     useasm:useasm.obj
 0001:00016348       ??_C@_0EF@KIDHKMNN@The?5second?5argument?5to?5aadd?1asub@ 10017348     useasm:useasm.obj
 0001:00016390       ??_C@_0DO@NPGGCMGL@The?5first?5argument?5to?5aadd?1asub?5@ 10017390     useasm:useasm.obj
 0001:000163d0       ??_C@_0DH@DLDDAMMA@No?5flags?5are?5valid?5for?5the?5first@ 100173d0     useasm:useasm.obj
 0001:00016408       ??_C@_0EE@BEBPNCHP@The?5first?5argument?5to?5aadd?1asub?5@ 10017408     useasm:useasm.obj
 0001:0001644c       ??_C@_0DJ@JGDEEONP@Invalid?5integer?5source?5for?5the?5t@ 1001744c     useasm:useasm.obj
 0001:00016488       ??_C@_0EE@ELFDABMP@Only?5the?5complement?5flag?5is?5vali@ 10017488     useasm:useasm.obj
 0001:000164d0       ??_C@_0EC@DANPAEGJ@The?5third?5argument?5to?5aintrp1?5mu@ 100174d0     useasm:useasm.obj
 0001:00016514       ??_C@_0DK@OPCNMALF@Invalid?5integer?5source?5for?5the?5s@ 10017514     useasm:useasm.obj
 0001:00016550       ??_C@_0CN@JFFLIFPF@An?5integer?5source?5selection?5is?5n@ 10017550     useasm:useasm.obj
 0001:00016580       ??_C@_0DG@NPKDEALG@No?5flags?5are?5valid?5for?5the?5secon@ 10017580     useasm:useasm.obj
 0001:000165b8       ??_C@_0ED@NIBLILEL@The?5second?5argument?5to?5aintrp1?5m@ 100175b8     useasm:useasm.obj
 0001:000165fc       ??_C@_0CN@IACABJMC@Coissued?5instruction?5with?5no?5alp@ 100175fc     useasm:useasm.obj
 0001:0001662c       ??_C@_0BP@IIAMCHDC@Integer?5dot4?5can?8t?5be?5coissued?$AA@ 1001762c     useasm:useasm.obj
 0001:0001664c       ??_C@_0DF@OBCJJOLL@Maximum?5repeat?5count?5on?5an?5integ@ 1001764c     useasm:useasm.obj
 0001:00016684       ??_C@_0DK@NIFCHDCD@A?5swizzle?5is?5invalid?5for?5argumen@ 10017684     useasm:useasm.obj
 0001:000166c0       ??_C@_0EC@FENPMIAM@The?5modifiers?5?4flt32?0?5?4flt16?0?5?4c@ 100176c0     useasm:useasm.obj
 0001:00016704       ??_C@_0DE@EJENDBGB@?4u8?5is?5invalid?5for?5argument?5?$CFd?5f@ 10017704     useasm:useasm.obj
 0001:00016738       ??_C@_0DF@KNCENLBB@?4c10?5is?5invalid?5for?5argument?5?$CFd?5@ 10017738     useasm:useasm.obj
 0001:00016770       ??_C@_0DH@LCLAOIMP@?4flt16?5is?5invalid?5for?5argument?5?$CF@ 10017770     useasm:useasm.obj
 0001:000167a8       ??_C@_0DH@IAOLGEKP@?4flt32?5is?5invalid?5for?5argument?5?$CF@ 100177a8     useasm:useasm.obj
 0001:000167e0       ??_C@_0EC@LIBCAICE@Disable?5writeback?5is?5invalid?5for@ 100177e0     useasm:useasm.obj
 0001:00016824       ??_C@_0DG@MICEFMNE@?4comp?5is?5invalid?5for?5argument?5?$CFd@ 10017824     useasm:useasm.obj
 0001:0001685c       ??_C@_0DH@BJDJAOJN@?4alpha?5is?5invalid?5for?5argument?5?$CF@ 1001785c     useasm:useasm.obj
 0001:00016894       ??_C@_0DG@NIHNAGBL@?4high?5is?5invalid?5for?5argument?5?$CFd@ 10017894     useasm:useasm.obj
 0001:000168cc       ??_C@_0DF@HFACOLNL@?4low?5is?5invalid?5for?5argument?5?$CFd?5@ 100178cc     useasm:useasm.obj
 0001:00016904       ??_C@_0DI@BMAPILCJ@?4invert?5is?5invalid?5for?5argument?5@ 10017904     useasm:useasm.obj
 0001:0001693c       ??_C@_0DK@PJAHFLKI@A?5bytemask?5is?5invalid?5for?5argume@ 1001793c     useasm:useasm.obj
 0001:00016978       ??_C@_0EC@IJJBJBBP@A?5component?5select?5is?5invalid?5fo@ 10017978     useasm:useasm.obj
 0001:000169bc       ??_C@_0DE@NBGIMLFH@?4abs?5is?5invalid?5for?5argument?5?$CFd?5@ 100179bc     useasm:useasm.obj
 0001:000169f0       ??_C@_0DE@MPDILDBH@?4neg?5is?5invalid?5for?5argument?5?$CFd?5@ 100179f0     useasm:useasm.obj
 0001:00016a24       ??_C@_0CH@OGBNJBLO@?4freep?5is?5invalid?5for?5this?5instr@ 10017a24     useasm:useasm.obj
 0001:00016a4c       ??_C@_0CG@HDBABLGF@?4minp?5is?5invalid?5for?5this?5instru@ 10017a4c     useasm:useasm.obj
 0001:00016a74       ??_C@_0CG@JNEGBJAJ@?4irsd?5is?5invalid?5for?5this?5instru@ 10017a74     useasm:useasm.obj
 0001:00016a9c       ??_C@_0CH@MOFKMNFF@?4pwait?5is?5invalid?5for?5this?5instr@ 10017a9c     useasm:useasm.obj
 0001:00016ac4       ??_C@_0CI@FJKAAMII@?4noread?5is?5invalid?5for?5this?5inst@ 10017ac4     useasm:useasm.obj
 0001:00016aec       ??_C@_0CM@BKAEHGEJ@?4dm_nomatch?5is?5invalid?5for?5this?5@ 10017aec     useasm:useasm.obj
 0001:00016b18       ??_C@_0CI@LAPAEMDG@?4global?5is?5invalid?5for?5this?5inst@ 10017b18     useasm:useasm.obj
 0001:00016b40       ??_C@_0CI@JBBFIBPL@?4gpiext?5is?5invalid?5for?5this?5inst@ 10017b40     useasm:useasm.obj
 0001:00016b68       ??_C@_0CK@DEEAJLON@?4bypassl1?5is?5invalid?5for?5this?5in@ 10017b68     useasm:useasm.obj
 0001:00016b94       ??_C@_0CF@EHCJCPGO@?4cut?5is?5invalid?5for?5this?5instruc@ 10017b94     useasm:useasm.obj
 0001:00016bbc       ??_C@_0CL@OGDOHFNH@?4threepart?5is?5invalid?5for?5this?5i@ 10017bbc     useasm:useasm.obj
 0001:00016be8       ??_C@_0CJ@FCBBHHDD@?4twopart?5is?5invalid?5for?5this?5ins@ 10017be8     useasm:useasm.obj
 0001:00016c14       ??_C@_0CJ@GOGNFJGL@?4trigger?5is?5invalid?5for?5this?5ins@ 10017c14     useasm:useasm.obj
 0001:00016c40       ??_C@_0CJ@GIKGIFLP@?4syncend?5is?5invalid?5for?5this?5ins@ 10017c40     useasm:useasm.obj
 0001:00016c6c       ??_C@_0CG@IHPDGLHB@?4sinf?5is?5invalid?5for?5this?5instru@ 10017c6c     useasm:useasm.obj
 0001:00016c94       ??_C@_0CF@NKHJPKHH@?4rsd?5is?5invalid?5for?5this?5instruc@ 10017c94     useasm:useasm.obj
 0001:00016cbc       ??_C@_0CI@NKNMDDOG@?4pcff16?5is?5invalid?5for?5this?5inst@ 10017cbc     useasm:useasm.obj
 0001:00016ce4       ??_C@_0CF@CNBHLDDL@?4pcf?5is?5invalid?5for?5this?5instruc@ 10017ce4     useasm:useasm.obj
 0001:00016d0c       ??_C@_0CG@KBDEHIIG@?4incs?5is?5invalid?5for?5this?5instru@ 10017d0c     useasm:useasm.obj
 0001:00016d34       ??_C@_0CF@HDBKEIDN@?4tog?5is?5invalid?5for?5this?5instruc@ 10017d34     useasm:useasm.obj
 0001:00016d5c       ??_C@_0CF@CPPKEJPF@?4c10?5is?5invalid?5for?5this?5instruc@ 10017d5c     useasm:useasm.obj
 0001:00016d84       ??_C@_0CH@JJCJAFEG@?4tpres?5is?5invalid?5for?5this?5instr@ 10017d84     useasm:useasm.obj
 0001:00016dac       ??_C@_0CF@KOMKFHLA@?4i10?5is?5invalid?5for?5this?5instruc@ 10017dac     useasm:useasm.obj
 0001:00016dd4       ??_C@_0CF@KACIFBOK@?4flt?5is?5invalid?5for?5this?5instruc@ 10017dd4     useasm:useasm.obj
 0001:00016dfc       ??_C@_0CF@KDIDNMAN@?4i32?5is?5invalid?5for?5this?5instruc@ 10017dfc     useasm:useasm.obj
 0001:00016e24       ??_C@_0CF@HFMHLBAE@?4i16?5is?5invalid?5for?5this?5instruc@ 10017e24     useasm:useasm.obj
 0001:00016e4c       ??_C@_0CF@GBAIFKNL@?4sat?5is?5invalid?5for?5this?5instruc@ 10017e4c     useasm:useasm.obj
 0001:00016e74       ??_C@_0DE@KONNOGII@pre?9?1post?9increment?5is?5invalid?5f@ 10017e74     useasm:useasm.obj
 0001:00016ea8       ??_C@_0CH@MJONMLMP@?4scale?5is?5invalid?5for?5this?5instr@ 10017ea8     useasm:useasm.obj
 0001:00016ed0       ??_C@_0CH@BGLMLOBA@?4taske?5is?5invalid?5for?5this?5instr@ 10017ed0     useasm:useasm.obj
 0001:00016ef8       ??_C@_0CH@OIAHEBAH@?4tasks?5is?5invalid?5for?5this?5instr@ 10017ef8     useasm:useasm.obj
 0001:00016f20       ??_C@_0CI@JKBHNFPL@?4fcfill?5is?5invalid?5for?5this?5inst@ 10017f20     useasm:useasm.obj
 0001:00016f48       ??_C@_0CJ@POAKEGNN@?4bpcache?5is?5invalid?5for?5this?5ins@ 10017f48     useasm:useasm.obj
 0001:00016f74       ??_C@_0CK@NHGHHGDI@?4onceonly?5is?5invalid?5for?5this?5in@ 10017f74     useasm:useasm.obj
 0001:00016fa0       ??_C@_0CH@NCCAPODE@?4fetch?5is?5invalid?5for?5this?5instr@ 10017fa0     useasm:useasm.obj
 0001:00016fc8       ??_C@_0CL@BFLFDPDE@testenable?5is?5invalid?5for?5this?5i@ 10017fc8     useasm:useasm.obj
 0001:00016ff4       ??_C@_0CM@GBLJGDF@rangeneable?5is?5invalid?5for?5this?5@ 10017ff4     useasm:useasm.obj
 0001:00017020       ??_C@_0CO@LDDPCEIK@postincrement?5is?5invalid?5for?5thi@ 10018020     useasm:useasm.obj
 0001:00017050       ??_C@_0CN@ILKEEOL@preincrement?5is?5invalid?5for?5this@ 10018050     useasm:useasm.obj
 0001:00017080       ??_C@_0CH@PGFJCIMI@?4flt16?5is?5invalid?5for?5this?5instr@ 10018080     useasm:useasm.obj
 0001:000170a8       ??_C@_0DD@MCGMIGNN@This?5instruction?5can?8t?5be?5part?5o@ 100180a8     useasm:useasm.obj
 0001:000170dc       ??_C@_0CJ@OKDELEHB@?4renable?5is?5invalid?5for?5this?5ins@ 100180dc     useasm:useasm.obj
 0001:00017108       ??_C@_0CF@FIFBOHH@?4abs?5is?5invalid?5for?5this?5instruc@ 10018108     useasm:useasm.obj
 0001:00017130       ??_C@_0CF@KMGKJBBN@?4mon?5is?5invalid?5for?5this?5instruc@ 10018130     useasm:useasm.obj
 0001:00017158       ??_C@_0CG@HGFIGOGH@?4mask?5is?5invalid?5for?5this?5instru@ 10018158     useasm:useasm.obj
 0001:00017180       ??_C@_0CJ@BJIFKGIO@?4partial?5is?5invalid?5for?5this?5ins@ 10018180     useasm:useasm.obj
 0001:000171ac       ??_C@_0CK@IEFIOMMP@?4savelink?5is?5invalid?5for?5this?5in@ 100181ac     useasm:useasm.obj
 0001:000171d8       ??_C@_0CH@EIPKEMIK@?4synce?5is?5invalid?5for?5this?5instr@ 100181d8     useasm:useasm.obj
 0001:00017200       ??_C@_0CF@KFDDBKGG@?4end?5is?5invalid?5for?5this?5instruc@ 10018200     useasm:useasm.obj
 0001:00017228       ??_C@_0CM@ONJAAFFM@A?5predicate?5is?5invalid?5for?5this?5@ 10018228     useasm:useasm.obj
 0001:00017254       ??_C@_0CO@HKFMBEAO@A?5repeat?5mask?5is?5invalid?5for?5thi@ 10018254     useasm:useasm.obj
 0001:00017284       ??_C@_0CI@BKLOOKDP@?4repeat?5is?5invalid?5for?5this?5inst@ 10018284     useasm:useasm.obj
 0001:000172ac       ??_C@_0CJ@JOPLONOF@?4nosched?5is?5invalid?5for?5this?5ins@ 100182ac     useasm:useasm.obj
 0001:000172d8       ??_C@_0CH@LGEBLDJN@?4syncs?5is?5invalid?5for?5this?5instr@ 100182d8     useasm:useasm.obj
 0001:00017300       ??_C@_0CE@LNKCCLIM@?4i8?5is?5invalid?5for?5this?5instruct@ 10018300     useasm:useasm.obj
 0001:00017324       ??_C@_0CJ@MMEFPBHM@?4skipinv?5is?5invalid?5for?5this?5ins@ 10018324     useasm:useasm.obj
 0001:00017350       ??_C@_0CK@BPJMEOGN@?$CFs?5is?5not?5a?5valid?5destination?5ty@ 10018350     useasm:useasm.obj
 0001:0001737c       ??_C@_0CK@FBILJLCJ@Destination?5must?5be?5a?5modifiable@ 1001837c     useasm:useasm.obj
 0001:000173a8       ??_C@_0DJ@BHIIGCLJ@Indexed?5registers?5aren?8t?5a?5valid@ 100183a8     useasm:useasm.obj
 0001:000173e4       ??_C@_0DC@JLMEGCKC@Argument?5?$CFd?5type?5can?8t?5be?5?$CFs?5for@ 100183e4     useasm:useasm.obj
 0001:00017418       ??_C@_0BN@HHKHJGCN@Argument?5?$CFd?5can?8t?5be?5indexed?$AA@ 10018418     useasm:useasm.obj
 0001:00017438       ??_C@_0BN@JEIEJKM@Argument?5?$CFd?5type?5can?8t?5be?5?$CFs?$AA@ 10018438     useasm:useasm.obj
 0001:00017458       ??_C@_0BK@NIKBIDKC@Argument?5?$CFd?5can?8t?5indexed?$AA@ 10018458     useasm:useasm.obj
 0001:00017474       ??_C@_0CK@INEOLDIC@Invalid?5constant?5register?5specif@ 10018474     useasm:useasm.obj
 0001:000174a0       ??_C@_0CO@LBPJMKJE@Invalid?5fp?5internal?5register?5spe@ 100184a0     useasm:useasm.obj
 0001:000174d0       ??_C@_0CK@JGFFOFI@Invalid?5internal?5register?5specif@ 100184d0     useasm:useasm.obj
 0001:000174fc       ??_C@_0CH@OHEKEBML@Invalid?5index?5mask?5specified?5?$CIwa@ 100184fc     useasm:useasm.obj
 0001:00017524       ??_C@_0DG@PBPNOJGF@Invalid?5secondary?5attribute?5regi@ 10018524     useasm:useasm.obj
 0001:0001755c       ??_C@_0DE@LFLBECCD@Invalid?5primary?5attribute?5regist@ 1001855c     useasm:useasm.obj
 0001:00017590       ??_C@_0CI@JCGMLMHK@Invalid?5output?5register?5specifie@ 10018590     useasm:useasm.obj
 0001:000175b8       ??_C@_0CL@BINLLFEH@Invalid?5temporary?5register?5speci@ 100185b8     useasm:useasm.obj
 0001:000175e4       ??_C@_0DP@KIFGKPIF@Offset?5into?5indexed?5register?5ban@ 100185e4     useasm:useasm.obj
 0001:00017624       ??_C@_0CC@LJGIDMA@Register?5type?5?$CFs?5is?5not?5indexabl@ 10018624     useasm:useasm.obj
 0001:00017648       ??_C@_0HF@OJAOJKHK@Sequence?5number?5?$CIg?$CFd?$CJ?0?5edge?5mask@ 10018648     useasm:useasm.obj
 0001:000176c0       ??_C@_0DK@LCPGEMNK@Task?5queue?5data?5?$CIg?$CFd?5to?5g?$CFd?$CJ?5can@ 100186c0     useasm:useasm.obj
 0001:000176fc       ??_C@_0CI@BLCMIAIL@Invalid?5global?5register?5specifie@ 100186fc     useasm:useasm.obj
 0001:00017724       ??_C@_0CN@LAECMJLC@?$CFs?5type?5can?8t?5be?5global?5for?5this@ 10018724     useasm:useasm.obj
 0001:00017754       ??_C@_0DL@PKMEEOIP@Source?51?5immediate?5value?5is?5too?5@ 10018754     useasm:useasm.obj
 0001:00017790       ??_C@_08IPCCDMEN@Source?51?$AA@ 10018790     useasm:useasm.obj
 0001:0001779c       ??_C@_0DG@NFHFDDMG@?$CFs?5immediate?5value?5is?5too?5small?5@ 1001879c     useasm:useasm.obj
 0001:000177d4       ??_C@_0DF@HLDFHJJG@?$CFs?5immediate?5value?5is?5too?5large?5@ 100187d4     useasm:useasm.obj
 0001:0001780c       ??_C@_0CM@IBHBOODC@Invalid?5predicate?5type?5for?5this?5@ 1001880c     useasm:useasm.obj
 0001:00017838       ??_C@_0FD@DCBOAODI@A?5C10?5format?5destination?5isn?8t?5s@ 10018838     useasm:useasm.obj
 0001:0001788c       ??_C@_0CM@MLIIJFEL@The?5maximum?5predicate?5register?5n@ 1001888c     useasm:useasm.obj
 0001:000178b8       ??_C@_0CG@GNGAJDLD@Predicate?5registers?5are?5not?5inde@ 100188b8     useasm:useasm.obj
 0001:000178e0       ??_C@_0EL@MGFIGPBH@The?5second?5destination?5for?5a?5tes@ 100188e0     useasm:useasm.obj
 0001:0001792c       ??_C@_0DM@JKJAHMJO@No?5flags?5are?5valid?5for?5the?5predi@ 1001892c     useasm:useasm.obj
 0001:00017968       ??_C@_0BH@CFEGILC@Unknown?5test?5mask?5type?$AA@ 10018968     useasm:useasm.obj
 0001:00017980       ??_C@_0BP@LBJMFOHM@Unknown?5channel?5combine?5option?$AA@ 10018980     useasm:useasm.obj
 0001:000179a0       ??_C@_0CO@KFAIKBA@?4cperchan?5isn?8t?5supported?5on?5thi@ 100189a0     useasm:useasm.obj
 0001:000179d0       ??_C@_0DL@CIAFLBE@Partial?5modifier?5is?5only?5availab@ 100189d0     useasm:useasm.obj
 0001:00017a10       ??_C@_0EP@HBANCFBC@Saturation?5modifier?5is?5only?5avai@ 10018a10     useasm:useasm.obj
 0001:00017a60       ??_C@_1OO@HIDJMPJG@?$AA?$AN?$AA?6?$AA?$CK?$AA?$CK?$AA?$CK?$AA?5?$AAA?$AAS?$AAS?$AAE?$AAR?$AAT?$AAI?$AAO?$AAN?$AA?5?$AAF?$AAA?$AAI?$AAL?$AAE?$AAD?$AA?5?$AAi?$AAn?$AA?5?$AAC?$AA?3?$AA?2?$AAW?$AAi?$AAn@ 10018a60     useasm:useasm.obj
 0001:00017b50       ??_C@_0DM@GCKABEIE@Conditional?5code?5update?5isn?8t?5av@ 10018b50     useasm:useasm.obj
 0001:00017b90       ??_C@_0EP@POLKDPLI@For?5a?5test?5instruction?5with?5a?5re@ 10018b90     useasm:useasm.obj
 0001:00017be0       ??_C@_0EC@NOAGCNPB@A?5repeated?5dotproduct?5with?5test?5@ 10018be0     useasm:useasm.obj
 0001:00017c24       ??_C@_0DO@IKLPLKIL@A?5repeated?5test?5instruction?5isn?8@ 10018c24     useasm:useasm.obj
 0001:00017c64       ??_C@_0DE@KBHBIIMG@The?5maximum?5repeat?5count?5for?5thi@ 10018c64     useasm:useasm.obj
 0001:00017c98       ??_C@_0DB@JAOCBPNH@A?5repeat?5count?5is?5not?5valid?5for?5@ 10018c98     useasm:useasm.obj
 0001:00017ccc       ??_C@_0DA@INBPMMOK@A?5repeat?5mask?5is?5not?5valid?5for?5t@ 10018ccc     useasm:useasm.obj
 0001:00017d00       ??_C@_0GO@JJLBEPIH@For?5?$CFs?5with?5test?5the?5type?5of?5?$CFs?5@ 10018d00     useasm:useasm.obj
 0001:00017d70       ??_C@_0FG@HDDPHDFM@Only?5?40?5is?5a?5valid?5component?5sel@ 10018d70     useasm:useasm.obj
 0001:00017dc8       ??_C@_0FM@BHACNAEE@Only?5?40?5and?5?42?5are?5valid?5compone@ 10018dc8     useasm:useasm.obj
 0001:00017e24       ??_C@_0DD@JKMDHDLF@A?5?$CFs?5instruction?5must?5have?5at?5le@ 10018e24     useasm:useasm.obj
 0001:00017e58       ??_C@_0EP@OFCLCBOD@Invalid?5choice?5for?5the?5fifth?5arg@ 10018e58     useasm:useasm.obj
 0001:00017ea8       ??_C@_0DC@FMNAGAJ@No?5flags?5are?5valid?5for?5the?5fifth@ 10018ea8     useasm:useasm.obj
 0001:00017ee0       ??_C@_0FK@HNEAMMLH@Invalid?5choice?5for?5the?5fourth?5ar@ 10018ee0     useasm:useasm.obj
 0001:00017f3c       ??_C@_0DE@HFBEDGPO@No?5flags?5are?5valid?5for?5the?5fourt@ 10018f3c     useasm:useasm.obj
 0001:00017f70       ??_C@_0EC@PPEKPMIP@The?5fourth?5argument?5to?5asop2?5sho@ 10018f70     useasm:useasm.obj
 0001:00017fb8       ??_C@_0FO@OLALHECM@Invalid?5choice?5for?5the?5third?5arg@ 10018fb8     useasm:useasm.obj
 0001:00018018       ??_C@_0DE@CMCBMCHC@Only?5?4comp?5is?5valid?5for?5the?5thir@ 10019018     useasm:useasm.obj
 0001:00018050       ??_C@_0EB@OGKIIKPK@The?5third?5argument?5to?5asop2?5shou@ 10019050     useasm:useasm.obj
 0001:00018098       ??_C@_0GB@FOOKGLAG@Invalid?5choice?5for?5the?5second?5ar@ 10019098     useasm:useasm.obj
 0001:000180fc       ??_C@_0DF@BKFNFPMB@Only?5?4comp?5is?5valid?5for?5the?5seco@ 100190fc     useasm:useasm.obj
 0001:00018138       ??_C@_0EC@JKPDJLLN@The?5second?5argument?5to?5asop2?5sho@ 10019138     useasm:useasm.obj
 0001:0001817c       ??_C@_0DD@KLICCPHA@No?5flags?5are?5valid?5for?5the?5first@ 1001917c     useasm:useasm.obj
 0001:000181b0       ??_C@_0EB@BIMJBGCB@The?5first?5argument?5to?5asop2?5shou@ 100191b0     useasm:useasm.obj
 0001:000181f4       ??_C@_0CB@PNFMFKCL@sop2?5must?5be?5coissued?5with?5asop2@ 100191f4     useasm:useasm.obj
 0001:00018218       ??_C@_0BG@BCKONFFM@sop2?5must?5be?5coissued?$AA@ 10019218     useasm:useasm.obj
 0001:00018230       ??_C@_0FJ@BADDHEFO@Invalid?5choice?5for?5the?5seventh?5a@ 10019230     useasm:useasm.obj
 0001:0001828c       ??_C@_0DE@KEDJMMFI@No?5flags?5are?5valid?5for?5the?5seven@ 1001928c     useasm:useasm.obj
 0001:000182c0       ??_C@_0EC@HGMCGKBA@The?5seventh?5argument?5to?5sop2?5sho@ 100192c0     useasm:useasm.obj
 0001:00018308       ??_C@_0HE@GKGLGGOL@Invalid?5choice?5for?5the?5sixth?5arg@ 10019308     useasm:useasm.obj
 0001:0001837c       ??_C@_0DM@OGJGMIAI@Only?5the?5?4comp?5flag?5is?5valid?5for@ 1001937c     useasm:useasm.obj
 0001:000183b8       ??_C@_0EA@JBHMMHBL@The?5sixth?5argument?5to?5sop2?5shoul@ 100193b8     useasm:useasm.obj
 0001:000183f8       ??_C@_0HG@HJBDHCLG@Invalid?5choice?5for?5the?5fifth?5arg@ 100193f8     useasm:useasm.obj
 0001:00018470       ??_C@_0DM@OEOABLFP@Only?5the?5?4comp?5flag?5is?5valid?5for@ 10019470     useasm:useasm.obj
 0001:000184b0       ??_C@_0EA@PEDOBCNH@The?5fifth?5argument?5to?5sop2?5shoul@ 100194b0     useasm:useasm.obj
 0001:000184f0       ??_C@_0FB@HBOJEBLF@Invalid?5choices?5for?5the?5fourth?5a@ 100194f0     useasm:useasm.obj
 0001:00018544       ??_C@_0CK@DBEGJBPP@Integer?5source?5selectors?5aren?8t?5@ 10019544     useasm:useasm.obj
 0001:00018570       ??_C@_0DD@GDJINGEN@No?5flags?5are?5valid?5for?5the?5fourt@ 10019570     useasm:useasm.obj
 0001:000185a8       ??_C@_0EB@JLEKLKIL@The?5fourth?5argument?5to?5sop2?5shou@ 100195a8     useasm:useasm.obj
 0001:000185ec       ??_C@_0DF@CEJLKMBG@Only?5nearest?5rounding?5is?5support@ 100195ec     useasm:useasm.obj
 0001:00018624       ??_C@_0CM@OHMDJNLO@An?5integer?5source?5selector?5can?8t@ 10019624     useasm:useasm.obj
 0001:00018650       ??_C@_0DC@PDLMCMGO@No?5flags?5are?5valid?5for?5an?5intege@ 10019650     useasm:useasm.obj
 0001:00018688       ??_C@_0EP@KFBPJKBI@The?5fourth?5argument?5to?5a?5pack?5in@ 10019688     useasm:useasm.obj
 0001:000186d8       ??_C@_0DM@CMGEAEEG@Invalid?5bytemask?5specified?5?$CIlega@ 100196d8     useasm:useasm.obj
 0001:00018718       ??_C@_0FK@IMCFLHOE@Invalid?5bytemask?5specified?5?$CIlega@ 10019718     useasm:useasm.obj
 0001:00018774       ??_C@_0DD@DLOGHDFD@The?5renable?5flag?5isn?8t?5supported@ 10019774     useasm:useasm.obj
 0001:000187a8       ??_C@_0EO@CDMEKOCM@The?5renable?5flag?5is?5only?5valid?5w@ 100197a8     useasm:useasm.obj
 0001:000187f8       ??_C@_0FI@FHLKJJEN@The?5scale?5flag?5is?5only?5valid?5whe@ 100197f8     useasm:useasm.obj
 0001:00018850       ??_C@_0EN@JPNNFBOP@Only?5?4bytemask1111?5is?5supported?5@ 10019850     useasm:useasm.obj
 0001:000188a0       ??_C@_0FG@MFNCNONI@Only?5?4bytemask1111?5is?5supported?5@ 100198a0     useasm:useasm.obj
 0001:000188f8       ??_C@_0CD@DJDKIHIP@The?5maximum?5predicate?5number?5is?5@ 100198f8     useasm:useasm.obj
 0001:0001891c       ??_C@_0CF@LNBFBGED@Predicate?5registers?5can?8t?5be?5ind@ 1001991c     useasm:useasm.obj
 0001:00018944       ??_C@_0DF@HMHEIKHA@No?5flags?5are?5valid?5for?5the?5predi@ 10019944     useasm:useasm.obj
 0001:0001897c       ??_C@_0CP@OJDGHEAF@The?5second?5argument?5to?5rlp?5must?5@ 1001997c     useasm:useasm.obj
 0001:000189b0       ??_C@_0IC@NPHCGHMI@An?5immediate?5source?5argument?5to?5@ 100199b0     useasm:useasm.obj
 0001:00018a34       ??_C@_0DA@KAKEJMDJ@A?5mask?5is?5not?5valid?5on?5a?5dotprod@ 10019a34     useasm:useasm.obj
 0001:00018a64       ??_C@_0DC@PDHCBKCD@A?5repeat?5is?5not?5valid?5on?5a?5dotpr@ 10019a64     useasm:useasm.obj
 0001:00018a98       ??_C@_0EI@JILLLJML@This?5instruction?5isn?8t?5available@ 10019a98     useasm:useasm.obj
 0001:00018ae0       ??_C@_0DC@NCLFMCHI@fpadd8?1fpsub8?5is?5only?5valid?5with@ 10019ae0     useasm:useasm.obj
 0001:00018b14       ??_C@_0DB@JHGOCNIO@imul8?1imulu8?5is?5only?5valid?5with?5@ 10019b14     useasm:useasm.obj
 0001:00018b48       ??_C@_0CE@PCBCMLOI@The?5maximum?5clip?5plane?5number?5is@ 10019b48     useasm:useasm.obj
 0001:00018b6c       ??_C@_0CH@BBGNDHF@A?5clip?5plane?5argument?5is?5not?5ind@ 10019b6c     useasm:useasm.obj
 0001:00018b94       ??_C@_0CM@KGNDPEIK@No?5flags?5are?5valid?5for?5a?5clippla@ 10019b94     useasm:useasm.obj
 0001:00018bc0       ??_C@_0EL@OICFHNIF@The?5second?5argument?5to?5a?5fdpc?5in@ 10019bc0     useasm:useasm.obj
 0001:00018c0c       ??_C@_0DI@HLMNAEHK@Only?5i0?5and?5i1?5may?5be?5destinatio@ 10019c0c     useasm:useasm.obj
 0001:00018c44       ??_C@_0CF@KCFJPPBJ@Internal?5registers?5are?5not?5index@ 10019c44     useasm:useasm.obj
 0001:00018c6c       ??_C@_0DF@KGNOHAA@No?5flags?5are?5valid?5for?5an?5intern@ 10019c6c     useasm:useasm.obj
 0001:00018ca8       ??_C@_0FC@GFPCKLPP@The?5second?5argument?5to?5a?5fddp?5in@ 10019ca8     useasm:useasm.obj
 0001:00018d00       ??_C@_0EL@NPBIKIOJ@The?5fourth?5argument?5to?5a?5fdpc?5in@ 10019d00     useasm:useasm.obj
 0001:00018d50       ??_C@_0EL@DBBJIGNF@The?5third?5argument?5to?5a?5fddpc?5in@ 10019d50     useasm:useasm.obj
 0001:00018da0       ??_C@_0FD@HOIBEICL@The?5second?5argument?5to?5a?5fddpc?5i@ 10019da0     useasm:useasm.obj
 0001:00018df8       ??_C@_0EG@LBAJMGGK@A?5movc?5instruction?5must?5specify?5@ 10019df8     useasm:useasm.obj
 0001:00018e40       ??_C@_0GA@OJMMLLIA@On?5this?5processor?5MOVC?5on?5C10?5fo@ 10019e40     useasm:useasm.obj
 0001:00018ea0       ??_C@_0DP@CLFDAIAM@A?5movc?5instruction?5must?5include?5@ 10019ea0     useasm:useasm.obj
 0001:00018ee0       ??_C@_0DG@EDCHLIHP@Only?5?4tz?0?5?4t?$CBz?0?5?4tn?5or?5?4tp?$HMz?5are@ 10019ee0     useasm:useasm.obj
 0001:00018f18       ??_C@_0FL@OJDHBDDM@The?5instruction?5is?5affected?5by?5B@ 10019f18     useasm:useasm.obj
 0001:00018f78       ??_C@_0IC@ONGMFPGB@The?5instruction?5is?5affected?5by?5B@ 10019f78     useasm:useasm.obj
 0001:00018ffc       ??_C@_0DP@GHIBIMHL@The?5maximum?5repeat?5count?5for?5an?5@ 10019ffc     useasm:useasm.obj
 0001:00019040       ??_C@_0EC@JJHLNPNF@The?5seventh?5argument?5to?5sop2wm?5i@ 1001a040     useasm:useasm.obj
 0001:00019084       ??_C@_0DG@GBFNJGMB@No?5flags?5are?5valid?5for?5the?5seven@ 1001a084     useasm:useasm.obj
 0001:000190c0       ??_C@_0EE@EGJILBFH@The?5seventh?5argument?5to?5sop2wm?5s@ 1001a0c0     useasm:useasm.obj
 0001:00019108       ??_C@_0EA@HOMFHCNO@The?5sixth?5argument?5to?5sop2wm?5is?5@ 1001a108     useasm:useasm.obj
 0001:00019148       ??_C@_0DE@FDGMDKAF@No?5flags?5are?5valid?5for?5the?5sixth@ 1001a148     useasm:useasm.obj
 0001:00019180       ??_C@_0EC@NALFAHH@The?5sixth?5argument?5to?5sop2wm?5sho@ 1001a180     useasm:useasm.obj
 0001:000191c4       ??_C@_0DP@BGLACGDG@The?5fifth?5argument?5to?5sop2wm?5is?5@ 1001a1c4     useasm:useasm.obj
 0001:00019204       ??_C@_0DM@MLIHGKIL@Only?5?4comp?5is?5a?5valid?5flag?5for?5t@ 1001a204     useasm:useasm.obj
 0001:00019240       ??_C@_0EC@JMPNILCM@The?5fifth?5argument?5to?5sop2wm?5sho@ 1001a240     useasm:useasm.obj
 0001:00019288       ??_C@_0EA@NCGPJLOA@The?5fourth?5argument?5to?5sop2wm?5is@ 1001a288     useasm:useasm.obj
 0001:000192c8       ??_C@_0DN@NLJCHBJL@Only?5?4comp?5is?5a?5valid?5flag?5for?5t@ 1001a2c8     useasm:useasm.obj
 0001:00019308       ??_C@_0ED@FCPONNNK@The?5fourth?5argument?5to?5sop2wm?5sh@ 1001a308     useasm:useasm.obj
 0001:00019350       ??_C@_0EN@MDJOPIF@Invalid?5choice?5for?5the?5third?5arg@ 1001a350     useasm:useasm.obj
 0001:000193a0       ??_C@_0DC@DCENAPP@No?5flags?5are?5valid?5for?5the?5third@ 1001a3a0     useasm:useasm.obj
 0001:000193d4       ??_C@_0DO@EELLDBBD@The?5third?5argument?5to?5asop?5must?5@ 1001a3d4     useasm:useasm.obj
 0001:00019418       ??_C@_0HF@CBIPLOPP@Invalid?5choice?5for?5the?5second?5ar@ 1001a418     useasm:useasm.obj
 0001:00019490       ??_C@_0DL@GPHBDAAM@Only?5?4comp?5is?5a?5valid?5flag?5for?5t@ 1001a490     useasm:useasm.obj
 0001:000194cc       ??_C@_0DP@KOIBPLMG@The?5second?5argument?5to?5asop?5must@ 1001a4cc     useasm:useasm.obj
 0001:00019510       ??_C@_0HE@JFMMNFAC@Invalid?5choice?5for?5the?5first?5arg@ 1001a510     useasm:useasm.obj
 0001:00019584       ??_C@_0DK@OKDCCLBL@Only?5?4comp?5is?5a?5valid?5flag?5for?5t@ 1001a584     useasm:useasm.obj
 0001:000195c0       ??_C@_0DO@EOKHKJGH@The?5first?5argument?5to?5asop?5must?5@ 1001a5c0     useasm:useasm.obj
 0001:00019600       ??_C@_0CA@LJJNKDND@lrp1?5must?5be?5coissued?5with?5asop?$AA@ 1001a600     useasm:useasm.obj
 0001:00019620       ??_C@_0BH@DOCDFOCO@lrp1?5must?5be?5coisssued?$AA@ 1001a620     useasm:useasm.obj
 0001:00019638       ??_C@_0BG@CHKAJNEL@lrp1?5must?5be?5coissued?$AA@ 1001a638     useasm:useasm.obj
 0001:00019650       ??_C@_0EO@FKMJCGBG@Invalid?5choice?5for?5the?5seventh?5a@ 1001a650     useasm:useasm.obj
 0001:000196a0       ??_C@_0DE@MPNHBAIK@No?5flags?5are?5valid?5for?5the?5seven@ 1001a6a0     useasm:useasm.obj
 0001:000196d8       ??_C@_0EB@NCENCBNO@The?5seventh?5argument?5to?5lrp1?5mus@ 1001a6d8     useasm:useasm.obj
 0001:00019720       ??_C@_0EN@NGJPOHKM@Invalid?5choice?5for?5the?5sixth?5arg@ 1001a720     useasm:useasm.obj
 0001:00019770       ??_C@_0DM@INHIBENK@Only?5the?5?4comp?5flag?5is?5valid?5for@ 1001a770     useasm:useasm.obj
 0001:000197ac       ??_C@_0DP@NEMNCNNA@The?5sixth?5argument?5to?5lrp1?5must?5@ 1001a7ac     useasm:useasm.obj
 0001:000197f0       ??_C@_0FA@BCOHELNN@Invalid?5choice?5for?5the?5fifth?5arg@ 1001a7f0     useasm:useasm.obj
 0001:00019840       ??_C@_0CM@KDAMEKKC@An?5integer?5source?5selector?5is?5no@ 1001a840     useasm:useasm.obj
 0001:0001986c       ??_C@_0DM@IPAOMHIN@Only?5the?5?4comp?5flag?5is?5valid?5for@ 1001a86c     useasm:useasm.obj
 0001:000198a8       ??_C@_0DP@CGMBCHII@The?5fifth?5argument?5to?5lrp1?5must?5@ 1001a8a8     useasm:useasm.obj
 0001:000198e8       ??_C@_0EJ@KJLKFMN@Only?5zero?0?5one?5and?5s2a?5are?5valid@ 1001a8e8     useasm:useasm.obj
 0001:00019934       ??_C@_0DE@FDNIJKHO@Only?5?4comp?5is?5valid?5for?5the?5seco@ 1001a934     useasm:useasm.obj
 0001:00019968       ??_C@_0DP@GCMJDOBH@The?5second?5argument?5to?5alrp?5must@ 1001a968     useasm:useasm.obj
 0001:000199a8       ??_C@_0EI@POLJNHOP@Only?5zero?0?5one?5and?5s1a?5are?5valid@ 1001a9a8     useasm:useasm.obj
 0001:000199f0       ??_C@_0DD@LEOOHHIE@Only?5?4comp?5is?5valid?5for?5the?5firs@ 1001a9f0     useasm:useasm.obj
 0001:00019a24       ??_C@_0DO@ICOPGMLG@The?5first?5argument?5to?5alrp?5must?5@ 1001aa24     useasm:useasm.obj
 0001:00019a64       ??_C@_0CA@BBLPFF@lrp2?5must?5be?5coissued?5with?5alrp?$AA@ 1001aa64     useasm:useasm.obj
 0001:00019a84       ??_C@_0BG@IEPGBLOC@lrp2?5must?5be?5coissued?$AA@ 1001aa84     useasm:useasm.obj
 0001:00019aa0       ??_C@_0FD@JFBMKMNH@Invalid?5choice?5for?5the?5seventh?5a@ 1001aaa0     useasm:useasm.obj
 0001:00019af8       ??_C@_0EN@GMGJLELO@If?5the?5seventh?5argument?5to?5lrp2?5@ 1001aaf8     useasm:useasm.obj
 0001:00019b48       ??_C@_0FB@FJHLFMAN@If?5the?5seventh?5argument?5to?5lrp2?5@ 1001ab48     useasm:useasm.obj
 0001:00019ba0       ??_C@_0EP@GBKEKGGN@If?5the?5seventh?5argument?5to?5lrp2?5@ 1001aba0     useasm:useasm.obj
 0001:00019bf0       ??_C@_0EK@MPPLIHCI@If?5the?5seventh?5argument?5to?5lrp2?5@ 1001abf0     useasm:useasm.obj
 0001:00019c3c       ??_C@_0DN@BJBDMCPE@Only?5the?5?4comp?5flag?5is?5valid?5for@ 1001ac3c     useasm:useasm.obj
 0001:00019c80       ??_C@_0EA@MACNPBPH@The?5eighth?5argument?5to?5lrp2?5must@ 1001ac80     useasm:useasm.obj
 0001:00019cc0       ??_C@_0DO@GLBNDEGP@Only?5the?5?4comp?5flag?5is?5valid?5for@ 1001acc0     useasm:useasm.obj
 0001:00019d00       ??_C@_0EB@JPKFCBLJ@The?5seventh?5argument?5to?5lrp2?5mus@ 1001ad00     useasm:useasm.obj
 0001:00019d48       ??_C@_0HH@IBAGBKNH@Invalid?5choice?5for?5the?5sixth?5arg@ 1001ad48     useasm:useasm.obj
 0001:00019dc0       ??_C@_0DM@KGFFEHBJ@Only?5the?5?4comp?5flag?5is?5valid?5for@ 1001adc0     useasm:useasm.obj
 0001:00019dfc       ??_C@_0DP@JJCFCNLH@The?5sixth?5argument?5to?5lrp2?5must?5@ 1001adfc     useasm:useasm.obj
 0001:00019e40       ??_C@_0HI@KGJMFIGE@Invalid?5choice?5for?5the?5fifth?5arg@ 1001ae40     useasm:useasm.obj
 0001:00019eb8       ??_C@_0DM@PNPLCKBO@Only?5the?5?4comp?5flag?5is?5valid?5for@ 1001aeb8     useasm:useasm.obj
 0001:00019ef4       ??_C@_0DP@JFIMNECE@The?5fifth?5argument?5to?5sop3?5must?5@ 1001aef4     useasm:useasm.obj
 0001:00019f38       ??_C@_0EP@LFLPCFJM@Invalid?5choice?5for?5the?5second?5ar@ 1001af38     useasm:useasm.obj
 0001:00019f88       ??_C@_0DE@GEPIHLDC@No?5flags?5are?5valid?5for?5the?5secon@ 1001af88     useasm:useasm.obj
 0001:00019fc0       ??_C@_0EA@CILJPHKB@The?5second?5argument?5to?5arsop?5mus@ 1001afc0     useasm:useasm.obj
 0001:0001a000       ??_C@_0FO@BGCOGJJP@Invalid?5choice?5for?5the?5first?5arg@ 1001b000     useasm:useasm.obj
 0001:0001a060       ??_C@_0DE@LFEIHKHD@Only?5?4comp?5is?5valid?5for?5the?5firs@ 1001b060     useasm:useasm.obj
 0001:0001a094       ??_C@_0DP@IJIIECIN@The?5first?5argument?5to?5arsop?5must@ 1001b094     useasm:useasm.obj
 0001:0001a0d8       ??_C@_0EK@DIJKPKNM@SOP3?5with?5ARSOP?5and?5a?5complement@ 1001b0d8     useasm:useasm.obj
 0001:0001a128       ??_C@_0EO@BNBKMGBP@Invalid?5choice?5for?5the?5second?5ar@ 1001b128     useasm:useasm.obj
 0001:0001a178       ??_C@_0DD@KDAMLAMK@No?5flags?5are?5valid?5for?5the?5secon@ 1001b178     useasm:useasm.obj
 0001:0001a1b0       ??_C@_0FN@ONPCNNEO@Invalid?5choice?5for?5the?5first?5arg@ 1001b1b0     useasm:useasm.obj
 0001:0001a210       ??_C@_0DD@KIGKAAGO@Only?5?4comp?5is?5valid?5for?5the?5firs@ 1001b210     useasm:useasm.obj
 0001:0001a248       ??_C@_0FE@LNCOBNA@Invalid?5choice?5for?5the?5first?5arg@ 1001b248     useasm:useasm.obj
 0001:0001a2a0       ??_C@_0FE@JJEFPIJ@Invalid?5choice?5for?5the?5first?5arg@ 1001b2a0     useasm:useasm.obj
 0001:0001a2f8       ??_C@_0ED@PGOFNOAD@sop3?5with?5a?5negate?5destination?5m@ 1001b2f8     useasm:useasm.obj
 0001:0001a33c       ??_C@_0CE@OHCGBBLC@sop3?5without?5a?5coissued?5instruct@ 1001b33c     useasm:useasm.obj
 0001:0001a360       ??_C@_0BG@MFEMFFAE@sop3?5must?5be?5coissued?$AA@ 1001b360     useasm:useasm.obj
 0001:0001a378       ??_C@_0EL@GLFHPIPJ@Invalid?5choice?5for?5eighth?5argume@ 1001b378     useasm:useasm.obj
 0001:0001a3c8       ??_C@_0EA@DOIIACDM@The?5eighth?5argument?5to?5sop3?5must@ 1001b3c8     useasm:useasm.obj
 0001:0001a408       ??_C@_0EP@LLOJFENH@Invalid?5choice?5for?5the?5seventh?5a@ 1001b408     useasm:useasm.obj
 0001:0001a458       ??_C@_0DE@LNCCPNBJ@No?5flags?5are?5valid?5for?5the?5seven@ 1001b458     useasm:useasm.obj
 0001:0001a490       ??_C@_0EB@GBAANCHC@The?5seventh?5argument?5to?5sop3?5mus@ 1001b490     useasm:useasm.obj
 0001:0001a4d8       ??_C@_0HE@NOFOGDCI@Invalid?5choice?5for?5the?5sixth?5arg@ 1001b4d8     useasm:useasm.obj
 0001:0001a54c       ??_C@_0DK@GPFHLHKL@Only?5?4comp?5is?5a?5valid?5flag?5for?5t@ 1001b54c     useasm:useasm.obj
 0001:0001a588       ??_C@_0DP@GHIANOHM@The?5sixth?5argument?5to?5sop3?5must?5@ 1001b588     useasm:useasm.obj
 0001:0001a5c8       ??_C@_0HE@OENIBECC@Invalid?5choice?5for?5the?5fifth?5arg@ 1001b5c8     useasm:useasm.obj
 0001:0001a63c       ??_C@_0DK@GNCBGEPM@Only?5?4comp?5is?5a?5valid?5flag?5for?5t@ 1001b63c     useasm:useasm.obj
 0001:0001a678       ??_C@_0BH@NMPINIEC@sop3?5can?8t?5be?5repeated?$AA@ 1001b678     useasm:useasm.obj
 0001:0001a690       ??_C@_0DK@OMANMEPM@Only?5s2a?5is?5a?5valid?5choice?5for?5t@ 1001b690     useasm:useasm.obj
 0001:0001a6cc       ??_C@_0DK@DPJMNKAL@Only?5?4comp?5is?5a?5valid?5flag?5for?5t@ 1001b6cc     useasm:useasm.obj
 0001:0001a708       ??_C@_0DP@BFGILNHD@The?5tenth?5argument?5to?5ima8?5must?5@ 1001b708     useasm:useasm.obj
 0001:0001a748       ??_C@_0DL@FMNMANPN@Only?5s1a?5is?5a?5valid?5choice?5for?5t@ 1001b748     useasm:useasm.obj
 0001:0001a784       ??_C@_0DL@PMLPCLJP@Only?5?4comp?5is?5a?5valid?5flag?5for?5t@ 1001b784     useasm:useasm.obj
 0001:0001a7c0       ??_C@_0EA@OKAGHCFL@The?5nineth?5argument?5to?5ima8?5must@ 1001b7c0     useasm:useasm.obj
 0001:0001a800       ??_C@_0ED@FKCOCDED@Only?5s0a?5and?5s1a?5are?5valid?5choic@ 1001b800     useasm:useasm.obj
 0001:0001a844       ??_C@_0DL@HABGHCJK@Only?5?4comp?5is?5a?5valid?5flag?5for?5t@ 1001b844     useasm:useasm.obj
 0001:0001a880       ??_C@_0EA@EABBPNKK@The?5eighth?5argument?5to?5ima8?5must@ 1001b880     useasm:useasm.obj
 0001:0001a8c0       ??_C@_0ED@FDKGPKDC@Only?5s2?5and?5s2a?5are?5valid?5choice@ 1001b8c0     useasm:useasm.obj
 0001:0001a904       ??_C@_0DM@LBKALADI@Only?5?4comp?5is?5a?5valid?5flag?5for?5t@ 1001b904     useasm:useasm.obj
 0001:0001a940       ??_C@_0EB@BPJJCNOE@The?5seventh?5argument?5to?5ima8?5mus@ 1001b940     useasm:useasm.obj
 0001:0001a988       ??_C@_0EB@CLJBDDPJ@Only?5s1?5and?5s1a?5are?5valid?5choice@ 1001b988     useasm:useasm.obj
 0001:0001a9cc       ??_C@_0DK@BBBOOAIP@Only?5?4comp?5is?5a?5valid?5flag?5for?5t@ 1001b9cc     useasm:useasm.obj
 0001:0001aa08       ??_C@_0DP@BJBJCBOK@The?5sixth?5argument?5to?5ima8?5must?5@ 1001ba08     useasm:useasm.obj
 0001:0001aa48       ??_C@_0EK@KADHKBHD@Only?5s0?0?5s1?0?5s0a?5and?5s1a?5are?5val@ 1001ba48     useasm:useasm.obj
 0001:0001aa94       ??_C@_0DK@BDGIDDNI@Only?5?4comp?5is?5a?5valid?5flag?5for?5t@ 1001ba94     useasm:useasm.obj
 0001:0001aad0       ??_C@_0DP@OLBFCLLC@The?5fifth?5argument?5to?5ima8?5must?5@ 1001bad0     useasm:useasm.obj
 0001:0001ab10       ??_C@_0EK@HCFFGHCH@Third?5argument?5to?5ima16?5is?58?9bit@ 1001bb10     useasm:useasm.obj
 0001:0001ab60       ??_C@_0EL@EFNHNPFP@Second?5argument?5to?5ima16?5is?58?9bi@ 1001bb60     useasm:useasm.obj
 0001:0001abac       ??_C@_0DD@DHKGKKGN@No?5flags?5are?5valid?5for?5the?5sixth@ 1001bbac     useasm:useasm.obj
 0001:0001abe0       ??_C@_0CM@KFKJJGEN@The?5sixth?5argument?5to?5ima16?5isn?8@ 1001bbe0     useasm:useasm.obj
 0001:0001ac0c       ??_C@_0DC@FLFMKFFD@The?5sixth?5argument?5to?5ima16?5must@ 1001bc0c     useasm:useasm.obj
 0001:0001ac40       ??_C@_0EN@LDKLHMAN@Invalid?5source?5data?5format?5for?5i@ 1001bc40     useasm:useasm.obj
 0001:0001ac90       ??_C@_0DD@MCKLBIOJ@No?5flags?5are?5valid?5for?5the?5fifth@ 1001bc90     useasm:useasm.obj
 0001:0001acc4       ??_C@_0CM@LHIIENBO@The?5fifth?5argument?5to?5ima16?5isn?8@ 1001bcc4     useasm:useasm.obj
 0001:0001acf0       ??_C@_0DC@CIEPCOAH@The?5fifth?5argument?5to?5ima16?5must@ 1001bcf0     useasm:useasm.obj
 0001:0001ad24       ??_C@_0DJ@KMFCNFLN@Only?5one?5of?5?4s?5and?5?4u?5can?5be?5spe@ 1001bd24     useasm:useasm.obj
 0001:0001ad60       ??_C@_0DN@LMMEBOND@The?5maximum?5destination?5shift?5fo@ 1001bd60     useasm:useasm.obj
 0001:0001ada0       ??_C@_0EA@BEAJFKLN@The?5maximum?5register?5number?5for?5@ 1001bda0     useasm:useasm.obj
 0001:0001ade0       ??_C@_0CL@DOOAPBOB@The?5eighth?5source?5to?5imae?5can?8t?5@ 1001bde0     useasm:useasm.obj
 0001:0001ae0c       ??_C@_0DB@PKHIFEJJ@No?5flags?5are?5valid?5for?5the?5eight@ 1001be0c     useasm:useasm.obj
 0001:0001ae40       ??_C@_0EI@OMIBHEJN@The?5eighth?5source?5to?5imae?5should@ 1001be40     useasm:useasm.obj
 0001:0001ae88       ??_C@_0EH@DLKGLNI@Only?5cie?5or?5nothing?5are?5valid?5ch@ 1001be88     useasm:useasm.obj
 0001:0001aed0       ??_C@_0DE@MMHOIJCE@No?5flags?5are?5valid?5for?5the?5seven@ 1001bed0     useasm:useasm.obj
 0001:0001af04       ??_C@_0CN@IKCGDAFI@The?5seventh?5argument?5to?5imae?5isn@ 1001bf04     useasm:useasm.obj
 0001:0001af34       ??_C@_0DE@IAOPODPF@The?5seventh?5argument?5to?5imae?5mus@ 1001bf34     useasm:useasm.obj
 0001:0001af68       ??_C@_0EF@JBDPGDKG@Only?5coe?5or?5nothing?5are?5valid?5ch@ 1001bf68     useasm:useasm.obj
 0001:0001afb0       ??_C@_0DC@GPPMJACC@No?5flags?5are?5valid?5for?5the?5sixth@ 1001bfb0     useasm:useasm.obj
 0001:0001afe4       ??_C@_0CL@CDIKAGGM@The?5sixth?5argument?5to?5imae?5isn?8t@ 1001bfe4     useasm:useasm.obj
 0001:0001b010       ??_C@_0DC@HDJGOJKK@The?5sixth?5argument?5to?5imae?5must?5@ 1001c010     useasm:useasm.obj
 0001:0001b044       ??_C@_0DD@DNBAOKIA@?4low?5and?5?4high?5are?5meaningless?5f@ 1001c044     useasm:useasm.obj
 0001:0001b078       ??_C@_0EG@PNOIEBGC@One?5of?5?4low?5or?5?4high?5should?5be?5s@ 1001c078     useasm:useasm.obj
 0001:0001b0c0       ??_C@_0EH@DLDLJEEK@One?5of?5?4low?5or?5?4high?5should?5be?5s@ 1001c0c0     useasm:useasm.obj
 0001:0001b108       ??_C@_0EG@HGBJOGAP@One?5of?5?4low?5or?5?4high?5should?5be?5s@ 1001c108     useasm:useasm.obj
 0001:0001b150       ??_C@_0BN@MCMCHHHO@Invalid?5data?5format?5for?5imae?$AA@ 1001c150     useasm:useasm.obj
 0001:0001b170       ??_C@_0DC@GNIKEDHF@No?5flags?5are?5valid?5for?5the?5fifth@ 1001c170     useasm:useasm.obj
 0001:0001b1a4       ??_C@_0CL@LFLIAFDF@The?5fifth?5argument?5to?5imae?5isn?8t@ 1001c1a4     useasm:useasm.obj
 0001:0001b1d0       ??_C@_0DB@NOAIOELF@The?5fifth?5argument?5to?5imae?5must?5@ 1001c1d0     useasm:useasm.obj
 0001:0001b204       ??_C@_0DM@EHOELKCO@The?5maximum?5destination?5shift?5fo@ 1001c204     useasm:useasm.obj
 0001:0001b240       ??_C@_0DE@JCLFGKBG@Maximum?5repeat?5count?5on?5an?5integ@ 1001c240     useasm:useasm.obj
 0001:0001b278       ??_C@_0EG@JFIEFIAN@Only?5u8?5or?5s8?5are?5valid?5as?5a?5cho@ 1001c278     useasm:useasm.obj
 0001:0001b2c0       ??_C@_0DF@BFAJNMNE@No?5flags?5are?5valid?5for?5the?5ninet@ 1001c2c0     useasm:useasm.obj
 0001:0001b2f8       ??_C@_0EB@EPNJCIMP@The?5nineth?5argument?5to?5ssum16?5mu@ 1001c2f8     useasm:useasm.obj
 0001:0001b340       ??_C@_0EM@CDDPPEDE@Only?5iadd?5or?5nothing?5is?5valid?5as@ 1001c340     useasm:useasm.obj
 0001:0001b38c       ??_C@_0DF@HKMJENGI@No?5flags?5are?5valid?5for?5the?5eight@ 1001c38c     useasm:useasm.obj
 0001:0001b3c8       ??_C@_0EB@IFMJPNMK@The?5eighth?5argument?5to?5ssum16?5mu@ 1001c3c8     useasm:useasm.obj
 0001:0001b410       ??_C@_0ED@OAGGGGIH@Only?5i0?5or?5r1?5valid?5as?5a?5choice?5@ 1001c410     useasm:useasm.obj
 0001:0001b454       ??_C@_0CF@BGFEHLBP@An?5internal?5register?5isn?8t?5index@ 1001c454     useasm:useasm.obj
 0001:0001b47c       ??_C@_0DG@GDJPLBEI@No?5flags?5are?5valid?5for?5the?5seven@ 1001c47c     useasm:useasm.obj
 0001:0001b4b8       ??_C@_0EC@BEPCBJIN@The?5seventh?5argument?5to?5ssum16?5m@ 1001c4b8     useasm:useasm.obj
 0001:0001b500       ??_C@_0EL@BECKFGPA@Only?5iadd?5or?5nothing?5is?5valid?5as@ 1001c500     useasm:useasm.obj
 0001:0001b54c       ??_C@_0DE@FBKOBNIM@No?5flags?5are?5valid?5for?5the?5sixth@ 1001c54c     useasm:useasm.obj
 0001:0001b580       ??_C@_0EA@PDEMLEIG@The?5sixth?5argument?5to?5ssum16?5mus@ 1001c580     useasm:useasm.obj
 0001:0001b5c0       ??_C@_0EL@HFHGKGHC@Only?5idst?5or?5nothing?5is?5valid?5as@ 1001c5c0     useasm:useasm.obj
 0001:0001b60c       ??_C@_0CL@KCGNBGBH@An?5integer?5source?5selector?5isn?8t@ 1001c60c     useasm:useasm.obj
 0001:0001b638       ??_C@_0DE@LLIOFHAH@No?5flags?5are?5valid?5for?5the?5fifth@ 1001c638     useasm:useasm.obj
 0001:0001b670       ??_C@_0EA@JGAOGBEK@The?5fifth?5argument?5to?5ssum16?5mus@ 1001c670     useasm:useasm.obj
 0001:0001b6b0       ??_C@_0DE@IJOOAFAA@Maximum?5repeat?5count?5on?5an?5SSUM1@ 1001c6b0     useasm:useasm.obj
 0001:0001b6e4       ??_C@_0CJ@EGABLJED@ssum16?5isn?8t?5available?5on?5this?5p@ 1001c6e4     useasm:useasm.obj
 0001:0001b710       ??_C@_0EL@LEHINHKP@Only?5scale?5or?5nothing?5is?5valid?5a@ 1001c710     useasm:useasm.obj
 0001:0001b75c       ??_C@_0DD@MBMDINHI@No?5flags?5are?5valid?5for?5the?5eight@ 1001c75c     useasm:useasm.obj
 0001:0001b790       ??_C@_0DP@DNLIJOFH@The?5eighth?5argument?5to?5firv?5must@ 1001c790     useasm:useasm.obj
 0001:0001b7d0       ??_C@_0EL@PLEHJOGF@Only?5iadd?5or?5nothing?5is?5valid?5as@ 1001c7d0     useasm:useasm.obj
 0001:0001b81c       ??_C@_0DE@LOMDNFBJ@No?5flags?5are?5valid?5for?5the?5seven@ 1001c81c     useasm:useasm.obj
 0001:0001b850       ??_C@_0EA@LAOANIGO@The?5seventh?5argument?5to?5firv?5mus@ 1001c850     useasm:useasm.obj
 0001:0001b890       ??_C@_0EM@PPMBHMLB@Only?5?$CLsrc2?42?5or?5nothing?5is?5valid@ 1001c890     useasm:useasm.obj
 0001:0001b8dc       ??_C@_0DC@BNEBMMBP@No?5flags?5are?5valid?5for?5the?5sixth@ 1001c8dc     useasm:useasm.obj
 0001:0001b910       ??_C@_0DO@IGFJMJCL@The?5sixth?5argument?5to?5firv?5must?5@ 1001c910     useasm:useasm.obj
 0001:0001b950       ??_C@_0CL@MDHBFNJL@The?5fifth?5argument?5to?5firv?5isn?8t@ 1001c950     useasm:useasm.obj
 0001:0001b97c       ??_C@_0DC@BPDHBPEI@No?5flags?5are?5valid?5for?5the?5fifth@ 1001c97c     useasm:useasm.obj
 0001:0001b9b0       ??_C@_0DP@LCJNOCNN@The?5fifth?5argument?5to?5firv?5must?5@ 1001c9b0     useasm:useasm.obj
 0001:0001b9f0       ??_C@_0HP@FKECLPEM@The?5register?5bank?5for?5firv?5sourc@ 1001c9f0     useasm:useasm.obj
 0001:0001ba70       ??_C@_0EG@NEGMNEOD@The?5register?5banks?5for?5source?50?5@ 1001ca70     useasm:useasm.obj
 0001:0001bab8       ??_C@_0CD@BDBMNPHP@Maximum?5repeat?5count?5on?5firv?5is?5@ 1001cab8     useasm:useasm.obj
 0001:0001bae0       ??_C@_0EK@MMLIIHNN@Only?5scale?5or?5nothing?5is?5valid?5a@ 1001cae0     useasm:useasm.obj
 0001:0001bb30       ??_C@_0EJ@NGJACPPH@Only?5iadd?5or?5nothing?5is?5valid?5as@ 1001cb30     useasm:useasm.obj
 0001:0001bb7c       ??_C@_0DO@OIFDNPHI@The?5fifth?5argument?5to?5firv?5must?5@ 1001cb7c     useasm:useasm.obj
 0001:0001bbc0       ??_C@_0EN@EIOOMBFD@Only?5?$CLsrc2?42?5or?5nothing?5is?5valid@ 1001cbc0     useasm:useasm.obj
 0001:0001bc10       ??_C@_0DP@FGKELBIB@The?5fourth?5argument?5to?5firv?5must@ 1001cc10     useasm:useasm.obj
 0001:0001bc50       ??_C@_0EE@EGNLBLOB@The?5register?5bank?5for?5firvh?5sour@ 1001cc50     useasm:useasm.obj
 0001:0001bc94       ??_C@_0CE@HBKLLEAA@Maximum?5repeat?5count?5on?5firvh?5is@ 1001cc94     useasm:useasm.obj
 0001:0001bcb8       ??_C@_0CI@CFGKFHCM@firvh?5isn?8t?5available?5on?5this?5pr@ 1001ccb8     useasm:useasm.obj
 0001:0001bce0       ??_C@_0EA@CNFLJPLE@The?5nineth?5argument?5to?5bilin?5mus@ 1001cce0     useasm:useasm.obj
 0001:0001bd20       ??_C@_0DE@OJKKKHIL@No?5flags?5are?5valid?5for?5the?5ninet@ 1001cd20     useasm:useasm.obj
 0001:0001bd54       ??_C@_0CN@DJDNLEIC@The?5nineth?5argument?5to?5bilin?5isn@ 1001cd54     useasm:useasm.obj
 0001:0001bd84       ??_C@_0DH@HFBBMNAM@The?5nineth?5argument?5to?5bilin?5mus@ 1001cd84     useasm:useasm.obj
 0001:0001bdc0       ??_C@_0EA@OPFHNAEG@The?5eighth?5argument?5to?5bilin?5mus@ 1001cdc0     useasm:useasm.obj
 0001:0001be00       ??_C@_0DE@JJEMPKFN@No?5flags?5are?5valid?5for?5the?5eight@ 1001ce00     useasm:useasm.obj
 0001:0001be34       ??_C@_0CN@MBAHDJDB@The?5eighth?5argument?5to?5bilin?5isn@ 1001ce34     useasm:useasm.obj
 0001:0001be68       ??_C@_0EJ@BIMEJMPB@The?5eighth?5argument?5to?5bilin?5mus@ 1001ce68     useasm:useasm.obj
 0001:0001beb8       ??_C@_0EB@LANPAAAI@The?5seventh?5argument?5to?5bilin?5mu@ 1001ceb8     useasm:useasm.obj
 0001:0001befc       ??_C@_0DF@KDIGKLML@No?5flags?5are?5valid?5for?5the?5seven@ 1001cefc     useasm:useasm.obj
 0001:0001bf34       ??_C@_0CO@HELDAPEL@The?5seventh?5argument?5to?5bilin?5is@ 1001cf34     useasm:useasm.obj
 0001:0001bf68       ??_C@_0EF@CJMNJFOI@The?5seventh?5argument?5to?5bilin?5mu@ 1001cf68     useasm:useasm.obj
 0001:0001bfb0       ??_C@_0EG@CPMAHDPO@The?5sixth?5argument?5to?5bilin?5must@ 1001cfb0     useasm:useasm.obj
 0001:0001bff8       ??_C@_0DD@EKEGIMOH@No?5flags?5are?5valid?5for?5the?5sixth@ 1001cff8     useasm:useasm.obj
 0001:0001c02c       ??_C@_0CM@FFKOFHMI@The?5sixth?5argument?5to?5bilin?5isn?8@ 1001d02c     useasm:useasm.obj
 0001:0001c058       ??_C@_0EA@HDMMDEFM@The?5sixth?5argument?5to?5bilin?5must@ 1001d058     useasm:useasm.obj
 0001:0001c098       ??_C@_0EA@BGIOOBJA@The?5fifth?5argument?5to?5bilin?5must@ 1001d098     useasm:useasm.obj
 0001:0001c0d8       ??_C@_0DD@LPELDOGD@No?5flags?5are?5valid?5for?5the?5fifth@ 1001d0d8     useasm:useasm.obj
 0001:0001c10c       ??_C@_0CM@EHIPIMJL@The?5fifth?5argument?5to?5bilin?5isn?8@ 1001d10c     useasm:useasm.obj
 0001:0001c138       ??_C@_0EB@ILBDCOKI@The?5fifth?5argument?5to?5bilin?5must@ 1001d138     useasm:useasm.obj
 0001:0001c17c       ??_C@_0CE@PONMLKAD@Maximum?5repeat?5count?5on?5bilin?5is@ 1001d17c     useasm:useasm.obj
 0001:0001c1a0       ??_C@_0DE@JHKIEKPM@The?5range?5of?5the?5nineth?5argument@ 1001d1a0     useasm:useasm.obj
 0001:0001c1d4       ??_C@_0DH@KHNFKIAG@The?5nineth?5argument?5to?5firh?5must@ 1001d1d4     useasm:useasm.obj
 0001:0001c20c       ??_C@_0DF@JCFPNCKH@The?5range?5of?5the?5eighth?5argument@ 1001d20c     useasm:useasm.obj
 0001:0001c244       ??_C@_0DH@BGJCEECP@The?5eighth?5argument?5to?5firh?5must@ 1001d244     useasm:useasm.obj
 0001:0001c27c       ??_C@_0CI@HEOOLMFP@The?5maximum?5filter?5coefficent?5se@ 1001d27c     useasm:useasm.obj
 0001:0001c2a4       ??_C@_0DC@CJJPPKOA@No?5flags?5are?5valid?5for?5a?5filter?5@ 1001d2a4     useasm:useasm.obj
 0001:0001c2d8       ??_C@_0CI@BPHBGDKA@Filter?5coefficent?5sets?5aren?8t?5in@ 1001d2d8     useasm:useasm.obj
 0001:0001c300       ??_C@_0DN@NIIJMAFI@The?5seventh?5argument?5to?5firh?5mus@ 1001d300     useasm:useasm.obj
 0001:0001c340       ??_C@_0CK@MCCCMAME@No?5flags?5are?5valid?5for?5an?5immedi@ 1001d340     useasm:useasm.obj
 0001:0001c36c       ??_C@_0CE@BOJPMEGF@An?5immediate?5value?5is?5not?5indexa@ 1001d36c     useasm:useasm.obj
 0001:0001c390       ??_C@_0DK@HBKJDJHH@The?5sixth?5argument?5to?5firh?5must?5@ 1001d390     useasm:useasm.obj
 0001:0001c3cc       ??_C@_0DC@MLHGCAJH@No?5flags?5are?5valid?5for?5the?5fifth@ 1001d3cc     useasm:useasm.obj
 0001:0001c400       ??_C@_0CL@PEPPBDAK@The?5fifth?5argument?5to?5firh?5isn?8t@ 1001d400     useasm:useasm.obj
 0001:0001c42c       ??_C@_0DN@JOJEKONN@The?5fifth?5argument?5to?5firh?5must?5@ 1001d42c     useasm:useasm.obj
 0001:0001c470       ??_C@_0HP@FIJDICNA@The?5register?5bank?5for?5firh?5sourc@ 1001d470     useasm:useasm.obj
 0001:0001c4f0       ??_C@_0EG@FDFDPJHP@The?5register?5banks?5for?5source?50?5@ 1001d4f0     useasm:useasm.obj
 0001:0001c538       ??_C@_0CD@HKCNPMGG@Maximum?5repeat?5count?5on?5firh?5is?5@ 1001d538     useasm:useasm.obj
 0001:0001c55c       ??_C@_0DP@DKFIGMEP@The?5destination?5argument?5to?5firh@ 1001d55c     useasm:useasm.obj
 0001:0001c59c       ??_C@_0DF@BDOGECIG@The?5range?5of?5the?5nineth?5argument@ 1001d59c     useasm:useasm.obj
 0001:0001c5d4       ??_C@_0DI@PJONGPDL@The?5nineth?5argument?5to?5firhh?5mus@ 1001d5d4     useasm:useasm.obj
 0001:0001c60c       ??_C@_0DG@KGIDPMLA@The?5range?5of?5the?5eighth?5argument@ 1001d60c     useasm:useasm.obj
 0001:0001c644       ??_C@_0DI@LLOOLALL@The?5eighth?5argument?5to?5firhh?5mus@ 1001d644     useasm:useasm.obj
 0001:0001c67c       ??_C@_0DO@EEFEJEHK@The?5seventh?5argument?5to?5firhh?5mu@ 1001d67c     useasm:useasm.obj
 0001:0001c6bc       ??_C@_0DL@OHNCDOMJ@The?5sixth?5argument?5to?5firhh?5must@ 1001d6bc     useasm:useasm.obj
 0001:0001c6f8       ??_C@_0DD@MDIEJBGI@No?5flags?5are?5valid?5for?5the?5fifth@ 1001d6f8     useasm:useasm.obj
 0001:0001c72c       ??_C@_0CM@DLIOMDAE@The?5fifth?5argument?5to?5firhh?5isn?8@ 1001d72c     useasm:useasm.obj
 0001:0001c758       ??_C@_0DO@NGNIOBOG@The?5fifth?5argument?5to?5firhh?5must@ 1001d758     useasm:useasm.obj
 0001:0001c798       ??_C@_0IA@FCFJDLLG@The?5register?5bank?5for?5firhh?5sour@ 1001d798     useasm:useasm.obj
 0001:0001c818       ??_C@_0EH@HPAOOKCK@The?5register?5banks?5for?5source?50?5@ 1001d818     useasm:useasm.obj
 0001:0001c860       ??_C@_0CE@BFKJCNOD@Maximum?5repeat?5count?5on?5firhh?5is@ 1001d860     useasm:useasm.obj
 0001:0001c884       ??_C@_0CI@CPDCNICP@firhh?5isn?8t?5available?5on?5this?5pr@ 1001d884     useasm:useasm.obj
 0001:0001c8ac       ??_C@_0DK@PJMBECMK@On?5this?5core?5SMP?5result?5format?5c@ 1001d8ac     useasm:useasm.obj
 0001:0001c8e8       ??_C@_0DJ@PFEOBFIJ@Valid?5values?5for?5argument?5?$CFd?5to?5@ 1001d8e8     useasm:useasm.obj
 0001:0001c924       ??_C@_0CL@ONLJAILI@The?5maximum?5number?5of?5a?5drc?5regi@ 1001d924     useasm:useasm.obj
 0001:0001c950       ??_C@_0DJ@KMKOLKOO@No?5flags?5are?5valid?5for?5a?5depende@ 1001d950     useasm:useasm.obj
 0001:0001c990       ??_C@_0EE@BEFGELHF@A?5dependent?5read?5counter?5registe@ 1001d990     useasm:useasm.obj
 0001:0001c9d8       ??_C@_0FI@CPMJEANO@The?5fourth?5argument?5to?5a?5sampler@ 1001d9d8     useasm:useasm.obj
 0001:0001ca30       ??_C@_0FD@LADDBKEH@The?5destination?5for?5a?5SMP?5must?5b@ 1001da30     useasm:useasm.obj
 0001:0001ca84       ??_C@_0CM@KHPAMMAK@The?5destination?5for?5an?5SMP?5can?8t@ 1001da84     useasm:useasm.obj
 0001:0001cab0       ??_C@_0DC@EEBJMIBO@A?5?$CFs?5instruction?5can?8t?5be?5predic@ 1001dab0     useasm:useasm.obj
 0001:0001cae4       ??_C@_0DC@OJMFLOPA@A?5repeat?5count?5isn?8t?5supported?5o@ 1001dae4     useasm:useasm.obj
 0001:0001cb18       ??_C@_0FD@KGBKPKPH@The?5last?5argument?5to?5a?5load?5inst@ 1001db18     useasm:useasm.obj
 0001:0001cb6c       ??_C@_0CL@NHIEGIGG@The?5destination?5for?5an?5LD?5can?8t?5@ 1001db6c     useasm:useasm.obj
 0001:0001cb98       ??_C@_0FD@DHDGKGAN@The?5destination?5for?5an?5LD?5must?5b@ 1001db98     useasm:useasm.obj
 0001:0001cbec       ??_C@_0DD@ECJPHDDF@A?5load?1store?5can?8t?5be?5both?5pre?9?5@ 1001dbec     useasm:useasm.obj
 0001:0001cc20       ??_C@_0FC@LJJNHLCE@?$CFs?5can?8t?5be?5used?5with?5non?9pre?1po@ 1001dc20     useasm:useasm.obj
 0001:0001cc78       ??_C@_0EN@GCEEDLLB@Pre?1post?9increment?5can?8t?5be?5spec@ 1001dc78     useasm:useasm.obj
 0001:0001ccc8       ??_C@_0ED@IMFMHAAP@Source?51?5can?8t?5be?5immediate?5for?5@ 1001dcc8     useasm:useasm.obj
 0001:0001cd0c       ??_C@_0CA@BFMOGGHL@?$CFs?5isn?8t?5supported?5on?5this?5core?$AA@ 1001dd0c     useasm:useasm.obj
 0001:0001cd2c       ??_C@_0DC@DNHACGFH@?4fcfill?5and?5?4bypassl1?5can?8t?5be?5s@ 1001dd2c     useasm:useasm.obj
 0001:0001cd60       ??_C@_0DD@BEGMGHDH@?4bpcache?5and?5?4bypassl1?5can?8t?5be?5@ 1001dd60     useasm:useasm.obj
 0001:0001cd94       ??_C@_0DB@JCFACDNN@?4bpcache?5and?5?4fcfill?5can?8t?5be?5sp@ 1001dd94     useasm:useasm.obj
 0001:0001cdc8       ??_C@_0CJ@NLADGPEP@The?5argument?5to?5a?5branch?5must?5be@ 1001ddc8     useasm:useasm.obj
 0001:0001cdf4       ??_C@_0DD@COOIGJEM@Pn?5isn?8t?5a?5valid?5predicate?5for?5b@ 1001ddf4     useasm:useasm.obj
 0001:0001ce28       ??_C@_0DI@LKENEFMD@Only?5drc0?5can?5be?5used?5with?5PBE?5d@ 1001de28     useasm:useasm.obj
 0001:0001ce60       ??_C@_0BL@DDAKDDCD@Invalid?5data?5path?5selector?$AA@ 1001de60     useasm:useasm.obj
 0001:0001ce7c       ??_C@_0CM@EIBHGDCN@No?5flags?5are?5valid?5for?5a?5data?5pa@ 1001de7c     useasm:useasm.obj
 0001:0001cea8       ??_C@_0CG@LCIGPPNF@A?5data?5path?5selector?5is?5not?5inde@ 1001dea8     useasm:useasm.obj
 0001:0001ced0       ??_C@_0DI@IKADLPJL@The?5second?5argument?5to?5idf?5must?5@ 1001ded0     useasm:useasm.obj
 0001:0001cf08       ??_C@_0CG@BCCKICBA@The?5maximum?5drc?5register?5number?5@ 1001df08     useasm:useasm.obj
 0001:0001cf30       ??_C@_0CG@NKPGJMIA@No?5flags?5are?5valid?5for?5a?5drc?5reg@ 1001df30     useasm:useasm.obj
 0001:0001cf58       ??_C@_0CA@BNCKADBN@A?5drc?5register?5is?5not?5indexable?$AA@ 1001df58     useasm:useasm.obj
 0001:0001cf78       ??_C@_0DB@EIJIPLBA@The?5first?5argument?5to?5idf?5must?5b@ 1001df78     useasm:useasm.obj
 0001:0001cfac       ??_C@_0CL@HOIKEHND@The?5argument?5to?5wdf?5must?5be?5a?5dr@ 1001dfac     useasm:useasm.obj
 0001:0001cfd8       ??_C@_0DI@ECFOFJCH@The?5last?5argument?5to?5an?5emit?5mus@ 1001dfd8     useasm:useasm.obj
 0001:0001d010       ??_C@_0EE@FPKMHEIB@The?5maximum?5immediate?5value?5for?5@ 1001e010     useasm:useasm.obj
 0001:0001d054       ??_C@_0DJ@EENABCEN@The?5first?5argument?5to?5an?5emit?5mu@ 1001e054     useasm:useasm.obj
 0001:0001d090       ??_C@_0CF@OIPADGLP@?$CFs?5isn?8t?5supported?5on?5this?5proce@ 1001e090     useasm:useasm.obj
 0001:0001d0b8       ??_C@_0CL@BLKOKIML@No?5flags?5are?5valid?5for?5argument?5@ 1001e0b8     useasm:useasm.obj
 0001:0001d0e8       ??_C@_0FK@GPIOMEID@Argument?5?$CFd?5to?5smoa?5is?5not?5a?5leg@ 1001e0e8     useasm:useasm.obj
 0001:0001d144       ??_C@_0CM@OICCJGCF@Argument?5?$CFd?5to?5smoa?5must?5be?5an?5a@ 1001e144     useasm:useasm.obj
 0001:0001d170       ??_C@_0CL@BPCDNEHJ@No?5flags?5are?5valid?5for?5argument?5@ 1001e170     useasm:useasm.obj
 0001:0001d19c       ??_C@_0CF@KHLJFLDD@Argument?5?$CFd?5to?5smoa?5can?8t?5be?5ind@ 1001e19c     useasm:useasm.obj
 0001:0001d1c8       ??_C@_0EB@LMPOCDMD@Argument?5?$CFd?5to?5smoa?5is?5out?5of?5ra@ 1001e1c8     useasm:useasm.obj
 0001:0001d20c       ??_C@_0CP@JENPMIGB@Argument?5?$CFd?5to?5smoa?5must?5be?5an?5i@ 1001e20c     useasm:useasm.obj
 0001:0001d240       ??_C@_0EI@CHCGIOOA@Loading?5the?5MOE?5state?5from?5regis@ 1001e240     useasm:useasm.obj
 0001:0001d288       ??_C@_0DA@OPFKEKGA@Argument?5?$CFd?5to?5smlsi?5should?5be?5a@ 1001e288     useasm:useasm.obj
 0001:0001d2b8       ??_C@_0EG@BJPEDDED@Argument?5?$CFd?5to?5smlsi?5is?5out?5of?5r@ 1001e2b8     useasm:useasm.obj
 0001:0001d300       ??_C@_0DA@FCAKILOF@Argument?5?$CFd?5to?5smlsi?5must?5be?5an?5@ 1001e300     useasm:useasm.obj
 0001:0001d330       ??_C@_0CM@LFIFLNIO@No?5flags?5are?5valid?5for?5argument?5@ 1001e330     useasm:useasm.obj
 0001:0001d35c       ??_C@_0CG@PJFPKLPN@Argument?5?$CFd?5to?5smlsi?5can?8t?5be?5in@ 1001e35c     useasm:useasm.obj
 0001:0001d384       ??_C@_0DP@NNLBIBNI@Argument?5?$CFd?5to?5smlsi?5is?5out?5of?5r@ 1001e384     useasm:useasm.obj
 0001:0001d3c4       ??_C@_0CL@MJEEEJFH@Argument?5?$CFd?5to?5smlsi?5isn?8t?5a?5val@ 1001e3c4     useasm:useasm.obj
 0001:0001d3f0       ??_C@_0DM@BDMFEIMC@Argument?5?$CFd?5uses?5component?5selec@ 1001e3f0     useasm:useasm.obj
 0001:0001d42c       ??_C@_0DN@CBDPLAND@Argument?5?$CFd?5to?5smlsi?5must?5be?5an?5@ 1001e42c     useasm:useasm.obj
 0001:0001d470       ??_C@_0EH@PIBJEHLO@Loading?5the?5MOE?5state?5from?5regis@ 1001e470     useasm:useasm.obj
 0001:0001d4b8       ??_C@_0CJ@GGNGAINM@No?5flags?5are?5valid?5for?5argument?5@ 1001e4b8     useasm:useasm.obj
 0001:0001d4e4       ??_C@_0CD@DAICKOIL@Argument?5?$CFd?5to?5?$CFs?5can?8t?5be?5index@ 1001e4e4     useasm:useasm.obj
 0001:0001d508       ??_C@_0DL@DAGJDBAJ@Argument?5?$CFd?5to?5?$CFs?5is?5out?5of?5rang@ 1001e508     useasm:useasm.obj
 0001:0001d544       ??_C@_0DN@OPLIFLFN@Argument?5?$CFd?5to?5imo?5is?5out?5of?5ran@ 1001e544     useasm:useasm.obj
 0001:0001d584       ??_C@_0DH@LBKJPHME@Argument?5?$CFd?5to?5smr?1smbo?1imo?5must@ 1001e584     useasm:useasm.obj
 0001:0001d5c0       ??_C@_0EC@LGDHIHKO@Loading?5the?5MOE?5state?5from?5regis@ 1001e5c0     useasm:useasm.obj
 0001:0001d604       ??_C@_0CM@PAFKAACO@No?5flags?5are?5valid?5for?5argument?5@ 1001e604     useasm:useasm.obj
 0001:0001d630       ??_C@_0CG@JIFDPGCJ@Argument?5?$CFd?5to?5setfc?5can?8t?5be?5in@ 1001e630     useasm:useasm.obj
 0001:0001d658       ??_C@_0DA@FIKLGADO@Argument?5?$CFd?5to?5setfc?5is?5must?5be?5@ 1001e658     useasm:useasm.obj
 0001:0001d688       ??_C@_0DA@PNIDFAOJ@Argument?5?$CFd?5to?5setfc?5must?5be?5an?5@ 1001e688     useasm:useasm.obj
 0001:0001d6b8       ??_C@_0DC@IGFMAGID@Only?5?$CFd?5mutex?$CIes?$CJ?5are?5supported?5@ 1001e6b8     useasm:useasm.obj
 0001:0001d6ec       ??_C@_0CE@FKFABDHJ@An?5immediate?5value?5can?8t?5be?5inde@ 1001e6ec     useasm:useasm.obj
 0001:0001d710       ??_C@_0CK@FKJKMHCB@No?5flags?5are?5valid?5for?5the?5argum@ 1001e710     useasm:useasm.obj
 0001:0001d73c       ??_C@_0CI@GKLFIIMC@The?5argument?5to?5?$CFs?5must?5be?5an?5im@ 1001e73c     useasm:useasm.obj
 0001:0001d764       ??_C@_0DB@KGKPELKC@The?5third?5argument?5to?5ldr?5must?5b@ 1001e764     useasm:useasm.obj
 0001:0001d798       ??_C@_0EP@HFAIINHO@The?5destination?5for?5ldr?5must?5be?5@ 1001e798     useasm:useasm.obj
 0001:0001d7e8       ??_C@_0CJ@PBDIHBBP@The?5destination?5for?5ldr?5can?8t?5be@ 1001e7e8     useasm:useasm.obj
 0001:0001d818       ??_C@_0EI@IMBJAMEN@The?5maximum?5immediate?5value?5for?5@ 1001e818     useasm:useasm.obj
 0001:0001d860       ??_C@_0DP@EOJFCBDD@The?5seventh?5argument?5to?5atst8?5mu@ 1001e860     useasm:useasm.obj
 0001:0001d8a0       ??_C@_0DC@GPFGCALA@An?5integer?5source?5selector?5value@ 1001e8a0     useasm:useasm.obj
 0001:0001d8d4       ??_C@_0DM@KLBODCDM@The?5sixth?5argument?5to?5atst8?5must@ 1001e8d4     useasm:useasm.obj
 0001:0001d910       ??_C@_0EF@HHNKPNHB@No?5flags?5except?5disable?5writebac@ 1001e910     useasm:useasm.obj
 0001:0001d958       ??_C@_0CG@EAILMAJF@A?5predicate?5register?5is?5not?5inde@ 1001e958     useasm:useasm.obj
 0001:0001d980       ??_C@_0DP@IJEBNLPN@The?5destination?5argument?5to?5atst@ 1001e980     useasm:useasm.obj
 0001:0001d9c0       ??_C@_0DJ@CANNFGLC@The?5fifth?5argument?5to?5depthf?5mus@ 1001e9c0     useasm:useasm.obj
 0001:0001d9fc       ??_C@_0DO@JJIFGFHO@The?5fourth?5argument?5to?5depthf?5mu@ 1001e9fc     useasm:useasm.obj
 0001:0001da3c       ??_C@_0DG@DJLDOPBE@The?5maximum?5monitor?5supported?5on@ 1001ea3c     useasm:useasm.obj
 0001:0001da74       ??_C@_0CM@EANNIMNI@Monitors?5aren?8t?5supported?5on?5thi@ 1001ea74     useasm:useasm.obj
 0001:0001daa0       ??_C@_0DA@NGKNOLIJ@The?5argument?5to?5setm?5must?5be?5an?5@ 1001eaa0     useasm:useasm.obj
 0001:0001dad0       ??_C@_0CK@FLEIDBJB@The?5maximum?5immediate?5value?5for?5@ 1001ead0     useasm:useasm.obj
 0001:0001dafc       ??_C@_0CP@KDAJINNH@The?5argument?5to?5wop?5must?5be?5an?5i@ 1001eafc     useasm:useasm.obj
 0001:0001db2c       ??_C@_0BI@KBNBGPKO@Label?5?$CFs?5is?5not?5defined?$AA@ 1001eb2c     useasm:useasm.obj
 0001:0001db48       ??_C@_0EE@MEDKEMKO@CreateParseContext?3?5Failed?5to?5al@ 1001eb48     glsl_parser:parser.obj
 0001:0001db8c       ??_C@_0DO@NDKBAPBP@CreateParseContext?3?5Failed?5to?5al@ 1001eb8c     glsl_parser:parser.obj
 0001:0001dbcc       ??_C@_0BE@KNJNECJD@function_definition?$AA@ 1001ebcc     glsl_parser:glsl_parser.tab.obj
 0001:0001dbe0       ??_C@_0BO@DFALOJMH@function_definition_prototype?$AA@ 1001ebe0     glsl_parser:glsl_parser.tab.obj
 0001:0001dc00       ??_C@_0BF@JGOEDDOG@external_declaration?$AA@ 1001ec00     glsl_parser:glsl_parser.tab.obj
 0001:0001dc18       ??_C@_0BB@LILDMDFP@translation_unit?$AA@ 1001ec18     glsl_parser:glsl_parser.tab.obj
 0001:0001dc2c       ??_C@_0P@GNCMIDFA@jump_statement?$AA@ 1001ec2c     glsl_parser:glsl_parser.tab.obj
 0001:0001dc3c       ??_C@_0N@KGGJADFH@conditionopt?$AA@ 1001ec3c     glsl_parser:glsl_parser.tab.obj
 0001:0001dc4c       ??_C@_05LBJMNBOG@empty?$AA@ 1001ec4c     glsl_parser:glsl_parser.tab.obj
 0001:0001dc54       ??_C@_0BD@IHALMCGL@for_loop_statement?$AA@ 1001ec54     glsl_parser:glsl_parser.tab.obj
 0001:0001dc68       ??_C@_0BD@BALAOPA@for_cond_statement?$AA@ 1001ec68     glsl_parser:glsl_parser.tab.obj
 0001:0001dc7c       ??_C@_0BD@IKGAHJDE@for_init_statement?$AA@ 1001ec7c     glsl_parser:glsl_parser.tab.obj
 0001:0001dc90       ??_C@_0BE@ELMIDPOM@loop_decrease_scope?$AA@ 1001ec90     glsl_parser:glsl_parser.tab.obj
 0001:0001dca4       ??_C@_0BE@PIPOHGAN@loop_increase_scope?$AA@ 1001eca4     glsl_parser:glsl_parser.tab.obj
 0001:0001dcb8       ??_C@_0BE@LHIHOAMA@iteration_statement?$AA@ 1001ecb8     glsl_parser:glsl_parser.tab.obj
 0001:0001dccc       ??_C@_09MCJFNGNA@condition?$AA@ 1001eccc     glsl_parser:glsl_parser.tab.obj
 0001:0001dcd8       ??_C@_0BJ@OCNNELEL@selection_rest_statement?$AA@ 1001ecd8     glsl_parser:glsl_parser.tab.obj
 0001:0001dcf4       ??_C@_0BL@OJIFNPGA@selection_rest_statement_a?$AA@ 1001ecf4     glsl_parser:glsl_parser.tab.obj
 0001:0001dd10       ??_C@_0CD@NNJKDBOH@selection_statement_increase_sco@ 1001ed10     glsl_parser:glsl_parser.tab.obj
 0001:0001dd34       ??_C@_0BE@IMJEIIDB@selection_statement?$AA@ 1001ed34     glsl_parser:glsl_parser.tab.obj
 0001:0001dd48       ??_C@_0BF@HJFNGLOG@expression_statement?$AA@ 1001ed48     glsl_parser:glsl_parser.tab.obj
 0001:0001dd60       ??_C@_0P@MBPAMDP@statement_list?$AA@ 1001ed60     glsl_parser:glsl_parser.tab.obj
 0001:0001dd70       ??_C@_0CA@GAKKJFCN@compound_statement_no_new_scope?$AA@ 1001ed70     glsl_parser:glsl_parser.tab.obj
 0001:0001dd90       ??_C@_0BH@IGLAMNFJ@statement_no_new_scope?$AA@ 1001ed90     glsl_parser:glsl_parser.tab.obj
 0001:0001dda8       ??_C@_0BD@IGPHHKLG@compound_statement?$AA@ 1001eda8     glsl_parser:glsl_parser.tab.obj
 0001:0001ddbc       ??_C@_0CC@OAMECGJO@compound_statement_TOK_LEFT_BRAC@ 1001edbc     glsl_parser:glsl_parser.tab.obj
 0001:0001dde0       ??_C@_0L@CKMMJKMB@case_label?$AA@ 1001ede0     glsl_parser:glsl_parser.tab.obj
 0001:0001ddec       ??_C@_0BG@HIIEAHGB@switch_statement_list?$AA@ 1001edec     glsl_parser:glsl_parser.tab.obj
 0001:0001de04       ??_C@_0BB@BKCBLDCM@switch_statement?$AA@ 1001ee04     glsl_parser:glsl_parser.tab.obj
 0001:0001de18       ??_C@_0BM@BBADANPF@switch_statement_expression?$AA@ 1001ee18     glsl_parser:glsl_parser.tab.obj
 0001:0001de34       ??_C@_0BB@PGILEFLK@simple_statement?$AA@ 1001ee34     glsl_parser:glsl_parser.tab.obj
 0001:0001de48       ??_C@_09JEFLBPCK@statement?$AA@ 1001ee48     glsl_parser:glsl_parser.tab.obj
 0001:0001de54       ??_C@_0BG@KGFPFGBC@declaration_statement?$AA@ 1001ee54     glsl_parser:glsl_parser.tab.obj
 0001:0001de6c       ??_C@_0M@ONCIBLMP@initializer?$AA@ 1001ee6c     glsl_parser:glsl_parser.tab.obj
 0001:0001de78       ??_C@_0BC@EFHKCMDL@struct_declarator?$AA@ 1001ee78     glsl_parser:glsl_parser.tab.obj
 0001:0001de8c       ??_C@_0BH@BCKNDNML@struct_declarator_list?$AA@ 1001ee8c     glsl_parser:glsl_parser.tab.obj
 0001:0001dea4       ??_C@_0BD@HLKFLKNO@struct_declaration?$AA@ 1001eea4     glsl_parser:glsl_parser.tab.obj
 0001:0001deb8       ??_C@_0BI@KNKCKCGM@struct_declaration_list?$AA@ 1001eeb8     glsl_parser:glsl_parser.tab.obj
 0001:0001ded0       ??_C@_0BD@ENHHANAO@TOK_IDENTIFIER_opt?$AA@ 1001eed0     glsl_parser:glsl_parser.tab.obj
 0001:0001dee4       ??_C@_0BB@FGHGIEGH@struct_specifier?$AA@ 1001eee4     glsl_parser:glsl_parser.tab.obj
 0001:0001def8       ??_C@_0BE@BNLAHPAL@precision_qualifier?$AA@ 1001eef8     glsl_parser:glsl_parser.tab.obj
 0001:0001df0c       ??_C@_0BB@BLAIAKKP@type_specifier_e?$AA@ 1001ef0c     glsl_parser:glsl_parser.tab.obj
 0001:0001df20       ??_C@_0BH@JCFJPMOL@type_specifier_no_prec?$AA@ 1001ef20     glsl_parser:glsl_parser.tab.obj
 0001:0001df38       ??_C@_0P@OCEMDCAM@type_specifier?$AA@ 1001ef38     glsl_parser:glsl_parser.tab.obj
 0001:0001df48       ??_C@_0P@NOCMNJGN@type_qualifier?$AA@ 1001ef48     glsl_parser:glsl_parser.tab.obj
 0001:0001df58       ??_C@_0BF@GKLBPLN@fully_specified_type?$AA@ 1001ef58     glsl_parser:glsl_parser.tab.obj
 0001:0001df70       ??_C@_0BA@EDEMFGJF@array_specifier?$AA@ 1001ef70     glsl_parser:glsl_parser.tab.obj
 0001:0001df80       ??_C@_0BE@JHBCDIFK@array_specifier_opt?$AA@ 1001ef80     glsl_parser:glsl_parser.tab.obj
 0001:0001df94       ??_C@_0BA@HLBPOJED@initializer_opt?$AA@ 1001ef94     glsl_parser:glsl_parser.tab.obj
 0001:0001dfa4       ??_C@_0BD@OKFGNNHL@single_declaration?$AA@ 1001efa4     glsl_parser:glsl_parser.tab.obj
 0001:0001dfb8       ??_C@_0BF@FMJPKMMI@init_declarator_list?$AA@ 1001efb8     glsl_parser:glsl_parser.tab.obj
 0001:0001dfd0       ??_C@_0BF@KKCDJDPH@parameter_declarator?$AA@ 1001efd0     glsl_parser:glsl_parser.tab.obj
 0001:0001dfe8       ??_C@_0BI@PIOELBFB@parameter_qualifier_opt?$AA@ 1001efe8     glsl_parser:glsl_parser.tab.obj
 0001:0001e000       ??_C@_0BN@GKIIGCHI@parameter_type_qualifier_opt?$AA@ 1001f000     glsl_parser:glsl_parser.tab.obj
 0001:0001e020       ??_C@_0BG@OJJIGNPK@parameter_declaration?$AA@ 1001f020     glsl_parser:glsl_parser.tab.obj
 0001:0001e038       ??_C@_0BA@CPMNBODN@function_header?$AA@ 1001f038     glsl_parser:glsl_parser.tab.obj
 0001:0001e048       ??_C@_0CA@CAGBECJG@function_header_with_parameters?$AA@ 1001f048     glsl_parser:glsl_parser.tab.obj
 0001:0001e068       ??_C@_0BE@NMLHEBOE@function_declarator?$AA@ 1001f068     glsl_parser:glsl_parser.tab.obj
 0001:0001e07c       ??_C@_0BD@OHDMFJAE@function_prototype?$AA@ 1001f07c     glsl_parser:glsl_parser.tab.obj
 0001:0001e090       ??_C@_0M@FIONBADE@declaration?$AA@ 1001f090     glsl_parser:glsl_parser.tab.obj
 0001:0001e09c       ??_C@_0BE@NMHAKMIL@constant_expression?$AA@ 1001f09c     glsl_parser:glsl_parser.tab.obj
 0001:0001e0b0       ??_C@_0L@FKCCBALC@expression?$AA@ 1001f0b0     glsl_parser:glsl_parser.tab.obj
 0001:0001e0bc       ??_C@_0BE@HKIGABIE@assignment_operator?$AA@ 1001f0bc     glsl_parser:glsl_parser.tab.obj
 0001:0001e0d0       ??_C@_0BG@EMHAHMJD@assignment_expression?$AA@ 1001f0d0     glsl_parser:glsl_parser.tab.obj
 0001:0001e0e8       ??_C@_0CI@BIGNBHCM@TOK_QUESTION_increase_conditiona@ 1001f0e8     glsl_parser:glsl_parser.tab.obj
 0001:0001e110       ??_C@_0BH@MLEFJHMG@conditional_expression?$AA@ 1001f110     glsl_parser:glsl_parser.tab.obj
 0001:0001e128       ??_C@_0BG@JJHOGFCA@logical_or_expression?$AA@ 1001f128     glsl_parser:glsl_parser.tab.obj
 0001:0001e140       ??_C@_0BH@OACEPLLI@logical_xor_expression?$AA@ 1001f140     glsl_parser:glsl_parser.tab.obj
 0001:0001e158       ??_C@_0BH@FLNJOLOJ@logical_and_expression?$AA@ 1001f158     glsl_parser:glsl_parser.tab.obj
 0001:0001e170       ??_C@_0BI@OIAOCOFB@inclusive_or_expression?$AA@ 1001f170     glsl_parser:glsl_parser.tab.obj
 0001:0001e188       ??_C@_0BI@LPLNHIIG@exclusive_or_expression?$AA@ 1001f188     glsl_parser:glsl_parser.tab.obj
 0001:0001e1a0       ??_C@_0P@NKFAJDKO@and_expression?$AA@ 1001f1a0     glsl_parser:glsl_parser.tab.obj
 0001:0001e1b0       ??_C@_0BE@GGGBNBNB@equality_expression?$AA@ 1001f1b0     glsl_parser:glsl_parser.tab.obj
 0001:0001e1c4       ??_C@_0BG@PBKNPFNE@relational_expression?$AA@ 1001f1c4     glsl_parser:glsl_parser.tab.obj
 0001:0001e1dc       ??_C@_0BB@PBMHJCKA@shift_expression?$AA@ 1001f1dc     glsl_parser:glsl_parser.tab.obj
 0001:0001e1f0       ??_C@_0BE@HIECFDAC@additive_expression?$AA@ 1001f1f0     glsl_parser:glsl_parser.tab.obj
 0001:0001e204       ??_C@_0BK@CBMFFKFE@multiplicative_expression?$AA@ 1001f204     glsl_parser:glsl_parser.tab.obj
 0001:0001e220       ??_C@_0P@CCLGABKH@unary_operator?$AA@ 1001f220     glsl_parser:glsl_parser.tab.obj
 0001:0001e230       ??_C@_0BB@PCNJFDMC@unary_expression?$AA@ 1001f230     glsl_parser:glsl_parser.tab.obj
 0001:0001e244       ??_C@_0BE@IIONIOJP@function_identifier?$AA@ 1001f244     glsl_parser:glsl_parser.tab.obj
 0001:0001e258       ??_C@_0BF@CBOIKBAL@function_call_header?$AA@ 1001f258     glsl_parser:glsl_parser.tab.obj
 0001:0001e270       ??_C@_0CF@OHGBOGGD@function_call_header_with_parame@ 1001f270     glsl_parser:glsl_parser.tab.obj
 0001:0001e298       ??_C@_0CD@JBIMIMKJ@function_call_header_no_paramete@ 1001f298     glsl_parser:glsl_parser.tab.obj
 0001:0001e2bc       ??_C@_0BG@BBIIKDDD@function_call_generic?$AA@ 1001f2bc     glsl_parser:glsl_parser.tab.obj
 0001:0001e2d4       ??_C@_0O@KAGEJL@function_call?$AA@ 1001f2d4     glsl_parser:glsl_parser.tab.obj
 0001:0001e2e4       ??_C@_0BD@LBCGKLCL@integer_expression?$AA@ 1001f2e4     glsl_parser:glsl_parser.tab.obj
 0001:0001e2f8       ??_C@_0BA@DIFEJLLB@field_selection?$AA@ 1001f2f8     glsl_parser:glsl_parser.tab.obj
 0001:0001e308       ??_C@_0BD@FCPJEELK@postfix_expression?$AA@ 1001f308     glsl_parser:glsl_parser.tab.obj
 0001:0001e31c       ??_C@_0BD@POMNHADD@primary_expression?$AA@ 1001f31c     glsl_parser:glsl_parser.tab.obj
 0001:0001e330       ??_C@_0BE@ELFFDGBH@variable_identifier?$AA@ 1001f330     glsl_parser:glsl_parser.tab.obj
 0001:0001e344       ??_C@_07IJIIKIJB@$accept?$AA@ 1001f344     glsl_parser:glsl_parser.tab.obj
 0001:0001e34c       ??_C@_0N@KKADOOAG@TOK_HASHHASH?$AA@ 1001f34c     glsl_parser:glsl_parser.tab.obj
 0001:0001e35c       ??_C@_09ICOHPBMG@TOK_UVEC4?$AA@ 1001f35c     glsl_parser:glsl_parser.tab.obj
 0001:0001e368       ??_C@_09MNKGGHAB@TOK_UVEC3?$AA@ 1001f368     glsl_parser:glsl_parser.tab.obj
 0001:0001e374       ??_C@_09NELNFGEA@TOK_UVEC2?$AA@ 1001f374     glsl_parser:glsl_parser.tab.obj
 0001:0001e380       ??_C@_08MPBNNPFN@TOK_UINT?$AA@ 1001f380     glsl_parser:glsl_parser.tab.obj
 0001:0001e38c       ??_C@_0BE@OLBCLMDM@TOK_USAMPLER2DARRAY?$AA@ 1001f38c     glsl_parser:glsl_parser.tab.obj
 0001:0001e3a0       ??_C@_0BE@GFJNLLNP@TOK_USAMPLER1DARRAY?$AA@ 1001f3a0     glsl_parser:glsl_parser.tab.obj
 0001:0001e3b4       ??_C@_0BB@KPEMPKJM@TOK_USAMPLERCUBE?$AA@ 1001f3b4     glsl_parser:glsl_parser.tab.obj
 0001:0001e3c8       ??_C@_0P@BHJELLBG@TOK_USAMPLER3D?$AA@ 1001f3c8     glsl_parser:glsl_parser.tab.obj
 0001:0001e3d8       ??_C@_0P@BGFGNBCB@TOK_USAMPLER2D?$AA@ 1001f3d8     glsl_parser:glsl_parser.tab.obj
 0001:0001e3e8       ??_C@_0P@BEBAGPHI@TOK_USAMPLER1D?$AA@ 1001f3e8     glsl_parser:glsl_parser.tab.obj
 0001:0001e3f8       ??_C@_0BE@KKBHFBGK@TOK_ISAMPLER2DARRAY?$AA@ 1001f3f8     glsl_parser:glsl_parser.tab.obj
 0001:0001e40c       ??_C@_0BE@CEJIFGIJ@TOK_ISAMPLER1DARRAY?$AA@ 1001f40c     glsl_parser:glsl_parser.tab.obj
 0001:0001e420       ??_C@_0BB@IBPBOFLN@TOK_ISAMPLERCUBE?$AA@ 1001f420     glsl_parser:glsl_parser.tab.obj
 0001:0001e434       ??_C@_0P@LDHIONBK@TOK_ISAMPLER3D?$AA@ 1001f434     glsl_parser:glsl_parser.tab.obj
 0001:0001e444       ??_C@_0P@LCLKIHCN@TOK_ISAMPLER2D?$AA@ 1001f444     glsl_parser:glsl_parser.tab.obj
 0001:0001e454       ??_C@_0P@LAPMDJHE@TOK_ISAMPLER1D?$AA@ 1001f454     glsl_parser:glsl_parser.tab.obj
 0001:0001e464       ??_C@_0BJ@ELDCAIPC@TOK_SAMPLER2DARRAYSHADOW?$AA@ 1001f464     glsl_parser:glsl_parser.tab.obj
 0001:0001e480       ??_C@_0BJ@DHFDCNCJ@TOK_SAMPLER1DARRAYSHADOW?$AA@ 1001f480     glsl_parser:glsl_parser.tab.obj
 0001:0001e49c       ??_C@_0BD@IHOLHNAK@TOK_SAMPLER2DARRAY?$AA@ 1001f49c     glsl_parser:glsl_parser.tab.obj
 0001:0001e4b0       ??_C@_0BD@JGEHKOJ@TOK_SAMPLER1DARRAY?$AA@ 1001f4b0     glsl_parser:glsl_parser.tab.obj
 0001:0001e4c4       ??_C@_0BG@FDEPJCDD@TOK_SAMPLERCUBESHADOW?$AA@ 1001f4c4     glsl_parser:glsl_parser.tab.obj
 0001:0001e4dc       ??_C@_0BC@ELPOADKJ@TOK_NOPERSPECTIVE?$AA@ 1001f4dc     glsl_parser:glsl_parser.tab.obj
 0001:0001e4f0       ??_C@_0L@IFFOOCC@TOK_SMOOTH?$AA@ 1001f4f0     glsl_parser:glsl_parser.tab.obj
 0001:0001e4fc       ??_C@_0BF@MBCCNGKN@TOK_SAMPLERSTREAMIMG?$AA@ 1001f4fc     glsl_parser:glsl_parser.tab.obj
 0001:0001e514       ??_C@_0BF@BIFDMKPJ@TOK_TERMINATEPARSING?$AA@ 1001f514     glsl_parser:glsl_parser.tab.obj
 0001:0001e52c       ??_C@_0BA@IDLPEB@TOK_ENDOFSTRING?$AA@ 1001f52c     glsl_parser:glsl_parser.tab.obj
 0001:0001e53c       ??_C@_0L@HLOILPH@TOK_STRING?$AA@ 1001f53c     glsl_parser:glsl_parser.tab.obj
 0001:0001e548       ??_C@_0BF@CIJEEGCH@TOK_EXTENSION_CHANGE?$AA@ 1001f548     glsl_parser:glsl_parser.tab.obj
 0001:0001e560       ??_C@_0BF@EJLNCIGN@TOK_LANGUAGE_VERSION?$AA@ 1001f560     glsl_parser:glsl_parser.tab.obj
 0001:0001e578       ??_C@_08DNAKNICF@TOK_VTAB?$AA@ 1001f578     glsl_parser:glsl_parser.tab.obj
 0001:0001e584       ??_C@_07NBFGCIAK@TOK_TAB?$AA@ 1001f584     glsl_parser:glsl_parser.tab.obj
 0001:0001e58c       ??_C@_0BD@NMMDFGNM@TOK_CARRIGE_RETURN?$AA@ 1001f58c     glsl_parser:glsl_parser.tab.obj
 0001:0001e5a0       ??_C@_0M@ICOMMMAB@TOK_NEWLINE?$AA@ 1001f5a0     glsl_parser:glsl_parser.tab.obj
 0001:0001e5ac       ??_C@_0BC@KAJDPCON@TOK_PROGRAMHEADER?$AA@ 1001f5ac     glsl_parser:glsl_parser.tab.obj
 0001:0001e5c0       ??_C@_0O@MBENACLK@TOK_TYPE_NAME?$AA@ 1001f5c0     glsl_parser:glsl_parser.tab.obj
 0001:0001e5d0       ??_C@_0P@INLHJPLP@TOK_IDENTIFIER?$AA@ 1001f5d0     glsl_parser:glsl_parser.tab.obj
 0001:0001e5e0       ??_C@_0BA@OLELMKHM@TOK_INTCONSTANT?$AA@ 1001f5e0     glsl_parser:glsl_parser.tab.obj
 0001:0001e5f0       ??_C@_0BB@FHHPBFHN@TOK_BOOLCONSTANT?$AA@ 1001f5f0     glsl_parser:glsl_parser.tab.obj
 0001:0001e604       ??_C@_0BC@IKPEMOLJ@TOK_FLOATCONSTANT?$AA@ 1001f604     glsl_parser:glsl_parser.tab.obj
 0001:0001e618       ??_C@_0P@LIMHGCBL@TOK_XOR_ASSIGN?$AA@ 1001f618     glsl_parser:glsl_parser.tab.obj
 0001:0001e628       ??_C@_0L@BNJLMLLH@TOK_XOR_OP?$AA@ 1001f628     glsl_parser:glsl_parser.tab.obj
 0001:0001e634       ??_C@_0P@HKKLGAP@TOK_SUB_ASSIGN?$AA@ 1001f634     glsl_parser:glsl_parser.tab.obj
 0001:0001e644       ??_C@_0N@FBGIBNOD@TOK_RIGHT_OP?$AA@ 1001f644     glsl_parser:glsl_parser.tab.obj
 0001:0001e654       ??_C@_0BB@DFFHAMKJ@TOK_RIGHT_ASSIGN?$AA@ 1001f654     glsl_parser:glsl_parser.tab.obj
 0001:0001e668       ??_C@_09OCAFJGMH@TOK_OR_OP?$AA@ 1001f668     glsl_parser:glsl_parser.tab.obj
 0001:0001e674       ??_C@_0O@HFFMDHHN@TOK_OR_ASSIGN?$AA@ 1001f674     glsl_parser:glsl_parser.tab.obj
 0001:0001e684       ??_C@_09PLJJAOPA@TOK_NE_OP?$AA@ 1001f684     glsl_parser:glsl_parser.tab.obj
 0001:0001e690       ??_C@_0P@DDOIICFA@TOK_MUL_ASSIGN?$AA@ 1001f690     glsl_parser:glsl_parser.tab.obj
 0001:0001e6a0       ??_C@_0P@LILMDBGJ@TOK_MOD_ASSIGN?$AA@ 1001f6a0     glsl_parser:glsl_parser.tab.obj
 0001:0001e6b0       ??_C@_0M@BLNGECGB@TOK_LEFT_OP?$AA@ 1001f6b0     glsl_parser:glsl_parser.tab.obj
 0001:0001e6bc       ??_C@_0BA@PJKIDACM@TOK_LEFT_ASSIGN?$AA@ 1001f6bc     glsl_parser:glsl_parser.tab.obj
 0001:0001e6cc       ??_C@_09LGFBKPPL@TOK_LE_OP?$AA@ 1001f6cc     glsl_parser:glsl_parser.tab.obj
 0001:0001e6d8       ??_C@_09NMJGFPDI@TOK_GE_OP?$AA@ 1001f6d8     glsl_parser:glsl_parser.tab.obj
 0001:0001e6e4       ??_C@_0L@EKOODBFK@TOK_INC_OP?$AA@ 1001f6e4     glsl_parser:glsl_parser.tab.obj
 0001:0001e6f0       ??_C@_09EDOMPHB@TOK_EQ_OP?$AA@ 1001f6f0     glsl_parser:glsl_parser.tab.obj
 0001:0001e6fc       ??_C@_0P@EMNJBFFM@TOK_DIV_ASSIGN?$AA@ 1001f6fc     glsl_parser:glsl_parser.tab.obj
 0001:0001e70c       ??_C@_0L@EBPOKAFJ@TOK_DEC_OP?$AA@ 1001f70c     glsl_parser:glsl_parser.tab.obj
 0001:0001e718       ??_C@_0L@MLCBKDCN@TOK_AND_OP?$AA@ 1001f718     glsl_parser:glsl_parser.tab.obj
 0001:0001e724       ??_C@_0P@FNGEMIJA@TOK_AND_ASSIGN?$AA@ 1001f724     glsl_parser:glsl_parser.tab.obj
 0001:0001e734       ??_C@_0P@EKEGFIFJ@TOK_ADD_ASSIGN?$AA@ 1001f734     glsl_parser:glsl_parser.tab.obj
 0001:0001e744       ??_C@_0P@EEJEKEGH@TOK_UNDERSCORE?$AA@ 1001f744     glsl_parser:glsl_parser.tab.obj
 0001:0001e754       ??_C@_0BA@LMLJPCAH@TOK_SPEECH_MARK?$AA@ 1001f754     glsl_parser:glsl_parser.tab.obj
 0001:0001e764       ??_C@_08GAFAMJPP@TOK_HASH?$AA@ 1001f764     glsl_parser:glsl_parser.tab.obj
 0001:0001e770       ??_C@_0L@BIDBKDBH@TOK_DOLLAR?$AA@ 1001f770     glsl_parser:glsl_parser.tab.obj
 0001:0001e77c       ??_C@_0P@PEINMEAB@TOK_BACK_SLASH?$AA@ 1001f77c     glsl_parser:glsl_parser.tab.obj
 0001:0001e78c       ??_C@_06FIMFFMJH@TOK_AT?$AA@ 1001f78c     glsl_parser:glsl_parser.tab.obj
 0001:0001e794       ??_C@_0P@CPOKGOPF@TOK_APOSTROPHE?$AA@ 1001f794     glsl_parser:glsl_parser.tab.obj
 0001:0001e7a4       ??_C@_0BB@GGMHFILC@TOK_VERTICAL_BAR?$AA@ 1001f7a4     glsl_parser:glsl_parser.tab.obj
 0001:0001e7b8       ??_C@_09IBAEPGIM@TOK_TILDA?$AA@ 1001f7b8     glsl_parser:glsl_parser.tab.obj
 0001:0001e7c4       ??_C@_08LPCIEFAE@TOK_STAR?$AA@ 1001f7c4     glsl_parser:glsl_parser.tab.obj
 0001:0001e7d0       ??_C@_09GOCAJPCF@TOK_SLASH?$AA@ 1001f7d0     glsl_parser:glsl_parser.tab.obj
 0001:0001e7dc       ??_C@_0O@BCBFNIAA@TOK_SEMICOLON?$AA@ 1001f7dc     glsl_parser:glsl_parser.tab.obj
 0001:0001e7ec       ??_C@_0BA@MBAOAPCL@TOK_RIGHT_PAREN?$AA@ 1001f7ec     glsl_parser:glsl_parser.tab.obj
 0001:0001e7fc       ??_C@_0BC@BLDNDDCP@TOK_RIGHT_BRACKET?$AA@ 1001f7fc     glsl_parser:glsl_parser.tab.obj
 0001:0001e810       ??_C@_0BA@NIFBMOB@TOK_RIGHT_BRACE?$AA@ 1001f810     glsl_parser:glsl_parser.tab.obj
 0001:0001e820       ??_C@_0BA@DGAMCN@TOK_RIGHT_ANGLE?$AA@ 1001f820     glsl_parser:glsl_parser.tab.obj
 0001:0001e830       ??_C@_0N@BMEMNBKP@TOK_QUESTION?$AA@ 1001f830     glsl_parser:glsl_parser.tab.obj
 0001:0001e840       ??_C@_08GPBBHKEJ@TOK_PLUS?$AA@ 1001f840     glsl_parser:glsl_parser.tab.obj
 0001:0001e84c       ??_C@_0M@CAEPHFNC@TOK_PERCENT?$AA@ 1001f84c     glsl_parser:glsl_parser.tab.obj
 0001:0001e858       ??_C@_0P@DCEFBPJP@TOK_LEFT_PAREN?$AA@ 1001f858     glsl_parser:glsl_parser.tab.obj
 0001:0001e868       ??_C@_0BB@IGCDLLLM@TOK_LEFT_BRACKET?$AA@ 1001f868     glsl_parser:glsl_parser.tab.obj
 0001:0001e87c       ??_C@_0P@POMOAMFF@TOK_LEFT_BRACE?$AA@ 1001f87c     glsl_parser:glsl_parser.tab.obj
 0001:0001e88c       ??_C@_0P@PDHNBMJJ@TOK_LEFT_ANGLE?$AA@ 1001f88c     glsl_parser:glsl_parser.tab.obj
 0001:0001e89c       ??_C@_09IHGKFPEC@TOK_EQUAL?$AA@ 1001f89c     glsl_parser:glsl_parser.tab.obj
 0001:0001e8a8       ??_C@_0L@NBNBNNDH@TOK_DOTDOT?$AA@ 1001f8a8     glsl_parser:glsl_parser.tab.obj
 0001:0001e8b4       ??_C@_07JHEJOHEI@TOK_DOT?$AA@ 1001f8b4     glsl_parser:glsl_parser.tab.obj
 0001:0001e8bc       ??_C@_08KFKACEPO@TOK_DASH?$AA@ 1001f8bc     glsl_parser:glsl_parser.tab.obj
 0001:0001e8c8       ??_C@_09JLFKMCCB@TOK_COLON?$AA@ 1001f8c8     glsl_parser:glsl_parser.tab.obj
 0001:0001e8d4       ??_C@_09KHPKGNOF@TOK_COMMA?$AA@ 1001f8d4     glsl_parser:glsl_parser.tab.obj
 0001:0001e8e0       ??_C@_09CJBGCDOB@TOK_CARET?$AA@ 1001f8e0     glsl_parser:glsl_parser.tab.obj
 0001:0001e8ec       ??_C@_08LJIGPNLC@TOK_BANG?$AA@ 1001f8ec     glsl_parser:glsl_parser.tab.obj
 0001:0001e8f8       ??_C@_0O@MOFFJEJO@TOK_AMPERSAND?$AA@ 1001f8f8     glsl_parser:glsl_parser.tab.obj
 0001:0001e908       ??_C@_0M@DLLLBCHL@TOK_COMMENT?$AA@ 1001f908     glsl_parser:glsl_parser.tab.obj
 0001:0001e914       ??_C@_0P@BEJBLACF@TOK_OUTCOMMENT?$AA@ 1001f914     glsl_parser:glsl_parser.tab.obj
 0001:0001e924       ??_C@_0O@FKLLJNIC@TOK_INCOMMENT?$AA@ 1001f924     glsl_parser:glsl_parser.tab.obj
 0001:0001e934       ??_C@_08PKMMGOG@TOK_BYTE?$AA@ 1001f934     glsl_parser:glsl_parser.tab.obj
 0001:0001e940       ??_C@_08MFAHDKKB@TOK_CHAR?$AA@ 1001f940     glsl_parser:glsl_parser.tab.obj
 0001:0001e94c       ??_C@_08KCCOIGKD@TOK_CASE?$AA@ 1001f94c     glsl_parser:glsl_parser.tab.obj
 0001:0001e958       ??_C@_0N@KPGCBAFE@TOK_VOLATILE?$AA@ 1001f958     glsl_parser:glsl_parser.tab.obj
 0001:0001e968       ??_C@_09MBLHIGI@TOK_USING?$AA@ 1001f968     glsl_parser:glsl_parser.tab.obj
 0001:0001e974       ??_C@_0N@ILNNJNGA@TOK_UNSIGNED?$AA@ 1001f974     glsl_parser:glsl_parser.tab.obj
 0001:0001e984       ??_C@_09EEGLPKCF@TOK_UNION?$AA@ 1001f984     glsl_parser:glsl_parser.tab.obj
 0001:0001e990       ??_C@_0M@KOOCBGO@TOK_TYPEDEF?$AA@ 1001f990     glsl_parser:glsl_parser.tab.obj
 0001:0001e99c       ??_C@_08MPBBMK@TOK_THIS?$AA@ 1001f99c     glsl_parser:glsl_parser.tab.obj
 0001:0001e9a8       ??_C@_09OFGIDDII@TOK_TILDE?$AA@ 1001f9a8     glsl_parser:glsl_parser.tab.obj
 0001:0001e9b4       ??_C@_0N@PJLIPIPE@TOK_TEMPLATE?$AA@ 1001f9b4     glsl_parser:glsl_parser.tab.obj
 0001:0001e9c4       ??_C@_0L@LLCJFPBE@TOK_SWITCH?$AA@ 1001f9c4     glsl_parser:glsl_parser.tab.obj
 0001:0001e9d0       ??_C@_0L@ODKODKGG@TOK_STATIC?$AA@ 1001f9d0     glsl_parser:glsl_parser.tab.obj
 0001:0001e9dc       ??_C@_0L@NKIJDFLN@TOK_SIZEOF?$AA@ 1001f9dc     glsl_parser:glsl_parser.tab.obj
 0001:0001e9e8       ??_C@_09JMMKHJLM@TOK_SHORT?$AA@ 1001f9e8     glsl_parser:glsl_parser.tab.obj
 0001:0001e9f4       ??_C@_0BC@JHMBJHFC@TOK_SAMPLER3DRECT?$AA@ 1001f9f4     glsl_parser:glsl_parser.tab.obj
 0001:0001ea08       ??_C@_0BI@MHLEGILJ@TOK_SAMPLER2DRECTSHADOW?$AA@ 1001fa08     glsl_parser:glsl_parser.tab.obj
 0001:0001ea20       ??_C@_0BC@DBLGJMOG@TOK_SAMPLER2DRECT?$AA@ 1001fa20     glsl_parser:glsl_parser.tab.obj
 0001:0001ea34       ??_C@_0L@MLBHPGPO@TOK_PUBLIC?$AA@ 1001fa34     glsl_parser:glsl_parser.tab.obj
 0001:0001ea40       ??_C@_0L@LFLMMINJ@TOK_PACKED?$AA@ 1001fa40     glsl_parser:glsl_parser.tab.obj
 0001:0001ea4c       ??_C@_0L@LPFBEOFO@TOK_OUTPUT?$AA@ 1001fa4c     glsl_parser:glsl_parser.tab.obj
 0001:0001ea58       ??_C@_0N@EIAAGFGC@TOK_NOINLINE?$AA@ 1001fa58     glsl_parser:glsl_parser.tab.obj
 0001:0001ea68       ??_C@_0O@KDOLBDJK@TOK_NAMESPACE?$AA@ 1001fa68     glsl_parser:glsl_parser.tab.obj
 0001:0001ea78       ??_C@_08OGGJDEOA@TOK_LONG?$AA@ 1001fa78     glsl_parser:glsl_parser.tab.obj
 0001:0001ea84       ??_C@_0O@NJIGFMLF@TOK_INTERFACE?$AA@ 1001fa84     glsl_parser:glsl_parser.tab.obj
 0001:0001ea94       ??_C@_09LMPCPMKN@TOK_INPUT?$AA@ 1001fa94     glsl_parser:glsl_parser.tab.obj
 0001:0001eaa0       ??_C@_0L@ILLLCCOL@TOK_INLINE?$AA@ 1001faa0     glsl_parser:glsl_parser.tab.obj
 0001:0001eaac       ??_C@_09DNKPOAID@TOK_HVEC4?$AA@ 1001faac     glsl_parser:glsl_parser.tab.obj
 0001:0001eab8       ??_C@_09HCOOHGEE@TOK_HVEC3?$AA@ 1001fab8     glsl_parser:glsl_parser.tab.obj
 0001:0001eac4       ??_C@_09GLPFEHAF@TOK_HVEC2?$AA@ 1001fac4     glsl_parser:glsl_parser.tab.obj
 0001:0001ead0       ??_C@_08OJKJAADM@TOK_HALF?$AA@ 1001fad0     glsl_parser:glsl_parser.tab.obj
 0001:0001eadc       ??_C@_08EINBKJFP@TOK_GOTO?$AA@ 1001fadc     glsl_parser:glsl_parser.tab.obj
 0001:0001eae8       ??_C@_09HKFIBPD@TOK_FVEC4?$AA@ 1001fae8     glsl_parser:glsl_parser.tab.obj
 0001:0001eaf4       ??_C@_09EIOEBHDE@TOK_FVEC3?$AA@ 1001faf4     glsl_parser:glsl_parser.tab.obj
 0001:0001eb00       ??_C@_09FBPPCGHF@TOK_FVEC2?$AA@ 1001fb00     glsl_parser:glsl_parser.tab.obj
 0001:0001eb0c       ??_C@_09GMNEALKG@TOK_FIXED?$AA@ 1001fb0c     glsl_parser:glsl_parser.tab.obj
 0001:0001eb18       ??_C@_0N@EIHMCDGO@TOK_EXTERNAL?$AA@ 1001fb18     glsl_parser:glsl_parser.tab.obj
 0001:0001eb28       ??_C@_0L@HFBKEJDN@TOK_EXTERN?$AA@ 1001fb28     glsl_parser:glsl_parser.tab.obj
 0001:0001eb34       ??_C@_08LJFJJFOP@TOK_ENUM?$AA@ 1001fb34     glsl_parser:glsl_parser.tab.obj
 0001:0001eb40       ??_C@_09EKGNCAPI@TOK_DVEC4?$AA@ 1001fb40     glsl_parser:glsl_parser.tab.obj
 0001:0001eb4c       ??_C@_09FCMLGDP@TOK_DVEC3?$AA@ 1001fb4c     glsl_parser:glsl_parser.tab.obj
 0001:0001eb58       ??_C@_09BMDHIHHO@TOK_DVEC2?$AA@ 1001fb58     glsl_parser:glsl_parser.tab.obj
 0001:0001eb64       ??_C@_0L@JIEFDGBC@TOK_DOUBLE?$AA@ 1001fb64     glsl_parser:glsl_parser.tab.obj
 0001:0001eb70       ??_C@_0M@GJKENKBP@TOK_DEFAULT?$AA@ 1001fb70     glsl_parser:glsl_parser.tab.obj
 0001:0001eb7c       ??_C@_09MEMAFGCE@TOK_CLASS?$AA@ 1001fb7c     glsl_parser:glsl_parser.tab.obj
 0001:0001eb88       ??_C@_08PBPHKFLD@TOK_CAST?$AA@ 1001fb88     glsl_parser:glsl_parser.tab.obj
 0001:0001eb94       ??_C@_07COKLOEHG@TOK_ASM?$AA@ 1001fb94     glsl_parser:glsl_parser.tab.obj
 0001:0001eb9c       ??_C@_0L@GJOIIHFK@TOK_MAT4X4?$AA@ 1001fb9c     glsl_parser:glsl_parser.tab.obj
 0001:0001eba8       ??_C@_0L@CGKJBBJN@TOK_MAT4X3?$AA@ 1001fba8     glsl_parser:glsl_parser.tab.obj
 0001:0001ebb4       ??_C@_0L@DPLCCANM@TOK_MAT4X2?$AA@ 1001fbb4     glsl_parser:glsl_parser.tab.obj
 0001:0001ebc0       ??_C@_0L@PEDPLPOD@TOK_MAT3X4?$AA@ 1001fbc0     glsl_parser:glsl_parser.tab.obj
 0001:0001ebcc       ??_C@_0L@LLHOCJCE@TOK_MAT3X3?$AA@ 1001fbcc     glsl_parser:glsl_parser.tab.obj
 0001:0001ebd8       ??_C@_0L@KCGFBIGF@TOK_MAT3X2?$AA@ 1001fbd8     glsl_parser:glsl_parser.tab.obj
 0001:0001ebe4       ??_C@_0L@EMIDNIIG@TOK_MAT2X4?$AA@ 1001fbe4     glsl_parser:glsl_parser.tab.obj
 0001:0001ebf0       ??_C@_0L@DMCEOEB@TOK_MAT2X3?$AA@ 1001fbf0     glsl_parser:glsl_parser.tab.obj
 0001:0001ebfc       ??_C@_0L@BKNJHPAA@TOK_MAT2X2?$AA@ 1001fbfc     glsl_parser:glsl_parser.tab.obj
 0001:0001ec08       ??_C@_09PGPDDDCG@TOK_IVEC4?$AA@ 1001fc08     glsl_parser:glsl_parser.tab.obj
 0001:0001ec14       ??_C@_09LJLCKFOB@TOK_IVEC3?$AA@ 1001fc14     glsl_parser:glsl_parser.tab.obj
 0001:0001ec20       ??_C@_09KAKJJEKA@TOK_IVEC2?$AA@ 1001fc20     glsl_parser:glsl_parser.tab.obj
 0001:0001ec2c       ??_C@_07GEOBFFKC@TOK_INT?$AA@ 1001fc2c     glsl_parser:glsl_parser.tab.obj
 0001:0001ec34       ??_C@_08KPEOOCMB@TOK_VEC4?$AA@ 1001fc34     glsl_parser:glsl_parser.tab.obj
 0001:0001ec40       ??_C@_08OAAPHEAG@TOK_VEC3?$AA@ 1001fc40     glsl_parser:glsl_parser.tab.obj
 0001:0001ec4c       ??_C@_08PJBEEFEH@TOK_VEC2?$AA@ 1001fc4c     glsl_parser:glsl_parser.tab.obj
 0001:0001ec58       ??_C@_09CEDBFBHN@TOK_FLOAT?$AA@ 1001fc58     glsl_parser:glsl_parser.tab.obj
 0001:0001ec64       ??_C@_09JMDEMDOF@TOK_BVEC4?$AA@ 1001fc64     glsl_parser:glsl_parser.tab.obj
 0001:0001ec70       ??_C@_09NDHFFFCC@TOK_BVEC3?$AA@ 1001fc70     glsl_parser:glsl_parser.tab.obj
 0001:0001ec7c       ??_C@_09MKGOGEGD@TOK_BVEC2?$AA@ 1001fc7c     glsl_parser:glsl_parser.tab.obj
 0001:0001ec88       ??_C@_08LLGPDJHN@TOK_BOOL?$AA@ 1001fc88     glsl_parser:glsl_parser.tab.obj
 0001:0001ec94       ??_C@_09GHFBMJBM@TOK_WHILE?$AA@ 1001fc94     glsl_parser:glsl_parser.tab.obj
 0001:0001eca0       ??_C@_08OCFLPOIF@TOK_VOID?$AA@ 1001fca0     glsl_parser:glsl_parser.tab.obj
 0001:0001ecac       ??_C@_0M@BDAGCJEP@TOK_VARYING?$AA@ 1001fcac     glsl_parser:glsl_parser.tab.obj
 0001:0001ecb8       ??_C@_0M@CKNIEBAM@TOK_UNIFORM?$AA@ 1001fcb8     glsl_parser:glsl_parser.tab.obj
 0001:0001ecc4       ??_C@_08DGMPEJPC@TOK_TRUE?$AA@ 1001fcc4     glsl_parser:glsl_parser.tab.obj
 0001:0001ecd0       ??_C@_0BE@BLGLANHM@TOK_SUPER_PRECISION?$AA@ 1001fcd0     glsl_parser:glsl_parser.tab.obj
 0001:0001ece4       ??_C@_0L@HEEGLBBB@TOK_STRUCT?$AA@ 1001fce4     glsl_parser:glsl_parser.tab.obj
 0001:0001ecf0       ??_C@_0BA@MAMGDOCD@TOK_SAMPLERCUBE?$AA@ 1001fcf0     glsl_parser:glsl_parser.tab.obj
 0001:0001ed00       ??_C@_0BE@EPJBKHEI@TOK_SAMPLER2DSHADOW?$AA@ 1001fd00     glsl_parser:glsl_parser.tab.obj
 0001:0001ed14       ??_C@_0BE@HGBMJLIN@TOK_SAMPLER1DSHADOW?$AA@ 1001fd14     glsl_parser:glsl_parser.tab.obj
 0001:0001ed28       ??_C@_0O@BBJLKDHH@TOK_SAMPLER3D?$AA@ 1001fd28     glsl_parser:glsl_parser.tab.obj
 0001:0001ed38       ??_C@_0O@BAFJMJEA@TOK_SAMPLER2D?$AA@ 1001fd38     glsl_parser:glsl_parser.tab.obj
 0001:0001ed48       ??_C@_0O@BCBPHHBJ@TOK_SAMPLER1D?$AA@ 1001fd48     glsl_parser:glsl_parser.tab.obj
 0001:0001ed58       ??_C@_0L@DIDCKNKH@TOK_RETURN?$AA@ 1001fd58     glsl_parser:glsl_parser.tab.obj
 0001:0001ed64       ??_C@_0O@HFEDKBJH@TOK_PRECISION?$AA@ 1001fd64     glsl_parser:glsl_parser.tab.obj
 0001:0001ed74       ??_C@_07FBPJEGOP@TOK_OUT?$AA@ 1001fd74     glsl_parser:glsl_parser.tab.obj
 0001:0001ed7c       ??_C@_0M@GOPNIEMN@TOK_MEDIUMP?$AA@ 1001fd7c     glsl_parser:glsl_parser.tab.obj
 0001:0001ed88       ??_C@_08PABNCIIJ@TOK_LOWP?$AA@ 1001fd88     glsl_parser:glsl_parser.tab.obj
 0001:0001ed94       ??_C@_0O@LGLNFIEJ@TOK_INVARIANT?$AA@ 1001fd94     glsl_parser:glsl_parser.tab.obj
 0001:0001eda4       ??_C@_09LEIILLGE@TOK_INOUT?$AA@ 1001fda4     glsl_parser:glsl_parser.tab.obj
 0001:0001edb0       ??_C@_06OGPLPHPE@TOK_IN?$AA@ 1001fdb0     glsl_parser:glsl_parser.tab.obj
 0001:0001edb8       ??_C@_06COCCHNPM@TOK_IF?$AA@ 1001fdb8     glsl_parser:glsl_parser.tab.obj
 0001:0001edc0       ??_C@_09HINCGJBJ@TOK_HIGHP?$AA@ 1001fdc0     glsl_parser:glsl_parser.tab.obj
 0001:0001edcc       ??_C@_07GLBKIIEF@TOK_FOR?$AA@ 1001fdcc     glsl_parser:glsl_parser.tab.obj
 0001:0001edd4       ??_C@_08NENPIFAA@TOK_FLAT?$AA@ 1001fdd4     glsl_parser:glsl_parser.tab.obj
 0001:0001ede0       ??_C@_09ICGPGOCM@TOK_FALSE?$AA@ 1001fde0     glsl_parser:glsl_parser.tab.obj
 0001:0001edec       ??_C@_08NPAEKLNO@TOK_ELSE?$AA@ 1001fdec     glsl_parser:glsl_parser.tab.obj
 0001:0001edf8       ??_C@_06PHDIFFOG@TOK_DO?$AA@ 1001fdf8     glsl_parser:glsl_parser.tab.obj
 0001:0001ee00       ??_C@_0M@ENOCMMA@TOK_DISCARD?$AA@ 1001fe00     glsl_parser:glsl_parser.tab.obj
 0001:0001ee0c       ??_C@_0N@JLOBGGBO@TOK_CONTINUE?$AA@ 1001fe0c     glsl_parser:glsl_parser.tab.obj
 0001:0001ee1c       ??_C@_09JEECKKGF@TOK_CONST?$AA@ 1001fe1c     glsl_parser:glsl_parser.tab.obj
 0001:0001ee28       ??_C@_0N@KJIKNAHF@TOK_CENTROID?$AA@ 1001fe28     glsl_parser:glsl_parser.tab.obj
 0001:0001ee38       ??_C@_09MCJHNEHC@TOK_BREAK?$AA@ 1001fe38     glsl_parser:glsl_parser.tab.obj
 0001:0001ee44       ??_C@_0O@LEFFHEL@TOK_ATTRIBUTE?$AA@ 1001fe44     glsl_parser:glsl_parser.tab.obj
 0001:0001ee54       ??_C@_0BB@BHCGDFLC@TOK_ARRAY_LENGTH?$AA@ 1001fe54     glsl_parser:glsl_parser.tab.obj
 0001:0001ee68       ??_C@_0BC@MJOJLLLC@TOK_INVALID_TOKEN?$AA@ 1001fe68     glsl_parser:glsl_parser.tab.obj
 0001:0001ee7c       ??_C@_0L@HFCILFIM@$undefined?$AA@ 1001fe7c     glsl_parser:glsl_parser.tab.obj
 0001:0001ee88       ??_C@_04ECLMMOJO@$end?$AA@ 1001fe88     glsl_parser:glsl_parser.tab.obj
 0001:00022d28       ??_C@_0BB@IALPPKLA@Cleanup?3?5popping?$AA@ 10023d28     glsl_parser:glsl_parser.tab.obj
 0001:00022d3c       ??_C@_0BO@MFNPENEL@Cleanup?3?5discarding?5lookahead?$AA@ 10023d3c     glsl_parser:glsl_parser.tab.obj
 0001:00022d5c       ??_C@_0BB@IJMKJPOK@memory?5exhausted?$AA@ 10023d5c     glsl_parser:glsl_parser.tab.obj
 0001:00022d70       ??_C@_0P@MNEOMIB@Error?3?5popping?$AA@ 10023d70     glsl_parser:glsl_parser.tab.obj
 0001:00022d80       ??_C@_0BC@GFIKEDAB@Error?3?5discarding?$AA@ 10023d80     glsl_parser:glsl_parser.tab.obj
 0001:00022d94       ??_C@_0N@MNJHOOI@syntax?5error?$AA@ 10023d94     glsl_parser:glsl_parser.tab.obj
 0001:00022da4       ??_C@_0CJ@NOLGEFIO@?8?$CFs?8?5?3?5function?5does?5not?5return?5@ 10023da4     glsl_parser:glsl_parser.tab.obj
 0001:00022dd0       ??_C@_0DE@GKFCGIGO@simple_statement?3?5Unrecognised?5j@ 10023dd0     glsl_parser:glsl_parser.tab.obj
 0001:00022e04       ??_C@_0CL@OFJKFHNC@?8break?8?5?3?5statement?5only?5allowed@ 10023e04     glsl_parser:glsl_parser.tab.obj
 0001:00022e30       ??_C@_0CO@PFCGAGEH@?8continue?8?5?3?5statement?5only?5allo@ 10023e30     glsl_parser:glsl_parser.tab.obj
 0001:00022e60       ??_C@_0BC@OJDELNKH@UnnamedStruct?$EA?$CFlu?$AA@ 10023e60     glsl_parser:glsl_parser.tab.obj
 0001:00022e74       ??_C@_09HJGOLHNF@precision?$AA@ 10023e74     glsl_parser:glsl_parser.tab.obj
 0001:00022e80       ??_C@_0N@ELIDAMNI@array?5syntax?$AA@ 10023e80     glsl_parser:glsl_parser.tab.obj
 0001:00022e90       ??_C@_0BO@MCHGFDAD@?8?$CFs?8?5?3?5undeclared?5identifier?6?$AA@ 10023e90     glsl_parser:glsl_parser.tab.obj
 0001:00022eb0       ??_C@_08JOJIKHG@centroid?$AA@ 10023eb0     glsl_parser:glsl_parser.tab.obj
 0001:00022ebc       ??_C@_0BN@DNFFKEGM@shader?5in?5?$CG?5out?5declarations?$AA@ 10023ebc     glsl_parser:glsl_parser.tab.obj
 0001:00022ee0       ??_C@_0EK@NNILFADL@?8?$CFs?8?5?3?5default?5precision?5modifie@ 10023ee0     glsl_parser:glsl_parser.tab.obj
 0001:00022f2c       ??_C@_0BC@CBBBIGCN@bitwise?5operators?$AA@ 10023f2c     glsl_parser:glsl_parser.tab.obj
 0001:00022f40       ??_C@_0BB@OIDAKBBK@modulus?5operator?$AA@ 10023f40     glsl_parser:glsl_parser.tab.obj
 0001:00022f54       ??_C@_0BD@HGJHFDNH@array?5constructors?$AA@ 10023f54     glsl_parser:glsl_parser.tab.obj
 0001:00022f68       ??_C@_0EM@FENGPBAA@ASTProcessFunctionCall?3?5Failed?5t@ 10023f68     glsl_parser:glsl_parser.tab.obj
 0001:00022fb8       ??_C@_0EB@GDLCMIHE@ASTProcessFunctionCall?3?5Fetched?5@ 10023fb8     glsl_parser:glsl_parser.tab.obj
 0001:00023000       ??_C@_0ED@OHEAGABG@ASTProcessFunctionCall?3?5Failed?5t@ 10024000     glsl_parser:glsl_parser.tab.obj
 0001:00023048       ??_C@_0EE@BLEKFPFI@ASTProcessFunctionCall?3?5Retrieve@ 10024048     glsl_parser:glsl_parser.tab.obj
 0001:0002308c       ??_C@_0DK@LCFJKFOK@ASTProcessFunctionCall?3?5Failed?5t@ 1002408c     glsl_parser:glsl_parser.tab.obj
 0001:000230c8       ??_C@_0DK@NKMODJLF@?8?$CFs?8?5?3?5cannot?5pass?5array?5of?5unde@ 100240c8     glsl_parser:glsl_parser.tab.obj
 0001:00023108       ??_C@_0HA@ELIKLPJJ@ASTProcessFunctionCall?3?5Failed?5t@ 10024108     glsl_parser:glsl_parser.tab.obj
 0001:00023178       ??_C@_0DO@LFDMPIG@ASTProcessFunctionCall?3?5?8?$CFs?8?5?3?5n@ 10024178     glsl_parser:glsl_parser.tab.obj
 0001:000231b8       ??_C@_0O@FEHBKOKI@glsl_parser?4y?$AA@ 100241b8     glsl_parser:glsl_parser.tab.obj
 0001:000231c8       ??_C@_0BG@DGOKCLLK@?8?$CFs?8?5?3?5syntax?5error?$DL?6?$AA@ 100241c8     glsl_parser:glsl_parser.tab.obj
 0001:000231e0       ??_C@_0CA@HKJBOAOI@Unexpected?5end?5of?5source?5found?6?$AA@ 100241e0     glsl_parser:glsl_parser.tab.obj
 0001:00023200       ??_C@_0CK@GKAFBAFJ@?8?$CFs?8?5?3?5Precision?5not?5valid?5for?5t@ 10024200     glsl_parser:glsl_parser.tab.obj
 0001:0002322c       ??_C@_0DJ@DBGDKEFE@?8?$CFs?8?5?3?5samplers?5must?5be?5uniform?5@ 1002422c     glsl_parser:glsl_parser.tab.obj
 0001:00023268       ??_C@_0CL@KIIMFJCA@?8?$CFs?8?5?3?5No?5precision?5defined?5for?5@ 10024268     glsl_parser:glsl_parser.tab.obj
 0001:00023294       ??_C@_0CE@PMKGJOAO@?8?$FL?$FN?8?5?3?5array?5size?5must?5be?5declar@ 10024294     glsl_parser:glsl_parser.tab.obj
 0001:000232b8       ??_C@_0CH@NJDKMFMB@array?5size?5must?5be?5a?5positive?5in@ 100242b8     glsl_parser:glsl_parser.tab.obj
 0001:000232e0       ??_C@_0CO@BGIDIOLP@?8?$CFs?8?5?3?5array?5size?5must?5be?5a?5posi@ 100242e0     glsl_parser:glsl_parser.tab.obj
 0001:00023310       ??_C@_0BK@BBPKJFDO@psArraySpecifier?9?$DOpsToken?$AA@ 10024310     glsl_parser:glsl_parser.tab.obj
 0001:0002332c       ??_C@_0DN@CADEFAIB@?8?$CFs?8?5?3?5variables?5with?5qualifier?5@ 1002432c     glsl_parser:glsl_parser.tab.obj
 0001:00023370       ??_C@_0EB@DOMKMCDB@?8?$CFs?8?5?3?5cannot?5initialise?5arrays?5@ 10024370     glsl_parser:glsl_parser.tab.obj
 0001:000233b4       ??_C@_0CP@JKBBBOPM@?8?$CFs?8?5?3?5Multi?5dimensional?5arrays?5@ 100243b4     glsl_parser:glsl_parser.tab.obj
 0001:000233e8       ??_C@_0EO@FFIINGPK@?8?$CFs?5?$CFs?8?5?3?5cannot?5declare?5arrays?5@ 100243e8     glsl_parser:glsl_parser.tab.obj
 0001:00023438       ??_C@_0CK@BBJNPKFJ@?8const?8?5?3?5qualifier?5not?5allowed?5@ 10024438     glsl_parser:glsl_parser.tab.obj
 0001:00023464       ??_C@_0CM@LBKLBFLP@?8const?8?5?3?5qualifier?5not?5allowed?5@ 10024464     glsl_parser:glsl_parser.tab.obj
 0001:00023490       ??_C@_08DECFEKDB@Deleting?$AA@ 10024490     glsl_parser:glsl_parser.tab.obj
 0001:0002349c       ??_C@_05IFHLPLPC@using?$AA@ 1002449c     glsl_parser:lex.obj
 0001:000234a4       ??_C@_09KPMGAFNI@namespace?$AA@ 100244a4     glsl_parser:lex.obj
 0001:000234b0       ??_C@_04HJDBPPOC@cast?$AA@ 100244b0     glsl_parser:lex.obj
 0001:000234b8       ??_C@_06FPFOALMG@sizeof?$AA@ 100244b8     glsl_parser:lex.obj
 0001:000234c0       ??_C@_0BE@HDPBANEK@sampler2DRectShadow?$AA@ 100244c0     glsl_parser:lex.obj
 0001:000234d4       ??_C@_0O@FCABDPDE@sampler3DRect?$AA@ 100244d4     glsl_parser:lex.obj
 0001:000234e4       ??_C@_0O@PEHGDEIA@sampler2DRect?$AA@ 100244e4     glsl_parser:lex.obj
 0001:000234f4       ??_C@_0BA@JPCOHDB@sampler2DShadow?$AA@ 100244f4     glsl_parser:lex.obj
 0001:00023504       ??_C@_0BA@DAHPNLPE@sampler1DShadow?$AA@ 10024504     glsl_parser:lex.obj
 0001:00023514       ??_C@_05BLEBCGML@fvec4?$AA@ 10024514     glsl_parser:lex.obj
 0001:0002351c       ??_C@_05FEAALAAM@fvec3?$AA@ 1002451c     glsl_parser:lex.obj
 0001:00023524       ??_C@_05ENBLIBEN@fvec2?$AA@ 10024524     glsl_parser:lex.obj
 0001:0002352c       ??_C@_05FGIJIHMA@dvec4?$AA@ 1002452c     glsl_parser:lex.obj
 0001:00023534       ??_C@_05BJMIBBAH@dvec3?$AA@ 10024534     glsl_parser:lex.obj
 0001:0002353c       ??_C@_05NDCAEG@dvec2?$AA@  1002453c     glsl_parser:lex.obj
 0001:00023544       ??_C@_05CBELEHLL@hvec4?$AA@ 10024544     glsl_parser:lex.obj
 0001:0002354c       ??_C@_05GOAKNBHM@hvec3?$AA@ 1002454c     glsl_parser:lex.obj
 0001:00023554       ??_C@_05HHBBOADN@hvec2?$AA@ 10024554     glsl_parser:lex.obj
 0001:0002355c       ??_C@_05DFJCHPDH@input?$AA@ 1002455c     glsl_parser:lex.obj
 0001:00023564       ??_C@_06GJJMFEHD@superp?$AA@ 10024564     glsl_parser:lex.obj
 0001:0002356c       ??_C@_08CLLOMHGD@unsigned?$AA@ 1002456c     glsl_parser:lex.obj
 0001:00023578       ??_C@_05OFLEIIDM@fixed?$AA@ 10024578     glsl_parser:lex.obj
 0001:00023580       ??_C@_06BNJCAIGJ@double?$AA@ 10024580     glsl_parser:lex.obj
 0001:00023588       ??_C@_05BFKKPKCG@short?$AA@ 10024588     glsl_parser:lex.obj
 0001:00023590       ??_C@_04GOKPGOLB@long?$AA@ 10024590     glsl_parser:lex.obj
 0001:00023598       ??_C@_04FMBJNPFB@flat?$AA@ 10024598     glsl_parser:lex.obj
 0001:000235a0       ??_C@_09NFKLEKPH@interface?$AA@ 100245a0     glsl_parser:lex.obj
 0001:000235ac       ??_C@_08OIBPHJGN@external?$AA@ 100245ac     glsl_parser:lex.obj
 0001:000235b8       ??_C@_06PAMNHHEG@extern?$AA@ 100245b8     glsl_parser:lex.obj
 0001:000235c0       ??_C@_06GGHJAEBN@static?$AA@ 100245c0     glsl_parser:lex.obj
 0001:000235c8       ??_C@_06EOMAMIIF@public?$AA@ 100245c8     glsl_parser:lex.obj
 0001:000235d0       ??_C@_08PABEKFH@volatile?$AA@ 100245d0     glsl_parser:lex.obj
 0001:000235dc       ??_C@_08OIGDDPGB@noinline?$AA@ 100245dc     glsl_parser:lex.obj
 0001:000235e8       ??_C@_06OGMBMJA@inline?$AA@ 100245e8     glsl_parser:lex.obj
 0001:000235f0       ??_C@_07DLHCIBDH@default?$AA@ 100245f0     glsl_parser:lex.obj
 0001:000235f8       ??_C@_06DOPOGBGP@switch?$AA@ 100245f8     glsl_parser:lex.obj
 0001:00023600       ??_C@_04MABHPDAO@goto?$AA@ 10024600     glsl_parser:lex.obj
 0001:00023608       ??_C@_06DAGLPGKC@packed?$AA@ 10024608     glsl_parser:lex.obj
 0001:00023610       ??_C@_04IIAJELJL@this?$AA@ 10024610     glsl_parser:lex.obj
 0001:00023618       ??_C@_08FJNLKCPH@template?$AA@ 10024618     glsl_parser:lex.obj
 0001:00023624       ??_C@_07FIDIHKEG@typedef?$AA@ 10024624     glsl_parser:lex.obj
 0001:0002362c       ??_C@_04DBJPMPLO@enum?$AA@ 1002462c     glsl_parser:lex.obj
 0001:00023634       ??_C@_05MNALHJLP@union?$AA@ 10024634     glsl_parser:lex.obj
 0001:0002363c       ??_C@_05ENKANFLO@class?$AA@ 1002463c     glsl_parser:lex.obj
 0001:00023644       ??_C@_03NLMFHDGG@asm?$AA@  10024644     glsl_parser:lex.obj
 0001:00023648       ??_C@_0BB@LEFHFFO@samplerStreamIMG?$AA@ 10024648     glsl_parser:lex.obj
 0001:0002365c       ??_C@_04DDDHBIAD@mat4?$AA@ 1002465c     glsl_parser:lex.obj
 0001:00023664       ??_C@_04HMHGIOME@mat3?$AA@ 10024664     glsl_parser:lex.obj
 0001:0002366c       ??_C@_04GFGNLPIF@mat2?$AA@ 1002466c     glsl_parser:lex.obj
 0001:00023674       ??_C@_06LNOFJDNM@return?$AA@ 10024674     glsl_parser:lex.obj
 0001:0002367c       ??_C@_07FGAIHHOI@discard?$AA@ 1002467c     glsl_parser:lex.obj
 0001:00023684       ??_C@_05OODBEKIG@while?$AA@ 10024684     glsl_parser:lex.obj
 0001:0002368c       ??_C@_03JOHEBPFF@for?$AA@  1002468c     glsl_parser:lex.obj
 0001:00023690       ??_C@_02KNAFDCHJ@do?$AA@   10024690     glsl_parser:lex.obj
 0001:00023694       ??_C@_08DLICDMBN@continue?$AA@ 10024694     glsl_parser:lex.obj
 0001:000236a0       ??_C@_05ELPHFHOI@break?$AA@ 100246a0     glsl_parser:lex.obj
 0001:0002394c       ??_C@_0CP@NNCNNPKA@LexGeneratePreprocessorTokens?3?5O@ 1002494c     glsl_parser:lex.obj
 0001:0002397c       ??_C@_0DK@DBAMMGLO@LexCreateTokenList?3?5error?5genera@ 1002497c     glsl_parser:lex.obj
 0001:000239b8       ??_C@_0CO@FIFCCL@Reached?5end?5of?5GLSL?5source?5insid@ 100249b8     glsl_parser:lex.obj
 0001:000239e8       ??_C@_0CF@EIKEEPBC@eState?5?$DN?$DN?5LEX_IN_SINGLE_LINE_COM@ 100249e8     glsl_parser:lex.obj
 0001:00023a10       ??_C@_06MHOKAANJ@i?5?$DN?$DN?50?$AA@ 10024a10     glsl_parser:lex.obj
 0001:00023a18       ??_C@_06KLGHCJMK@i?5?$DO?$DN?53?$AA@ 10024a18     glsl_parser:lex.obj
 0001:00023a20       ??_C@_0CP@BAHGCENG@?$CFd?3?$CFd?$CFd?5?8?$CFc?8?5is?5an?5invalid?5chara@ 10024a20     glsl_parser:lex.obj
 0001:00023a50       ??_C@_0CJ@PKMNFKJG@?$CFd?3?$CFd?3?$CFd?5invalid?5number?5literal?5@ 10024a50     glsl_parser:lex.obj
 0001:00023a7c       ??_C@_0O@ILJBBFHJ@pu32NumTokens?$AA@ 10024a7c     glsl_parser:lex.obj
 0001:00023a8c       ??_C@_0O@PJBPKGO@ppsFirstToken?$AA@ 10024a8c     glsl_parser:lex.obj
 0001:00023aa0       ??_C@_0EF@HGNLKMAE@C?3?2WinCE?2OMAP?2DDK1?45?2eurasia?2too@ 10024aa0     glsl_parser:lex.obj
 0001:00023ae8       ??_C@_0M@DLIGABKA@ppszSources?$AA@ 10024ae8     glsl_parser:lex.obj
 0001:00023af4       ??_C@_0CB@CLPPICJH@?$CFd?3?$CFd?3?$CFd?5reserved?5keyword?5?8?$CFs?8?4?6@ 10024af4     glsl_parser:lex.obj
 0001:00023b44       DumpUniFlextInstData       10024b44 f   ic2uf.obj
 0001:00023e94       UFRegATableGetMaxComponent 10024e94 f   ic2uf.obj
 0001:00023ecc       GetStructAllocInfo         10024ecc f   ic2uf.obj
 0001:00025328       DestroyUniFlexCode         10026328 f   ic2uf.obj
 0001:000254f0       GenerateUniFlexInput       100264f0 f   ic2uf.obj
 0001:000377a8       GenerateUniPatchInput      100387a8 f   ic2uf.obj
 0001:00037fb8       GetSupportedExtensions     10038fb8 f   ic2uf.obj
 0001:00037fd4       GLSLFreeCompiledUniflexProgram 10038fd4 f   glsl2uf.obj
 0001:000380f8       GLSLCompileToUniflex       100390f8 f   glsl2uf.obj
 0001:000386f0       GLSLDisplayMetrics         100396f0 f   glsl2uf.obj
 0001:00038734       GenerateBindingSymbolList  10039734 f   bindingsym.obj
 0001:00039f94       DestroyBindingSymbolList   1003af94 f   bindingsym.obj
 0001:0003a10c       InitSymbolTableManager     1003b10c f   glsl_parser:symtab.obj
 0001:0003a178       DestroySymbolTableManager  1003b178 f   glsl_parser:symtab.obj
 0001:0003a25c       RemoveSymbolTableFromManager 1003b25c f   glsl_parser:symtab.obj
 0001:0003a304       CreateSymTable             1003b304 f   glsl_parser:symtab.obj
 0001:0003a79c       DestroySymTable            1003b79c f   glsl_parser:symtab.obj
 0001:0003a888       FindSymbol                 1003b888 f   glsl_parser:symtab.obj
 0001:0003ab0c       GetSymbolDatafn            1003bb0c f   glsl_parser:symtab.obj
 0001:0003ad04       AddSymbol                  1003bd04 f   glsl_parser:symtab.obj
 0001:0003b2d4       RemoveSymbol               1003c2d4 f   glsl_parser:symtab.obj
 0001:0003b3b0       GetSymbolNamefn            1003c3b0 f   glsl_parser:symtab.obj
 0001:0003b438       IncreaseScopeLevel         1003c438 f   glsl_parser:symtab.obj
 0001:0003b4f0       DecreaseScopeLevel         1003c4f0 f   glsl_parser:symtab.obj
 0001:0003b5d8       GetScopeLevel              1003c5d8 f   glsl_parser:symtab.obj
 0001:0003b608       GetSymbolScopeLevelfn      1003c608 f   glsl_parser:symtab.obj
 0001:0003b6a4       ResetGetNextSymbolCounter  1003c6a4 f   glsl_parser:symtab.obj
 0001:0003b6d8       GetNextSymbol              1003c6d8 f   glsl_parser:symtab.obj
 0001:0003b80c       DebugDisplayMemoryStats    1003c80c f   glsl_parser:memmgr.obj
 0001:0003b830       DebugCreateHeapfn          1003c830 f   glsl_parser:memmgr.obj
 0001:0003b9c8       DebugAllocHeapItemfn       1003c9c8 f   glsl_parser:memmgr.obj
 0001:0003baa4       DebugFreeHeapItemfn        1003caa4 f   glsl_parser:memmgr.obj
 0001:0003badc       DebugDestroyHeapfn         1003cadc f   glsl_parser:memmgr.obj
 0001:0003bbac       SetErrorLog                1003cbac f   glsl_core:error.obj
 0001:0003bc1c       FreeErrorLogMessages       1003cc1c f   glsl_core:error.obj
 0001:0003bc9c       DisplayErrorMessages       1003cc9c f   glsl_core:error.obj
 0001:0003bd34       PrintInternalErrorFunc     1003cd34 f   glsl_core:error.obj
 0001:0003be6c       PrintInternalTokenErrorFunc 1003ce6c f   glsl_core:error.obj
 0001:0003bea4       PrintInternalNodeErrorFunc 1003cea4 f   glsl_core:error.obj
 0001:0003bee4       LogProgramError            1003cee4 f   glsl_core:error.obj
 0001:0003c2e8       LogProgramWarning          1003d2e8 f   glsl_core:error.obj
 0001:0003c32c       LogProgramNodeError        1003d32c f   glsl_core:error.obj
 0001:0003c378       LogProgramNodeWarning      1003d378 f   glsl_core:error.obj
 0001:0003c3c4       LogProgramTokenError       1003d3c4 f   glsl_core:error.obj
 0001:0003c408       LogProgramTokenWarning     1003d408 f   glsl_core:error.obj
 0001:0003c44c       LogProgramParserError      1003d44c f   glsl_core:error.obj
 0001:0003c490       ASTValidateNodeCreationFn  1003d490 f   glsl_core:common.obj
 0001:0003c528       ASTCreateNewNodeFn         1003d528 f   glsl_core:common.obj
 0001:0003c680       ASTAddNodeChildFn          1003d680 f   glsl_core:common.obj
 0001:0003c824       AddIdentifierDataToTable   1003d824 f   glsl_core:common.obj
 0001:0003cb10       AddBoolConstant            1003db10 f   glsl_core:common.obj
 0001:0003cd70       AddIntConstant             1003dd70 f   glsl_core:common.obj
 0001:0003d018       AddFloatConstant           1003e018 f   glsl_core:common.obj
 0001:0003d330       AddFloatVecConstant        1003e330 f   glsl_core:common.obj
 0001:0003d508       AddSwizzleData             1003e508 f   glsl_core:common.obj
 0001:0003d734       AddMemberSelectionData     1003e734 f   glsl_core:common.obj
 0001:0003d794       AddIdentifierDatafn        1003e794 f   glsl_core:common.obj
 0001:0003e068       AddParameterDatafn         1003f068 f   glsl_core:common.obj
 0001:0003e450       AddResultDatafn            1003f450 f   glsl_core:common.obj
 0001:0003e4cc       AddFunctionCallData        1003f4cc f   glsl_core:common.obj
 0001:0003e544       AddFunctionDefinitionData  1003f544 f   glsl_core:common.obj
 0001:0003e9d4       AddStructureDefinition     1003f9d4 f   glsl_core:common.obj
 0001:0003f5e4       GetSymbolTableDatafn       100405e4 f   glsl_core:common.obj
 0001:0003f78c       GetSymbolInfofn            1004078c f   glsl_core:common.obj
 0001:0003ffe0       AddBuiltInIdentifier       10040fe0 f   glsl_core:common.obj
 0001:000401fc       ICAddTemporary             100411fc f   glsl_core:icgen.obj
 0001:000404bc       ICAddBoolPredicate         100414bc f   glsl_core:icgen.obj
 0001:0004073c       ICInitICOperand            1004173c f   glsl_core:icgen.obj
 0001:000407a4       ICInitOperandInfo          100417a4 f   glsl_core:icgen.obj
 0001:0004080c       ICAddOperandOffset         1004180c f   glsl_core:icgen.obj
 0001:000408b8       ICFreeOperandOffsetList    100418b8 f   glsl_core:icgen.obj
 0001:00040934       ICProcessNodeOperand       10041934 f   glsl_core:icgen.obj
 0001:00040b58       ICRemoveInstruction        10041b58 f   glsl_core:icgen.obj
 0001:00040dc8       ICRemoveInstructionRange   10041dc8 f   glsl_core:icgen.obj
 0001:00040e40       ICGetSymbolInformation     10041e40 f   glsl_core:icgen.obj
 0001:000411a0       ICGetSymbolFullType        100421a0 f   glsl_core:icgen.obj
 0001:00041258       ICGetSymbolTypeSpecifier   10042258 f   glsl_core:icgen.obj
 0001:000412a8       ICGetSymbolPrecision       100422a8 f   glsl_core:icgen.obj
 0001:000412f8       ICGetSymbolBIVariableID    100422f8 f   glsl_core:icgen.obj
 0001:000413ac       GetIndexedType             100423ac f   glsl_core:icgen.obj
 0001:000417b8       IsSymbolIntConstant        100427b8 f   glsl_core:icgen.obj
 0001:000418f0       IsSymbolLValue             100428f0 f   glsl_core:icgen.obj
 0001:00041a44       CloneICodeInstructions     10042a44 f   glsl_core:icgen.obj
 0001:0004200c       ICAddICInstruction0        1004300c f   glsl_core:icgen.obj
 0001:00043ffc       ICAddICInstruction1        10044ffc f   glsl_core:icgen.obj
 0001:000442e8       ICAddICInstruction1a       100452e8 f   glsl_core:icgen.obj
 0001:000443bc       ICAddICInstruction2        100453bc f   glsl_core:icgen.obj
 0001:000444a8       ICAddICInstruction2a       100454a8 f   glsl_core:icgen.obj
 0001:00044590       ICAddICInstruction2b       10045590 f   glsl_core:icgen.obj
 0001:00044674       ICAddICInstruction2c       10045674 f   glsl_core:icgen.obj
 0001:0004475c       ICAddICInstruction3        1004575c f   glsl_core:icgen.obj
 0001:0004485c       ICAddICInstruction3a       1004585c f   glsl_core:icgen.obj
 0001:00044958       ICAddICInstruction3b       10045958 f   glsl_core:icgen.obj
 0001:00044a50       ICAddICInstruction3c       10045a50 f   glsl_core:icgen.obj
 0001:00044b48       ICAddICInstruction3d       10045b48 f   glsl_core:icgen.obj
 0001:00044c3c       ICAddICInstruction3e       10045c3c f   glsl_core:icgen.obj
 0001:00044d34       ICAddICInstruction4        10045d34 f   glsl_core:icgen.obj
 0001:00044e48       ICAddICInstruction         10045e48 f   glsl_core:icgen.obj
 0001:0004502c       ICAddICInstructiona        1004602c f   glsl_core:icgen.obj
 0001:0004520c       ICIsSymbolScalar           1004620c f   glsl_core:icgen.obj
 0001:0004532c       ICAddICInstructionIFP      1004632c f   glsl_core:icgen.obj
 0001:0004541c       ICCombineTwoConstantSwizzles 1004641c f   glsl_core:icgen.obj
 0001:00045510       ICAdjustOperandLastOffset  10046510 f   glsl_core:icgen.obj
 0001:00045558       GetInstructionsCount       10046558 f   glsl_core:icgen.obj
 0001:000461a8       ICTraverseAST              100471a8 f   glsl_core:icgen.obj
 0001:0004e998       GLSLFreeBuiltInState       1004f998 f   glsl_core:glsl.obj
 0001:0004ea68       GLSLInitCompiler           1004fa68 f   glsl_core:glsl.obj
 0001:0004ee38       GLSLShutDownCompiler       1004fe38 f   glsl_core:glsl.obj
 0001:0004ef04       GLSLGenerateInfoLog        1004ff04 f   glsl_core:glsl.obj
 0001:0004f1c4       GLSLFreeInfoLog            100501c4 f   glsl_core:glsl.obj
 0001:0004f200       GLSLDumpUniFlexProgram     10050200 f   glsl_core:glsl.obj
 0001:0004f220       GLSLCompileToIntermediateCode 10050220 f   glsl_core:glsl.obj
 0001:0004fa84       GLSLFreeIntermediateCode   10050a84 f   glsl_core:glsl.obj
 0001:000519b4       ICFindBuiltInVariables     100529b4 f   glsl_core:icbuiltin.obj
 0001:00053af4       ICProcessBuiltInFunctionCall 10054af4 f   glsl_core:icbuiltin.obj
 0001:00053c7c       ICUnrollLoopFOR            10054c7c f   glsl_core:icunroll.obj
 0001:00056050       PPPreProcessTokenList      10057050 f   glsl_core:prepro.obj
 0001:0005c3f4       PPDestroyPreProcessorData  1005d3f4 f   glsl_core:prepro.obj
 0001:0005c440       ASTCheckFeatureVersion     1005d440 f   glsl_core:glsltree.obj
 0001:0005c574       IsSamplerTypeSupported     1005d574 f   glsl_core:glsltree.obj
 0001:0005c608       ASTIncreaseScope           1005d608 f   glsl_core:glsltree.obj
 0001:0005c648       ModifyDefaultPrecision     1005d648 f   glsl_core:glsltree.obj
 0001:0005c994       ASTDecreaseScope           1005d994 f   glsl_core:glsltree.obj
 0001:0005ccec       ASTCreateIDENTIFIERNode    1005dcec f   glsl_core:glsltree.obj
 0001:0005cec0       ASTCreateIDENTIFIERUseNode 1005dec0 f   glsl_core:glsltree.obj
 0001:0005cf00       ASTCreateFLOATCONSTANTNode 1005df00 f   glsl_core:glsltree.obj
 0001:0005d0e4       ASTCreateINTCONSTANTNode   1005e0e4 f   glsl_core:glsltree.obj
 0001:0005d250       ASTCreateBOOLCONSTANTNode  1005e250 f   glsl_core:glsltree.obj
 0001:0005d450       ASTFindFunction            1005e450 f   glsl_core:glsltree.obj
 0001:0005db0c       ASTRegisterFunctionCall    1005eb0c f   glsl_core:glsltree.obj
 0001:0005df4c       ASTCreateFunctionNode      1005ef4c f   glsl_core:glsltree.obj
 0001:0005ed94       ASTProcessFieldSelection   1005fd94 f   glsl_core:glsltree.obj
 0001:0005f7d8       ASTUpdateInvariantStatus   100607d8 f   glsl_core:glsltree.obj
 0001:0005f9a8       ASTAddFunctionState        100609a8 f   glsl_core:glsltree.obj
 0001:0005fbf8       ASTProcessLanguageVersion  10060bf8 f   glsl_core:glsltree.obj
 0001:0005fcfc       CreateGLSLTreeContext      10060cfc f   glsl_core:glsltree.obj
 0001:000600b4       CheckGLSLTreeCompleteness  100610b4 f   glsl_core:glsltree.obj
 0001:00060938       DestroyGLSLTreeContext     10061938 f   glsl_core:glsltree.obj
 0001:000609f0       GenerateICodeProgram       100619f0 f   glsl_core:icode.obj
 0001:00060fb0       DestroyICodeProgram        10061fb0 f   glsl_core:icode.obj
 0001:0006120c       GetICInstructionCount      1006220c f   glsl_core:icode.obj
 0001:00061250       ASTBIAddBuiltInData        10062250 f   glsl_core:astbuiltin.obj
 0001:0006521c       ASTBIResetBuiltInData      1006621c f   glsl_core:astbuiltin.obj
 0001:00065454       ICEmulateBIFNtan           10066454 f   glsl_core:icemul.obj
 0001:000656b4       ICEmulateBIFNArcTrigs      100666b4 f   glsl_core:icemul.obj
 0001:00066e88       ICEmulateBIFNpow           10067e88 f   glsl_core:icemul.obj
 0001:0006709c       ICEmulateBIFNfract         1006809c f   glsl_core:icemul.obj
 0001:0006725c       ICEmulateBIFNmod           1006825c f   glsl_core:icemul.obj
 0001:000674a8       ICEmulateBIFNshadowFunc    100684a8 f   glsl_core:icemul.obj
 0001:00069104       ICEmulateBIFNnoise1        1006a104 f   glsl_core:icemul.obj
 0001:00069608       ICEmulateBIFNnoise2        1006a608 f   glsl_core:icemul.obj
 0001:00069b60       ICEmulateBIFNnoise3        1006ab60 f   glsl_core:icemul.obj
 0001:0006a22c       ICEmulateBIFNnoise4        1006b22c f   glsl_core:icemul.obj
 0001:0006aa14       ICAddArcSinCos2FunctionBody 1006ba14 f   glsl_core:icemul.obj
 0001:0006bb18       ICAddArcTanFunctionBody    1006cb18 f   glsl_core:icemul.obj
 0001:0006ca4c       ICAddArcTan2FunctionBody   1006da4c f   glsl_core:icemul.obj
 0001:0006d56c       ICAddNoise1DFunctionBody   1006e56c f   glsl_core:icemul.obj
 0001:0006e7f0       ICAddNoise2DFunctionBody   1006f7f0 f   glsl_core:icemul.obj
 0001:0006f634       ICAddNoise3DFunctionBody   10070634 f   glsl_core:icemul.obj
 0001:000713b8       ICAddNoise4DFunctionBody   100723b8 f   glsl_core:icemul.obj
 0001:000745c4       ICInsertCodeForFogFactor   100755c4 f   glsl_core:icemul.obj
 0001:00074c78       ICEmulateTextureProj       10075c78 f   glsl_core:icemul.obj
 0001:0007504c       ASTSemCreateHashedFunctionName 1007604c f   glsl_core:semantic.obj
 0001:00075314       ASTSemGetSizeInfo          10076314 f   glsl_core:semantic.obj
 0001:0007558c       ASTSemCheckTypeSpecifiersMatch 1007658c f   glsl_core:semantic.obj
 0001:00075618       ASTSemGetArraySize         10076618 f   glsl_core:semantic.obj
 0001:00075738       ASTUpdateConditionalIdentifierUsage 10076738 f   glsl_core:semantic.obj
 0001:00075a70       ASTSemCheckTypesAndCalculateResult 10076a70 f   glsl_core:semantic.obj
 0001:0008425c       ASTSemAddIdentifierToSymbolTable 1008525c f   glsl_core:semantic.obj
 0001:00084b50       EmulateBuiltInFunction     10085b50 f   glsl_core:glslfns.obj
 0001:000884ac       SGXBS_CreateBinaryShader   100894ac f   glsl_binshader:esbinshader.obj
 0001:000897e0       SGXBS_CreateBinaryProgram  1008a7e0 f   glsl_binshader:esbinshader.obj
 0001:0008a034       PVRUniFlexInitInst         1008b034 f   usc:usc_utils.obj
 0001:0008a06c       PVRUniFlexDecodeInputSwizzle 1008b06c f   usc:usc_utils.obj
 0001:0008a150       PVRUniFlexDecodeInputInst  1008b150 f   usc:usc_utils.obj
 0001:0008b5a8       UscAbort                   1008c5a8 f   usc:usc.obj
 0001:0008b820       UscAlloc                   1008c820 f   usc:usc.obj
 0001:0008ba28       _UscFree                   1008ca28 f   usc:usc.obj
 0001:0008bb50       GetNextRegisterCount       1008cb50 f   usc:usc.obj
 0001:0008bbc0       GetNextRegister            1008cbc0 f   usc:usc.obj
 0001:0008bc14       SetBlockSwitch             1008cc14 f   usc:usc.obj
 0001:0008c270       SetBlockConditional        1008d270 f   usc:usc.obj
 0001:0008c5b4       SetBlockUnconditional      1008d5b4 f   usc:usc.obj
 0001:0008c820       SetSyncEndOnSuccessor      1008d820 f   usc:usc.obj
 0001:0008c950       RedirectEdgesFromPredecessors 1008d950 f   usc:usc.obj
 0001:0008cce0       RedirectEdge               1008dce0 f   usc:usc.obj
 0001:0008ce68       AllocateBlock              1008de68 f   usc:usc.obj
 0001:0008d080       FreeBlock                  1008e080 f   usc:usc.obj
 0001:0008d610       IsCall                     1008e610 f   usc:usc.obj
 0001:0008d75c       MergeBasicBlocks           1008e75c f   usc:usc.obj
 0001:0008e150       MergeAllBasicBlocks        1008f150 f   usc:usc.obj
 0001:0008e1b4       FinaliseIntermediateCode   1008f1b4 f   usc:usc.obj
 0001:0008e740       DoDataflow                 1008f740 f   usc:usc.obj
 0001:0008ec2c       DoOnCfgBasicBlocks         1008fc2c f   usc:usc.obj
 0001:0008ee54       DoOnAllBasicBlocks         1008fe54 f   usc:usc.obj
 0001:0008eed0       DebugPrintSF               1008fed0 f   usc:usc.obj
 0001:0008f378       InlineFunction             10090378 f   usc:usc.obj
 0001:0008fd1c       PVRUniFlexDestroyContext   10090d1c f   usc:usc.obj
 0001:0008fd58       InsertInstBefore           10090d58 f   usc:usc.obj
 0001:000901e0       AppendInst                 100911e0 f   usc:usc.obj
 0001:00090360       RemoveInst                 10091360 f   usc:usc.obj
 0001:000904dc       MaskToSwiz                 100914dc f   usc:usc.obj
 0001:0009056c       CompOpToTest               1009156c f   usc:usc.obj
 0001:00090650       GetPredicate               10091650 f   usc:usc.obj
 0001:000907b8       AllocFunction              100917b8 f   usc:usc.obj
 0001:00090990       FreeFunction               10091990 f   usc:usc.obj
 0001:00090d7c       InitialiseIndexableTemps   10091d7c f   usc:usc.obj
 0001:00090e04       InitState                  10091e04 f   usc:usc.obj
 0001:000918d0       ReleaseFixedReg            100928d0 f   usc:usc.obj
 0001:0009198c       ReleaseState               1009298c f   usc:usc.obj
 0001:00091f44       ConvertSwitchBP            10092f44 f   usc:usc.obj
 0001:00092588       AddNewRegisterArray        10093588 f   usc:usc.obj
 0001:00092704       CompileIntermediate        10093704 f   usc:usc.obj
 0001:000968bc       UscMakeState               100978bc f   usc:usc.obj
 0001:000969f0       PVRUniFlexCreateContext    100979f0 f   usc:usc.obj
 0001:00096b10       PVRUniFlexCompileToUspBin  10097b10 f   usc:usc.obj
 0001:00096e20       PVRUniFlexDestroyUspBin    10097e20 f   usc:usc.obj
 0001:00096e50       GetCurrentProcess          10097e50 f i usc:usc.obj
 0001:00096e68       InitializeList             10097e68 f i usc:usc.obj
 0001:00096e98       GetBit                     10097e98 f i usc:usc.obj
 0001:00096f1c       RemoveListHead             10097f1c f i usc:usc.obj
 0001:00096fb8       IsListEmpty                10097fb8 f i usc:usc.obj
 0001:00097004       ResizeArray                10098004 f   usc:data.obj
 0001:000970d8       ClearArray                 100980d8 f   usc:data.obj
 0001:000972f8       FreeArray                  100982f8 f   usc:data.obj
 0001:00097370       InitArray                  10098370 f   usc:data.obj
 0001:000973f0       NewArray                   100983f0 f   usc:data.obj
 0001:0009744c       ArrayGet                   1009844c f   usc:data.obj
 0001:00097b98       ArraySet                   10098b98 f   usc:data.obj
 0001:00097ef8       ClearVector                10098ef8 f   usc:data.obj
 0001:0009800c       FreeVector                 1009900c f   usc:data.obj
 0001:00098080       CheckVector                10099080 f   usc:data.obj
 0001:0009836c       InitVector                 1009936c f   usc:data.obj
 0001:00098460       NewVector                  10099460 f   usc:data.obj
 0001:000984b8       VectorGet                  100994b8 f   usc:data.obj
 0001:000986d8       VectorLength               100996d8 f   usc:data.obj
 0001:00098828       ArrayElemOp                10099828 f   usc:data.obj
 0001:00098a10       VectorOp                   10099a10 f   usc:data.obj
 0001:000993dc       VectorCopy                 1009a3dc f   usc:data.obj
 0001:00099674       VectorSet                  1009a674 f   usc:data.obj
 0001:00099a5c       VectorGetRange             1009aa5c f   usc:data.obj
 0001:00099fb0       VectorSetRange             1009afb0 f   usc:data.obj
 0001:0009a418       VectorOrRange              1009b418 f   usc:data.obj
 0001:0009a664       VectorAndRange             1009b664 f   usc:data.obj
 0001:0009a8e8       NewGraph                   1009b8e8 f   usc:data.obj
 0001:0009a994       ClearGraph                 1009b994 f   usc:data.obj
 0001:0009aa08       FreeGraph                  1009ba08 f   usc:data.obj
 0001:0009aa7c       GraphGet                   1009ba7c f   usc:data.obj
 0001:0009aba0       GraphSet                   1009bba0 f   usc:data.obj
 0001:0009ad9c       GraphColRef                1009bd9c f   usc:data.obj
 0001:0009ae04       GraphDupCol                1009be04 f   usc:data.obj
 0001:0009afbc       GraphClearRow              1009bfbc f   usc:data.obj
 0001:0009b0dc       GraphClearCol              1009c0dc f   usc:data.obj
 0001:0009b164       GraphOrCol                 1009c164 f   usc:data.obj
 0001:0009b32c       GraphCopy                  1009c32c f   usc:data.obj
 0001:0009b620       NewMatrix                  1009c620 f   usc:data.obj
 0001:0009b6cc       ClearMatrixCol             1009c6cc f   usc:data.obj
 0001:0009b760       ClearMatrix                1009c760 f   usc:data.obj
 0001:0009b7d4       FreeMatrix                 1009c7d4 f   usc:data.obj
 0001:0009b848       MatrixGet                  1009c848 f   usc:data.obj
 0001:0009b928       MatrixSet                  1009c928 f   usc:data.obj
 0001:0009ba9c       InsertSort                 1009ca9c f   usc:data.obj
 0001:0009bcac       InitialiseAdjacencyList    1009ccac f   usc:data.obj
 0001:0009bcec       DeleteAdjacencyList        1009ccec f   usc:data.obj
 0001:0009bd50       DeleteAdjacencyListIndirect 1009cd50 f   usc:data.obj
 0001:0009bdb0       ReplaceInAdjacencyList     1009cdb0 f   usc:data.obj
 0001:0009bed0       RemoveFromAdjacencyList    1009ced0 f   usc:data.obj
 0001:0009c164       AddToAdjacencyList         1009d164 f   usc:data.obj
 0001:0009c278       CloneAdjacencyList         1009d278 f   usc:data.obj
 0001:0009c3c0       GetAdjacencyListLength     1009d3c0 f   usc:data.obj
 0001:0009c46c       UscStackEmpty              1009d46c f   usc:data.obj
 0001:0009c4bc       UscStackMake               1009d4bc f   usc:data.obj
 0001:0009c558       UscStackDelete             1009d558 f   usc:data.obj
 0001:0009c5d4       UscStackPush               1009d5d4 f   usc:data.obj
 0001:0009c7d8       UscStackTop                1009d7d8 f   usc:data.obj
 0001:0009c85c       UscStackPop                1009d85c f   usc:data.obj
 0001:0009c9a8       UscTreeMake                1009d9a8 f   usc:data.obj
 0001:0009ca5c       UscTreeDelete              1009da5c f   usc:data.obj
 0001:0009cc50       UscTreeDeleteAll           1009dc50 f   usc:data.obj
 0001:0009cc98       UscTreeGetPtr              1009dc98 f   usc:data.obj
 0001:0009cdb4       UscTreeAdd                 1009ddb4 f   usc:data.obj
 0001:0009d644       UscTreeIter                1009e644 f   usc:data.obj
 0001:0009d7a4       SubstElemDelete            1009e7a4 f   usc:data.obj
 0001:0009d834       RegSubstAlloc              1009e834 f   usc:data.obj
 0001:0009d9b8       RegSubstDelete             1009e9b8 f   usc:data.obj
 0001:0009d9f0       BaseRegSubstAdd            1009e9f0 f   usc:data.obj
 0001:0009dac4       RegSubstAdd                1009eac4 f   usc:data.obj
 0001:0009db98       RegSubstFind               1009eb98 f   usc:data.obj
 0001:0009dccc       GetRange                   1009eccc f i usc:data.obj
 0001:0009ddf4       InsertInList               1009edf4 f i usc:data.obj
 0001:0009de68       AppendToList               1009ee68 f i usc:data.obj
 0001:0009deec       BaseTreeGetPtr             1009eeec f i usc:data.obj
 0001:0009df40       BaseTreeSet                1009ef40 f i usc:data.obj
 0001:0009df68       ClearRegLiveSet            1009ef68 f   usc:dce.obj
 0001:0009dff0       InitRegLiveSet             1009eff0 f   usc:dce.obj
 0001:0009e098       FreeRegLiveSet             1009f098 f   usc:dce.obj
 0001:0009e10c       AllocRegLiveSet            1009f10c f   usc:dce.obj
 0001:0009e154       GetLiveChansInArgument     1009f154 f   usc:dce.obj
 0001:0009fda4       GetLiveChansInArg          100a0da4 f   usc:dce.obj
 0001:000a0010       GetRegisterLiveMask        100a1010 f   usc:dce.obj
 0001:000a0404       SetRegisterLiveMask        100a1404 f   usc:dce.obj
 0001:000a07bc       IncreaseRegisterLiveMask   100a17bc f   usc:dce.obj
 0001:000a0bfc       IncreaseIndexLiveMask      100a1bfc f   usc:dce.obj
 0001:000a0ce0       DeadCodeSplitBlock         100a1ce0 f   usc:dce.obj
 0001:000a2c6c       DeadCodeEliminationBP      100a3c6c f   usc:dce.obj
 0001:000a2e88       DoSALiveness               100a3e88 f   usc:dce.obj
 0001:000a3b3c       DeadCodeElimination        100a4b3c f   usc:dce.obj
 0001:000a41d0       InitRegUseDef              100a51d0 f   usc:dce.obj
 0001:000a4278       ClearRegUseDef             100a5278 f   usc:dce.obj
 0001:000a4308       InitUseDef                 100a5308 f   usc:dce.obj
 0001:000a4330       ClearUseDef                100a5330 f   usc:dce.obj
 0001:000a4360       GetRegUseDef               100a5360 f   usc:dce.obj
 0001:000a472c       IncreaseRegUseDef          100a572c f   usc:dce.obj
 0001:000a4a98       ReduceRegUseDef            100a5a98 f   usc:dce.obj
 0001:000a4e24       InstUseSubset              100a5e24 f   usc:dce.obj
 0001:000a55dc       InstUse                    100a65dc f   usc:dce.obj
 0001:000a5604       InstDef                    100a6604 f   usc:dce.obj
 0001:000a5a8c       ComputeInstUseDef          100a6a8c f   usc:dce.obj
 0001:000a5b44       InstUseDefined             100a6b44 f   usc:dce.obj
 0001:000a5ca0       InstDefReferenced          100a6ca0 f   usc:dce.obj
 0001:000a5d90       DisjointUseDef             100a6d90 f   usc:dce.obj
 0001:000a5f74       RegUseInst                 100a6f74 f   usc:dce.obj
 0001:000a639c       RegUseInstSeq              100a739c f   usc:dce.obj
 0001:000a63f4       RegUseBlock                100a73f4 f   usc:dce.obj
 0001:000a669c       SetRange                   100a769c f i usc:dce.obj
 0001:000a6858       SetInstCallData            100a7858 f i usc:dce.obj
 0001:000a68f8       SetBlockCallData           100a78f8 f i usc:dce.obj
 0001:000a6978       CanHaveSourceModifier      100a7978 f   usc:inst.obj
 0001:000a6a78       GetUSPPerSampleTemporaryCount 100a7a78 f   usc:inst.obj
 0001:000a6b04       GetDestinationRegisterGroupDetails 100a7b04 f   usc:inst.obj
 0001:000a6bac       GetRegisterGroupCount      100a7bac f   usc:inst.obj
 0001:000a6c28       GetRegisterGroupDetails    100a7c28 f   usc:inst.obj
 0001:000a6ed4       IsArgInRegisterGroup       100a7ed4 f   usc:inst.obj
 0001:000a6fdc       HasC10FmtControl           100a7fdc f   usc:inst.obj
 0001:000a7094       RequiresGradients          100a8094 f   usc:inst.obj
 0001:000a711c       CanUseRepeatMask           100a811c f   usc:inst.obj
 0001:000a716c       GetMaxRepeatCountInst      100a816c f   usc:inst.obj
 0001:000a71ec       CanRepeatInst              100a81ec f   usc:inst.obj
 0001:000a739c       HasF16F32SelectInst        100a839c f   usc:inst.obj
 0001:000a7450       WroteAllLiveChannels       100a8450 f   usc:inst.obj
 0001:000a74e4       CanUseDest                 100a84e4 f   usc:inst.obj
 0001:000a7648       GetSmpBackendSrcSet        100a8648 f   usc:inst.obj
 0001:000a7940       CanUseSrc                  100a8940 f   usc:inst.obj
 0001:000a8250       GetChannelsWrittenInRegister 100a9250 f   usc:inst.obj
 0001:000a8360       GetChannelsWrittenInArg    100a9360 f   usc:inst.obj
 0001:000a83b4       FreeInst                   100a93b4 f   usc:inst.obj
 0001:000a89ac       InitInstArg                100a99ac f   usc:inst.obj
 0001:000a8a7c       SetOpcode                  100a9a7c f   usc:inst.obj
 0001:000a93fc       AllocateInst               100aa3fc f   usc:inst.obj
 0001:000a9604       CopyInst                   100aa604 f   usc:inst.obj
 0001:000a9cf0       FormMove                   100aacf0 f   usc:inst.obj
 0001:000a9e2c       IsMove                     100aae2c f   usc:inst.obj
 0001:000aa484       GetDestMaskIdx             100ab484 f   usc:inst.obj
 0001:000aa4c4       GetDestMask                100ab4c4 f   usc:inst.obj
 0001:000aa52c       ConvertRegister            100ab52c f   usc:inst.obj
 0001:000aa68c       SameRegister               100ab68c f   usc:inst.obj
 0001:000aa740       EqualArgsIgnoreNegate      100ab740 f   usc:inst.obj
 0001:000aa8e0       EqualArgs                  100ab8e0 f   usc:inst.obj
 0001:000aa91c       IsDeschedBeforeInst        100ab91c f   usc:inst.obj
 0001:000aa980       IsDeschedAfterInst         100ab980 f   usc:inst.obj
 0001:000aaa40       IsDeschedulingPoint        100aba40 f   usc:inst.obj
 0001:000aaab0       CanUseSource0              100abab0 f   usc:inst.obj
 0001:000aaaf4       EqualInstructionParameters 100abaf4 f   usc:inst.obj
 0001:000ab774       EqualInstructionModes      100ac774 f   usc:inst.obj
 0001:000ab984       IsInstAffectedByBRN21752   100ac984 f   usc:inst.obj
 0001:000ab9fc       GetMinimalDestinationMask  100ac9fc f   usc:inst.obj
 0001:000abb24       RemoveFromList             100acb24 f i usc:inst.obj
 0001:000abbc0       CalcDoms                   100acbc0 f   usc:domcalc.obj
 0001:000acb0c       Dominates                  100adb0c f   usc:domcalc.obj
 0001:000acc00       PostDominated              100adc00 f   usc:domcalc.obj
 0001:000accf4       ComputeLoopNestingTree     100adcf4 f   usc:domcalc.obj
 0001:000acf08       IsLoopHeader               100adf08 f   usc:domcalc.obj
 0001:000acfbc       LoopDepth                  100adfbc f   usc:domcalc.obj
 0001:000ad050       SupportNoSched             100ae050 f   usc:finalise.obj
 0001:000ad0dc       UpdateIRegsLive            100ae0dc f   usc:finalise.obj
 0001:000ad148       SetupSkipInvalidFlag       100ae148 f   usc:finalise.obj
 0001:000aefe4       GenerateFetchInstructionsBP 100affe4 f   usc:finalise.obj
 0001:000b1ac0       IsAsyncWBInst              100b2ac0 f   usc:finalise.obj
 0001:000b1b78       FinaliseShader             100b2b78 f   usc:finalise.obj
 0001:000b4d00       GetIRegsWrittenMask        100b5d00 f   usc:regalloc.obj
 0001:000b4e04       GetIRegsReadMask           100b5e04 f   usc:regalloc.obj
 0001:000b4f80       UpdateIRegs                100b5f80 f   usc:regalloc.obj
 0001:000b5054       CmpNodeActivity            100b6054 f   usc:regalloc.obj
 0001:000b5270       NodeActivity               100b6270 f   usc:regalloc.obj
 0001:000b5300       InitRegInterval            100b6300 f   usc:regalloc.obj
 0001:000b5380       ClearRegInterval           100b6380 f   usc:regalloc.obj
 0001:000b53b8       DeleteRegInterval          100b63b8 f   usc:regalloc.obj
 0001:000b53ec       FreeRegIntervalList        100b63ec f   usc:regalloc.obj
 0001:000b54b8       MergeIntervals             100b64b8 f   usc:regalloc.obj
 0001:000b5688       EarlierThan                100b6688 f   usc:regalloc.obj
 0001:000b56cc       IntervalLive               100b66cc f   usc:regalloc.obj
 0001:000b57b4       IntervalCmp                100b67b4 f   usc:regalloc.obj
 0001:000b582c       IntervalLength             100b682c f   usc:regalloc.obj
 0001:000b585c       ProcListFindPos            100b685c f   usc:regalloc.obj
 0001:000b5a7c       RegIntvlFindWith           100b6a7c f   usc:regalloc.obj
 0001:000b5e1c       ProcListFindStart          100b6e1c f   usc:regalloc.obj
 0001:000b5e88       ProcListCons               100b6e88 f   usc:regalloc.obj
 0001:000b5edc       RegIntvlDrop               100b6edc f   usc:regalloc.obj
 0001:000b5f94       RegIntvlCons               100b6f94 f   usc:regalloc.obj
 0001:000b6050       ProcListAdd                100b7050 f   usc:regalloc.obj
 0001:000b6148       ProcListRemove             100b7148 f   usc:regalloc.obj
 0001:000b6220       AssignRegisters            100b7220 f   usc:regalloc.obj
 0001:000c7438       NextAdjacent               100c8438 f i usc:regalloc.obj
 0001:000c74f8       MoveToNextChunk            100c84f8 f i usc:regalloc.obj
 0001:000c757c       FirstAdjacent              100c857c f i usc:regalloc.obj
 0001:000c763c       IsLastAdjacent             100c863c f i usc:regalloc.obj
 0001:000c7688       ReplaceConstantRegNumsBySecAttrs 100c8688 f   usc:regpack.obj
 0001:000c7954       GetHardwareConstantValueu  100c8954 f   usc:regpack.obj
 0001:000c79e4       GetHardwareConstantValue   100c89e4 f   usc:regpack.obj
 0001:000c7aa8       IsStaticC10Value           100c8aa8 f   usc:regpack.obj
 0001:000c7da0       GetSAProgNumResultRegisters 100c8da0 f   usc:regpack.obj
 0001:000c7dec       DropSAProgResult           100c8dec f   usc:regpack.obj
 0001:000c8018       BaseAddNewSAProgResult     100c9018 f   usc:regpack.obj
 0001:000c81b8       AddNewSAProgResult         100c91b8 f   usc:regpack.obj
 0001:000c8208       ReplaceSpillAreaOffsetByStatic 100c9208 f   usc:regpack.obj
 0001:000c8310       AddNewInRegisterConstant   100c9310 f   usc:regpack.obj
 0001:000c845c       AddStaticSecAttrRange      100c945c f   usc:regpack.obj
 0001:000c89a0       AddStaticSecAttr           100c99a0 f   usc:regpack.obj
 0001:000c89e0       ReplaceHardwareConstBySecAttr 100c99e0 f   usc:regpack.obj
 0001:000c8acc       AddDummyIteration          100c9acc f   usc:regpack.obj
 0001:000c8bf4       AddIteratedValue           100c9bf4 f   usc:regpack.obj
 0001:000c8eb8       GetIteratedValue           100c9eb8 f   usc:regpack.obj
 0001:000c900c       UpdateFixedRegsForPixelShaderInputs 100ca00c f   usc:regpack.obj
 0001:000c9270       AddOrCreateNonDependentTextureSample 100ca270 f   usc:regpack.obj
 0001:000c9618       RemoveUnusedPixelShaderInputs 100ca618 f   usc:regpack.obj
 0001:000ca6dc       SetC10RGBAConstant         100cb6dc f   usc:regpack.obj
 0001:000ca97c       IsC10RGBAConstant          100cb97c f   usc:regpack.obj
 0001:000caa40       CalculateHardwareRegisterLimits 100cba40 f   usc:regpack.obj
 0001:000caeb0       PackConstantRegisters      100cbeb0 f   usc:regpack.obj
 0001:000cdb58       GenerateNonEfoInstructionsBP 100ceb58 f   usc:iselect.obj
 0001:000d326c       OverwritesIndex            100d426c f   usc:iselect.obj
 0001:000d32d0       SimplifyArithmetic         100d42d0 f   usc:iselect.obj
 0001:000d4624       GlobalDefaultUpdateBlock   100d5624 f   usc:iselect.obj
 0001:000d47a0       DoGlobalMoveReplace        100d57a0 f   usc:iselect.obj
 0001:000d5828       EliminateGlobalMove        100d6828 f   usc:iselect.obj
 0001:000d6360       EliminateMovesBP           100d7360 f   usc:iselect.obj
 0001:000d7f50       EliminateMovesAndFuncs     100d8f50 f   usc:iselect.obj
 0001:000d812c       MergeIdenticalInstructionsBP 100d912c f   usc:iselect.obj
 0001:000d8ecc       ExtractConstantCalculations 100d9ecc f   usc:iselect.obj
 0001:000db640       FlattenProgramConditionals 100dc640 f   usc:iselect.obj
 0001:000dc1fc       OptimiseUSPSamplesBP       100dd1fc f   usc:iselect.obj
 0001:000de2f8       ReduceSampleResultPrecision 100df2f8 f   usc:iselect.obj
 0001:000df804       RemoveUnnecessarySaturationsBP 100e0804 f   usc:iselect.obj
 0001:000e06bc       ConvertPredicatedMovesToMovcBP 100e16bc f   usc:iselect.obj
 0001:000e0e58       ApplyIMAEComponentSelect   100e1e58 f   usc:iselect.obj
 0001:000e10a0       FixInvalidSourceBanks      100e20a0 f   usc:iselect.obj
 0001:000e3c4c       GetHWOperandsUsedForArg    100e4c4c f   usc:uspbin.obj
 0001:000e3dd0       CreateUspBinOutput         100e4dd0 f   usc:uspbin.obj
 0001:000e8e48       DestroyUspBinOutput        100e9e48 f   usc:uspbin.obj
 0001:000e8e74       InsertAlternateResults     100e9e74 f   usc:uspbin.obj
 0001:000ea11c       IsInstReferingShaderResult 100eb11c f   usc:uspbin.obj
 0001:000ea1bc       CalcInstSrcChans           100eb1bc f   usc:iregalloc.obj
 0001:000ea1f8       AssignInternalRegisters    100eb1f8 f   usc:iregalloc.obj
 0001:000fbc78       AssignPredicateRegisters   100fcc78 f   usc:pregalloc.obj
 0001:000feba0       SetupSyncStartInformation  100ffba0 f   usc:pregalloc.obj
 0001:00101318       ReorderInstructionsBP      10102318 f   usc:reorder.obj
 0001:00101f44       SplitFeedback              10102f44 f   usc:reorder.obj
 0001:001030d0       PeepholeOptimizeBlock      101040d0 f   usc:reorder.obj
 0001:00106364       SetupEfoUsage              10107364 f   usc:efo.obj
 0001:00106d70       GenerateEfoInstructionsBP  10107d70 f   usc:efo.obj
 0001:00119850       EliminateF16MovesBP        1011a850 f   usc:f16opt.obj
 0001:00120f84       CombineFMad16Swizzle       10121f84 f   usc:f16opt.obj
 0001:00121064       SubstituteFMad16Swizzle    10122064 f   usc:f16opt.obj
 0001:00121220       AssignIndexRegistersBP     10122220 f   usc:indexreg.obj
 0001:0012278c       ValueNumbering             1012378c f   usc:ssa.obj
 0001:001259b8       IsSOPWMMultiply            101269b8 f   usc:intcvt.obj
 0001:00125af0       IsSOPWMMove                10126af0 f   usc:intcvt.obj
 0001:00125bd8       IntegerOptimize            10126bd8 f   usc:intcvt.obj
 0001:00136e28       AppendListToList           10137e28 f i usc:intcvt.obj
 0001:00136ee0       PrintInput                 10137ee0 f   usc:debug.obj
 0001:0013969c       PrintIntermediateInst      1013a69c f   usc:debug.obj
 0001:0013c760       PrintIntermediate          1013d760 f   usc:debug.obj
 0001:0013d118       LoadConstantNoHWReg        1013e118 f   usc:icvt_core.obj
 0001:0013dc7c       LoadConstant               1013ec7c f   usc:icvt_core.obj
 0001:0013df08       UnpackU24Channel           1013ef08 f   usc:icvt_core.obj
 0001:0013e2c4       NewVecArrayData            1013f2c4 f   usc:icvt_core.obj
 0001:0013e390       LoadStoreIndexableTemp     1013f390 f   usc:icvt_core.obj
 0001:0013ead4       StoreIndexableTemp         1013fad4 f   usc:icvt_core.obj
 0001:0013eb70       LoadMaxTexarrayIndex       1013fb70 f   usc:icvt_core.obj
 0001:0013ec94       ConvertSamplerInstructionCore 1013fc94 f   usc:icvt_core.obj
 0001:00140674       LabelToInst                10141674 f   usc:icvt_core.obj
 0001:001406f4       IsInputInstFlowControl     101416f4 f   usc:icvt_core.obj
 0001:00140784       ConvertVertexInputInstructionCore 10141784 f   usc:icvt_core.obj
 0001:00141258       GetPredicateInst           10142258 f   usc:icvt_core.obj
 0001:00141304       GetRegisterFormat          10142304 f   usc:icvt_core.obj
 0001:0014133c       AddFixedReg                1014233c f   usc:icvt_core.obj
 0001:00141428       ConvertToIntermediate      10142428 f   usc:icvt_core.obj
 0001:001500c8       TypeUsesFormatControl      101510c8 f   usc:groupinst.obj
 0001:00150138       MoeArgToInstArg            10151138 f   usc:groupinst.obj
 0001:001502ac       IsValidSwapInst            101512ac f   usc:groupinst.obj
 0001:0015040c       GroupInstructionsProgram   1015140c f   usc:groupinst.obj
 0001:0015b13c       IsIllegalInstructionPair   1015c13c f   usc:layout.obj
 0001:0015b254       IsSyncEndDest              1015c254 f   usc:layout.obj
 0001:0015b4b8       NoSchedLabelCB             1015c4b8 f   usc:layout.obj
 0001:0015b510       CommonBranchCB             1015c510 f   usc:layout.obj
 0001:0015b7a4       LayoutProgram              1015c7a4 f   usc:layout.obj
 0001:0015c638       CanSetEndFlag              1015d638 f   usc:layout.obj
 0001:0015c7c8       PointActionsHwCB           1015d7c8 f   usc:layout.obj
 0001:0015cb7c       GetInputToU8C10IntermediateSwizzle 1015db7c f   usc:icvt_c10.obj
 0001:0015cbb0       ConvertInputWriteMaskToIntermediate 1015dbb0 f   usc:icvt_c10.obj
 0001:0015cbf8       ConvertInputChannelToIntermediate 1015dbf8 f   usc:icvt_c10.obj
 0001:0015cc40       CanOverrideSwiz            1015dc40 f   usc:icvt_c10.obj
 0001:0015ccb0       GetSourceC10               1015dcb0 f   usc:icvt_c10.obj
 0001:00160734       CheckDuplicateChannel      10161734 f   usc:icvt_c10.obj
 0001:00160808       CreateComparisonC10        10161808 f   usc:icvt_c10.obj
 0001:001612f4       GetGradientsC10            101622f4 f   usc:icvt_c10.obj
 0001:00161560       GetLODAdjustmentC10        10162560 f   usc:icvt_c10.obj
 0001:00161768       GetSampleCoordinateArrayIndexC10 10162768 f   usc:icvt_c10.obj
 0001:00161b04       GetSampleCoordinatesC10    10162b04 f   usc:icvt_c10.obj
 0001:0016257c       ConvertInstToIntermediateC10 1016357c f   usc:icvt_c10.obj
 0001:0016a550       NewDGraphState             1016b550 f   usc:dgraph.obj
 0001:0016a89c       FreeDGraphState            1016b89c f   usc:dgraph.obj
 0001:0016ab68       AddNewInstToDGraph         1016bb68 f   usc:dgraph.obj
 0001:0016aca8       GetNextAvailable           1016bca8 f   usc:dgraph.obj
 0001:0016ad1c       AddDependency              1016bd1c f   usc:dgraph.obj
 0001:0016b04c       AddClosedDependency        1016c04c f   usc:dgraph.obj
 0001:0016b194       RemoveDependency           1016c194 f   usc:dgraph.obj
 0001:0016b380       SplitInstructions          1016c380 f   usc:dgraph.obj
 0001:0016b994       MergeInstructions          1016c994 f   usc:dgraph.obj
 0001:0016be20       RemoveInstruction          1016ce20 f   usc:dgraph.obj
 0001:0016c0ac       ComputeClosedDependencyGraph 1016d0ac f   usc:dgraph.obj
 0001:0016c340       UpdateClosedDependencyGraph 1016d340 f   usc:dgraph.obj
 0001:0016c46c       ComputeDependencyGraph     1016d46c f   usc:dgraph.obj
 0001:0016d748       EncodeInst                 1016e748 f   usc:asm.obj
 0001:00172e80       EncodeNop                  10173e80 f   usc:asm.obj
 0001:00172eb4       EncodeJump                 10173eb4 f   usc:asm.obj
 0001:001730ac       EncodeLabel                101740ac f   usc:asm.obj
 0001:00173144       GetSingleSourceF16         10174144 f   usc:icvt_f16.obj
 0001:00174524       GetSingleSourceConvertToF32 10175524 f   usc:icvt_f16.obj
 0001:001749b0       GetGradientsF16            101759b0 f   usc:icvt_f16.obj
 0001:00174c38       GetLODAdjustmentF16        10175c38 f   usc:icvt_f16.obj
 0001:00174e44       GetSampleCoordinateArrayIndexF16 10175e44 f   usc:icvt_f16.obj
 0001:00175068       GetSampleCoordinatesF16    10176068 f   usc:icvt_f16.obj
 0001:001768e4       ConvertInstToIntermediateF16 101778e4 f   usc:icvt_f16.obj
 0001:0017a734       PackPSOutputNum            1017b734 f   usc:icvt_f32.obj
 0001:0017a840       ConvertTempRegisterNumberF32 1017b840 f   usc:icvt_f32.obj
 0001:0017a91c       GetPSOutputSource          1017b91c f   usc:icvt_f32.obj
 0001:0017a9f4       GetVSOutputSource          1017b9f4 f   usc:icvt_f32.obj
 0001:0017afc8       GetDestinationF32          1017bfc8 f   usc:icvt_f32.obj
 0001:0017b248       GenerateDestModF32         1017c248 f   usc:icvt_f32.obj
 0001:0017b7ec       LoadIteratedValue          1017c7ec f   usc:icvt_f32.obj
 0001:0017bc08       ApplySourceModF32          1017cc08 f   usc:icvt_f32.obj
 0001:0017c028       GetSourceF32               1017d028 f   usc:icvt_f32.obj
 0001:0017cd0c       DestChanOverlapsSrc        1017dd0c f   usc:icvt_f32.obj
 0001:0017cfec       ConvertBitwiseInstructionF32 1017dfec f   usc:icvt_f32.obj
 0001:0017d87c       ConvertVertexInputInstructionTypeless 1017e87c f   usc:icvt_f32.obj
 0001:0017d9d8       CreateComparisonFloat      1017e9d8 f   usc:icvt_f32.obj
 0001:0017df9c       ConvertSetpInstructionNonC10 1017ef9c f   usc:icvt_f32.obj
 0001:0017e448       ConvertComparisonInstructionF32 1017f448 f   usc:icvt_f32.obj
 0001:0017f330       UnpackTextureChannelToF32  10180330 f   usc:icvt_f32.obj
 0001:0017fb60       UnpackTexture              10180b60 f   usc:icvt_f32.obj
 0001:0017fd74       GetGradientsF32            10180d74 f   usc:icvt_f32.obj
 0001:0017ff14       GetLODAdjustmentF32        10180f14 f   usc:icvt_f32.obj
 0001:00180054       GetSampleCoordinateArrayIndexF32 10181054 f   usc:icvt_f32.obj
 0001:00180250       GetSampleCoordinatesF32    10181250 f   usc:icvt_f32.obj
 0001:001806c4       ConvertSamplerInstructionF32 101816c4 f   usc:icvt_f32.obj
 0001:00180828       ConvertTexkillInstructionFloat 10181828 f   usc:icvt_f32.obj
 0001:00180e80       ConvertIntegerDot34        10181e80 f   usc:icvt_f32.obj
 0001:0018152c       GetIndexScalarFactor       1018252c f   usc:icvt_f32.obj
 0001:001815b4       ConvertIntegerAddressValue 101825b4 f   usc:icvt_f32.obj
 0001:001816e0       ConvertFloatAddressValue   101826e0 f   usc:icvt_f32.obj
 0001:0018185c       ConvertAddressValue        1018285c f   usc:icvt_f32.obj
 0001:0018190c       SetupAddressValue          1018290c f   usc:icvt_f32.obj
 0001:0018309c       ConvertMovaInstructionFloat 1018409c f   usc:icvt_f32.obj
 0001:001832a8       ConvertInstToIntermediateF32 101842a8 f   usc:icvt_f32.obj
 0001:0018674c       GetSourceLiveChans         1018774c f   usc:precovr.obj
 0001:00186cac       SwizzleMask                10187cac f   usc:precovr.obj
 0001:00186d5c       SkipInstBlock              10187d5c f   usc:precovr.obj
 0001:00186f84       ConvertOperationsToInteger 10187f84 f   usc:precovr.obj
 0001:0018b078       OverrideFloat16Precisions  1018c078 f   usc:precovr.obj
 0001:0018ce94       GetSourceTypeless          1018de94 f   usc:icvt_i32.obj
 0001:0018ced4       GetDestinationTypeless     1018ded4 f   usc:icvt_i32.obj
 0001:0018cf0c       GenerateIntegerArithmetic  1018df0c f   usc:icvt_i32.obj
 0001:0018f028       ConvertF32ConversionInstructionInt32 10190028 f   usc:icvt_i32.obj
 0001:0018fdc8       CreateComparisonInt16      10190dc8 f   usc:icvt_i32.obj
 0001:0018ffa8       CreateComparisonInt32      10190fa8 f   usc:icvt_i32.obj
 0001:001906e0       ZeroExtendInteger          101916e0 f   usc:icvt_i32.obj
 0001:001908f0       SignExtendInteger          101918f0 f   usc:icvt_i32.obj
 0001:00190bec       ConvertInstToIntermediateInt32 10191bec f   usc:icvt_i32.obj
 0001:001949dc       IntegerNegate              101959dc f   usc:icvt_i32.obj
 0001:00194bf0       GetFeatureEntry            10195bf0 f   useasm:utils.obj
 0001:00194d2c       GetBugEntry                10195d2c f   useasm:utils.obj
 0001:00194d64       IsRevisionValid            10195d64 f   useasm:utils.obj
 0001:00194dc8       FixBRN21697                10195dc8 f   useasm:utils.obj
 0001:00194e20       FixBRN21713                10195e20 f   useasm:utils.obj
 0001:00194e78       FixBRN23062                10195e78 f   useasm:utils.obj
 0001:00194ed0       FixBRN23164                10195ed0 f   useasm:utils.obj
 0001:00194f28       FixBRN23461                10195f28 f   useasm:utils.obj
 0001:00194f80       FixBRN23960                10195f80 f   useasm:utils.obj
 0001:00194fd8       FixBRN24895                10195fd8 f   useasm:utils.obj
 0001:00195030       FixBRN25355                10196030 f   useasm:utils.obj
 0001:00195088       FixBRN25060                10196088 f   useasm:utils.obj
 0001:001950e0       FixBRN25580                101960e0 f   useasm:utils.obj
 0001:00195138       FixBRN25582                10196138 f   useasm:utils.obj
 0001:00195190       FixBRN26570                10196190 f   useasm:utils.obj
 0001:001951e8       FixBRN27005                101961e8 f   useasm:utils.obj
 0001:00195240       FixBRN26681                10196240 f   useasm:utils.obj
 0001:00195298       FixBRN27984                10196298 f   useasm:utils.obj
 0001:001952f0       IsEnhancedNoSched          101962f0 f   useasm:utils.obj
 0001:00195348       IsHighPrecisionFIR         10196348 f   useasm:utils.obj
 0001:001953a0       IsLoadMOEStateFromRegisters 101963a0 f   useasm:utils.obj
 0001:001953f8       IsPerInstMoeIncrements     101963f8 f   useasm:utils.obj
 0001:00195450       IsFClampInstruction        10196450 f   useasm:utils.obj
 0001:001954a8       IsSqrtSinCosInstruction    101964a8 f   useasm:utils.obj
 0001:00195500       IsIMA32Instruction         10196500 f   useasm:utils.obj
 0001:00195558       IsIDIVInstruction          10196558 f   useasm:utils.obj
 0001:001955b0       SupportsExtendedLoad       101965b0 f   useasm:utils.obj
 0001:00195608       SupportsLDSTExtendedCacheModes 10196608 f   useasm:utils.obj
 0001:00195664       SupportsSTNoReadBeforeWrite 10196664 f   useasm:utils.obj
 0001:001956c0       SupportsSMPResultFormatConvert 101966c0 f   useasm:utils.obj
 0001:0019571c       HasNewEfoOptions           1019671c f   useasm:utils.obj
 0001:00195774       HasPackMultipleRoundModes  10196774 f   useasm:utils.obj
 0001:001957cc       HasDualIssue               101967cc f   useasm:utils.obj
 0001:00195824       HasUnlimitedPhases         10196824 f   useasm:utils.obj
 0001:0019587c       HasNoInstructionPairing    1019687c f   useasm:utils.obj
 0001:001958d4       NumberOfMutexesSupported   101968d4 f   useasm:utils.obj
 0001:00195910       NumberOfMonitorsSupported  10196910 f   useasm:utils.obj
 0001:0019594c       NumberOfProgramCounterBits 1019694c f   useasm:utils.obj
 0001:00195988       SupportsAlphaToCoverage    10196988 f   useasm:utils.obj
 0001:001959e0       SupportsFmad16Swizzles     101969e0 f   useasm:utils.obj
 0001:00195a38       SupportsFnormalise         10196a38 f   useasm:utils.obj
 0001:00195a90       SupportsPCF                10196a90 f   useasm:utils.obj
 0001:00195ae8       SupportsRawSample          10196ae8 f   useasm:utils.obj
 0001:00195b40       SupportsNopTrigger         10196b40 f   useasm:utils.obj
 0001:00195b98       SupportsBranchException    10196b98 f   useasm:utils.obj
 0001:00195bf0       SupportsExtSyncEnd         10196bf0 f   useasm:utils.obj
 0001:00195c48       SupportsMOEStore           10196c48 f   useasm:utils.obj
 0001:00195ca0       SupportsCFI                10196ca0 f   useasm:utils.obj
 0001:00195cf8       SupportsVCB                10196cf8 f   useasm:utils.obj
 0001:00195d50       SupportsVEC34              10196d50 f   useasm:utils.obj
 0001:00195da8       SupportsBranchPwait        10196da8 f   useasm:utils.obj
 0001:00195e00       SupportsRawSampleBoth      10196e00 f   useasm:utils.obj
 0001:00195e58       ReducedSMPRepeatCount      10196e58 f   useasm:utils.obj
 0001:00195eb4       IMA32Is32x16Plus32         10196eb4 f   useasm:utils.obj
 0001:00195f10       SupportsTESTSUB32          10196f10 f   useasm:utils.obj
 0001:00195f6c       NoRepeatMaskOnBitwiseInstructions 10196f6c f   useasm:utils.obj
 0001:00195fc8       NoRepeatMaskOnSMPInstructions 10196fc8 f   useasm:utils.obj
 0001:00196024       SupportSkipInvalidOnIDFInstruction 10197024 f   useasm:utils.obj
 0001:00196080       SupportsQwordLDST          10197080 f   useasm:utils.obj
 0001:001960dc       SupportsIDXSC              101970dc f   useasm:utils.obj
 0001:00196138       SupportsTESTSABLND         10197138 f   useasm:utils.obj
 0001:00196194       SupportsLDRSTRRepeat       10197194 f   useasm:utils.obj
 0001:001961f0       SupportsSTRPredicate       101971f0 f   useasm:utils.obj
 0001:0019624c       SupportsLDRSTRExtendedImmediate 1019724c f   useasm:utils.obj
 0001:001962a8       SupportsIndexTwoBanks      101972a8 f   useasm:utils.obj
 0001:00196304       SupportsSPRVV              10197304 f   useasm:utils.obj
 0001:00196360       UseAsmInitInst             10197360 f   useasm:utils.obj
 0001:001963a4       UseAsmInitReg              101973a4 f   useasm:utils.obj
 0001:001963ec       OpcodeArgumentCount        101973ec f   useasm:usetab.obj
 0001:00196430       OpcodeName                 10197430 f   useasm:usetab.obj
 0001:00196470       OpcodeAcceptsSkipInv       10197470 f   useasm:usetab.obj
 0001:001964d0       OpcodeAcceptsNoSched       101974d0 f   useasm:usetab.obj
 0001:00196530       OpcodeAcceptsNoSchedEnhanced 10197530 f   useasm:usetab.obj
 0001:00196590       FloatToCstIndex            10197590 f   useasm:useasm.obj
 0001:00196680       UseAssembleInstruction     10197680 f   useasm:useasm.obj
 0001:001b4c58       CheckUndefinedLabels       101b5c58 f   useasm:useasm.obj
 0001:001b4d44       UseAssembler               101b5d44 f   useasm:useasm.obj
 0001:001b4e24       PVRSRVAllocUserModeMem     101b5e24 f   srvclum:SRVCLUM.dll
 0001:001b4e34       PVRSRVFreeUserModeMem      101b5e34 f   srvclum:SRVCLUM.dll
 0001:001b4e44       PVRSRVReallocUserModeMem   101b5e44 f   srvclum:SRVCLUM.dll
 0001:001b4e54       PVRSRVCallocUserModeMem    101b5e54 f   srvclum:SRVCLUM.dll
 0001:001b4e64       PVRSRVSetLocale            101b5e64 f   srvclum:SRVCLUM.dll
 0001:001b4e74       PVRSRVTrace                101b5e74 f   srvclum:SRVCLUM.dll
 0001:001b4e84       TerminateProcess           101b5e84 f   coredll:COREDLL.dll
 0001:001b4e94       NKDbgPrintfW               101b5e94 f   coredll:COREDLL.dll
 0001:001b4ea4       OutputDebugStringW         101b5ea4 f   coredll:COREDLL.dll
 0001:001b4eb4       DllMain                    101b5eb4 f   corelib0:dllmain.obj
 0001:001b4ef0       _DllMainCRTStartup         101b5ef0 f   corelib0:pegdmain.obj
 0001:001b5098       __security_init_cookie     101b6098 f   corelib0:seccinit.obj
 0001:001b5160       __GSHandlerCheck           101b6160 f   corelib0:gshandler.obj
 0001:001b51a8       __GSHandlerCheckCommon     101b61a8 f   corelib0:gshandler.obj
 0001:001b5250       __security_check_cookie    101b6250 f   corelib0:armsecgs.obj
 0001:001b5264       __gsfailure                101b6264 f   corelib0:armsecgs.obj
 0001:001b52a8       exit                       101b62a8 f   corelib0:cexit.obj
 0001:001b53ec       _exit                      101b63ec f   corelib0:cexit.obj
 0001:001b5410       _cexit                     101b6410 f   corelib0:cexit.obj
 0001:001b542c       _c_exit                    101b642c f   corelib0:cexit.obj
 0001:001b5448       _initterm                  101b6448 f   corelib0:crt0dat.obj
 0001:001b549c       _cinit                     101b649c f   corelib0:crt0dat.obj
 0001:001b54d0       _onexit                    101b64d0 f   corelib0:onexit.obj
 0001:001b56b0       atexit                     101b66b0 f   corelib0:onexit.obj
 0001:001b5704       fprintf                    101b6704 f   corelib1:COREDLL.dll
 0001:001b5714       memcpy                     101b6714 f   corelib1:COREDLL.dll
 0001:001b5724       __rt_udiv                  101b6724 f   corelib1:COREDLL.dll
 0001:001b5734       fflush                     101b6734 f   corelib1:COREDLL.dll
 0001:001b5744       memset                     101b6744 f   corelib1:COREDLL.dll
 0001:001b5754       __stod                     101b6754 f   corelib1:COREDLL.dll
 0001:001b5764       __rt_sdiv                  101b6764 f   corelib1:COREDLL.dll
 0001:001b5774       strcpy                     101b6774 f   corelib1:COREDLL.dll
 0001:001b5784       strlen                     101b6784 f   corelib1:COREDLL.dll
 0001:001b5794       __itos                     101b6794 f   corelib1:COREDLL.dll
 0001:001b57a4       sprintf                    101b67a4 f   corelib1:COREDLL.dll
 0001:001b57b4       strncpy                    101b67b4 f   corelib1:COREDLL.dll
 0001:001b57c4       strcmp                     101b67c4 f   corelib1:COREDLL.dll
 0001:001b57d4       vsprintf                   101b67d4 f   corelib1:COREDLL.dll
 0001:001b57e4       _vsnprintf                 101b67e4 f   corelib1:COREDLL.dll
 0001:001b57f4       strcat                     101b67f4 f   corelib1:COREDLL.dll
 0001:001b5804       fopen                      101b6804 f   corelib1:COREDLL.dll
 0001:001b5814       strtol                     101b6814 f   corelib1:COREDLL.dll
 0001:001b5824       printf                     101b6824 f   corelib1:COREDLL.dll
 0001:001b5834       strstr                     101b6834 f   corelib1:COREDLL.dll
 0001:001b5844       strncmp                    101b6844 f   corelib1:COREDLL.dll
 0001:001b5854       strtod                     101b6854 f   corelib1:COREDLL.dll
 0001:001b5864       __dtos                     101b6864 f   corelib1:COREDLL.dll
 0001:001b5874       tan                        101b6874 f   corelib1:COREDLL.dll
 0001:001b5884       __adds                     101b6884 f   corelib1:COREDLL.dll
 0001:001b5894       __stoi                     101b6894 f   corelib1:COREDLL.dll
 0001:001b58a4       __nes                      101b68a4 f   corelib1:COREDLL.dll
 0001:001b58b4       __negs                     101b68b4 f   corelib1:COREDLL.dll
 0001:001b58c4       __muls                     101b68c4 f   corelib1:COREDLL.dll
 0001:001b58d4       __divs                     101b68d4 f   corelib1:COREDLL.dll
 0001:001b58e4       __subs                     101b68e4 f   corelib1:COREDLL.dll
 0001:001b58f4       __ges                      101b68f4 f   corelib1:COREDLL.dll
 0001:001b5904       __les                      101b6904 f   corelib1:COREDLL.dll
 0001:001b5914       __gts                      101b6914 f   corelib1:COREDLL.dll
 0001:001b5924       __lts                      101b6924 f   corelib1:COREDLL.dll
 0001:001b5934       ceil                       101b6934 f   corelib1:COREDLL.dll
 0001:001b5944       floor                      101b6944 f   corelib1:COREDLL.dll
 0001:001b5954       fabs                       101b6954 f   corelib1:COREDLL.dll
 0001:001b5964       sqrt                       101b6964 f   corelib1:COREDLL.dll
 0001:001b5974       log                        101b6974 f   corelib1:COREDLL.dll
 0001:001b5984       exp                        101b6984 f   corelib1:COREDLL.dll
 0001:001b5994       pow                        101b6994 f   corelib1:COREDLL.dll
 0001:001b59a4       atan                       101b69a4 f   corelib1:COREDLL.dll
 0001:001b59b4       atan2                      101b69b4 f   corelib1:COREDLL.dll
 0001:001b59c4       acos                       101b69c4 f   corelib1:COREDLL.dll
 0001:001b59d4       asin                       101b69d4 f   corelib1:COREDLL.dll
 0001:001b59e4       cos                        101b69e4 f   corelib1:COREDLL.dll
 0001:001b59f4       sin                        101b69f4 f   corelib1:COREDLL.dll
 0001:001b5a04       __divd                     101b6a04 f   corelib1:COREDLL.dll
 0001:001b5a14       __eqs                      101b6a14 f   corelib1:COREDLL.dll
 0001:001b5a24       longjmp                    101b6a24 f   corelib1:COREDLL.dll
 0001:001b5a34       setjmp                     101b6a34 f   corelib1:COREDLL.dll
 0001:001b5a44       memcmp                     101b6a44 f   corelib1:COREDLL.dll
 0001:001b5a54       __utos                     101b6a54 f   corelib1:COREDLL.dll
 0001:001b5a64       memmove                    101b6a64 f   corelib1:COREDLL.dll
 0001:001b5a74       __eqd                      101b6a74 f   corelib1:COREDLL.dll
 0001:001b5a84       labs                       101b6a84 f   corelib1:COREDLL.dll
 0001:001b5a94       _XcptFilter                101b6a94 f   corelib1:COREDLL.dll
 0001:001b5aa4       __C_specific_handler       101b6aa4 f   corelib1:COREDLL.dll
 0001:001b5ab4       __security_gen_cookie2     101b6ab4 f   corelib1:COREDLL.dll
 0001:001b5ac4       __report_gsfailure         101b6ac4 f   corelib1:COREDLL.dll
 0001:001b5ad4       free                       101b6ad4 f   corelib1:COREDLL.dll
 0001:001b5ae4       realloc                    101b6ae4 f   corelib1:COREDLL.dll
 0001:001b5af4       malloc                     101b6af4 f   corelib1:COREDLL.dll
 0001:001b5b04       _msize                     101b6b04 f   corelib1:COREDLL.dll
 0001:001b5b14       CreateParseContext         101b6b14 f   glsl_parser:parser.obj
 0001:001b5e04       DestroyParseContext        101b6e04 f   glsl_parser:parser.obj
 0001:001b5f34       glsl_parse                 101b6f34 f   glsl_parser:glsl_parser.tab.obj
 0001:001bdb60       LexDestroyTokenList        101beb60 f   glsl_parser:lex.obj
 0001:001bdbf4       LexCreateTokenList         101bebf4 f   glsl_parser:lex.obj
 0001:001bfae8       DisableThreadLibraryCalls  101c0ae8 f   coredll:COREDLL.dll
 0001:001bfbbc       __IMPORT_DESCRIPTOR_SRVCLUM 101c0bbc     srvclum:SRVCLUM.dll
 0001:001bfbd0       __IMPORT_DESCRIPTOR_COREDLL 101c0bd0     coredll:COREDLL.dll
 0001:001bfbe4       __NULL_IMPORT_DESCRIPTOR   101c0be4     srvclum:SRVCLUM.dll
 0002:00000000       __imp___negs               101c1000     corelib1:COREDLL.dll
 0002:00000004       __imp__msize               101c1004     corelib1:COREDLL.dll
 0002:00000008       __imp_malloc               101c1008     corelib1:COREDLL.dll
 0002:0000000c       __imp_realloc              101c100c     corelib1:COREDLL.dll
 0002:00000010       __imp_free                 101c1010     corelib1:COREDLL.dll
 0002:00000014       __imp___report_gsfailure   101c1014     corelib1:COREDLL.dll
 0002:00000018       __imp___security_gen_cookie2 101c1018     corelib1:COREDLL.dll
 0002:0000001c       __imp_TerminateProcess     101c101c     coredll:COREDLL.dll
 0002:00000020       __imp_NKDbgPrintfW         101c1020     coredll:COREDLL.dll
 0002:00000024       __imp_OutputDebugStringW   101c1024     coredll:COREDLL.dll
 0002:00000028       __imp_fprintf              101c1028     corelib1:COREDLL.dll
 0002:0000002c       __imp_memcpy               101c102c     corelib1:COREDLL.dll
 0002:00000030       __imp___rt_udiv            101c1030     corelib1:COREDLL.dll
 0002:00000034       __imp_fflush               101c1034     corelib1:COREDLL.dll
 0002:00000038       __imp_memset               101c1038     corelib1:COREDLL.dll
 0002:0000003c       __imp___stod               101c103c     corelib1:COREDLL.dll
 0002:00000040       __imp___rt_sdiv            101c1040     corelib1:COREDLL.dll
 0002:00000044       __imp_strcpy               101c1044     corelib1:COREDLL.dll
 0002:00000048       __imp_strlen               101c1048     corelib1:COREDLL.dll
 0002:0000004c       __imp___itos               101c104c     corelib1:COREDLL.dll
 0002:00000050       __imp_sprintf              101c1050     corelib1:COREDLL.dll
 0002:00000054       __imp_strncpy              101c1054     corelib1:COREDLL.dll
 0002:00000058       __imp_strcmp               101c1058     corelib1:COREDLL.dll
 0002:0000005c       __imp_vsprintf             101c105c     corelib1:COREDLL.dll
 0002:00000060       __imp__vsnprintf           101c1060     corelib1:COREDLL.dll
 0002:00000064       __imp_strcat               101c1064     corelib1:COREDLL.dll
 0002:00000068       __imp_fopen                101c1068     corelib1:COREDLL.dll
 0002:0000006c       __imp_strtol               101c106c     corelib1:COREDLL.dll
 0002:00000070       __imp_printf               101c1070     corelib1:COREDLL.dll
 0002:00000074       __imp_strstr               101c1074     corelib1:COREDLL.dll
 0002:00000078       __imp_strncmp              101c1078     corelib1:COREDLL.dll
 0002:0000007c       __imp_strtod               101c107c     corelib1:COREDLL.dll
 0002:00000080       __imp___dtos               101c1080     corelib1:COREDLL.dll
 0002:00000084       __imp_tan                  101c1084     corelib1:COREDLL.dll
 0002:00000088       __imp___adds               101c1088     corelib1:COREDLL.dll
 0002:0000008c       __imp___stoi               101c108c     corelib1:COREDLL.dll
 0002:00000090       __imp___nes                101c1090     corelib1:COREDLL.dll
 0002:00000094       __imp_DisableThreadLibraryCalls 101c1094     coredll:COREDLL.dll
 0002:00000098       __imp___muls               101c1098     corelib1:COREDLL.dll
 0002:0000009c       __imp___divs               101c109c     corelib1:COREDLL.dll
 0002:000000a0       __imp___subs               101c10a0     corelib1:COREDLL.dll
 0002:000000a4       __imp___ges                101c10a4     corelib1:COREDLL.dll
 0002:000000a8       __imp___les                101c10a8     corelib1:COREDLL.dll
 0002:000000ac       __imp___gts                101c10ac     corelib1:COREDLL.dll
 0002:000000b0       __imp___lts                101c10b0     corelib1:COREDLL.dll
 0002:000000b4       __imp_ceil                 101c10b4     corelib1:COREDLL.dll
 0002:000000b8       __imp_floor                101c10b8     corelib1:COREDLL.dll
 0002:000000bc       __imp_fabs                 101c10bc     corelib1:COREDLL.dll
 0002:000000c0       __imp_sqrt                 101c10c0     corelib1:COREDLL.dll
 0002:000000c4       __imp_log                  101c10c4     corelib1:COREDLL.dll
 0002:000000c8       __imp_exp                  101c10c8     corelib1:COREDLL.dll
 0002:000000cc       __imp_pow                  101c10cc     corelib1:COREDLL.dll
 0002:000000d0       __imp_atan                 101c10d0     corelib1:COREDLL.dll
 0002:000000d4       __imp_atan2                101c10d4     corelib1:COREDLL.dll
 0002:000000d8       __imp_acos                 101c10d8     corelib1:COREDLL.dll
 0002:000000dc       __imp_asin                 101c10dc     corelib1:COREDLL.dll
 0002:000000e0       __imp_cos                  101c10e0     corelib1:COREDLL.dll
 0002:000000e4       __imp_sin                  101c10e4     corelib1:COREDLL.dll
 0002:000000e8       __imp___divd               101c10e8     corelib1:COREDLL.dll
 0002:000000ec       __imp___eqs                101c10ec     corelib1:COREDLL.dll
 0002:000000f0       __imp_longjmp              101c10f0     corelib1:COREDLL.dll
 0002:000000f4       __imp_setjmp               101c10f4     corelib1:COREDLL.dll
 0002:000000f8       __imp_memcmp               101c10f8     corelib1:COREDLL.dll
 0002:000000fc       __imp___utos               101c10fc     corelib1:COREDLL.dll
 0002:00000100       __imp_memmove              101c1100     corelib1:COREDLL.dll
 0002:00000104       __imp___eqd                101c1104     corelib1:COREDLL.dll
 0002:00000108       __imp_labs                 101c1108     corelib1:COREDLL.dll
 0002:0000010c       __imp__XcptFilter          101c110c     corelib1:COREDLL.dll
 0002:00000110       __imp___C_specific_handler 101c1110     corelib1:COREDLL.dll
 0002:00000114       \177COREDLL_NULL_THUNK_DATA 101c1114     coredll:COREDLL.dll
 0002:00000118       __imp_PVRSRVTrace          101c1118     srvclum:SRVCLUM.dll
 0002:0000011c       __imp_PVRSRVSetLocale      101c111c     srvclum:SRVCLUM.dll
 0002:00000120       __imp_PVRSRVCallocUserModeMem 101c1120     srvclum:SRVCLUM.dll
 0002:00000124       __imp_PVRSRVReallocUserModeMem 101c1124     srvclum:SRVCLUM.dll
 0002:00000128       __imp_PVRSRVFreeUserModeMem 101c1128     srvclum:SRVCLUM.dll
 0002:0000012c       __imp_PVRSRVAllocUserModeMem 101c112c     srvclum:SRVCLUM.dll
 0002:00000130       \177SRVCLUM_NULL_THUNK_DATA 101c1130     srvclum:SRVCLUM.dll
 0002:00000134       __security_cookie          101c1134     corelib0:seccinit.obj
 0002:00000138       __security_cookie_complement 101c1138     corelib0:seccinit.obj
 0002:0000013c       guInitContextsRefCount     101c113c     glsl_core:glsl.obj
 0002:00000144       _exitflag                  101c1144     corelib0:cexit.obj
 0002:00000148       __onexitend                101c1148     <common>
 0002:0000014c       __onexitbegin              101c114c     <common>
 0002:00000150       _pRawDllMain               101c1150     <common>

 entry point at        0001:001b4ef0

 Static symbols

 0001:00023b7c       IC2UF_PrintInput           10024b7c f   ic2uf.obj
 0001:00023e2c       IC2UF_PrintInputInst       10024e2c f   ic2uf.obj
 0001:00023f94       FindStructAllocInfo        10024f94 f   ic2uf.obj
 0001:00024010       BuildStructAllocInfo       10025010 f   ic2uf.obj
 0001:00024648       AddStructAllocInfoEntry    10025648 f   ic2uf.obj
 0001:000246c8       GetTypeAllocInfo           100256c8 f   ic2uf.obj
 0001:00024b8c       UFRegATableInitialize      10025b8c f   ic2uf.obj
 0001:00024c2c       UFRegATableAssignRegisters 10025c2c f   ic2uf.obj
 0001:00024efc       BuildStructBaseMembers     10025efc f   ic2uf.obj
 0001:00025494       FreeUniFlexInstructions    10026494 f   ic2uf.obj
 0001:000259bc       AssignTempRegisters        100269bc f   ic2uf.obj
 0001:00025e84       ReverseListDirection       10026e84 f   ic2uf.obj
 0001:00025ef4       SetBit                     10026ef4 f   ic2uf.obj
 0001:00025fd8       GetBit                     10026fd8 f   ic2uf.obj
 0001:0002605c       FindFuncEnd                1002705c f   ic2uf.obj
 0001:00026114       GetFunctionNestingLevel    10027114 f   ic2uf.obj
 0001:0002623c       GenerateInterferenceGraph  1002723c f   ic2uf.obj
 0001:00026c2c       UpdateInterferenceGraph    10027c2c f   ic2uf.obj
 0001:00026d34       GetChannelsLiveInSource    10027d34 f   ic2uf.obj
 0001:000275c0       GetSymbolType              100285c0 f   ic2uf.obj
 0001:00027604       RenameRegisters            10028604 f   ic2uf.obj
 0001:00027758       GenerateFaceSelection      10028758 f   ic2uf.obj
 0001:0002798c       ConvertToUFDestination     1002898c f   ic2uf.obj
 0001:00027a70       IC2UF_GetDestMask          10028a70 f   ic2uf.obj
 0001:00027c44       ComponentInMask            10028c44 f   ic2uf.obj
 0001:00027d20       CreateInstruction          10028d20 f   ic2uf.obj
 0001:00027e14       InitICUFOperand            10028e14 f   ic2uf.obj
 0001:00027e70       AddIFCToUFCode             10028e70 f   ic2uf.obj
 0001:00027f1c       ConvertToUFSource          10028f1c f   ic2uf.obj
 0001:00028114       CombineTwoUFSwiz           10029114 f   ic2uf.obj
 0001:000281bc       InitUFSource               100291bc f   ic2uf.obj
 0001:00028244       ProcessICOperand           10029244 f   ic2uf.obj
 0001:0002845c       AllocateHWSymbolRegisters  1002945c f   ic2uf.obj
 0001:00028a18       AddToIndexableTempList     10029a18 f   ic2uf.obj
 0001:00028b70       AddToConstantRangeList     10029b70 f   ic2uf.obj
 0001:00028d10       AssignHWSymbolRegisters    10029d10 f   ic2uf.obj
 0001:00028fe0       AssignSamplerTexUnit       10029fe0 f   ic2uf.obj
 0001:000291e4       UpdateOperandUFSwiz        1002a1e4 f   ic2uf.obj
 0001:00029700       ProcessOperandOffsets      1002a700 f   ic2uf.obj
 0001:0002a0fc       AddMOVAToUFCode            1002b0fc f   ic2uf.obj
 0001:0002a198       InitUFDestination          1002b198 f   ic2uf.obj
 0001:0002a21c       ConvertPrecisionToUFRegFormat 1002b21c f   ic2uf.obj
 0001:0002a3e0       AddUpRelativeOffsetToUFCode 1002b3e0 f   ic2uf.obj
 0001:0002a5a4       GetTemporary               1002b5a4 f   ic2uf.obj
 0001:0002a668       GetIntConst                1002b668 f   ic2uf.obj
 0001:0002a73c       AddAluToUFCode             1002b73c f   ic2uf.obj
 0001:0002a86c       GetHWSymbolEntry           1002b86c f   ic2uf.obj
 0001:0002b05c       AddHWSymbolToList          1002c05c f   ic2uf.obj
 0001:0002b194       AddSymbolToVaryingList     1002c194 f   ic2uf.obj
 0001:0002b2cc       FindHWSymbol               1002c2cc f   ic2uf.obj
 0001:0002b364       AddNOTToUFCode             1002c364 f   ic2uf.obj
 0001:0002b438       GenerateFrontFacingData    1002c438 f   ic2uf.obj
 0001:0002b5c0       CheckProgramPrecisionMismatch 1002c5c0 f   ic2uf.obj
 0001:0002b63c       CheckInstrPrecisionMismatch 1002c63c f   ic2uf.obj
 0001:0002b900       GenerateUniFlexInstructions 1002c900 f   ic2uf.obj
 0001:0002cbe0       AddSimpleALUToUFCode       1002dbe0 f   ic2uf.obj
 0001:0002cdcc       ChooseMatrixColumn         1002ddcc f   ic2uf.obj
 0001:0002cffc       AddComparisonToUFCode      1002dffc f   ic2uf.obj
 0001:0002d568       ConvertToUFPredicate       1002e568 f   ic2uf.obj
 0001:0002d604       AddIFComparisonToUFCode    1002e604 f   ic2uf.obj
 0001:0002d7e4       AddDFDYToUFCode            1002e7e4 f   ic2uf.obj
 0001:0002d944       ProcessICInstIF            1002e944 f   ic2uf.obj
 0001:0002d9e8       ProcessICInstIFNOT         1002e9e8 f   ic2uf.obj
 0001:0002dac8       ProcessICInstENDIF         1002eac8 f   ic2uf.obj
 0001:0002db18       ProcessICInstLOOP          1002eb18 f   ic2uf.obj
 0001:0002dbc8       ProcessICInstSTATICLOOP    1002ebc8 f   ic2uf.obj
 0001:0002dc78       ProcessICInstENDLOOP       1002ec78 f   ic2uf.obj
 0001:0002dcf0       AddDirectTextureLookupToUFCodeFn 1002ecf0 f   ic2uf.obj
 0001:0002def0       ConvertSamplerToUFSource   1002eef0 f   ic2uf.obj
 0001:0002df84       ProcessICInstMOV           1002ef84 f   ic2uf.obj
 0001:0002e8cc       ChooseMatrixComponent      1002f8cc f   ic2uf.obj
 0001:0002ebe8       ApplyMoreSwiz              1002fbe8 f   ic2uf.obj
 0001:0002ec68       ChooseArrayElement         1002fc68 f   ic2uf.obj
 0001:0002eda4       ChooseStructMember         1002fda4 f   ic2uf.obj
 0001:0002f04c       GetValidComponentCount     1003004c f   ic2uf.obj
 0001:0002f0fc       AddDataConversionMOV       100300fc f   ic2uf.obj
 0001:0002f614       ChooseVectorComponent      10030614 f   ic2uf.obj
 0001:0002f714       AddArrayMOV                10030714 f   ic2uf.obj
 0001:0002fe10       IC2UF_GetPredicate         10030e10 f   ic2uf.obj
 0001:0002fec8       ProcessICInstMUL           10030ec8 f   ic2uf.obj
 0001:00030b34       ProcessICInstDIV           10031b34 f   ic2uf.obj
 0001:00030c50       ProcessICInstSEQ           10031c50 f   ic2uf.obj
 0001:00030d38       AddWholeTypeComparision    10031d38 f   ic2uf.obj
 0001:00030fcc       AddPredicatedWholeTypeComparision 10031fcc f   ic2uf.obj
 0001:00031820       AddArrayComparison         10032820 f   ic2uf.obj
 0001:00031f5c       ProcessICInstSNE           10032f5c f   ic2uf.obj
 0001:00032044       ProcessICInstLABEL         10033044 f   ic2uf.obj
 0001:000320e8       FindLabel                  100330e8 f   ic2uf.obj
 0001:000321f4       ProcessICInstRET           100331f4 f   ic2uf.obj
 0001:00032280       GenerateBackEndOutputs     10033280 f   ic2uf.obj
 0001:0003238c       GenerateColorOutput        1003338c f   ic2uf.obj
 0001:0003264c       GenerateZOutput            1003364c f   ic2uf.obj
 0001:00032784       ProcessICInstCALL          10033784 f   ic2uf.obj
 0001:0003282c       ProcessICInstCONTDEST      1003382c f   ic2uf.obj
 0001:00032860       ProcessICInstCONTINUE      10033860 f   ic2uf.obj
 0001:00032894       ProcessICInstDISCARD       10033894 f   ic2uf.obj
 0001:000328ec       ProcessICInstSANY          100338ec f   ic2uf.obj
 0001:00032928       AddVectorSANYToUFCode      10033928 f   ic2uf.obj
 0001:00032af0       ProcessICInstSALL          10033af0 f   ic2uf.obj
 0001:00032b2c       AddVectorSALLToUFCode      10033b2c f   ic2uf.obj
 0001:00032cf4       ProcessICInstSGN           10033cf4 f   ic2uf.obj
 0001:00032d58       ProcessICInstDOT           10033d58 f   ic2uf.obj
 0001:00032f74       ProcessICInstEXP           10033f74 f   ic2uf.obj
 0001:00033068       GetFixedConst              10034068 f   ic2uf.obj
 0001:00033158       ProcessICInstLOG           10034158 f   ic2uf.obj
 0001:0003324c       ProcessICInstCROSS         1003424c f   ic2uf.obj
 0001:00033440       ProcessICInstNRM3          10034440 f   ic2uf.obj
 0001:000335c4       ProcessICInstSINCOS        100345c4 f   ic2uf.obj
 0001:00033764       AddSINCOSInstToUFCode      10034764 f   ic2uf.obj
 0001:000338f8       ProcessICInstPOW           100348f8 f   ic2uf.obj
 0001:0003395c       ProcessICInstMOD           1003495c f   ic2uf.obj
 0001:00033b74       ProcessICInstTAN           10034b74 f   ic2uf.obj
 0001:00033eb0       ProcessVPInstTEXLDPFn      10034eb0 f   ic2uf.obj
 0001:0003409c       ProcessFPInstTEXLDPFn      1003509c f   ic2uf.obj
 0001:0003423c       ProcessICInstTEXLDDFn      1003523c f   ic2uf.obj
 0001:0003441c       CreateUniFlexContext       1003541c f   ic2uf.obj
 0001:0003471c       InitialiseHWSymbolTable    1003571c f   ic2uf.obj
 0001:00034818       InitialiseStructAllocInfoTable 10035818 f   ic2uf.obj
 0001:00034868       BuildTypeCompUseMask       10035868 f   ic2uf.obj
 0001:00034a84       InitialiseTexCoordsTable   10035a84 f   ic2uf.obj
 0001:00034b38       DestroyUniFlexContext      10035b38 f   ic2uf.obj
 0001:00034bec       DestroyHWSymbolTable       10035bec f   ic2uf.obj
 0001:00034c9c       DestroyStructAllocInfoTable 10035c9c f   ic2uf.obj
 0001:00034d34       PrepareUFCodeOutput        10035d34 f   ic2uf.obj
 0001:00034f84       PostGenerateUniFlexCode    10035f84 f   ic2uf.obj
 0001:00035068       GenerateFragCoordAdjust    10036068 f   ic2uf.obj
 0001:0003542c       ReassignVSOutputRegisters  1003642c f   ic2uf.obj
 0001:000357d0       PostProcessConstants       100367d0 f   ic2uf.obj
 0001:000359a8       AllocateAllUFRegisters     100369a8 f   ic2uf.obj
 0001:00036060       GetFinalIndexedType        10037060 f   ic2uf.obj
 0001:0003618c       DoesTypeContainBigArrays   1003718c f   ic2uf.obj
 0001:0003633c       AllocateAllVaryings        1003733c f   ic2uf.obj
 0001:00036710       AllocateVaryingRegisters   10037710 f   ic2uf.obj
 0001:000369f0       FindEmptyRectSpace         100379f0 f   ic2uf.obj
 0001:00037500       UpdateTexCoordDimInfo      10038500 f   ic2uf.obj
 0001:000376d8       GenerateUniFlexEntryLabel  100386d8 f   ic2uf.obj
 0001:0003802c       GLSLDestroyCompiledUniflexProgram 1003902c f   glsl2uf.obj
 0001:000383dc       GLSLGenerateUniflexProgram 100393dc f   glsl2uf.obj
 0001:00038bfc       ProcessHWSymbolEntry       10039bfc f   bindingsym.obj
 0001:00039010       AddBindingSymbol           1003a010 f   bindingsym.obj
 0001:00039248       ProcessBindingSymbolEntry  1003a248 f   bindingsym.obj
 0001:00039788       CopyConstantData           1003a788 f   bindingsym.obj
 0001:000399a0       ConvertToHWRegType         1003a9a0 f   bindingsym.obj
 0001:000399f4       RecursivelyAddStructMembers 1003a9f4 f   bindingsym.obj
 0001:0003a54c       AttachSymbolTableToContext 1003b54c f   glsl_parser:symtab.obj
 0001:0003a8d0       FindSymbolInTable          1003b8d0 f   glsl_parser:symtab.obj
 0001:0003ab94       GetSymbolTableEntry        1003bb94 f   glsl_parser:symtab.obj
 0001:0003ad64       AddSymbolToTable           1003bd64 f   glsl_parser:symtab.obj
 0001:0003b0bc       IncreaseSymbolReferenceCount 1003c0bc f   glsl_parser:symtab.obj
 0001:0003b1ac       CheckTableSize             1003c1ac f   glsl_parser:symtab.obj
 0001:0003bd74       PrintInternalErrorMessage  1003cd74 f   glsl_core:error.obj
 0001:0003bf30       LogErrorMessage            1003cf30 f   glsl_core:error.obj
 0001:0003bf94       LogErrorMessageBuffer      1003cf94 f   glsl_core:error.obj
 0001:0003caac       FreeIdentifierData         1003daac f   glsl_core:common.obj
 0001:0003d568       AddGenericData             1003e568 f   glsl_core:common.obj
 0001:0003d70c       FreeConstantData           1003e70c f   glsl_core:common.obj
 0001:0003d9f4       CheckIdentifierData        1003e9f4 f   glsl_core:common.obj
 0001:0003e918       FreeFunctionDefinitionData 1003f918 f   glsl_core:common.obj
 0001:0003f1f0       AddStructureDefinitionData 100401f0 f   glsl_core:common.obj
 0001:0003f544       FreeStructureDefinitionData 10040544 f   glsl_core:common.obj
 0001:00040b88       UnhookInstructions         10041b88 f   glsl_core:icgen.obj
 0001:00040cb4       FreeICInstruction          10041cb4 f   glsl_core:icgen.obj
 0001:00041de0       ICGetNewInstruction        10042de0 f   glsl_core:icgen.obj
 0001:00041eb8       InsertInstructionsAfter    10042eb8 f   glsl_core:icgen.obj
 0001:000420d8       ValidateICInstruction      100430d8 f   glsl_core:icgen.obj
 0001:00043c10       DumpICOperand              10044c10 f   glsl_core:icgen.obj
 0001:000440d4       ICSetupICOperand           100450d4 f   glsl_core:icgen.obj
 0001:000455d0       PostEvaluateNode           100465d0 f   glsl_core:icgen.obj
 0001:000459c4       EvaluateNodeARRAYSPECIFIER 100469c4 f   glsl_core:icgen.obj
 0001:00045b7c       IsSimpleOperand            10046b7c f   glsl_core:icgen.obj
 0001:00045bec       EvaluateNodeFIELDSELECTION 10046bec f   glsl_core:icgen.obj
 0001:00045e48       PostEvaluateFunctionCall   10046e48 f   glsl_core:icgen.obj
 0001:000464c0       InsertPostfix              100474c0 f   glsl_core:icgen.obj
 0001:00046588       InsertPostfixCode          10047588 f   glsl_core:icgen.obj
 0001:00046690       PostProcessNodeIncDec      10047690 f   glsl_core:icgen.obj
 0001:0004683c       GetICOpCode                1004783c f   glsl_core:icgen.obj
 0001:00046888       ProcessNodeQUESTION        10047888 f   glsl_core:icgen.obj
 0001:00046ad4       IncrementConditionLevel    10047ad4 f   glsl_core:icgen.obj
 0001:00046b1c       DecrementConditionLevel    10047b1c f   glsl_core:icgen.obj
 0001:00046b64       GenerateOptimisedConditionCode 10047b64 f   glsl_core:icgen.obj
 0001:00046d9c       IsSimpleConditionCheck     10047d9c f   glsl_core:icgen.obj
 0001:00046f30       ProcessNodeLogicalOR       10047f30 f   glsl_core:icgen.obj
 0001:000470e8       ProcessNodeLogicalXOR      100480e8 f   glsl_core:icgen.obj
 0001:0004720c       ProcessNodeLogicalAND      1004820c f   glsl_core:icgen.obj
 0001:000473c4       ProcessNodeSHADER          100483c4 f   glsl_core:icgen.obj
 0001:00047bd4       ProcessNodeFUNCTIONDEFINITION 10048bd4 f   glsl_core:icgen.obj
 0001:00047e14       ICPostProcessOnExit        10048e14 f   glsl_core:icgen.obj
 0001:00047e60       ICPostProcessOnExitVP      10048e60 f   glsl_core:icgen.obj
 0001:00047e84       IsFunctionToBeInlined      10048e84 f   glsl_core:icgen.obj
 0001:000481e8       GetTypeNumElements         100491e8 f   glsl_core:icgen.obj
 0001:00048380       DoesFunctionConstainEarlyReturns 10049380 f   glsl_core:icgen.obj
 0001:000483f0       ProcessNode                100493f0 f   glsl_core:icgen.obj
 0001:00048c30       ProcessNodeBasicOp         10049c30 f   glsl_core:icgen.obj
 0001:00048ecc       ProcessNodeBasicOpAssign   10049ecc f   glsl_core:icgen.obj
 0001:00049038       ProcessNodeEQUAL           1004a038 f   glsl_core:icgen.obj
 0001:000491b8       ProcessNodePreIncDec       1004a1b8 f   glsl_core:icgen.obj
 0001:000493b4       ProcessNodePostIncDec      1004a3b4 f   glsl_core:icgen.obj
 0001:000493f8       ProcessNodeComparisonOp    1004a3f8 f   glsl_core:icgen.obj
 0001:00049694       ProcessNodeNOT             1004a694 f   glsl_core:icgen.obj
 0001:000498e4       ProcessNodeCONTINUE        1004a8e4 f   glsl_core:icgen.obj
 0001:00049964       ProcessNodeBREAK           1004a964 f   glsl_core:icgen.obj
 0001:000499e4       ProcessNodeSUBEXPRESSION   1004a9e4 f   glsl_core:icgen.obj
 0001:00049abc       ProcessNodeEXPRESSION      1004aabc f   glsl_core:icgen.obj
 0001:00049b94       ProcessNodeFUNCTIONCALL    1004ab94 f   glsl_core:icgen.obj
 0001:0004a094       ICProcessConstructor       1004b094 f   glsl_core:icgen.obj
 0001:0004a20c       ProcessConstructorForBasicType 1004b20c f   glsl_core:icgen.obj
 0001:0004af04       ProcessArrayConstructor    1004bf04 f   glsl_core:icgen.obj
 0001:0004b148       ICProcessSturctureConstructor 1004c148 f   glsl_core:icgen.obj
 0001:0004b538       ICProcessUserDefinedFunctionCall 1004c538 f   glsl_core:icgen.obj
 0001:0004bcc0       ICProcessInlinedFunctionCall 1004ccc0 f   glsl_core:icgen.obj
 0001:0004c654       ReplaceInlinedInstOperand  1004d654 f   glsl_core:icgen.obj
 0001:0004c8e0       MergeTwoIdentifierUsage    1004d8e0 f   glsl_core:icgen.obj
 0001:0004cb4c       FindShaderChildFromFunctionID 1004db4c f   glsl_core:icgen.obj
 0001:0004cc0c       ProcessNodeRETURN          1004dc0c f   glsl_core:icgen.obj
 0001:0004cd74       ProcessNodeDISCARD         1004dd74 f   glsl_core:icgen.obj
 0001:0004cdf4       ProcessNodeFOR             1004ddf4 f   glsl_core:icgen.obj
 0001:0004d21c       IsSymbolBoolConstant       1004e21c f   glsl_core:icgen.obj
 0001:0004d354       ICTraverseCondition        1004e354 f   glsl_core:icgen.obj
 0001:0004d40c       GenerateSetPredicateCode   1004e40c f   glsl_core:icgen.obj
 0001:0004dd34       ICAddICInstruction3aWithPred 1004ed34 f   glsl_core:icgen.obj
 0001:0004de50       GenerateCodeForPredicateXOR 1004ee50 f   glsl_core:icgen.obj
 0001:0004e044       AddICodeLOOP               1004f044 f   glsl_core:icgen.obj
 0001:0004e0d4       ProcessNodeWHILE           1004f0d4 f   glsl_core:icgen.obj
 0001:0004e348       ProcessNodeDO              1004f348 f   glsl_core:icgen.obj
 0001:0004e544       ProcessNodeIF              1004f544 f   glsl_core:icgen.obj
 0001:0004e72c       IsNodeDirectOperand        1004f72c f   glsl_core:icgen.obj
 0001:0004ecac       UniFlexAlloc               1004fcac f   glsl_core:glsl.obj
 0001:0004ece0       UniFlexFree                1004fce0 f   glsl_core:glsl.obj
 0001:0004ed04       UniFlexPrint               1004fd04 f   glsl_core:glsl.obj
 0001:0004ed74       UniFlexPrintShaders        1004fd74 f   glsl_core:glsl.obj
 0001:0004f758       GLSLAddBuiltInState        10050758 f   glsl_core:glsl.obj
 0001:0004f854       GLSLAddBuiltInVertexProgramState 10050854 f   glsl_core:glsl.obj
 0001:0004f96c       GLSLAddBuiltInFragmentProgramState 1005096c f   glsl_core:glsl.obj
 0001:0004fb1c       ICProcessBIFNradians       10050b1c f   glsl_core:icbuiltin.obj
 0001:0004fca0       ICProcessBIFNdegrees       10050ca0 f   glsl_core:icbuiltin.obj
 0001:0004fe24       ICProcessBIFNsin           10050e24 f   glsl_core:icbuiltin.obj
 0001:0004fe64       MAP_BIFN_TO_ICINSTR        10050e64 f   glsl_core:icbuiltin.obj
 0001:0005001c       ICProcessBIFNcos           1005101c f   glsl_core:icbuiltin.obj
 0001:0005005c       ICProcessBIFNtan           1005105c f   glsl_core:icbuiltin.obj
 0001:000500d0       ICProcessBIFNasin          100510d0 f   glsl_core:icbuiltin.obj
 0001:0005014c       ICProcessBIFNacos          1005114c f   glsl_core:icbuiltin.obj
 0001:000501c8       ICProcessBIFNatan          100511c8 f   glsl_core:icbuiltin.obj
 0001:0005029c       ICProcessBIFNpow           1005129c f   glsl_core:icbuiltin.obj
 0001:00050310       ICProcessBIFNexp           10051310 f   glsl_core:icbuiltin.obj
 0001:00050350       ICProcessBIFNlog           10051350 f   glsl_core:icbuiltin.obj
 0001:00050390       ICProcessBIFNexp2          10051390 f   glsl_core:icbuiltin.obj
 0001:000503d0       ICProcessBIFNlog2          100513d0 f   glsl_core:icbuiltin.obj
 0001:00050410       ICProcessBIFNsqrt          10051410 f   glsl_core:icbuiltin.obj
 0001:000505c8       ICProcessBIFNinversesqrt   100515c8 f   glsl_core:icbuiltin.obj
 0001:00050608       ICProcessBIFNabs           10051608 f   glsl_core:icbuiltin.obj
 0001:00050648       ICProcessBIFNsign          10051648 f   glsl_core:icbuiltin.obj
 0001:00050688       ICProcessBIFNfloor         10051688 f   glsl_core:icbuiltin.obj
 0001:000506c8       ICProcessBIFNceil          100516c8 f   glsl_core:icbuiltin.obj
 0001:00050708       ICProcessBIFNfract         10051708 f   glsl_core:icbuiltin.obj
 0001:0005077c       ICProcessBIFNmod           1005177c f   glsl_core:icbuiltin.obj
 0001:000507f0       ICProcessBIFNmin           100517f0 f   glsl_core:icbuiltin.obj
 0001:00050830       ICProcessBIFNmax           10051830 f   glsl_core:icbuiltin.obj
 0001:00050870       ICProcessBIFNclamp         10051870 f   glsl_core:icbuiltin.obj
 0001:00050aa0       ICProcessBIFNmix           10051aa0 f   glsl_core:icbuiltin.obj
 0001:00050ae0       ICProcessBIFNstep          10051ae0 f   glsl_core:icbuiltin.obj
 0001:00050cd0       ICProcessBIFNsmoothstep    10051cd0 f   glsl_core:icbuiltin.obj
 0001:000512b4       ICProcessBIFNlength        100522b4 f   glsl_core:icbuiltin.obj
 0001:00051468       ICProcessBIFNdistance      10052468 f   glsl_core:icbuiltin.obj
 0001:00051720       ICProcessBIFNdot           10052720 f   glsl_core:icbuiltin.obj
 0001:00051760       ICProcessBIFNcross         10052760 f   glsl_core:icbuiltin.obj
 0001:000517a0       ICProcessBIFNnormalize     100527a0 f   glsl_core:icbuiltin.obj
 0001:00051a58       ICProcessBIFNftransform    10052a58 f   glsl_core:icbuiltin.obj
 0001:00051b30       ICProcessBIFNfaceforward   10052b30 f   glsl_core:icbuiltin.obj
 0001:00051ea4       ICProcessBIFNreflect       10052ea4 f   glsl_core:icbuiltin.obj
 0001:00052248       ICProcessBIFNrefract       10053248 f   glsl_core:icbuiltin.obj
 0001:0005284c       ICProcessBIFNmatrixCompMult 1005384c f   glsl_core:icbuiltin.obj
 0001:00052a94       ICProcessBIFNtranspose     10053a94 f   glsl_core:icbuiltin.obj
 0001:00052d3c       ICProcessBIFNouterProduct  10053d3c f   glsl_core:icbuiltin.obj
 0001:00052fe4       ICProcessBIFNlessThan      10053fe4 f   glsl_core:icbuiltin.obj
 0001:00053024       ICProcessBIFNlessThanEqual 10054024 f   glsl_core:icbuiltin.obj
 0001:00053064       ICProcessBIFNgreaterThan   10054064 f   glsl_core:icbuiltin.obj
 0001:000530a4       ICProcessBIFNgreaterThanEqual 100540a4 f   glsl_core:icbuiltin.obj
 0001:000530e4       ICProcessBIFNequal         100540e4 f   glsl_core:icbuiltin.obj
 0001:00053124       ICProcessBIFNnotEqual      10054124 f   glsl_core:icbuiltin.obj
 0001:00053164       ICProcessBIFNany           10054164 f   glsl_core:icbuiltin.obj
 0001:000531a4       ICProcessBIFNall           100541a4 f   glsl_core:icbuiltin.obj
 0001:000531e4       ICProcessBIFNnot           100541e4 f   glsl_core:icbuiltin.obj
 0001:00053224       ICProcessBIFNtextureProj   10054224 f   glsl_core:icbuiltin.obj
 0001:00053318       ICProcessBIFNtextureLod    10054318 f   glsl_core:icbuiltin.obj
 0001:000533d8       ICProcessBIFNtextureProjLod 100543d8 f   glsl_core:icbuiltin.obj
 0001:00053498       ICProcessBIFNtexture       10054498 f   glsl_core:icbuiltin.obj
 0001:000535f8       ICProcessBIFNdFdx          100545f8 f   glsl_core:icbuiltin.obj
 0001:00053638       ICProcessBIFNdFdy          10054638 f   glsl_core:icbuiltin.obj
 0001:00053678       ICProcessBIFNfwidth        10054678 f   glsl_core:icbuiltin.obj
 0001:000538d4       ICProcessBIFNnoise1        100548d4 f   glsl_core:icbuiltin.obj
 0001:000538fc       ICProcessBIFNnoise2        100548fc f   glsl_core:icbuiltin.obj
 0001:00053924       ICProcessBIFNnoise3        10054924 f   glsl_core:icbuiltin.obj
 0001:0005394c       ICProcessBIFNnoise4        1005494c f   glsl_core:icbuiltin.obj
 0001:00053974       ICProcessBIFNtextureGrad   10054974 f   glsl_core:icbuiltin.obj
 0001:00053a34       ICProcessBIFNtextureProjGrad 10054a34 f   glsl_core:icbuiltin.obj
 0001:0005400c       ExamineLoopUpdateCode      1005500c f   glsl_core:icunroll.obj
 0001:000544b8       FindWrittenToInstrForSymbolID 100554b8 f   glsl_core:icunroll.obj
 0001:00054620       ExamineLoopBodyCode        10055620 f   glsl_core:icunroll.obj
 0001:00054d38       FindWrittenToLineForSymbolID 10055d38 f   glsl_core:icunroll.obj
 0001:00054ea8       ExamineLoopConditionCode   10055ea8 f   glsl_core:icunroll.obj
 0001:00055058       ExamineLoopInitCode        10056058 f   glsl_core:icunroll.obj
 0001:00055140       FreeInvariantInfo          10056140 f   glsl_core:icunroll.obj
 0001:00055188       CalculateLoopNumIterations 10056188 f   glsl_core:icunroll.obj
 0001:000552ec       EvaluateCondition          100562ec f   glsl_core:icunroll.obj
 0001:00055500       UnrollLoopFORCode          10056500 f   glsl_core:icunroll.obj
 0001:00055838       RewriteLoopCode            10056838 f   glsl_core:icunroll.obj
 0001:000567d4       PPCreateTokenList          100577d4 f   glsl_core:prepro.obj
 0001:000569f0       PPCreateTokenLinkedList    100579f0 f   glsl_core:prepro.obj
 0001:00056c5c       PPCheckForMacroReplacement 10057c5c f   glsl_core:prepro.obj
 0001:00057850       PPGetNextDirectiveTokenEntry 10058850 f   glsl_core:prepro.obj
 0001:00057984       PPRemoveTokenLLEntry       10058984 f   glsl_core:prepro.obj
 0001:00057a50       PPInsertTokensIntoLinkedList 10058a50 f   glsl_core:prepro.obj
 0001:00057af8       PPInsertList               10058af8 f   glsl_core:prepro.obj
 0001:00057b70       PPReplicateAndInsertIntoLinkedList 10058b70 f   glsl_core:prepro.obj
 0001:00057ccc       PPDestroyTokenLinkedList   10058ccc f   glsl_core:prepro.obj
 0001:00057d7c       PPProcessDirective         10058d7c f   glsl_core:prepro.obj
 0001:0005835c       PPProcessIf                1005935c f   glsl_core:prepro.obj
 0001:00058658       PPFreeExpressionTree       10059658 f   glsl_core:prepro.obj
 0001:000586a8       PPCleanUpBranches          100596a8 f   glsl_core:prepro.obj
 0001:00058720       PPCreateExpressionTree     10059720 f   glsl_core:prepro.obj
 0001:00058aa8       PPGetTokenPrecedence       10059aa8 f   glsl_core:prepro.obj
 0001:00058ca0       PPAddChildNode             10059ca0 f   glsl_core:prepro.obj
 0001:00058e38       PPAddParentNode            10059e38 f   glsl_core:prepro.obj
 0001:00059110       PPCalculateResultOfExpressionTree 1005a110 f   glsl_core:prepro.obj
 0001:00059938       PPProcessElif              1005a938 f   glsl_core:prepro.obj
 0001:00059bd8       PPProcessElse              1005abd8 f   glsl_core:prepro.obj
 0001:00059da0       PPProcessIfdef             1005ada0 f   glsl_core:prepro.obj
 0001:0005a1b4       PPProcessEndif             1005b1b4 f   glsl_core:prepro.obj
 0001:0005a26c       PPProcessError             1005b26c f   glsl_core:prepro.obj
 0001:0005a3bc       PPProcessLine              1005b3bc f   glsl_core:prepro.obj
 0001:0005a598       PPProcessPragma            1005b598 f   glsl_core:prepro.obj
 0001:0005ab38       ProcessDefineMacro         1005bb38 f   glsl_core:prepro.obj
 0001:0005b574       PPFreeDefineMacro          1005c574 f   glsl_core:prepro.obj
 0001:0005b694       CountTokens                1005c694 f   glsl_core:prepro.obj
 0001:0005b700       ProcessUndef               1005c700 f   glsl_core:prepro.obj
 0001:0005b9b0       PPProcessVersion           1005c9b0 f   glsl_core:prepro.obj
 0001:0005bc98       PPProcessExtension         1005cc98 f   glsl_core:prepro.obj
 0001:0005c0bc       PPIsExtensionSupported     1005d0bc f   glsl_core:prepro.obj
 0001:0005c194       PPSetDefaultDefine         1005d194 f   glsl_core:prepro.obj
 0001:0005c96c       FreePrecisionModifierData  1005d96c f   glsl_core:glsltree.obj
 0001:0005ca34       GetCurrentPrecision        1005da34 f   glsl_core:glsltree.obj
 0001:0005ed38       ASTDestroyFunctionState    1005fd38 f   glsl_core:glsltree.obj
 0001:0005f370       ASTCreateSwizzleNode       10060370 f   glsl_core:glsltree.obj
 0001:000602d4       CheckWhichFunctionsCalled  100612d4 f   glsl_core:glsltree.obj
 0001:000605b0       ReOrderTopLevelNodes       100615b0 f   glsl_core:glsltree.obj
 0001:00060c98       CreateICodeContext         10061c98 f   glsl_core:icode.obj
 0001:000610dc       DestroyICodeContext        100620dc f   glsl_core:icode.obj
 0001:00063840       ASTBIBuildIdentifierList   10064840 f   glsl_core:astbuiltin.obj
 0001:00063ac8       ASTBIFreeIdentifierList    10064ac8 f   glsl_core:astbuiltin.obj
 0001:00063b28       ASTBICheckForUseOfState    10064b28 f   glsl_core:astbuiltin.obj
 0001:00063c14       ASTBIAddConstructor        10064c14 f   glsl_core:astbuiltin.obj
 0001:00063f98       ASTBIAddFunction1          10064f98 f   glsl_core:astbuiltin.obj
 0001:00064018       ASTBIAddFunction           10065018 f   glsl_core:astbuiltin.obj
 0001:00064a5c       ASTBIAddFunction2          10065a5c f   glsl_core:astbuiltin.obj
 0001:00064aec       ASTBIAddFunction3          10065aec f   glsl_core:astbuiltin.obj
 0001:00064b8c       ASTBIAddFunction4          10065b8c f   glsl_core:astbuiltin.obj
 0001:00064c3c       ASTBIAddGLState            10065c3c f   glsl_core:astbuiltin.obj
 0001:00064e4c       ASTBIResetGLStructureDefinition 10065e4c f   glsl_core:astbuiltin.obj
 0001:00064f04       ASTAddGLStructureMember    10065f04 f   glsl_core:astbuiltin.obj
 0001:00065ce8       ICInitOperandInfoWithSwiz  10066ce8 f   glsl_core:icemul.obj
 0001:00065dc8       ICApplyOperandMoreSwiz     10066dc8 f   glsl_core:icemul.obj
 0001:00065e40       _CALL                      10066e40 f   glsl_core:icemul.obj
 0001:00065e84       ICAddArcCos2FunctionDefinition 10066e84 f   glsl_core:icemul.obj
 0001:0006605c       ICAddFunctionDefinitionToSymTab 1006705c f   glsl_core:icemul.obj
 0001:00066918       ICAddArcSin2FunctionDefinition 10067918 f   glsl_core:icemul.obj
 0001:00066ae8       ICAddArcTanFunctionDefinition 10067ae8 f   glsl_core:icemul.obj
 0001:00066cb8       ICAddArcTan2FunctionDefinition 10067cb8 f   glsl_core:icemul.obj
 0001:00067d7c       ICAddDepthCompare          10068d7c f   glsl_core:icemul.obj
 0001:000685fc       _MUL                       100695fc f   glsl_core:icemul.obj
 0001:000686d4       _ADD                       100696d4 f   glsl_core:icemul.obj
 0001:000687ac       _SLE                       100697ac f   glsl_core:icemul.obj
 0001:00068884       _SGT                       10069884 f   glsl_core:icemul.obj
 0001:0006895c       _SGE                       1006995c f   glsl_core:icemul.obj
 0001:00068a34       _SEQ                       10069a34 f   glsl_core:icemul.obj
 0001:00068b0c       _MOV                       10069b0c f   glsl_core:icemul.obj
 0001:00068bac       _MAD                       10069bac f   glsl_core:icemul.obj
 0001:00068dac       _DOT                       10069dac f   glsl_core:icemul.obj
 0001:00068e8c       GetDepthTextureDescID      10069e8c f   glsl_core:icemul.obj
 0001:00069370       ICAddNoiseFunctionDefinition 1006a370 f   glsl_core:icemul.obj
 0001:0006b86c       _IFLE                      1006c86c f   glsl_core:icemul.obj
 0001:0006b91c       _RSQ                       1006c91c f   glsl_core:icemul.obj
 0001:0006b9bc       _RCP                       1006c9bc f   glsl_core:icemul.obj
 0001:0006ba5c       _ELSE                      1006ca5c f   glsl_core:icemul.obj
 0001:0006ba84       _ENDIF                     1006ca84 f   glsl_core:icemul.obj
 0001:0006baac       _RET                       1006caac f   glsl_core:icemul.obj
 0001:0006bad4       _LABEL                     1006cad4 f   glsl_core:icemul.obj
 0001:0006c99c       _IFGT                      1006d99c f   glsl_core:icemul.obj
 0001:0006d36c       _IFGE                      1006e36c f   glsl_core:icemul.obj
 0001:0006d41c       _IFLT                      1006e41c f   glsl_core:icemul.obj
 0001:0006d4cc       _ABS                       1006e4cc f   glsl_core:icemul.obj
 0001:0006df84       _FLR                       1006ef84 f   glsl_core:icemul.obj
 0001:0006e024       _FRC                       1006f024 f   glsl_core:icemul.obj
 0001:0006e194       _SUB                       1006f194 f   glsl_core:icemul.obj
 0001:0006e26c       _TEXLD                     1006f26c f   glsl_core:icemul.obj
 0001:0006e344       _MIX                       1006f344 f   glsl_core:icemul.obj
 0001:0006e454       ICInitNoiseFuncRegisters   1006f454 f   glsl_core:icemul.obj
 0001:00074bd8       _EXP2                      10075bd8 f   glsl_core:icemul.obj
 0001:00075844       ASTWarnUnitialisedData     10076844 f   glsl_core:semantic.obj
 0001:00078a14       ASTSemGetResultName        10079a14 f   glsl_core:semantic.obj
 0001:00078b18       ASTCheckNodeNumChildren    10079b18 f   glsl_core:semantic.obj
 0001:00078d58       ASTSemInsertConstructor    10079d58 f   glsl_core:semantic.obj
 0001:0007999c       ASTSemGetIdentifierData    1007a99c f   glsl_core:semantic.obj
 0001:00079d0c       ASTSemReduceConstantConstructor 1007ad0c f   glsl_core:semantic.obj
 0001:0007a668       ASTSemRemoveChildNode      1007b668 f   glsl_core:semantic.obj
 0001:0007a868       ASTSemRemoveNode           1007b868 f   glsl_core:semantic.obj
 0001:0007a9a0       ASTSemConvertTypes         1007b9a0 f   glsl_core:semantic.obj
 0001:0007b9e4       ASTSemConvertMatrix        1007c9e4 f   glsl_core:semantic.obj
 0001:0007bca0       ASTSemReduceConstantExpression 1007cca0 f   glsl_core:semantic.obj
 0001:0007bfe0       ASTSemReduceConstantArraySpecifier 1007cfe0 f   glsl_core:semantic.obj
 0001:0007c500       ASTSemReduceConstantFieldSelection 1007d500 f   glsl_core:semantic.obj
 0001:0007cee8       ASTSemReduceConstantMaths  1007dee8 f   glsl_core:semantic.obj
 0001:0007ffb0       ASTSemReduceConstantMatrixMath 10080fb0 f   glsl_core:semantic.obj
 0001:00080240       ASTSemReportWrongOperandType 10081240 f   glsl_core:semantic.obj
 0001:000802a4       ASTSemReportWrongOperandTypes 100812a4 f   glsl_core:semantic.obj
 0001:00080310       ASTSemReportMismatchedArraySizes 10081310 f   glsl_core:semantic.obj
 0001:000803e8       ASTSemReportLValueError    100813e8 f   glsl_core:semantic.obj
 0001:00080514       ASTSemCheckFunctionCallParameters 10081514 f   glsl_core:semantic.obj
 0001:00081c10       ASTSemReduceConstantBuiltInFunction 10082c10 f   glsl_core:semantic.obj
 0001:000822cc       ASTSemCheckAndUpdateArraySizes 100832cc f   glsl_core:semantic.obj
 0001:00082a3c       ASTUpdateParamIdentifierUsage 10083a3c f   glsl_core:semantic.obj
 0001:00082ccc       ASTUpdateBuiltInsReferenced 10083ccc f   glsl_core:semantic.obj
 0001:00083120       ASTUpdateIdentifierUsage   10084120 f   glsl_core:semantic.obj
 0001:00083340       ASTUpdateReadIdentifierUsage 10084340 f   glsl_core:semantic.obj
 0001:00083518       ASTSemCheckAssignment      10084518 f   glsl_core:semantic.obj
 0001:000838c0       ASTSemCheckForReplacementWithConstantData 100848c0 f   glsl_core:semantic.obj
 0001:00083b08       ASTSemGetResultPrecision   10084b08 f   glsl_core:semantic.obj
 0001:00088658       SGXBS_TestBinaryShaderInterface 10089658 f   glsl_binshader:esbinshader.obj
 0001:000886cc       PackBinary                 100896cc f   glsl_binshader:esbinshader.obj
 0001:00088864       SGXBS_ComputeHash          10089864 f   glsl_binshader:esbinshader.obj
 0001:00088b20       WriteU32                   10089b20 f   glsl_binshader:esbinshader.obj
 0001:00088c3c       PackRevision               10089c3c f   glsl_binshader:esbinshader.obj
 0001:00088dac       GetCoreAndRevisionNumber   10089dac f   glsl_binshader:esbinshader.obj
 0001:00088ddc       WriteU16                   10089ddc f   glsl_binshader:esbinshader.obj
 0001:00088ed8       PackUniflexProgram         10089ed8 f   glsl_binshader:esbinshader.obj
 0001:000892cc       WriteU8                    1008a2cc f   glsl_binshader:esbinshader.obj
 0001:00089394       WriteFloat                 1008a394 f   glsl_binshader:esbinshader.obj
 0001:000894c0       WriteArrayHeader           1008a4c0 f   glsl_binshader:esbinshader.obj
 0001:000894e0       PackSymbolBindings         1008a4e0 f   glsl_binshader:esbinshader.obj
 0001:0008972c       WriteString                1008a72c f   glsl_binshader:esbinshader.obj
 0001:00089ac4       GetNumOfBytesForWritingBindings 1008aac4 f   glsl_binshader:esbinshader.obj
 0001:00089c0c       GetNumOfBytesForWritingUserBindings 1008ac0c f   glsl_binshader:esbinshader.obj
 0001:00089c94       PackProgramBinary          1008ac94 f   glsl_binshader:esbinshader.obj
 0001:00089f50       PackUserBindings           1008af50 f   glsl_binshader:esbinshader.obj
 0001:0008bf54       RemoveFromPredecessors     1008cf54 f   usc:usc.obj
 0001:0008c168       AddAsPredecessor           1008d168 f   usc:usc.obj
 0001:0008d558       FreeInsts                  1008e558 f   usc:usc.obj
 0001:0008e5d8       FillPredecessorArraysBP    1008f5d8 f   usc:usc.obj
 0001:0008f05c       DebugPrintSortRecursive    1009005c f   usc:usc.obj
 0001:0008fefc       CheckInst                  10090efc f   usc:usc.obj
 0001:00090184       CheckReg                   10091184 f   usc:usc.obj
 0001:00091714       InitVertexShaderState      10092714 f   usc:usc.obj
 0001:0009179c       InitPixelShaderState       1009279c f   usc:usc.obj
 0001:00091d00       ReleaseVaildShaderOutputsData 10092d00 f   usc:usc.obj
 0001:00091dac       ReleaseVertexShaderState   10092dac f   usc:usc.obj
 0001:00091e2c       ReleasePixelShaderState    10092e2c f   usc:usc.obj
 0001:00091eec       ReleaseFixedRegList        10092eec f   usc:usc.obj
 0001:00092214       GenerateSwitchTest         10093214 f   usc:usc.obj
 0001:000924a4       SetBit                     100934a4 f   usc:usc.obj
 0001:00092d44       CheckProgram               10093d44 f   usc:usc.obj
 0001:00092d94       CheckBlock                 10093d94 f   usc:usc.obj
 0001:00093248       IntegerOptimizeBP          10094248 f   usc:usc.obj
 0001:000932b0       AddFixForBRN21752BP        100942b0 f   usc:usc.obj
 0001:000938b0       SetupLoadStoreArray        100948b0 f   usc:usc.obj
 0001:00093ea0       CmpArraySetupData          10094ea0 f   usc:usc.obj
 0001:00093f90       ExpandMemLoadStoreBP       10094f90 f   usc:usc.obj
 0001:0009404c       ExpandLoadStoreInst        1009504c f   usc:usc.obj
 0001:00095134       GetLocalAddressingMemoryOffset 10096134 f   usc:usc.obj
 0001:000953e0       ExpandLoadStoreBP          100963e0 f   usc:usc.obj
 0001:000954e8       ExpandRegLdStInst          100964e8 f   usc:usc.obj
 0001:00095e00       EmitLdStRegIndex           10096e00 f   usc:usc.obj
 0001:00096120       EmitLdStRegMove            10097120 f   usc:usc.obj
 0001:00096868       EliminateNewMovesBP        10097868 f   usc:usc.obj
 0001:00096d40       SetErrorHandler            10097d40 f   usc:usc.obj
 0001:00096d64       CleanUpOnError             10097d64 f   usc:usc.obj
 0001:00096de8       CompileUniflex             10097de8 f   usc:usc.obj
 0001:0009720c       SetArraySize               1009820c f   usc:data.obj
 0001:00097244       ChunkElem                  10098244 f   usc:data.obj
 0001:0009727c       FreeChunk                  1009827c f   usc:data.obj
 0001:000974bc       BaseArrayGet               100984bc f   usc:data.obj
 0001:00097688       GetArraySize               10098688 f   usc:data.obj
 0001:000976b4       ArrayChunkGet              100986b4 f   usc:data.obj
 0001:00097a1c       NewChunk                   10098a1c f   usc:data.obj
 0001:00097c48       BaseArraySet               10098c48 f   usc:data.obj
 0001:00097fc8       SetVectorSize              10098fc8 f   usc:data.obj
 0001:00098334       GetVectorSize              10099334 f   usc:data.obj
 0001:000983f8       SetVectorFlag              100993f8 f   usc:data.obj
 0001:00098684       GetVectorFlag              10099684 f   usc:data.obj
 0001:000988e4       CalcVecOp                  100998e4 f   usc:data.obj
 0001:00098b24       VectorOpWorker             10099b24 f   usc:data.obj
 0001:00099978       SetBit                     1009a978 f   usc:data.obj
 0001:0009a244       VectorGetElement           1009b244 f   usc:data.obj
 0001:0009bbf4       InsertInSortedList         1009cbf4 f   usc:data.obj
 0001:0009c770       UscStackElementPtr         1009d770 f   usc:data.obj
 0001:0009caa4       BaseTreeDelete             1009daa4 f   usc:data.obj
 0001:0009cbf8       BaseTreeDetach             1009dbf8 f   usc:data.obj
 0001:0009d1bc       BaseTreeMake               1009e1bc f   usc:data.obj
 0001:0009d24c       TreeBalance                1009e24c f   usc:data.obj
 0001:0009d318       TreeRotateLeft             1009e318 f   usc:data.obj
 0001:0009d3d8       TreeSetHeight              1009e3d8 f   usc:data.obj
 0001:0009d49c       TreeRotateRight            1009e49c f   usc:data.obj
 0001:0009d558       TreeGetBalance             1009e558 f   usc:data.obj
 0001:0009d874       RegSubstCmp                1009e874 f   usc:data.obj
 0001:0009ea4c       GetSourcesUsedFromPack     1009fa4c f   usc:dce.obj
 0001:0009ec5c       GetChansUsedFromPackSource 1009fc5c f   usc:dce.obj
 0001:0009edc8       GetLiveChansInC10Arg       1009fdc8 f   usc:dce.obj
 0001:0009ef34       RemapC10Channels           1009ff34 f   usc:dce.obj
 0001:0009f01c       GetLiveChansInSOP2Argument 100a001c f   usc:dce.obj
 0001:0009f318       GetLiveChansInLRP1Argument 100a0318 f   usc:dce.obj
 0001:0009f5bc       GetLiveChansInSOP3Argument 100a05bc f   usc:dce.obj
 0001:0009f964       GetLiveChansInFPMAArgument 100a0964 f   usc:dce.obj
 0001:0009fba4       GetLiveChansInSOPWMArgument 100a0ba4 f   usc:dce.obj
 0001:000a0804       ChangeRegisterLiveMask     100a1804 f   usc:dce.obj
 0001:000a0df4       CopyRegLiveSet             100a1df4 f   usc:dce.obj
 0001:000a0ec4       ComputeLivenessForInst     100a1ec4 f   usc:dce.obj
 0001:000a1688       SetBit                     100a2688 f   usc:dce.obj
 0001:000a176c       UpdatePredicate            100a276c f   usc:dce.obj
 0001:000a17f4       ReduceRegisterLiveMask     100a27f4 f   usc:dce.obj
 0001:000a183c       GetTestChans               100a283c f   usc:dce.obj
 0001:000a1930       GetDestLiveMask            100a2930 f   usc:dce.obj
 0001:000a19d4       GetIndexedRegisterLiveMask 100a29d4 f   usc:dce.obj
 0001:000a1b0c       GetIndexRangeForDest       100a2b0c f   usc:dce.obj
 0001:000a1c64       ReduceInstDestMask         100a2c64 f   usc:dce.obj
 0001:000a2130       SwapPackSources            100a3130 f   usc:dce.obj
 0001:000a25c4       ClearSource                100a35c4 f   usc:dce.obj
 0001:000a25fc       HandleEFODest              100a35fc f   usc:dce.obj
 0001:000a2824       IncreaseLiveMaskForRead    100a3824 f   usc:dce.obj
 0001:000a2920       IncreaseIndexedRegisterLiveMask 100a3920 f   usc:dce.obj
 0001:000a3030       LivenessDF                 100a4030 f   usc:dce.obj
 0001:000a359c       MergeLivesets              100a459c f   usc:dce.obj
 0001:000a3770       CompareLivesets            100a4770 f   usc:dce.obj
 0001:000a39b4       DoLiveness                 100a49b4 f   usc:dce.obj
 0001:000a40a4       GetRegistersLiveAtEnd      100a50a4 f   usc:dce.obj
 0001:000a5c04       InternalRegsReferenced     100a6c04 f   usc:dce.obj
 0001:000a6034       InstRegUse                 100a7034 f   usc:dce.obj
 0001:000a6210       InstRegDef                 100a7210 f   usc:dce.obj
 0001:000a785c       SetBit                     100a885c f   usc:inst.obj
 0001:000a7fbc       IsSrc0StandardBanks        100a8fbc f   usc:inst.obj
 0001:000a8038       IsSrc0ExtendedBanks        100a9038 f   usc:inst.obj
 0001:000a80dc       IsSrc12StandardBanks       100a90dc f   usc:inst.obj
 0001:000a8180       IsSrc12ExtendedBanks       100a9180 f   usc:inst.obj
 0001:000a81c0       CanUseSmpSrc               100a91c0 f   usc:inst.obj
 0001:000a8480       DeinitInst                 100a9480 f   usc:inst.obj
 0001:000a88a0       FreeCall                   100a98a0 f   usc:inst.obj
 0001:000a8cb4       InitInst                   100a9cb4 f   usc:inst.obj
 0001:000ab42c       EqualEfo                   100ac42c f   usc:inst.obj
 0001:000ac4d0       GetBestOfAnyAncestor       100ad4d0 f   usc:domcalc.obj
 0001:000ac600       DoDfs                      100ad600 f   usc:domcalc.obj
 0001:000ac814       AddToParent                100ad814 f   usc:domcalc.obj
 0001:000aca28       SetBit                     100ada28 f   usc:domcalc.obj
 0001:000ace38       MarkInLoop                 100ade38 f   usc:domcalc.obj
 0001:000ad3e4       SetBit                     100ae3e4 f   usc:finalise.obj
 0001:000ad4c8       InitSkipinvState           100ae4c8 f   usc:finalise.obj
 0001:000ad5a4       DeinitSkipinvState         100ae5a4 f   usc:finalise.obj
 0001:000ad5f8       DoSkipInvalid              100ae5f8 f   usc:finalise.obj
 0001:000ad77c       CopySkipinvState           100ae77c f   usc:finalise.obj
 0001:000ad874       SetSkipInvalidDF           100ae874 f   usc:finalise.obj
 0001:000adc58       CompareSkipinvStates       100aec58 f   usc:finalise.obj
 0001:000addd4       MergeSkipinvState          100aedd4 f   usc:finalise.obj
 0001:000adfec       OrArray                    100aefec f   usc:finalise.obj
 0001:000ae0d8       SetSkipInvalidFlagForInst  100af0d8 f   usc:finalise.obj
 0001:000aee34       SupportsSkipInv            100afe34 f   usc:finalise.obj
 0001:000aee94       SetSkipInvalidFlagForArgIndex 100afe94 f   usc:finalise.obj
 0001:000aef44       SetSkipInvAllInstsBP       100aff44 f   usc:finalise.obj
 0001:000af0d8       CheckForFetch              100b00d8 f   usc:finalise.obj
 0001:000af978       GenerateLIMM               100b0978 f   usc:finalise.obj
 0001:000afa44       ExpandLoadForRangeCheck    100b0a44 f   usc:finalise.obj
 0001:000b0180       PostFetchOptimizationBlock 100b1180 f   usc:finalise.obj
 0001:000b0558       OptimizeAddressCalc        100b1558 f   usc:finalise.obj
 0001:000b0bac       GetPowerOf2                100b1bac f   usc:finalise.obj
 0001:000b0c08       IsPower2                   100b1c08 f   usc:finalise.obj
 0001:000b0c58       RegisterUsedInRange        100b1c58 f   usc:finalise.obj
 0001:000b0e34       OptimizeAddressCalc_RangeCheck 100b1e34 f   usc:finalise.obj
 0001:000b147c       OptimizeAddressCalc_545    100b247c f   usc:finalise.obj
 0001:000b1cd0       AddSMRForRelativeAddressing 100b2cd0 f   usc:finalise.obj
 0001:000b1e40       DetermineNonAnisoTextureStagesBP 100b2e40 f   usc:finalise.obj
 0001:000b1ef0       InsertWaitsBP              100b2ef0 f   usc:finalise.obj
 0001:000b2500       GetWaitInstIdx             100b3500 f   usc:finalise.obj
 0001:000b2848       GetAsyncUnitType           100b3848 f   usc:finalise.obj
 0001:000b2924       InsertWait                 100b3924 f   usc:finalise.obj
 0001:000b2a00       SetDependentReadCounter    100b3a00 f   usc:finalise.obj
 0001:000b2b2c       CheckInsertWaits           100b3b2c f   usc:finalise.obj
 0001:000b2bb8       InsertIDF                  100b3bb8 f   usc:finalise.obj
 0001:000b2c94       SetupSyncStartFlag         100b3c94 f   usc:finalise.obj
 0001:000b2d08       SetSyncStartBP             100b3d08 f   usc:finalise.obj
 0001:000b2dcc       SetSyncStartBeforeInst     100b3dcc f   usc:finalise.obj
 0001:000b2e9c       SupportSyncStart           100b3e9c f   usc:finalise.obj
 0001:000b2efc       InsertPaddingInstructions  100b3efc f   usc:finalise.obj
 0001:000b3184       SetupNoSchedFlag           100b4184 f   usc:finalise.obj
 0001:000b3238       SetNoSchedFlagForBasicBlockNoPairs 100b4238 f   usc:finalise.obj
 0001:000b3538       IsDeschedule               100b4538 f   usc:finalise.obj
 0001:000b35a4       SupportsNoSched_NoPairs    100b45a4 f   usc:finalise.obj
 0001:000b35f0       SetNoSchedFlagForBasicBlock 100b45f0 f   usc:finalise.obj
 0001:000b4088       NoSchedAlignToEvenCB       100b5088 f   usc:finalise.obj
 0001:000b40ec       NoSchedBranchCB            100b50ec f   usc:finalise.obj
 0001:000b4148       IsPunchthroughStillSplit   100b5148 f   usc:finalise.obj
 0001:000b4244       FinaliseIndexableTempsBP   100b5244 f   usc:finalise.obj
 0001:000b4484       RemoveNoEmitInstructionsBP 100b5484 f   usc:finalise.obj
 0001:000b4520       AddFixForBRN25804          100b5520 f   usc:finalise.obj
 0001:000b46a4       AddFixForBRN25804ForBlock  100b56a4 f   usc:finalise.obj
 0001:000b4824       IsTESTMASKUsedInBlock      100b5824 f   usc:finalise.obj
 0001:000b48e8       ExpandC10InstsBP           100b58e8 f   usc:finalise.obj
 0001:000b5114       GetNodeActivity            100b6114 f   usc:regalloc.obj
 0001:000b59e4       IntervalLessThan           100b69e4 f   usc:regalloc.obj
 0001:000b5c28       RegIntvlFindPos            100b6c28 f   usc:regalloc.obj
 0001:000b5db0       RegListFindStart           100b6db0 f   usc:regalloc.obj
 0001:000b6244       AssignRegistersOffLine     100b7244 f   usc:regalloc.obj
 0001:000b63d8       AdjustBaseAddress          100b73d8 f   usc:regalloc.obj
 0001:000b6608       SetBit                     100b7608 f   usc:regalloc.obj
 0001:000b66ec       SetupSpillArea             100b76ec f   usc:regalloc.obj
 0001:000b6ac4       SetupSpillAreaBP           100b7ac4 f   usc:regalloc.obj
 0001:000b6e0c       AssignRegistersOffLineFuncGroup 100b7e0c f   usc:regalloc.obj
 0001:000b7a58       ColourToRegister           100b8a58 f   usc:regalloc.obj
 0001:000b7b98       DoOnAllFuncGroupBasicBlocks 100b8b98 f   usc:regalloc.obj
 0001:000b7c64       RegisterToNode             100b8c64 f   usc:regalloc.obj
 0001:000b7d28       FreeRAGColState            100b8d28 f   usc:regalloc.obj
 0001:000b80ec       ClearRAData                100b90ec f   usc:regalloc.obj
 0001:000b8210       ResetRAGColState           100b9210 f   usc:regalloc.obj
 0001:000b90e0       BaseSetNodeAlignment       100ba0e0 f   usc:regalloc.obj
 0001:000b9258       GetNodeAlignment           100ba258 f   usc:regalloc.obj
 0001:000b931c       AllocateRAGColState        100ba31c f   usc:regalloc.obj
 0001:000b9760       InitRAData                 100ba760 f   usc:regalloc.obj
 0001:000b9874       FlagHardwareNodes          100ba874 f   usc:regalloc.obj
 0001:000b9940       SetupSAProgResults         100ba940 f   usc:regalloc.obj
 0001:000b9cf8       SetNodeAlignment           100bacf8 f   usc:regalloc.obj
 0001:000b9e0c       SetLinkedNodeAlignments    100bae0c f   usc:regalloc.obj
 0001:000b9f70       AddToGroup                 100baf70 f   usc:regalloc.obj
 0001:000ba508       IsPrecolouredNode          100bb508 f   usc:regalloc.obj
 0001:000ba5a8       GetFixedColour             100bb5a8 f   usc:regalloc.obj
 0001:000ba668       IsNonTemporaryNode         100bb668 f   usc:regalloc.obj
 0001:000ba6b8       NodeToRegister             100bb6b8 f   usc:regalloc.obj
 0001:000ba7f8       GetFixedRegister           100bb7f8 f   usc:regalloc.obj
 0001:000ba93c       IsAfter                    100bb93c f   usc:regalloc.obj
 0001:000ba9a4       DropLinkAfterNode          100bb9a4 f   usc:regalloc.obj
 0001:000baa98       FormOptRegGroupBP          100bba98 f   usc:regalloc.obj
 0001:000babc0       RegisterGrouping           100bbbc0 f   usc:regalloc.obj
 0001:000bb2c8       RemoveFromGroup            100bc2c8 f   usc:regalloc.obj
 0001:000bb348       AddRegToInstGroup          100bc348 f   usc:regalloc.obj
 0001:000bb98c       ArgumentToNode             100bc98c f   usc:regalloc.obj
 0001:000bbbb8       IsNodeInGroup              100bcbb8 f   usc:regalloc.obj
 0001:000bbc50       RegIsNode                  100bcc50 f   usc:regalloc.obj
 0001:000bbd58       AppendToGroup              100bcd58 f   usc:regalloc.obj
 0001:000bbfcc       AddTempNodesForRegisterSetsBP 100bcfcc f   usc:regalloc.obj
 0001:000bc104       AddTempNodeForRegisterSet  100bd104 f   usc:regalloc.obj
 0001:000bc1d8       SpillPlainNodes            100bd1d8 f   usc:regalloc.obj
 0001:000bc484       FindBestSpillNode          100bd484 f   usc:regalloc.obj
 0001:000bc6a0       SpillRegistersBP           100bd6a0 f   usc:regalloc.obj
 0001:000bc874       SpillRegistersForInst      100bd874 f   usc:regalloc.obj
 0001:000bcb54       UpdateSpillIRegState       100bdb54 f   usc:regalloc.obj
 0001:000bccf0       AddToSpillList             100bdcf0 f   usc:regalloc.obj
 0001:000bd40c       SetSpillAddress            100be40c f   usc:regalloc.obj
 0001:000bd55c       InsertSpill                100be55c f   usc:regalloc.obj
 0001:000bdce4       AddSecAttrWithMemoryOffset 100bece4 f   usc:regalloc.obj
 0001:000bddec       PrepRegState               100bedec f   usc:regalloc.obj
 0001:000be0e8       GroupArrayRegs             100bf0e8 f   usc:regalloc.obj
 0001:000be3cc       FlagC10NodesBP             100bf3cc f   usc:regalloc.obj
 0001:000be434       FlagC10NodesInst           100bf434 f   usc:regalloc.obj
 0001:000be6cc       IndexedArgumentToNodeRange 100bf6cc f   usc:regalloc.obj
 0001:000be84c       PrepRegStateBP             100bf84c f   usc:regalloc.obj
 0001:000be960       FormFetchGroup             100bf960 f   usc:regalloc.obj
 0001:000bed14       SetupDestinationSets       100bfd14 f   usc:regalloc.obj
 0001:000bedf0       SetupConsecutiveRegisterSets 100bfdf0 f   usc:regalloc.obj
 0001:000bf4d8       AddMove                    100c04d8 f   usc:regalloc.obj
 0001:000bf664       IsValidGroup               100c0664 f   usc:regalloc.obj
 0001:000bfa80       GetPrevNodeCount           100c0a80 f   usc:regalloc.obj
 0001:000bfadc       GetNextNodeCount           100c0adc f   usc:regalloc.obj
 0001:000bfb3c       AreAlignmentsCompatible    100c0b3c f   usc:regalloc.obj
 0001:000bfb98       CheckValidRegisterGroup    100c0b98 f   usc:regalloc.obj
 0001:000c0034       MakeInterfereWithAllPAs    100c1034 f   usc:regalloc.obj
 0001:000c015c       AddEdge                    100c115c f   usc:regalloc.obj
 0001:000c02cc       SetupSourceArgumentSets    100c12cc f   usc:regalloc.obj
 0001:000c03c8       ConstructInterferenceGraphForBlock 100c13c8 f   usc:regalloc.obj
 0001:000c07b4       UpdateInterferenceGraph    100c17b4 f   usc:regalloc.obj
 0001:000c08c4       ConstructInterferenceGraphForInst 100c18c4 f   usc:regalloc.obj
 0001:000c0ea8       UpdateInterferenceGraphForArgument 100c1ea8 f   usc:regalloc.obj
 0001:000c1088       MakeInterfereWithAllOutputRegs 100c2088 f   usc:regalloc.obj
 0001:000c11b0       ConstructInterferenceGraphForImmTemps 100c21b0 f   usc:regalloc.obj
 0001:000c1498       UpdateInterferenceGraphForDestNode 100c2498 f   usc:regalloc.obj
 0001:000c1760       AssignColours              100c2760 f   usc:regalloc.obj
 0001:000c1f34       ColourToType               100c2f34 f   usc:regalloc.obj
 0001:000c1fac       SetNodeColour              100c2fac f   usc:regalloc.obj
 0001:000c1fe8       InsertNode                 100c2fe8 f   usc:regalloc.obj
 0001:000c22c4       RemoveFromGraph            100c32c4 f   usc:regalloc.obj
 0001:000c2658       SimplifyGraph              100c3658 f   usc:regalloc.obj
 0001:000c27cc       ColourNode                 100c37cc f   usc:regalloc.obj
 0001:000c2db8       ReserveNodeColour          100c3db8 f   usc:regalloc.obj
 0001:000c2df8       CheckAlignmentRestrictionsOnColour 100c3df8 f   usc:regalloc.obj
 0001:000c2f00       CanNodeUseColour           100c3f00 f   usc:regalloc.obj
 0001:000c308c       GetGroupStartAndSize       100c408c f   usc:regalloc.obj
 0001:000c32c8       ColourNodeRange            100c42c8 f   usc:regalloc.obj
 0001:000c352c       NodeHasMandatoryLinks      100c452c f   usc:regalloc.obj
 0001:000c363c       DisconnectOptionalGroupParts 100c463c f   usc:regalloc.obj
 0001:000c37d8       ValidColourForRange        100c47d8 f   usc:regalloc.obj
 0001:000c38a8       SortRegsByDegree           100c48a8 f   usc:regalloc.obj
 0001:000c3be4       PrecolourFixedRegToDummy   100c4be4 f   usc:regalloc.obj
 0001:000c3ca8       PrecolourNode              100c4ca8 f   usc:regalloc.obj
 0001:000c4180       ArgumentToColour           100c5180 f   usc:regalloc.obj
 0001:000c4364       SpillFixedTypeShaderOutput 100c5364 f   usc:regalloc.obj
 0001:000c45c4       RenameReg                  100c55c4 f   usc:regalloc.obj
 0001:000c4800       RenameRegistersBP          100c5800 f   usc:regalloc.obj
 0001:000c4d54       CheckValidRegisterGroupsInst 100c5d54 f   usc:regalloc.obj
 0001:000c4e38       DropInst                   100c5e38 f   usc:regalloc.obj
 0001:000c4ea8       MergeCRegMovesBP           100c5ea8 f   usc:regalloc.obj
 0001:000c51f4       CoalesceGroups             100c61f4 f   usc:regalloc.obj
 0001:000c5540       CoalesceRegister           100c6540 f   usc:regalloc.obj
 0001:000c571c       RemoveEdge                 100c671c f   usc:regalloc.obj
 0001:000c5924       ReplaceRegisterInstsBP     100c6924 f   usc:regalloc.obj
 0001:000c5c84       CoalesceFixedTypeVariable  100c6c84 f   usc:regalloc.obj
 0001:000c5f60       CanCoalesceGroups          100c6f60 f   usc:regalloc.obj
 0001:000c6428       IsCRegMoveSafeReplace      100c7428 f   usc:regalloc.obj
 0001:000c665c       CanCoalesceNodeWithQwordAlignedNode 100c765c f   usc:regalloc.obj
 0001:000c66c4       ExtendLiveRangeForEquivalent 100c76c4 f   usc:regalloc.obj
 0001:000c68e4       CoalesceRegistersForMOVsBP 100c78e4 f   usc:regalloc.obj
 0001:000c6bac       IsCoalescableRegister      100c7bac f   usc:regalloc.obj
 0001:000c6c64       IsMOV                      100c7c64 f   usc:regalloc.obj
 0001:000c6d50       ConvertMOVToPCKBP          100c7d50 f   usc:regalloc.obj
 0001:000c6f04       ConvertPCKToMOV            100c7f04 f   usc:regalloc.obj
 0001:000c7044       RenameSAProgResult         100c8044 f   usc:regalloc.obj
 0001:000c71b4       RenameCalculatedSecondaryAttributesBP 100c81b4 f   usc:regalloc.obj
 0001:000c77d8       ReplaceConstantRegNumsBySecAttrsBP 100c87d8 f   usc:regpack.obj
 0001:000c8690       FindStaticConst            100c9690 f   usc:regpack.obj
 0001:000c87cc       IsStaticConst              100c97cc f   usc:regpack.obj
 0001:000ca11c       IsLastCoordUsed            100cb11c f   usc:regpack.obj
 0001:000ca4dc       AppendPixelShaderInput     100cb4dc f   usc:regpack.obj
 0001:000ca580       CopyFromPixelShaderInputList 100cb580 f   usc:regpack.obj
 0001:000ca670       InitPixelShaderInputSizeList 100cb670 f   usc:regpack.obj
 0001:000ca800       FindRange                  100cb800 f   usc:regpack.obj
 0001:000cadcc       SetBit                     100cbdcc f   usc:regpack.obj
 0001:000cbe74       ReplaceConstsBP            100cce74 f   usc:regpack.obj
 0001:000cc048       IsConstLoad                100cd048 f   usc:regpack.obj
 0001:000cc148       UpdateMemoryLoad           100cd148 f   usc:regpack.obj
 0001:000cc314       ApplyConstantRemapping     100cd314 f   usc:regpack.obj
 0001:000cc7e0       AddRemappedEntry           100cd7e0 f   usc:regpack.obj
 0001:000cc870       SwapRedAndBlueChans        100cd870 f   usc:regpack.obj
 0001:000ccad0       ConvertToLIMM              100cdad0 f   usc:regpack.obj
 0001:000ccb74       GenerateMemoryLoad         100cdb74 f   usc:regpack.obj
 0001:000ccec8       GetRangeCheck              100cdec8 f   usc:regpack.obj
 0001:000cd0f8       SetBaseAdressRegForConstsBuffer 100ce0f8 f   usc:regpack.obj
 0001:000cd23c       ReplaceConstLoadBySA       100ce23c f   usc:regpack.obj
 0001:000cd3f4       ReplaceConstUse            100ce3f4 f   usc:regpack.obj
 0001:000cd6c8       SearchConstBufsBP          100ce6c8 f   usc:regpack.obj
 0001:000cdab4       AddNewInRegisterConstantEntry 100ceab4 f   usc:regpack.obj
 0001:000cdefc       OptimizeInstructionSequence 100ceefc f   usc:iselect.obj
 0001:000ce308       CombineMovcTest            100cf308 f   usc:iselect.obj
 0001:000cebf0       SetBit                     100cfbf0 f   usc:iselect.obj
 0001:000cecd4       DoF32Test                  100cfcd4 f   usc:iselect.obj
 0001:000cef60       IsConstantValue            100cff60 f   usc:iselect.obj
 0001:000ceff4       MergeIdenticalTest         100cfff4 f   usc:iselect.obj
 0001:000cf228       FoldConstantTest           100d0228 f   usc:iselect.obj
 0001:000cf700       AllArgsHwConst             100d0700 f   usc:iselect.obj
 0001:000cf7a8       InvertTest                 100d07a8 f   usc:iselect.obj
 0001:000cfa44       FoldSeperateTest           100d0a44 f   usc:iselect.obj
 0001:000d019c       HasTestVariant             100d119c f   usc:iselect.obj
 0001:000d0280       FoldTESTMASK_MOVC          100d1280 f   usc:iselect.obj
 0001:000d072c       FoldTESTMASK_TEST          100d172c f   usc:iselect.obj
 0001:000d0a40       UNPCKF32U8ToUNPCKF32O8     100d1a40 f   usc:iselect.obj
 0001:000d0de0       FoldMINOrMAX_UNPCKF32U8    100d1de0 f   usc:iselect.obj
 0001:000d10f0       NotEqualArgs               100d20f0 f   usc:iselect.obj
 0001:000d1184       FoldMOVC_MUL               100d2184 f   usc:iselect.obj
 0001:000d1604       FoldMUL16_ADD16            100d2604 f   usc:iselect.obj
 0001:000d1b20       FoldADD_ADDorMUL_ADM       100d2b20 f   usc:iselect.obj
 0001:000d1f24       FoldMUL_ADDOrMUL           100d2f24 f   usc:iselect.obj
 0001:000d2354       FindMSAPart                100d3354 f   usc:iselect.obj
 0001:000d257c       FindMulX2                  100d357c f   usc:iselect.obj
 0001:000d27bc       FindAdd                    100d37bc f   usc:iselect.obj
 0001:000d2a44       FoldADD_ADD                100d3a44 f   usc:iselect.obj
 0001:000d2cc0       TermsCancelOut             100d3cc0 f   usc:iselect.obj
 0001:000d3200       IsModifiableRegister       100d4200 f   usc:iselect.obj
 0001:000d3664       SimplifyInst               100d4664 f   usc:iselect.obj
 0001:000d39b4       SimplifyArithmeticInst     100d49b4 f   usc:iselect.obj
 0001:000d4570       HasSourceModifier          100d5570 f   usc:iselect.obj
 0001:000d4964       ElimGlobMovDomTree         100d5964 f   usc:iselect.obj
 0001:000d5918       GlobalReplaceArguments     100d6918 f   usc:iselect.obj
 0001:000d6088       CanChangeTestForSourceMod  100d7088 f   usc:iselect.obj
 0001:000d6164       ChangeTestForSourceMod     100d7164 f   usc:iselect.obj
 0001:000d69bc       CanCombineRegistersBackwards 100d79bc f   usc:iselect.obj
 0001:000d6f04       IsReplacableDest           100d7f04 f   usc:iselect.obj
 0001:000d6f9c       CombineRegistersBackwards  100d7f9c f   usc:iselect.obj
 0001:000d7598       EliminatePredicateMove     100d8598 f   usc:iselect.obj
 0001:000d78dc       RemovePredicateWrite       100d88dc f   usc:iselect.obj
 0001:000d7980       IsFixedResultTest          100d8980 f   usc:iselect.obj
 0001:000d7d1c       DoBitwiseTest              100d8d1c f   usc:iselect.obj
 0001:000d8018       NegateTest                 100d9018 f   usc:iselect.obj
 0001:000d8b68       EqualArgLists              100d9b68 f   usc:iselect.obj
 0001:000d8de8       HasImplictOrConsecutiveDests 100d9de8 f   usc:iselect.obj
 0001:000d943c       ExtractConstantCalculationsBP 100da43c f   usc:iselect.obj
 0001:000d96d4       UpdateSecAttrsReadInMain   100da6d4 f   usc:iselect.obj
 0001:000d97ec       ExtractConstantCalculationsInst 100da7ec f   usc:iselect.obj
 0001:000da318       ReplaceConstantArg         100db318 f   usc:iselect.obj
 0001:000da510       IsConstantArgument         100db510 f   usc:iselect.obj
 0001:000da6c4       CopySecAttrToTemp          100db6c4 f   usc:iselect.obj
 0001:000da904       FlagConstantResults        100db904 f   usc:iselect.obj
 0001:000dab08       AddSAOutputsBP             100dbb08 f   usc:iselect.obj
 0001:000dad34       CombineF32PacksBlock       100dbd34 f   usc:iselect.obj
 0001:000db284       ReplaceF32ByF16Source      100dc284 f   usc:iselect.obj
 0001:000db6d8       FlattenConditionalsDomTree 100dc6d8 f   usc:iselect.obj
 0001:000db7bc       FlattenConditional         100dc7bc f   usc:iselect.obj
 0001:000dba58       MovePredicateInsts         100dca58 f   usc:iselect.obj
 0001:000dbd64       IsMatchPred                100dcd64 f   usc:iselect.obj
 0001:000dbdf0       CanFlatten                 100dcdf0 f   usc:iselect.obj
 0001:000dc128       CanPredicate               100dd128 f   usc:iselect.obj
 0001:000dc314       OptimiseUSPSampleDestFmt   100dd314 f   usc:iselect.obj
 0001:000ddad0       GetUSPDestFmtChannelOrder  100dead0 f   usc:iselect.obj
 0001:000ddb30       ComponentToChannel         100deb30 f   usc:iselect.obj
 0001:000ddc08       ChannelMaskToComponentMask 100dec08 f   usc:iselect.obj
 0001:000dddb8       SetPackSourceFormat        100dedb8 f   usc:iselect.obj
 0001:000de4c8       ReduceSampleResultPrecisionForSampler 100df4c8 f   usc:iselect.obj
 0001:000dea4c       ReduceResultPrecisionForSamplerBP 100dfa4c f   usc:iselect.obj
 0001:000df100       CheckSamplerUseForPrecisionReduce 100e0100 f   usc:iselect.obj
 0001:000df558       ReduceSampleResultPrecisionForSamplerBP 100e0558 f   usc:iselect.obj
 0001:000df694       ReduceSampleResultPrecision_RemapLiveSet 100e0694 f   usc:iselect.obj
 0001:000dfc78       IsSaturatedSample          100e0c78 f   usc:iselect.obj
 0001:000dfd74       IsSaturatedArgument        100e0d74 f   usc:iselect.obj
 0001:000dfe80       UpdateSaturatedResult      100e0e80 f   usc:iselect.obj
 0001:000dffbc       TryRemoveSaturate          100e0fbc f   usc:iselect.obj
 0001:000e0288       TrySimplifyTest            100e1288 f   usc:iselect.obj
 0001:000e050c       FlagSaturatedPixelShaderInputs 100e150c f   usc:iselect.obj
 0001:000e0ad4       FindOtherPredicatedMove    100e1ad4 f   usc:iselect.obj
 0001:000e0d30       FindPredicateWriter        100e1d30 f   usc:iselect.obj
 0001:000e1240       FixInvalidSourceBanksBP    100e2240 f   usc:iselect.obj
 0001:000e1340       FixInvalidSourceBanksInst  100e2340 f   usc:iselect.obj
 0001:000e1700       ReplaceConstantBySecAttr   100e2700 f   usc:iselect.obj
 0001:000e1968       IsValidSourceArg           100e2968 f   usc:iselect.obj
 0001:000e19f4       IsValidSource              100e29f4 f   usc:iselect.obj
 0001:000e1b20       IsImmediateSourceValid     100e2b20 f   usc:iselect.obj
 0001:000e1e6c       IsRotatedImmediateInRange  100e2e6c f   usc:iselect.obj
 0001:000e1ef8       ReplaceImmediateByHwConst  100e2ef8 f   usc:iselect.obj
 0001:000e20b4       CheckForHardwareConstants  100e30b4 f   usc:iselect.obj
 0001:000e21c8       FindHardwareConstant       100e31c8 f   usc:iselect.obj
 0001:000e229c       ReplaceSourcesByTemporaries 100e329c f   usc:iselect.obj
 0001:000e27f4       FixInvalidSourceBanks_GetCReg 100e37f4 f   usc:iselect.obj
 0001:000e2a18       AddMoveForInvalidSourceBank 100e3a18 f   usc:iselect.obj
 0001:000e2d70       FixInvalidNonTemporaryRegisterGroupsInst 100e3d70 f   usc:iselect.obj
 0001:000e2e24       FixInvalidNonTemporaryRegisterGroupInst 100e3e24 f   usc:iselect.obj
 0001:000e35ec       ReplaceFPConstantsBySecAttrs 100e45ec f   usc:iselect.obj
 0001:000e37a8       TryFixNonConsecutiveFPConstants 100e47a8 f   usc:iselect.obj
 0001:000e3924       SetupSAProgResultConstraints 100e4924 f   usc:iselect.obj
 0001:000e4114       PCShaderSkip4              100e5114 f   usc:uspbin.obj
 0001:000e413c       PCShaderSkip2              100e513c f   usc:uspbin.obj
 0001:000e4164       PCShaderSkip1              100e5164 f   usc:uspbin.obj
 0001:000e418c       PCShaderSkipN              100e518c f   usc:uspbin.obj
 0001:000e41b8       PCShaderWrite4             100e51b8 f   usc:uspbin.obj
 0001:000e4250       PCShaderWrite2             100e5250 f   usc:uspbin.obj
 0001:000e42b8       PCShaderWrite1             100e52b8 f   usc:uspbin.obj
 0001:000e4308       PCShaderWriteN             100e5308 f   usc:uspbin.obj
 0001:000e4388       UseAssemblerGetLabelAddress 100e5388 f   usc:uspbin.obj
 0001:000e43c0       UseAssemblerError          100e53c0 f   usc:uspbin.obj
 0001:000e4418       GetShaderAltResultRegs     100e5418 f   usc:uspbin.obj
 0001:000e45d0       BuildPCShader              100e55d0 f   usc:uspbin.obj
 0001:000e46d4       BuildPCBlockHdr            100e56d4 f   usc:uspbin.obj
 0001:000e474c       BuildPCProgDesc            100e574c f   usc:uspbin.obj
 0001:000e4850       CalcConstTableSizeForMemMappedConsts 100e5850 f   usc:uspbin.obj
 0001:000e4988       CalcConstTableSize         100e5988 f   usc:uspbin.obj
 0001:000e4ab8       BuildPCProgDescHdr         100e5ab8 f   usc:uspbin.obj
 0001:000e57dc       GetShaderResultInfo        100e67dc f   usc:uspbin.obj
 0001:000e59fc       BuildPCProgDescVSInputUsage 100e69fc f   usc:uspbin.obj
 0001:000e5adc       BuildPCProgDescBRNList     100e6adc f   usc:uspbin.obj
 0001:000e5bf4       BuildPCProgDescPSInputList 100e6bf4 f   usc:uspbin.obj
 0001:000e6048       BuildPCProgDescConstListForMemoryMappedConsts 100e7048 f   usc:uspbin.obj
 0001:000e648c       AddC10Constant             100e748c f   usc:uspbin.obj
 0001:000e6604       AddC10ConstantEntry        100e7604 f   usc:uspbin.obj
 0001:000e6710       AddU8Constant              100e7710 f   usc:uspbin.obj
 0001:000e6848       BuildPCProgDescConstList   100e7848 f   usc:uspbin.obj
 0001:000e6c00       BuildPCProgDescSAUpdateCode 100e7c00 f   usc:uspbin.obj
 0001:000e6c64       EncodeInstsBP              100e7c64 f   usc:uspbin.obj
 0001:000e6cf4       BuildPCProgDescValidShdrOutputs 100e7cf4 f   usc:uspbin.obj
 0001:000e6e10       BuildPCLabelCB             100e7e10 f   usc:uspbin.obj
 0001:000e6e88       BuildPCBranchCB            100e7e88 f   usc:uspbin.obj
 0001:000e704c       BuildPCDataForBasicBlockCB 100e804c f   usc:uspbin.obj
 0001:000e7344       BuildHWCodeBlock           100e8344 f   usc:uspbin.obj
 0001:000e7780       UpdateC10IRegsLive         100e8780 f   usc:uspbin.obj
 0001:000e78c4       SetupPCInstDesc            100e88c4 f   usc:uspbin.obj
 0001:000e7a64       ConvertMOESwizzleToHwFormat 100e8a64 f   usc:uspbin.obj
 0001:000e7b10       BuildSampleBlock           100e8b10 f   usc:uspbin.obj
 0001:000e88ec       SetBit                     100e98ec f   usc:uspbin.obj
 0001:000e89d0       UpdateMOEState             100e99d0 f   usc:uspbin.obj
 0001:000e8c64       PointActionsUspBinCB       100e9c64 f   usc:uspbin.obj
 0001:000e8e24       AlignToEvenUspBinCB        100e9e24 f   usc:uspbin.obj
 0001:000e9278       GetIntermediateShaderResultInfo 100ea278 f   usc:uspbin.obj
 0001:000e9390       InsertAltOutPutsAndRecordResultRefsBP 100ea390 f   usc:uspbin.obj
 0001:000e9cb0       RecordShaderResultRead     100eacb0 f   usc:uspbin.obj
 0001:000e9df8       RecordShaderResultWritten  100eadf8 f   usc:uspbin.obj
 0001:000e9f7c       SetAltResultRegsLive       100eaf7c f   usc:uspbin.obj
 0001:000ea214       AssignInternalRegistersLScan 100eb214 f   usc:iregalloc.obj
 0001:000ea768       InitIRegState              100eb768 f   usc:iregalloc.obj
 0001:000eab0c       SetBit                     100ebb0c f   usc:iregalloc.obj
 0001:000eabf0       C10FitsInStandardRegister  100ebbf0 f   usc:iregalloc.obj
 0001:000eac30       FlagC10Variables           100ebc30 f   usc:iregalloc.obj
 0001:000eade4       AllocIRegState             100ebde4 f   usc:iregalloc.obj
 0001:000eb09c       FreeIRegState              100ec09c f   usc:iregalloc.obj
 0001:000eb350       IRegToNode                 100ec350 f   usc:iregalloc.obj
 0001:000eb430       ComputeIRegColours         100ec430 f   usc:iregalloc.obj
 0001:000eb6e4       IsFixed                    100ec6e4 f   usc:iregalloc.obj
 0001:000eb740       GetFixedColour             100ec740 f   usc:iregalloc.obj
 0001:000eb81c       NodeIsIReg                 100ec81c f   usc:iregalloc.obj
 0001:000eb86c       NodeToIReg                 100ec86c f   usc:iregalloc.obj
 0001:000eb920       SpillInterval              100ec920 f   usc:iregalloc.obj
 0001:000eb9cc       PLRemoveIntvl              100ec9cc f   usc:iregalloc.obj
 0001:000eba60       FindColour                 100eca60 f   usc:iregalloc.obj
 0001:000ebcfc       TakeColour                 100eccfc f   usc:iregalloc.obj
 0001:000ebef0       SpillOrder                 100ecef0 f   usc:iregalloc.obj
 0001:000ec02c       CloseActiveInterval        100ed02c f   usc:iregalloc.obj
 0001:000ec2a8       PrepRenameInterval         100ed2a8 f   usc:iregalloc.obj
 0001:000ec2f4       CalcIRegIntervals          100ed2f4 f   usc:iregalloc.obj
 0001:000ec440       ProcOpenIntervals          100ed440 f   usc:iregalloc.obj
 0001:000ec6b0       PLAddIntvl                 100ed6b0 f   usc:iregalloc.obj
 0001:000ec744       MergeC10IntervalList       100ed744 f   usc:iregalloc.obj
 0001:000ec964       CombineC10Intervals        100ed964 f   usc:iregalloc.obj
 0001:000ecb10       IRegIntervalCB             100edb10 f   usc:iregalloc.obj
 0001:000ecf8c       IRegIsNode                 100edf8c f   usc:iregalloc.obj
 0001:000ed074       CalcIntervalBlock          100ee074 f   usc:iregalloc.obj
 0001:000ed274       ProcRegIntoBlockC10        100ee274 f   usc:iregalloc.obj
 0001:000ed4dc       RegIntvlPush               100ee4dc f   usc:iregalloc.obj
 0001:000ed78c       InitIRegInterval           100ee78c f   usc:iregalloc.obj
 0001:000ed7ec       CalcIntervalDst            100ee7ec f   usc:iregalloc.obj
 0001:000ee32c       MarkRegRestriction         100ef32c f   usc:iregalloc.obj
 0001:000ee3e4       CalcIntervalSrc            100ef3e4 f   usc:iregalloc.obj
 0001:000ee824       InitIRegCallback           100ef824 f   usc:iregalloc.obj
 0001:000ee8b4       ExpandSaveC10              100ef8b4 f   usc:iregalloc.obj
 0001:000eebd0       IsShortPred                100efbd0 f   usc:iregalloc.obj
 0001:000eec50       ExpandSaveC10FullPred      100efc50 f   usc:iregalloc.obj
 0001:000ef2c0       GetChanUse                 100f02c0 f   usc:iregalloc.obj
 0001:000ef33c       ExpandSaveC10ShortPred     100f033c f   usc:iregalloc.obj
 0001:000ef6b8       ExpandRestoreC10           100f06b8 f   usc:iregalloc.obj
 0001:000efb0c       MergeSaveC10               100f0b0c f   usc:iregalloc.obj
 0001:000f00b4       MergeC10SaveRGB            100f10b4 f   usc:iregalloc.obj
 0001:000f0194       MergeC10SaveComb           100f1194 f   usc:iregalloc.obj
 0001:000f0564       OperandData                100f1564 f   usc:iregalloc.obj
 0001:000f0864       MergeC10SavePair           100f1864 f   usc:iregalloc.obj
 0001:000f0abc       ChangeAlphaDestMask        100f1abc f   usc:iregalloc.obj
 0001:000f0c0c       MergeC10SaveInst           100f1c0c f   usc:iregalloc.obj
 0001:000f0f80       SplitC10Inst               100f1f80 f   usc:iregalloc.obj
 0001:000f1ee4       FoldNodeReg                100f2ee4 f   usc:iregalloc.obj
 0001:000f21fc       RegValidForInst            100f31fc f   usc:iregalloc.obj
 0001:000f2250       IsValidFold                100f3250 f   usc:iregalloc.obj
 0001:000f23f8       SplitSop3                  100f33f8 f   usc:iregalloc.obj
 0001:000f38b0       SplittableInst             100f48b0 f   usc:iregalloc.obj
 0001:000f392c       ConvertAlphaSel            100f492c f   usc:iregalloc.obj
 0001:000f39a8       MergeC10SavePack           100f49a8 f   usc:iregalloc.obj
 0001:000f4470       MergeRestoreC10            100f5470 f   usc:iregalloc.obj
 0001:000f4ce8       RenameC10Registers         100f5ce8 f   usc:iregalloc.obj
 0001:000f4f00       RenameC10BP                100f5f00 f   usc:iregalloc.obj
 0001:000f5794       SpillC10Reg                100f6794 f   usc:iregalloc.obj
 0001:000f669c       SetHwReg                   100f769c f   usc:iregalloc.obj
 0001:000f6764       ClearHwRegSrc              100f7764 f   usc:iregalloc.obj
 0001:000f67dc       InstKillsIReg              100f77dc f   usc:iregalloc.obj
 0001:000f6838       InstKillsDestIReg          100f7838 f   usc:iregalloc.obj
 0001:000f68c4       SaveC10Interval            100f78c4 f   usc:iregalloc.obj
 0001:000f6adc       FreeSpillData              100f7adc f   usc:iregalloc.obj
 0001:000f6b4c       FormSaveC10                100f7b4c f   usc:iregalloc.obj
 0001:000f6dc8       GetSaveRegs                100f7dc8 f   usc:iregalloc.obj
 0001:000f706c       AllocSpillData             100f806c f   usc:iregalloc.obj
 0001:000f7250       RestoreC10Interval         100f8250 f   usc:iregalloc.obj
 0001:000f74e4       ExtractNodeSrc             100f84e4 f   usc:iregalloc.obj
 0001:000f7ae4       FormRestoreC10             100f8ae4 f   usc:iregalloc.obj
 0001:000f7d1c       FindSpillIReg              100f8d1c f   usc:iregalloc.obj
 0001:000f800c       MarkC10Write               100f900c f   usc:iregalloc.obj
 0001:000f822c       MarkC10Read                100f922c f   usc:iregalloc.obj
 0001:000f82bc       SetupIRegIntvl             100f92bc f   usc:iregalloc.obj
 0001:000f830c       RetireIRegIntvl            100f930c f   usc:iregalloc.obj
 0001:000f835c       RenameC10Reg               100f935c f   usc:iregalloc.obj
 0001:000f90c0       FoldNodeInst               100fa0c0 f   usc:iregalloc.obj
 0001:000f94b0       AddInitCode                100fa4b0 f   usc:iregalloc.obj
 0001:000f95d8       SaveIRegisters             100fa5d8 f   usc:iregalloc.obj
 0001:000f9890       SetupInstIRegs             100fa890 f   usc:iregalloc.obj
 0001:000f9a88       MarkDestIRegs              100faa88 f   usc:iregalloc.obj
 0001:000f9bfc       MarkInstWrites             100fabfc f   usc:iregalloc.obj
 0001:000f9ce4       RenameSourceOperands       100face4 f   usc:iregalloc.obj
 0001:000fa158       PeepholeC10BP              100fb158 f   usc:iregalloc.obj
 0001:000fa62c       ExtractInstSrc             100fb62c f   usc:iregalloc.obj
 0001:000fa7e4       FoldNodeRegWithSOPWM       100fb7e4 f   usc:iregalloc.obj
 0001:000fafa0       MarkInstSrc                100fbfa0 f   usc:iregalloc.obj
 0001:000fb080       CanPeepholeSplit           100fc080 f   usc:iregalloc.obj
 0001:000fb52c       PeepholeSplit              100fc52c f   usc:iregalloc.obj
 0001:000fb9d0       BreakInstPair              100fc9d0 f   usc:iregalloc.obj
 0001:000fbaa0       FoldIRegInst               100fcaa0 f   usc:iregalloc.obj
 0001:000fc270       FreeRegState               100fd270 f   usc:pregalloc.obj
 0001:000fc434       ConstructPredicateInterferenceGraphBP 100fd434 f   usc:pregalloc.obj
 0001:000fc59c       UpdatePredicateInterferenceGraph 100fd59c f   usc:pregalloc.obj
 0001:000fc620       AddEdgeToPredicateInterferenceGraph 100fd620 f   usc:pregalloc.obj
 0001:000fc778       ConstructPredicateInterferenceGraphForInst 100fd778 f   usc:pregalloc.obj
 0001:000fcb00       CheckPredicateRepeat       100fdb00 f   usc:pregalloc.obj
 0001:000fce28       InsertNode                 100fde28 f   usc:pregalloc.obj
 0001:000fcfd0       SetBit                     100fdfd0 f   usc:pregalloc.obj
 0001:000fd0b4       RemoveFromGraph            100fe0b4 f   usc:pregalloc.obj
 0001:000fd2b4       SimplifyGraph              100fe2b4 f   usc:pregalloc.obj
 0001:000fd434       ColourNode                 100fe434 f   usc:pregalloc.obj
 0001:000fd660       SpillPredicateRegister     100fe660 f   usc:pregalloc.obj
 0001:000fd744       CanUseTestMaskSpillModeBP  100fe744 f   usc:pregalloc.obj
 0001:000fd8a0       SpillPredRegBP             100fe8a0 f   usc:pregalloc.obj
 0001:000fdb70       RestorePredicate           100feb70 f   usc:pregalloc.obj
 0001:000fddd8       GetSpillPredicate          100fedd8 f   usc:pregalloc.obj
 0001:000fde4c       RestorePredicateForInst    100fee4c f   usc:pregalloc.obj
 0001:000fdf34       SaveInstResult             100fef34 f   usc:pregalloc.obj
 0001:000fe3fc       RenamePredRegBP            100ff3fc f   usc:pregalloc.obj
 0001:000fe63c       AllocRegState              100ff63c f   usc:pregalloc.obj
 0001:000fe9fc       ChooseNewSpillPredicate    100ff9fc f   usc:pregalloc.obj
 0001:000fee90       LocateSyncs                100ffe90 f   usc:pregalloc.obj
 0001:000ff7c4       Restructure                101007c4 f   usc:pregalloc.obj
 0001:000ffca4       MyEdges                    10100ca4 f   usc:pregalloc.obj
 0001:000ffdfc       CombineEdgeLists           10100dfc f   usc:pregalloc.obj
 0001:000fff8c       DoRestructuring            10100f8c f   usc:pregalloc.obj
 0001:001007a0       InsertSetPredicate         101017a0 f   usc:pregalloc.obj
 0001:001008dc       GetFlagSetter              101018dc f   usc:pregalloc.obj
 0001:00100a00       SetSyncStartEnd            10101a00 f   usc:pregalloc.obj
 0001:00101274       LoopContains               10102274 f   usc:pregalloc.obj
 0001:001012e8       SetSyncEnd                 101022e8 f   usc:pregalloc.obj
 0001:00101450       FindFetch                  10102450 f   usc:reorder.obj
 0001:00101938       IsFetch                    10102938 f   usc:reorder.obj
 0001:00101bb0       MakeDummyFetch             10102bb0 f   usc:reorder.obj
 0001:00101e60       SetBit                     10102e60 f   usc:reorder.obj
 0001:00102724       IsFBDependency             10103724 f   usc:reorder.obj
 0001:00102834       GetResultsNeededForFeedback 10103834 f   usc:reorder.obj
 0001:00102b68       IsResultNeededForFeedback  10103b68 f   usc:reorder.obj
 0001:00102cb0       AreInternalRegsAndPredicatesLiveAtFB 10103cb0 f   usc:reorder.obj
 0001:0010315c       PeepholeOptimizer          1010415c f   usc:reorder.obj
 0001:00103538       MakeEfo_MulMad_SharedSrc   10104538 f   usc:efo.obj
 0001:00103bb8       CanUseEfoSrc               10104bb8 f   usc:efo.obj
 0001:00103d34       CanUseHardwareConstant     10104d34 f   usc:efo.obj
 0001:00103db0       MakeEfo_MulMad_Square      10104db0 f   usc:efo.obj
 0001:0010433c       MakeEfo_MulMad_IRegSrcs    1010533c f   usc:efo.obj
 0001:0010489c       MakeEfo_MadMad_Lrp         1010589c f   usc:efo.obj
 0001:001051ec       SetupIRegDests             101061ec f   usc:efo.obj
 0001:001052f0       MakeEfo_EfoMad_Lrp_535     101062f0 f   usc:efo.obj
 0001:00105b40       MakeEfo_EfoMad_Lrp_545     10106b40 f   usc:efo.obj
 0001:0010761c       SetupEfoStageData          1010861c f   usc:efo.obj
 0001:001077b4       CanUseStandardDest         101087b4 f   usc:efo.obj
 0001:0010787c       CanReplaceIRegMove         1010887c f   usc:efo.obj
 0001:00108470       GetClosedDependency        10109470 f   usc:efo.obj
 0001:001084d8       IsDescheduleBetweenGroupAndInsts 101094d8 f   usc:efo.obj
 0001:00108678       IsInstDependentOnGroup     10109678 f   usc:efo.obj
 0001:00108824       IsInterveningIRegWriteForRead 10109824 f   usc:efo.obj
 0001:00108a14       IsGroupDependentOnInst     10109a14 f   usc:efo.obj
 0001:00108c60       IsDescheduleBetweenGroups  10109c60 f   usc:efo.obj
 0001:00108dcc       IsInterveningGroup         10109dcc f   usc:efo.obj
 0001:00108ed0       IsEfoOrDeschedDependent    10109ed0 f   usc:efo.obj
 0001:00109254       IsEfoWriterInGroup         1010a254 f   usc:efo.obj
 0001:001092ec       CheckWriteAfterReadDependency 1010a2ec f   usc:efo.obj
 0001:0010943c       CheckForDeschedReaders     1010a43c f   usc:efo.obj
 0001:0010957c       ReplaceIRegMove            1010a57c f   usc:efo.obj
 0001:00109ed8       AddToEfoReaderList         1010aed8 f   usc:efo.obj
 0001:00109fc8       AddIRegDependency          1010afc8 f   usc:efo.obj
 0001:0010a164       GetDependency              1010b164 f   usc:efo.obj
 0001:0010a1c8       SetDependency              1010b1c8 f   usc:efo.obj
 0001:0010a318       SetBit                     1010b318 f   usc:efo.obj
 0001:0010a3fc       UpdateClosedEfoDependencyGraph 1010b3fc f   usc:efo.obj
 0001:0010a62c       SetClosedDependency        1010b62c f   usc:efo.obj
 0001:0010a680       MergeEfoGroup              1010b680 f   usc:efo.obj
 0001:0010abbc       ClearDependencies          1010bbbc f   usc:efo.obj
 0001:0010ac5c       AddWriteAfterReadDependency 1010bc5c f   usc:efo.obj
 0001:0010ad50       WriteDestUsingAnotherEfo   1010bd50 f   usc:efo.obj
 0001:0010af24       WriteDestUsingEfo          1010bf24 f   usc:efo.obj
 0001:0010b4e4       CanWriteDestUsingEfo       1010c4e4 f   usc:efo.obj
 0001:0010b8b8       AddDepsForWriteDestUsingEfo 1010c8b8 f   usc:efo.obj
 0001:0010baf0       TryReorderPacks            1010caf0 f   usc:efo.obj
 0001:0010c628       CheckPackDependency        1010d628 f   usc:efo.obj
 0001:0010c720       CheckPackDestDependency    1010d720 f   usc:efo.obj
 0001:0010c890       UnwindEfo                  1010d890 f   usc:efo.obj
 0001:0010db00       IsInvalidSrc0ForUnwindEfo  1010eb00 f   usc:efo.obj
 0001:0010db98       UnwindEfoToEfo             1010eb98 f   usc:efo.obj
 0001:0010e294       ConvertM0ToA0              1010f294 f   usc:efo.obj
 0001:0010e578       CreateExistingIRegGroups   1010f578 f   usc:efo.obj
 0001:0010e818       CreateNewEfoGroup          1010f818 f   usc:efo.obj
 0001:0010e9a8       AddToEfoWriterList         1010f9a8 f   usc:efo.obj
 0001:0010ecd8       SetupGroupDependencyGraph  1010fcd8 f   usc:efo.obj
 0001:0010f0c0       IsGroupDependentOnGroup    101100c0 f   usc:efo.obj
 0001:0010f360       OutputInstructionsInGroupOrder 10110360 f   usc:efo.obj
 0001:0010f7c8       FinishDeschedInst          101107c8 f   usc:efo.obj
 0001:0010f908       FinishGroup                10110908 f   usc:efo.obj
 0001:0010fa38       CanStartGroup              10110a38 f   usc:efo.obj
 0001:0010fcb8       ExpandInternalRegistersMoves 10110cb8 f   usc:efo.obj
 0001:0010fe78       FinishGroupDependencyGraph 10110e78 f   usc:efo.obj
 0001:0010ff28       SetupDeschedDependencyState 10110f28 f   usc:efo.obj
 0001:001101c8       ConvertSingleInstToEfo     101111c8 f   usc:efo.obj
 0001:00110778       ReplaceHardwareConstants   10111778 f   usc:efo.obj
 0001:001108bc       CanConvertSingleInstToEfo  101118bc f   usc:efo.obj
 0001:00110d30       WriteDestUsingNonEfo       10111d30 f   usc:efo.obj
 0001:001114b8       IsDescheduleBetweenInstAndGroup 101124b8 f   usc:efo.obj
 0001:001115e4       IsGroupDependency          101125e4 f   usc:efo.obj
 0001:0011163c       CheckGroupOrderForNonEfo   1011263c f   usc:efo.obj
 0001:001116f8       CreateEfoInstructions      101126f8 f   usc:efo.obj
 0001:0011185c       GenerateEfosFromDependentInstructions 1011285c f   usc:efo.obj
 0001:00111edc       CheckEfoGroupOrder         10112edc f   usc:efo.obj
 0001:00111fcc       CheckSrcToIReg             10112fcc f   usc:efo.obj
 0001:00112728       CountArgs                  10113728 f   usc:efo.obj
 0001:00112880       IsIRegDestOverwrite        10113880 f   usc:efo.obj
 0001:00112a28       IsInterveningInst          10113a28 f   usc:efo.obj
 0001:00112bd0       TryCombineDependentInstructions 10113bd0 f   usc:efo.obj
 0001:00113894       CreateEfoInst              10114894 f   usc:efo.obj
 0001:001139b4       ReplaceInEfoReaderList     101149b4 f   usc:efo.obj
 0001:00113aa4       CanCombineDependentsIntoEfo 10114aa4 f   usc:efo.obj
 0001:00113c7c       FindMadForEfoWriteBack     10114c7c f   usc:efo.obj
 0001:0011404c       WouldBeInterveningIRegWrite 1011504c f   usc:efo.obj
 0001:00114144       CheckEfoGroupDependencyForMad 10115144 f   usc:efo.obj
 0001:00114280       BuildExtraAddInst          10115280 f   usc:efo.obj
 0001:00114748       IsDestDependency           10115748 f   usc:efo.obj
 0001:001148d0       GenerateEfoFromCombinedInstructionsExtraIRegs 101158d0 f   usc:efo.obj
 0001:00114a08       TryEfoCombineExtraIRegs    10115a08 f   usc:efo.obj
 0001:00114d90       TryEfoCombineExtraIRegsMULMUL 10115d90 f   usc:efo.obj
 0001:001154b8       CheckEfoGroupDependency    101164b8 f   usc:efo.obj
 0001:001156e4       CanReplaceSourceByIReg     101166e4 f   usc:efo.obj
 0001:00115da4       IsDescheduleBetweenInstAndInsts 10116da4 f   usc:efo.obj
 0001:00115f08       SetupEfoInstExtraIRegs     10116f08 f   usc:efo.obj
 0001:00116414       ReplaceDestByIReg          10117414 f   usc:efo.obj
 0001:001164f8       AddToMiddleEfoWriterList   101174f8 f   usc:efo.obj
 0001:00116644       TryEfoCombineExtraIRegsMADMUL 10117644 f   usc:efo.obj
 0001:001171b8       TryEfoCombineExtraIRegsMADMAD 101181b8 f   usc:efo.obj
 0001:00117bec       GenerateEfoFromCombinedInstructions 10118bec f   usc:efo.obj
 0001:00117d7c       TryEfoCombine              10118d7c f   usc:efo.obj
 0001:00118058       TryEfoCombineWithEfo       10119058 f   usc:efo.obj
 0001:00118544       CanCombineIntoEfo          10119544 f   usc:efo.obj
 0001:001189d4       CheckEfoTemplateTable      101199d4 f   usc:efo.obj
 0001:00118a94       CheckEfoTemplate           10119a94 f   usc:efo.obj
 0001:001193b8       CheckEfoIReg               1011a3b8 f   usc:efo.obj
 0001:00119630       GetArg                     1011a630 f   usc:efo.obj
 0001:00119758       CombineIntoEfo             1011a758 f   usc:efo.obj
 0001:0011a5d0       AllF16ChannelsTheSame      1011b5d0 f   usc:f16opt.obj
 0001:0011a63c       CanCombineF16Registers     1011b63c f   usc:f16opt.obj
 0001:0011aadc       CanSubstituteF16FormatConvert 1011badc f   usc:f16opt.obj
 0001:0011ada0       CanSubstituteF16RegisterByC10 1011bda0 f   usc:f16opt.obj
 0001:0011ae98       CanSubstituteF16RegisterSwizzle 1011be98 f   usc:f16opt.obj
 0001:0011b1c0       CanSubstituteF16Register   1011c1c0 f   usc:f16opt.obj
 0001:0011b208       CombineF16Registers        1011c208 f   usc:f16opt.obj
 0001:0011b64c       SetKillFlagOnPreviousInstruction 1011c64c f   usc:f16opt.obj
 0001:0011b760       SubstituteF16Argument      1011c760 f   usc:f16opt.obj
 0001:0011ccec       SetBit                     1011dcec f   usc:f16opt.obj
 0001:0011cdd0       Float16Optimize            1011ddd0 f   usc:f16opt.obj
 0001:0011d104       OptimizeDependentF16Instructions 1011e104 f   usc:f16opt.obj
 0001:0011e4e0       AddMoveDependency          1011f4e0 f   usc:f16opt.obj
 0001:0011e5a4       F16SwizzleToComponent      1011f5a4 f   usc:f16opt.obj
 0001:0011e66c       MovePackToMUL16Source      1011f66c f   usc:f16opt.obj
 0001:0011eb00       CompressF16Masks           1011fb00 f   usc:f16opt.obj
 0001:0011edbc       ExpandF16Masks             1011fdbc f   usc:f16opt.obj
 0001:0011f074       GlobalF16HalfPackUpdateBlock 10120074 f   usc:f16opt.obj
 0001:0011f1f4       GlobalF32F16PackReplaceArguments 101201f4 f   usc:f16opt.obj
 0001:0011f79c       GlobalF32F16PackUpdateBlock 1012079c f   usc:f16opt.obj
 0001:0011f8c4       GlobalF16HalfPackReplaceArguments 101208c4 f   usc:f16opt.obj
 0001:00120040       GlobalF16FullPackUpdateBlock 10121040 f   usc:f16opt.obj
 0001:00120188       GlobalF16FullPackReplaceArguments 10121188 f   usc:f16opt.obj
 0001:00120810       PromoteFARITH16ToF32       10121810 f   usc:f16opt.obj
 0001:00120cfc       FindUnpacksOfResult        10121cfc f   usc:f16opt.obj
 0001:001215bc       GetStaticIndexOffset       101225bc f   usc:indexreg.obj
 0001:001216bc       FixMultipleIndexRegConflict 101226bc f   usc:indexreg.obj
 0001:00121a1c       FixOffsetConflict          10122a1c f   usc:indexreg.obj
 0001:00121e80       AdjustIndexOffsets         10122e80 f   usc:indexreg.obj
 0001:00122384       GetIndexRange              10123384 f   usc:indexreg.obj
 0001:00122b54       GetSet                     10123b54 f   usc:ssa.obj
 0001:00122be4       AllocSSAState              10123be4 f   usc:ssa.obj
 0001:00122db8       InitRegisterMap            10123db8 f   usc:ssa.obj
 0001:00122e74       FreeSSAState               10123e74 f   usc:ssa.obj
 0001:00123000       DeleteRegisterMap          10124000 f   usc:ssa.obj
 0001:0012305c       RenameRegistersBP          1012405c f   usc:ssa.obj
 0001:00123238       RenameRegister             10124238 f   usc:ssa.obj
 0001:001232d8       RenameRegisterInst         101242d8 f   usc:ssa.obj
 0001:00123594       RenameRegisterInLiveSet    10124594 f   usc:ssa.obj
 0001:001236c8       DoDisambiguate             101246c8 f   usc:ssa.obj
 0001:001238f0       MergeRegisterMaps          101248f0 f   usc:ssa.obj
 0001:00123ac8       MergeIntermediateRegs      10124ac8 f   usc:ssa.obj
 0001:00123c7c       DisambiguateTraversal      10124c7c f   usc:ssa.obj
 0001:00124384       CopyRegisterMap            10125384 f   usc:ssa.obj
 0001:001243ec       GetIntermediateReg         101253ec f   usc:ssa.obj
 0001:0012457c       ProcessArgIndex            1012557c f   usc:ssa.obj
 0001:00124690       DisambiguatePredicateSource 10125690 f   usc:ssa.obj
 0001:001247ac       DisambiguateRegistersInst  101257ac f   usc:ssa.obj
 0001:00124c10       ProcessArg                 10125c10 f   usc:ssa.obj
 0001:00124e78       RemapBlockLiveOut          10125e78 f   usc:ssa.obj
 0001:00124f78       RemapBlockLiveOutForType   10125f78 f   usc:ssa.obj
 0001:001250a0       AddLiveRegistersToMap      101260a0 f   usc:ssa.obj
 0001:00125124       AddLiveRegistersOfTypeToMap 10126124 f   usc:ssa.obj
 0001:00125208       ReserveInExitMap           10126208 f   usc:ssa.obj
 0001:0012538c       FixFinalReg                1012638c f   usc:ssa.obj
 0001:001254a0       ApplyToFixedRegs           101264a0 f   usc:ssa.obj
 0001:00125d68       NormaliseIntegerInstructions 10126d68 f   usc:intcvt.obj
 0001:00126b74       SetBit                     10127b74 f   usc:intcvt.obj
 0001:00126c58       SOPWMToMove                10127c58 f   usc:intcvt.obj
 0001:00126d70       DropRedundantMinMax        10127d70 f   usc:intcvt.obj
 0001:001271f0       EliminateIntegerMoves      101281f0 f   usc:intcvt.obj
 0001:0012809c       GlobalReplaceIntegerMoveArguments 1012909c f   usc:intcvt.obj
 0001:001282b4       ConvertRegisterFormatsC10ToU8 101292b4 f   usc:intcvt.obj
 0001:00128380       FormatConvert_DropEmptyRegisterSets 10129380 f   usc:intcvt.obj
 0001:00128428       FormatConvert_ApplyUpdates 10129428 f   usc:intcvt.obj
 0001:00128a64       ConvertRegisterFormatC10ToU8_Inst 10129a64 f   usc:intcvt.obj
 0001:00128f54       FormatConvert_MergeSets    10129f54 f   usc:intcvt.obj
 0001:001291e0       AddRegisterToConversionSet 1012a1e0 f   usc:intcvt.obj
 0001:0012949c       FormatConvert_AddDestUpdate 1012a49c f   usc:intcvt.obj
 0001:0012952c       FormatConvert_AddUpdate    1012a52c f   usc:intcvt.obj
 0001:00129580       ConvertRegisterFormatC10ToU8_CheckInstruction 1012a580 f   usc:intcvt.obj
 0001:001296f8       FormatConvert_ResetArgMasks 1012a6f8 f   usc:intcvt.obj
 0001:001297b0       FormatConvert_AddUpdatesForUsedRegisters 1012a7b0 f   usc:intcvt.obj
 0001:00129958       FormatConvert_DropUsedRegisters 1012a958 f   usc:intcvt.obj
 0001:001299dc       FormatConvert_DeleteRegisterSet 1012a9dc f   usc:intcvt.obj
 0001:00129ad4       FormatConvert_RemoveKilledRegisters 1012aad4 f   usc:intcvt.obj
 0001:00129c00       FormatConvert_CheckRegisterOverwrite 1012ac00 f   usc:intcvt.obj
 0001:00129de8       FormatConvert_CheckArgument 1012ade8 f   usc:intcvt.obj
 0001:0012a054       GlobalIntegerComponentMoveUpdateBlock 1012b054 f   usc:intcvt.obj
 0001:0012a1bc       GlobalReplaceIntegerComponentMoveArguments 1012b1bc f   usc:intcvt.obj
 0001:0012a45c       CheckIntegerComponentMoveBanks 1012b45c f   usc:intcvt.obj
 0001:0012a814       CheckIntegerComponentMoveFormat 1012b814 f   usc:intcvt.obj
 0001:0012aaf8       CheckIntegerComponentMoveFormat_ComplexOp 1012baf8 f   usc:intcvt.obj
 0001:0012ae80       CheckIntegerComponentMoveFormat_PCK 1012be80 f   usc:intcvt.obj
 0001:0012b29c       CheckIntegerComponentMoveFormat_COMBC10 1012c29c f   usc:intcvt.obj
 0001:0012b3d4       CheckIntegerComponentMoveFormat_TEST 1012c3d4 f   usc:intcvt.obj
 0001:0012b958       AllChannelsTheSameInSource 1012c958 f   usc:intcvt.obj
 0001:0012ba1c       CheckIntegerComponentMoveFormat_INTARITH 1012ca1c f   usc:intcvt.obj
 0001:0012be10       CanEliminateIntegerComponentMoveForward 1012ce10 f   usc:intcvt.obj
 0001:0012c25c       EliminateIntegerComponentMoveForward 1012d25c f   usc:intcvt.obj
 0001:0012c8d4       CanEliminateIntegerMoveBackward 1012d8d4 f   usc:intcvt.obj
 0001:0012cb7c       EliminateIntegerMoveBackward 1012db7c f   usc:intcvt.obj
 0001:0012cec0       CanEliminateAlphaSwizzle   1012dec0 f   usc:intcvt.obj
 0001:0012d274       SubstituteAlphaSwizzle     1012e274 f   usc:intcvt.obj
 0001:0012d6fc       EliminateAlphaSwizzle      1012e6fc f   usc:intcvt.obj
 0001:0012db38       IntegerPeepholeOptimize    1012eb38 f   usc:intcvt.obj
 0001:0012dd50       CombineSharedDestInstructions 1012ed50 f   usc:intcvt.obj
 0001:0012f1a0       IsRGBClear                 101301a0 f   usc:intcvt.obj
 0001:0012f2a4       IsAlphaMultiply            101302a4 f   usc:intcvt.obj
 0001:0012f3e4       CombineDifferentSrcFmtPacks 101303e4 f   usc:intcvt.obj
 0001:0012f7f8       SetConstantOne             101307f8 f   usc:intcvt.obj
 0001:0012f8e8       IsConstantOne              101308e8 f   usc:intcvt.obj
 0001:0012fa2c       CombineSopwms              10130a2c f   usc:intcvt.obj
 0001:001302b4       CombineSopwmsMatchingArgsIntoSop2 101312b4 f   usc:intcvt.obj
 0001:0013062c       SwapArgsInSrcSel           1013162c f   usc:intcvt.obj
 0001:00130758       SelectAlphaInSrcSel        10131758 f   usc:intcvt.obj
 0001:00130810       CombineSopwmsWithSpareArgIntoSop2 10131810 f   usc:intcvt.obj
 0001:00130a44       CombineMulMulToSOP3        10131a44 f   usc:intcvt.obj
 0001:00130f94       CombineAddMovToSOP3        10131f94 f   usc:intcvt.obj
 0001:001312c0       IsSOPWMAdd                 101322c0 f   usc:intcvt.obj
 0001:001313a8       CombineMulMovToLRP1        101323a8 f   usc:intcvt.obj
 0001:001317e8       CombineMOVSOPWM            101327e8 f   usc:intcvt.obj
 0001:00131bac       ConvertPackToMove          10132bac f   usc:intcvt.obj
 0001:00131dc4       CombineSOPWMMOVToSOP2      10132dc4 f   usc:intcvt.obj
 0001:00132100       CombineMOVMOVToSOP2        10133100 f   usc:intcvt.obj
 0001:00132458       CombinePacksToU8C10        10133458 f   usc:intcvt.obj
 0001:00132bc4       OptimizeDependentIntegerInstructions 10133bc4 f   usc:intcvt.obj
 0001:00132f04       RemoveRedundantConversion  10133f04 f   usc:intcvt.obj
 0001:001332b0       CombineSOPWMMulSOPWMDouble 101342b0 f   usc:intcvt.obj
 0001:001334e4       IsResultSaturated          101344e4 f   usc:intcvt.obj
 0001:00133564       CombineIntMulAdd           10134564 f   usc:intcvt.obj
 0001:00134234       AddAlphaSwizzleC10Constant 10135234 f   usc:intcvt.obj
 0001:00134460       FoldC10Combine             10135460 f   usc:intcvt.obj
 0001:00134a24       CombineSOPWMSOP2Move       10135a24 f   usc:intcvt.obj
 0001:00134f38       IsSOP2DoubleMove           10135f38 f   usc:intcvt.obj
 0001:001350dc       CombineSOP2MoveSOPWMMultiply 101360dc f   usc:intcvt.obj
 0001:00135560       CheckForScale              10136560 f   usc:intcvt.obj
 0001:00135cac       IsSOPWMSub                 10136cac f   usc:intcvt.obj
 0001:00135d94       ConvertUnpacksToO8         10136d94 f   usc:intcvt.obj
 0001:001361e4       ConvertMinMaxToFormatConvert 101371e4 f   usc:intcvt.obj
 0001:00136520       CheckIntegerMaxMin         10137520 f   usc:intcvt.obj
 0001:00136704       FoldDestFormatConversion   10137704 f   usc:intcvt.obj
 0001:0013694c       FindOtherInstruction       1013794c f   usc:intcvt.obj
 0001:00136cf0       CouldBeEqualRegister       10137cf0 f   usc:intcvt.obj
 0001:001393a0       PrintValidShaderOutputs    1013a3a0 f   usc:debug.obj
 0001:001394c0       PrintInvariantShaderOutputs 1013a4c0 f   usc:debug.obj
 0001:001395e0       PrintInputInst             1013a5e0 f   usc:debug.obj
 0001:0013b084       PrintTest                  1013c084 f   usc:debug.obj
 0001:0013b1e0       PrintPredicate             1013c1e0 f   usc:debug.obj
 0001:0013b2a4       ArgUsedFromSmp             1013c2a4 f   usc:debug.obj
 0001:0013b430       PrintSOP                   1013c430 f   usc:debug.obj
 0001:0013b674       PrintSOPSrc                1013c674 f   usc:debug.obj
 0001:0013b7a4       PrintRegister              1013c7a4 f   usc:debug.obj
 0001:0013bd9c       PrintIndex                 1013cd9c f   usc:debug.obj
 0001:0013becc       PrintUseasmSwizzle         1013cecc f   usc:debug.obj
 0001:0013bf94       PrintDest                  1013cf94 f   usc:debug.obj
 0001:0013c3f4       PrintMask                  1013d3f4 f   usc:debug.obj
 0001:0013c5a0       PrintMaskLetters           1013d5a0 f   usc:debug.obj
 0001:0013c814       PrintBlockBP               1013d814 f   usc:debug.obj
 0001:0013d92c       CheckForStaticConst        1013e92c f   usc:icvt_core.obj
 0001:0013da34       ConvertRelativeOffset      1013ea34 f   usc:icvt_core.obj
 0001:0013de1c       CheckForHwConst            1013ee1c f   usc:icvt_core.obj
 0001:0013ebd4       LoadTextureState           1013fbd4 f   usc:icvt_core.obj
 0001:0013fe70       SetBit                     10140e70 f   usc:icvt_core.obj
 0001:0013ff54       GetGradientDetails         10140f54 f   usc:icvt_core.obj
 0001:0013fffc       EmitGradCalc               10140ffc f   usc:icvt_core.obj
 0001:00140b60       GetSourceConvertToU16      10141b60 f   usc:icvt_core.obj
 0001:00141ec0       BuildCFG                   10142ec0 f   usc:icvt_core.obj
 0001:00142044       DoConvert                  10143044 f   usc:icvt_core.obj
 0001:00142798       ConvertInstToIntermediate  10143798 f   usc:icvt_core.obj
 0001:00142b14       SearchBackwardsSetp        10143b14 f   usc:icvt_core.obj
 0001:00142c34       UFConstComp                10143c34 f   usc:icvt_core.obj
 0001:001430d0       GetInputConst              101440d0 f   usc:icvt_core.obj
 0001:0014337c       UFRegIsConst               1014437c f   usc:icvt_core.obj
 0001:00143454       DoFlowControlTest          10144454 f   usc:icvt_core.obj
 0001:0014425c       ConvertLoop                1014525c f   usc:icvt_core.obj
 0001:0014477c       AddD3DLoopProlog           1014577c f   usc:icvt_core.obj
 0001:00144a6c       AddD3DLoopEpilog           10145a6c f   usc:icvt_core.obj
 0001:00145004       ConvertCall                10146004 f   usc:icvt_core.obj
 0001:001455b0       ConvertConditional         101465b0 f   usc:icvt_core.obj
 0001:001458a4       ConvertSwitch              101468a4 f   usc:icvt_core.obj
 0001:00145f10       ConvertEmitInstruction     10146f10 f   usc:icvt_core.obj
 0001:0014659c       ConvertCutInstruction      1014759c f   usc:icvt_core.obj
 0001:00146be4       ConvertEmitCutInstruction  10147be4 f   usc:icvt_core.obj
 0001:00146c3c       ExpandRelativeIndexAndMacro 10147c3c f   usc:icvt_core.obj
 0001:00146f18       ExpandMacro                10147f18 f   usc:icvt_core.obj
 0001:001485ac       AllocInputInst             101495ac f   usc:icvt_core.obj
 0001:00148674       CopyInputInst              10149674 f   usc:icvt_core.obj
 0001:00148770       RemapInputSwizzle          10149770 f   usc:icvt_core.obj
 0001:00148870       ExpandTRC                  10149870 f   usc:icvt_core.obj
 0001:00148be0       ApplyAbsoluteModifier      10149be0 f   usc:icvt_core.obj
 0001:00148c3c       ExpandRNE                  10149c3c f   usc:icvt_core.obj
 0001:00149000       ExpandCEIL                 1014a000 f   usc:icvt_core.obj
 0001:00149224       BuildInputTempRegDest      1014a224 f   usc:icvt_core.obj
 0001:00149298       BuildInputTempRegSrc       1014a298 f   usc:icvt_core.obj
 0001:00149310       ExpandSLT_SGE              1014a310 f   usc:icvt_core.obj
 0001:001494b4       BuildInputHwConstSrc       1014a4b4 f   usc:icvt_core.obj
 0001:00149528       ExpandCND                  1014a528 f   usc:icvt_core.obj
 0001:00149694       ExpandLIT                  1014a694 f   usc:icvt_core.obj
 0001:0014a100       BuildInputPredDest         1014b100 f   usc:icvt_core.obj
 0001:0014a174       BuildInputCompOp           1014b174 f   usc:icvt_core.obj
 0001:0014a1e8       BuildInputPredicate        1014b1e8 f   usc:icvt_core.obj
 0001:0014a244       BuildInputFloatImmediateSrc 1014b244 f   usc:icvt_core.obj
 0001:0014a2b8       ExpandPOW                  1014b2b8 f   usc:icvt_core.obj
 0001:0014a4bc       ExpandSUB                  1014b4bc f   usc:icvt_core.obj
 0001:0014a52c       ExpandSINCOS2              1014b52c f   usc:icvt_core.obj
 0001:0014ae14       BuildInputImmediateSrc     1014be14 f   usc:icvt_core.obj
 0001:0014ae88       MapAngleToMinusPiToPi      1014be88 f   usc:icvt_core.obj
 0001:0014b0c8       ExpandSINCOS               1014c0c8 f   usc:icvt_core.obj
 0001:0014b7ec       LoadImmediateVector        1014c7ec f   usc:icvt_core.obj
 0001:0014b8bc       ExpandFloatDIV             1014c8bc f   usc:icvt_core.obj
 0001:0014ba3c       ExpandInt16DIV             1014ca3c f   usc:icvt_core.obj
 0001:0014c294       ExpandIntegerDIV           1014d294 f   usc:icvt_core.obj
 0001:0014cb20       ExpandFLR                  1014db20 f   usc:icvt_core.obj
 0001:0014cb70       GenerateFloor              1014db70 f   usc:icvt_core.obj
 0001:0014cccc       ExpandEXPP                 1014dccc f   usc:icvt_core.obj
 0001:0014d0c0       ExpandMOVA_TRC             1014e0c0 f   usc:icvt_core.obj
 0001:0014d1dc       ExpandSGN                  1014e1dc f   usc:icvt_core.obj
 0001:0014d3f4       ExpandSGN_Int              1014e3f4 f   usc:icvt_core.obj
 0001:0014d784       ExpandSQRT                 1014e784 f   usc:icvt_core.obj
 0001:0014dae8       ExpandRelativeIndex        1014eae8 f   usc:icvt_core.obj
 0001:0014dfac       IsChanAlreadyLoaded        1014efac f   usc:icvt_core.obj
 0001:0014e068       GetMaximumInputRegisterNumber 1014f068 f   usc:icvt_core.obj
 0001:0014e3d0       SetupVertexShaderOutputs   1014f3d0 f   usc:icvt_core.obj
 0001:0014e508       SetupVertexShaderInputs    1014f508 f   usc:icvt_core.obj
 0001:0014e760       SetupIterations            1014f760 f   usc:icvt_core.obj
 0001:0014e8f4       SetValidSahderOutputsData  1014f8f4 f   usc:icvt_core.obj
 0001:0014ef7c       SetupPixelShaderFixedRegs  1014ff7c f   usc:icvt_core.obj
 0001:0014f66c       SetupPixelShaderInputFixedRegs 1015066c f   usc:icvt_core.obj
 0001:0014f790       SetupVertexShaderFixedRegs 10150790 f   usc:icvt_core.obj
 0001:0014fe0c       GenerateShaderEndClamp     10150e0c f   usc:icvt_core.obj
 0001:0014fef4       BuildInputDest             10150ef4 f   usc:icvt_core.obj
 0001:0014ff68       BuildInputSrc              10150f68 f   usc:icvt_core.obj
 0001:0014ffe0       GenerateShaderEndMOV       10150fe0 f   usc:icvt_core.obj
 0001:001504e0       SaveRegNumsBP              101514e0 f   usc:groupinst.obj
 0001:00150648       FreeGroupInstState         10151648 f   usc:groupinst.obj
 0001:0015069c       InitGroupInstState         1015169c f   usc:groupinst.obj
 0001:00150794       GenerateDotProdBP          10151794 f   usc:groupinst.obj
 0001:001508a4       GenerateDotProducts        101518a4 f   usc:groupinst.obj
 0001:00151a70       IsDoubleDotProduct         10152a70 f   usc:groupinst.obj
 0001:00151e60       CheckPossibleSwizzle       10152e60 f   usc:groupinst.obj
 0001:0015217c       GetMOERegisterNumber       1015317c f   usc:groupinst.obj
 0001:001522fc       EqualArgModes              101532fc f   usc:groupinst.obj
 0001:00152428       ExpandMacroInstruction     10153428 f   usc:groupinst.obj
 0001:0015284c       SetHardwareConst           1015384c f   usc:groupinst.obj
 0001:00152884       GenerateExtraDPCIteration  10153884 f   usc:groupinst.obj
 0001:00152a14       SetBit                     10153a14 f   usc:groupinst.obj
 0001:00152af8       OptimizePFlagCalc          10153af8 f   usc:groupinst.obj
 0001:00152efc       MergeDPWithTest            10153efc f   usc:groupinst.obj
 0001:00153344       UpdateF16RegistersBP       10154344 f   usc:groupinst.obj
 0001:001535f0       InsertSmlsi                101545f0 f   usc:groupinst.obj
 0001:00153670       GroupInstructionsBasicBlock 10154670 f   usc:groupinst.obj
 0001:00153a8c       MoeToInst                  10154a8c f   usc:groupinst.obj
 0001:00153cd8       ResetMoeOpState            10154cd8 f   usc:groupinst.obj
 0001:00153d84       UpdateSMLSISiteConstraints 10154d84 f   usc:groupinst.obj
 0001:00153f44       GetArgumentsAffectedByMOESwizzles 10154f44 f   usc:groupinst.obj
 0001:001542e4       GetMOEUnitsLog2            101552e4 f   usc:groupinst.obj
 0001:00154340       Src0AliasesDest            10155340 f   usc:groupinst.obj
 0001:001543cc       FreeRepeatGroup            101553cc f   usc:groupinst.obj
 0001:00154418       AllocRepeatGroup           10155418 f   usc:groupinst.obj
 0001:00154470       IsNonZeroSwizzle           10155470 f   usc:groupinst.obj
 0001:00154514       GroupInstructions          10155514 f   usc:groupinst.obj
 0001:00155344       AdjustRegisterNumbersForMOESwizzle 10156344 f   usc:groupinst.obj
 0001:0015560c       GetRegisterOffsetAtIteration 1015660c f   usc:groupinst.obj
 0001:001556e8       UpdateKillFlags            101566e8 f   usc:groupinst.obj
 0001:001557d8       UpdateKillFlagsForRegister 101567d8 f   usc:groupinst.obj
 0001:00155914       RemapIncrements            10156914 f   usc:groupinst.obj
 0001:00155ce4       IsReplicatedHardwareConstant 10156ce4 f   usc:groupinst.obj
 0001:00155e00       IsMOEStateCompatibleWithInstructionRange 10156e00 f   usc:groupinst.obj
 0001:00155f1c       CheckIncrements            10156f1c f   usc:groupinst.obj
 0001:00156184       CheckExistingMoeState      10157184 f   usc:groupinst.obj
 0001:001564b8       EqualMoeData               101574b8 f   usc:groupinst.obj
 0001:0015661c       NeedSMSLIForDPDestination  1015761c f   usc:groupinst.obj
 0001:001566d8       SwitchToRepeatMask         101576d8 f   usc:groupinst.obj
 0001:00156c84       FindPotentialGroup         10157c84 f   usc:groupinst.obj
 0001:00156f78       TryAddToGroup              10157f78 f   usc:groupinst.obj
 0001:0015701c       CheckInstGroup             1015801c f   usc:groupinst.obj
 0001:00157684       CheckArg                   10158684 f   usc:groupinst.obj
 0001:00157c40       ConvertIncrementToSwizzle  10158c40 f   usc:groupinst.obj
 0001:00157e0c       CheckArgSwizzleMode        10158e0c f   usc:groupinst.obj
 0001:001580f8       RecordSmlsiStateForBlock   101590f8 f   usc:groupinst.obj
 0001:00158178       DoMOEPass                  10159178 f   usc:groupinst.obj
 0001:001584a0       DoGroupInsts               101594a0 f   usc:groupinst.obj
 0001:0015860c       GroupInstsDF               1015960c f   usc:groupinst.obj
 0001:00158b30       SMLSI_ProcessFuncEnd       10159b30 f   usc:groupinst.obj
 0001:00158d30       SMLSI_Merge                10159d30 f   usc:groupinst.obj
 0001:00158e08       SMLSI_SetDefault           10159e08 f   usc:groupinst.obj
 0001:00158e24       InsertSmbo                 10159e24 f   usc:groupinst.obj
 0001:00158ea4       CheckBaseOffsetBasicBlock  10159ea4 f   usc:groupinst.obj
 0001:00158f2c       CheckBaseOffset            10159f2c f   usc:groupinst.obj
 0001:00159754       GetBaseOffsetRange         1015a754 f   usc:groupinst.obj
 0001:00159d8c       GetMaxAddressableRegNum    1015ad8c f   usc:groupinst.obj
 0001:00159e24       InstUsesFormatControl      1015ae24 f   usc:groupinst.obj
 0001:00159fa0       RecordSmboStateForBlock    1015afa0 f   usc:groupinst.obj
 0001:0015a01c       SMBO_SetDefault            1015b01c f   usc:groupinst.obj
 0001:0015a0a4       SMBO_Merge                 1015b0a4 f   usc:groupinst.obj
 0001:0015a174       SMBO_ProcessFuncEnd        1015b174 f   usc:groupinst.obj
 0001:0015a3a4       InsertSetfc                1015b3a4 f   usc:groupinst.obj
 0001:0015a594       InsertSetfcInstruction     1015b594 f   usc:groupinst.obj
 0001:0015a748       SearchFormatControlBP      1015b748 f   usc:groupinst.obj
 0001:0015a88c       GetFormatControlRequirements 1015b88c f   usc:groupinst.obj
 0001:0015aa28       GetArgumentFormatControlRequirements 1015ba28 f   usc:groupinst.obj
 0001:0015ab20       CheckFormatControlBasicBlock 1015bb20 f   usc:groupinst.obj
 0001:0015aba8       CheckFormatControl         1015bba8 f   usc:groupinst.obj
 0001:0015aea8       RecordSetfcStateForBlock   1015bea8 f   usc:groupinst.obj
 0001:0015af28       SETFC_SetDefault           1015bf28 f   usc:groupinst.obj
 0001:0015af68       SETFC_Merge                1015bf68 f   usc:groupinst.obj
 0001:0015b010       SETFC_ProcessFuncEnd       1015c010 f   usc:groupinst.obj
 0001:0015bbe0       LayoutBlockBP              1015cbe0 f   usc:layout.obj
 0001:0015c25c       LayoutCall                 1015d25c f   usc:layout.obj
 0001:0015c548       AllocArrayOfNegOnes        1015d548 f   usc:layout.obj
 0001:0015c5a8       CheckAndSet                1015d5a8 f   usc:layout.obj
 0001:0015dc5c       SetBit                     1015ec5c f   usc:icvt_c10.obj
 0001:0015dd40       ConvertTempRegisterNumberC10 1015ed40 f   usc:icvt_c10.obj
 0001:0015de1c       SwizzleC10                 1015ee1c f   usc:icvt_c10.obj
 0001:0015e0f8       ApplySourceModC10          1015f0f8 f   usc:icvt_c10.obj
 0001:0015e8f0       GetIteratedValueC10        1015f8f0 f   usc:icvt_c10.obj
 0001:0015ecac       LoadVSOutputOrInputC10     1015fcac f   usc:icvt_c10.obj
 0001:0015eea4       LoadHwConstC10             1015fea4 f   usc:icvt_c10.obj
 0001:0015f4a0       LoadHwConstU8              101604a0 f   usc:icvt_c10.obj
 0001:0015f5cc       LoadBackfaceC10            101605cc f   usc:icvt_c10.obj
 0001:0015f9a0       GetC10OrU8StaticConstant   101609a0 f   usc:icvt_c10.obj
 0001:0015fc88       ExpandAlignedConstantAccess 10160c88 f   usc:icvt_c10.obj
 0001:00160034       ExpandUnalignedConstantAccess 10161034 f   usc:icvt_c10.obj
 0001:001603f0       DoC10ComponentAccess       101613f0 f   usc:icvt_c10.obj
 0001:00160584       ConvertC10ArgToU8          10161584 f   usc:icvt_c10.obj
 0001:001623e4       ConvertU8ArgToC10          101633e4 f   usc:icvt_c10.obj
 0001:001629c8       ConvertScalarInstructionC10 101639c8 f   usc:icvt_c10.obj
 0001:00163188       ConvertDestinationC10      10164188 f   usc:icvt_c10.obj
 0001:00163394       GetDestinationC10          10164394 f   usc:icvt_c10.obj
 0001:00163738       GenerateDestModC10         10164738 f   usc:icvt_c10.obj
 0001:001642e8       ConvertDotProductInstructionC10 101652e8 f   usc:icvt_c10.obj
 0001:0016500c       ConvertFloatOnlyInstructionC10 1016600c f   usc:icvt_c10.obj
 0001:001655fc       ConvertLrpInstructionC10   101665fc f   usc:icvt_c10.obj
 0001:00165dc4       ConvertMadInstructionC10   10166dc4 f   usc:icvt_c10.obj
 0001:001666a0       ConvertVectorTwoArgInstructionC10 101676a0 f   usc:icvt_c10.obj
 0001:00167090       ConvertMovaInstructionC10  10168090 f   usc:icvt_c10.obj
 0001:00167350       ConvertComparisonInstructionC10 10168350 f   usc:icvt_c10.obj
 0001:00167fa0       ConvertSamplerInstructionC10 10168fa0 f   usc:icvt_c10.obj
 0001:00168520       ConvertMoveInstructionC10  10169520 f   usc:icvt_c10.obj
 0001:00169cd0       ConvertSetpInstructionC10  1016acd0 f   usc:icvt_c10.obj
 0001:0016a154       ConvertTexkillInstructionC10 1016b154 f   usc:icvt_c10.obj
 0001:0016a34c       KillOneChannel             1016b34c f   usc:icvt_c10.obj
 0001:0016aaf4       FreeIntList                1016baf4 f   usc:dgraph.obj
 0001:0016ae10       AddToDepList               1016be10 f   usc:dgraph.obj
 0001:0016aeb4       AddToDepGraph              1016beb4 f   usc:dgraph.obj
 0001:0016b2c4       InsertInAvailableList      1016c2c4 f   usc:dgraph.obj
 0001:0016ca74       FindReaders                1016da74 f   usc:dgraph.obj
 0001:0016cc3c       RecordWrite                1016dc3c f   usc:dgraph.obj
 0001:0016ccfc       AddDestDependencies        1016dcfc f   usc:dgraph.obj
 0001:0016d11c       FindRegArrayReaders        1016e11c f   usc:dgraph.obj
 0001:0016d3dc       RecordRead                 1016e3dc f   usc:dgraph.obj
 0001:0016d4e8       RecordReadsByArg           1016e4e8 f   usc:dgraph.obj
 0001:0016d7d0       ConvertInstructionToUseasm 1016e7d0 f   usc:asm.obj
 0001:0016e1e4       EncodePred                 1016f1e4 f   usc:asm.obj
 0001:0016e344       GetUseasmOpcodeForSmp      1016f344 f   usc:asm.obj
 0001:0016e620       ConvertDest                1016f620 f   usc:asm.obj
 0001:0016e8cc       CopyIndex                  1016f8cc f   usc:asm.obj
 0001:0016e964       CopyPredicateDestination   1016f964 f   usc:asm.obj
 0001:0016ea54       CopySources                1016fa54 f   usc:asm.obj
 0001:0016eae8       CopySource                 1016fae8 f   usc:asm.obj
 0001:0016efb8       ConvertIMAEToUseasm        1016ffb8 f   usc:asm.obj
 0001:0016f53c       ConvertEMITToUseasm        1017053c f   usc:asm.obj
 0001:0016f64c       ConvertWOPToUseasm         1017064c f   usc:asm.obj
 0001:0016f6ac       ConvertSMLSIToUseasm       101706ac f   usc:asm.obj
 0001:0016f754       ConvertIMA16ToUseasm       10170754 f   usc:asm.obj
 0001:0016f870       ConvertEFOToUseasm         10170870 f   usc:asm.obj
 0001:0016f92c       EncodeEfo                  1017092c f   usc:asm.obj
 0001:00170024       EncodeEfoArith             10171024 f   usc:asm.obj
 0001:00170974       ConvertIDFToUseasm         10171974 f   usc:asm.obj
 0001:001709f4       ConvertRLPToUseasm         101719f4 f   usc:asm.obj
 0001:00170a98       ConvertTextureSampleToUseasm 10171a98 f   usc:asm.obj
 0001:00170d20       ConvertSOPWMToUseasm       10171d20 f   usc:asm.obj
 0001:00170e74       EncodeSOPWMModes           10171e74 f   usc:asm.obj
 0001:00171054       ConvertFPMAToUseasm        10172054 f   usc:asm.obj
 0001:001710b8       EncodeFPMAModes            101720b8 f   usc:asm.obj
 0001:001713fc       ConvertLRP1ToUseasm        101723fc f   usc:asm.obj
 0001:00171460       EncodeLRP1Modes            10172460 f   usc:asm.obj
 0001:001717a4       ConvertSOP2ToUseasm        101727a4 f   usc:asm.obj
 0001:00171808       EncodeSOP2Modes            10172808 f   usc:asm.obj
 0001:00171c8c       ConvertSOP3ToUseasm        10172c8c f   usc:asm.obj
 0001:00171cf4       EncodeSOP3Modes            10172cf4 f   usc:asm.obj
 0001:00172540       DropAlpha                  10173540 f   usc:asm.obj
 0001:001725bc       ConvertPCKInstructionToUseasm 101735bc f   usc:asm.obj
 0001:001726c8       GetIntegerDOTOpcode        101736c8 f   usc:asm.obj
 0001:0017288c       ConvertIntegerDOTToUseasm  1017388c f   usc:asm.obj
 0001:00172904       CopyDOT34DestModToUseasm   10173904 f   usc:asm.obj
 0001:001729dc       ConvertFDPCToUseasm        101739dc f   usc:asm.obj
 0001:00172a90       ConvertFDDPToUseasm        10173a90 f   usc:asm.obj
 0001:00172bd4       ConvertConditionalMoveToUseasm 10173bd4 f   usc:asm.obj
 0001:00172d60       ConvertMemoryLoadToUseasm  10173d60 f   usc:asm.obj
 0001:0017318c       GetF16Source               1017418c f   usc:icvt_f16.obj
 0001:00173ad4       GetIteratedValueF16        10174ad4 f   usc:icvt_f16.obj
 0001:00173eac       SetBit                     10174eac f   usc:icvt_f16.obj
 0001:00173f90       ConvertTempRegisterNumberF16 10174f90 f   usc:icvt_f16.obj
 0001:00174078       CopySourceModifiers        10175078 f   usc:icvt_f16.obj
 0001:00174114       GetF16StaticConstant       10175114 f   usc:icvt_f16.obj
 0001:00174334       DoF16UnalignedAccess       10175334 f   usc:icvt_f16.obj
 0001:00175974       GetDoubleSourceF16         10176974 f   usc:icvt_f16.obj
 0001:00176654       GetF16StaticDoubleConst    10177654 f   usc:icvt_f16.obj
 0001:00176ce8       ConvertScalarInstructionF16 10177ce8 f   usc:icvt_f16.obj
 0001:00177190       ConvertDestinationF16      10178190 f   usc:icvt_f16.obj
 0001:001772f0       GetDestinationF16          101782f0 f   usc:icvt_f16.obj
 0001:001774f8       GenerateDestModF16         101784f8 f   usc:icvt_f16.obj
 0001:00177a48       ConvertMadInstructionF16   10178a48 f   usc:icvt_f16.obj
 0001:0017819c       ConvertF32OnlyInstructionF16 1017919c f   usc:icvt_f16.obj
 0001:00178914       ConvertSamplerInstructionF16 10179914 f   usc:icvt_f16.obj
 0001:00178adc       UnpackTextureF16           10179adc f   usc:icvt_f16.obj
 0001:00178fd8       ConvertMoveInstructionF16  10179fd8 f   usc:icvt_f16.obj
 0001:001797b0       ConvertComparisonInstructionF16 1017a7b0 f   usc:icvt_f16.obj
 0001:00179e7c       ConvertDotProductInstructionF16 1017ae7c f   usc:icvt_f16.obj
 0001:0017a288       ConvertDot4InstructionF16  1017b288 f   usc:icvt_f16.obj
 0001:0017ae78       IsBetweenValidShaderOutputRanges 1017be78 f   usc:icvt_f32.obj
 0001:0017b628       SetBit                     1017c628 f   usc:icvt_f32.obj
 0001:0017b70c       GetRelativeIndex           1017c70c f   usc:icvt_f32.obj
 0001:0017d838       StoreIntoSpecialDest       1017e838 f   usc:icvt_f32.obj
 0001:0017db50       CreateComparisonF32        1017eb50 f   usc:icvt_f32.obj
 0001:0017f924       Extract10Or2BitUnsignedInt 10180924 f   usc:icvt_f32.obj
 0001:00181e70       ConvertF16AddressValue     10182e70 f   usc:icvt_f32.obj
 0001:0018265c       ConvertC10AddressValue     1018365c f   usc:icvt_f32.obj
 0001:001836fc       ConvertDotProductInstructionF32 101846fc f   usc:icvt_f32.obj
 0001:00183ee0       ConvertVectorInstructionF32 10184ee0 f   usc:icvt_f32.obj
 0001:00184eb8       ConvertLogpInstructionF32  10185eb8 f   usc:icvt_f32.obj
 0001:001857fc       ConvertTexkillInstructionBit 101867fc f   usc:icvt_f32.obj
 0001:001859bc       ConvertReformatInstructionF32 101869bc f   usc:icvt_f32.obj
 0001:00186148       ConvertInteger32ToF32      10187148 f   usc:icvt_f32.obj
 0001:00186e5c       IsBlockStart               10187e5c f   usc:precovr.obj
 0001:00186f08       IsBlockEnd                 10187f08 f   usc:precovr.obj
 0001:001874f0       ConvertPrologOperations    101884f0 f   usc:precovr.obj
 0001:001875d0       ConvertDotProduct          101885d0 f   usc:precovr.obj
 0001:00187818       IsIntegerDot3Arg           10188818 f   usc:precovr.obj
 0001:00187bdc       IsResultUsed               10188bdc f   usc:precovr.obj
 0001:00187f50       IsConditionalStart         10188f50 f   usc:precovr.obj
 0001:00187fc8       IsIntegerTexture           10188fc8 f   usc:precovr.obj
 0001:00188110       ConvertTextureSource       10189110 f   usc:precovr.obj
 0001:00188248       DoIntegerConversion        10189248 f   usc:precovr.obj
 0001:001888bc       ConvertInstructionToInteger 101898bc f   usc:precovr.obj
 0001:00188c4c       ConvertMoveInstruction     10189c4c f   usc:precovr.obj
 0001:00188eb4       AddPackedRegister          10189eb4 f   usc:precovr.obj
 0001:001891d0       ConvertMulInstruction      1018a1d0 f   usc:precovr.obj
 0001:00189794       IsSaturatedSource          1018a794 f   usc:precovr.obj
 0001:00189b2c       IsSaturatedTemp            1018ab2c f   usc:precovr.obj
 0001:00189fbc       ConvertMinMaxInstruction   1018afbc f   usc:precovr.obj
 0001:0018a344       IsStaticConstInRange       1018b344 f   usc:precovr.obj
 0001:0018a530       ConvertAddInstruction      1018b530 f   usc:precovr.obj
 0001:0018a97c       AddPackToInteger           1018b97c f   usc:precovr.obj
 0001:0018aba8       FindElse                   1018bba8 f   usc:precovr.obj
 0001:0018acac       FindPackedRegister         1018bcac f   usc:precovr.obj
 0001:0018af80       FreePrecovrState           1018bf80 f   usc:precovr.obj
 0001:0018bc48       ConvertInputInstF16ToF32   1018cc48 f   usc:precovr.obj
 0001:0018be98       ChangeTemporaryRegisterFormats 1018ce98 f   usc:precovr.obj
 0001:0018c014       CheckInstConversion        1018d014 f   usc:precovr.obj
 0001:0018c468       GetHwInstCountForF16Instruction 1018d468 f   usc:precovr.obj
 0001:0018c790       InsertF16ToF32Convert      1018d790 f   usc:precovr.obj
 0001:0018c940       ConvertRegisterPrecision   1018d940 f   usc:precovr.obj
 0001:0018d038       Generate32bitIntegerMul_Non545 1018e038 f   usc:icvt_i32.obj
 0001:0018d598       SetBit                     1018e598 f   usc:icvt_i32.obj
 0001:0018d67c       Generate32bitIntegerMulNonNeg_Non545 1018e67c f   usc:icvt_i32.obj
 0001:0018e3dc       Generate32bitIntegerAdd_Non545 1018f3dc f   usc:icvt_i32.obj
 0001:0018eeb4       Generate32bitIntegerMad_Non545 1018feb4 f   usc:icvt_i32.obj
 0001:0018f924       RoundFloatTowardZero       10190924 f   usc:icvt_i32.obj
 0001:001903f4       GenerateSignResult         101913f4 f   usc:icvt_i32.obj
 0001:001904b4       GenerateOrTest             101914b4 f   usc:icvt_i32.obj
 0001:001905e4       GenerateIntMovc            101915e4 f   usc:icvt_i32.obj
 0001:00190ee8       ConvertIntegerInstruction  10191ee8 f   usc:icvt_i32.obj
 0001:00191e34       GenerateIntegerDivide_Non545 10192e34 f   usc:icvt_i32.obj
 0001:00192580       GenerateIntegerDividePostCheck_Non545 10193580 f   usc:icvt_i32.obj
 0001:00193790       GenerateInt16Arithmetic    10194790 f   usc:icvt_i32.obj
 0001:00193ad4       ConvertMinMaxInstructionInt16 10194ad4 f   usc:icvt_i32.obj
 0001:00193cac       GenerateInt16Comparison    10194cac f   usc:icvt_i32.obj
 0001:00193de8       ConvertMinMaxInstructionInt32 10194de8 f   usc:icvt_i32.obj
 0001:00193f84       ConvertComparisonInstructionInt16 10194f84 f   usc:icvt_i32.obj
 0001:00194108       ConvertComparisonInstructionInt32 10195108 f   usc:icvt_i32.obj
 0001:001943e0       MoveTempToDestination      101953e0 f   usc:icvt_i32.obj
 0001:001944e0       IntegerAbsolute            101954e0 f   usc:icvt_i32.obj
 0001:001945e8       ConvertIntegerMOV          101955e8 f   usc:icvt_i32.obj
 0001:00194884       ConvertF32ConversionInstructionInt16 10195884 f   usc:icvt_i32.obj
 0001:00194c2c       GetCoreTableEntry          10195c2c f   useasm:utils.obj
 0001:0019739c       FixupLabelAddresses        1019839c f   useasm:useasm.obj
 0001:0019767c       SetLabelAddress            1019867c f   useasm:useasm.obj
 0001:00197a1c       AssembleDot34              10198a1c f   useasm:useasm.obj
 0001:00198f28       CheckArgFlags              10199f28 f   useasm:useasm.obj
 0001:0019938c       CheckFlags                 1019a38c f   useasm:useasm.obj
 0001:00199f8c       EncodeDest                 1019af8c f   useasm:useasm.obj
 0001:0019a014       EncodeArgument             1019b014 f   useasm:useasm.obj
 0001:0019a1c0       EncodeDestBank             1019b1c0 f   useasm:useasm.obj
 0001:0019a4ac       GetRegisterTypeName        1019b4ac f   useasm:useasm.obj
 0001:0019a530       GPIRegistersUseTempBank    1019b530 f   useasm:useasm.obj
 0001:0019a584       EncodeSrc0Bank             1019b584 f   useasm:useasm.obj
 0001:0019a6e4       IsValidSrc0Bank            1019b6e4 f   useasm:useasm.obj
 0001:0019a81c       EncodeSrc12Bank            1019b81c f   useasm:useasm.obj
 0001:0019ab30       CheckAndEncodeRegisterNumber 1019bb30 f   useasm:useasm.obj
 0001:0019b038       EncodeIndex                1019c038 f   useasm:useasm.obj
 0001:0019b1c4       CheckAndEncodeGlobalRegisterNumber 1019c1c4 f   useasm:useasm.obj
 0001:0019b3b4       CheckAndEncodeImmediate    1019c3b4 f   useasm:useasm.obj
 0001:0019b488       CheckSignedImmediate       1019c488 f   useasm:useasm.obj
 0001:0019b5ac       EncodeSrc0                 1019c5ac f   useasm:useasm.obj
 0001:0019b634       EncodeSrc1                 1019c634 f   useasm:useasm.obj
 0001:0019b6bc       EncodeSrc2                 1019c6bc f   useasm:useasm.obj
 0001:0019b744       EncodePredicate            1019c744 f   useasm:useasm.obj
 0001:0019b8f0       EncodeTestInstruction      1019c8f0 f   useasm:useasm.obj
 0001:0019c4d4       EncodeUnusedSource         1019d4d4 f   useasm:useasm.obj
 0001:0019c570       EncodeTestInstruction_AluOp 1019d570 f   useasm:useasm.obj
 0001:0019ca40       EncodeTestInstruction_FloatAluOp 1019da40 f   useasm:useasm.obj
 0001:0019cc88       EncodeTestInstruction_Repeat 1019dc88 f   useasm:useasm.obj
 0001:0019cfc8       CheckTestSourceBankRestrictions 1019dfc8 f   useasm:useasm.obj
 0001:0019d058       EncodeFloatInstruction     1019e058 f   useasm:useasm.obj
 0001:0019dbb4       EncodeFloatMod             1019ebb4 f   useasm:useasm.obj
 0001:0019dc24       EncodeFloatRepeats         1019ec24 f   useasm:useasm.obj
 0001:0019ddb4       EncodeSOP2Instruction      1019edb4 f   useasm:useasm.obj
 0001:0019f184       EncodePackInstruction      101a0184 f   useasm:useasm.obj
 0001:0019ffd4       CheckByteMask              101a0fd4 f   useasm:useasm.obj
 0001:001a008c       EncodeBitwiseInstruction   101a108c f   useasm:useasm.obj
 0001:001a097c       ExpandMacros               101a197c f   useasm:useasm.obj
 0001:001a21f8       IntSrcSel                  101a31f8 f   useasm:useasm.obj
 0001:001a2270       EncodeFDPCInstruction      101a3270 f   useasm:useasm.obj
 0001:001a26f0       EncodeFDDPInstruction      101a36f0 f   useasm:useasm.obj
 0001:001a2c20       EncodeFDDPCInstruction     101a3c20 f   useasm:useasm.obj
 0001:001a32c4       EncodeMovcInstruction      101a42c4 f   useasm:useasm.obj
 0001:001a3818       EncodeMOVCTest             101a4818 f   useasm:useasm.obj
 0001:001a3990       EncodeEfoInstruction       101a4990 f   useasm:useasm.obj
 0001:001a3ee0       EncodeSOPWMInstruction     101a4ee0 f   useasm:useasm.obj
 0001:001a4af8       EncodeLRP1Instruction      101a5af8 f   useasm:useasm.obj
 0001:001a5a54       EncodeLRP2Instruction      101a6a54 f   useasm:useasm.obj
 0001:001a6ab4       EncodeSOP3Instruction      101a7ab4 f   useasm:useasm.obj
 0001:001a8104       EncodeFPMAInstruction      101a9104 f   useasm:useasm.obj
 0001:001a8d64       EncodeIMA16Instruction     101a9d64 f   useasm:useasm.obj
 0001:001a978c       EncodeIMAEInstruction      101aa78c f   useasm:useasm.obj
 0001:001aa2b8       EncodeADIFInstruction      101ab2b8 f   useasm:useasm.obj
 0001:001aa744       EncodeSSUM16Instruction    101ab744 f   useasm:useasm.obj
 0001:001ab14c       EncodeFIRVInstruction      101ac14c f   useasm:useasm.obj
 0001:001aba44       EncodeFIRVHInstruction     101aca44 f   useasm:useasm.obj
 0001:001ac0dc       EncodeBILINInstruction     101ad0dc f   useasm:useasm.obj
 0001:001aca54       EncodeFIRHInstruction      101ada54 f   useasm:useasm.obj
 0001:001ad44c       EncodeFIRHHInstruction     101ae44c f   useasm:useasm.obj
 0001:001adee0       EncodeSMPInstruction       101aeee0 f   useasm:useasm.obj
 0001:001ae848       EncodeSMPInstruction_RepeatCount 101af848 f   useasm:useasm.obj
 0001:001ae988       EncodeLDSTInstruction      101af988 f   useasm:useasm.obj
 0001:001af614       EncodeLDSTCacheFlags       101b0614 f   useasm:useasm.obj
 0001:001af788       EncodeBAInstruction        101b0788 f   useasm:useasm.obj
 0001:001afa78       GetLabelAddress            101b0a78 f   useasm:useasm.obj
 0001:001afd14       EncodeLAPCInstruction      101b0d14 f   useasm:useasm.obj
 0001:001afe60       EncodeBRInstruction        101b0e60 f   useasm:useasm.obj
 0001:001b0154       EncodeIDFInstruction       101b1154 f   useasm:useasm.obj
 0001:001b0484       EncodeWDFInstruction       101b1484 f   useasm:useasm.obj
 0001:001b063c       EncodeEmitInstruction      101b163c f   useasm:useasm.obj
 0001:001b0f0c       EncodeEmitInstructionSource 101b1f0c f   useasm:useasm.obj
 0001:001b1070       EncodeSMOAInstruction      101b2070 f   useasm:useasm.obj
 0001:001b1654       EncodeSMLSIInstruction     101b2654 f   useasm:useasm.obj
 0001:001b2054       EncodeMOEInstruction       101b3054 f   useasm:useasm.obj
 0001:001b2604       EncodeSETFCInstruction     101b3604 f   useasm:useasm.obj
 0001:001b28a8       EncodeLIMMInstruction      101b38a8 f   useasm:useasm.obj
 0001:001b2b9c       EncodeMOVInstruction       101b3b9c f   useasm:useasm.obj
 0001:001b30ec       MapMOVToLimm               101b40ec f   useasm:useasm.obj
 0001:001b3174       EncodeMutexInstruction     101b4174 f   useasm:useasm.obj
 0001:001b33a4       EncodeLDRSTRInstruction    101b43a4 f   useasm:useasm.obj
 0001:001b395c       EncodeLDRSTRGlobalRegisterNumber 101b495c f   useasm:useasm.obj
 0001:001b3a58       EncodePTOFFPCOEFFInstruction 101b4a58 f   useasm:useasm.obj
 0001:001b3cb8       EncodeATST8Instruction     101b4cb8 f   useasm:useasm.obj
 0001:001b4300       EncodeDEPTHFInstruction    101b5300 f   useasm:useasm.obj
 0001:001b4730       EncodeSETMInstruction      101b5730 f   useasm:useasm.obj
 0001:001b495c       EncodePaddingInstruction   101b595c f   useasm:useasm.obj
 0001:001b4a7c       EncodeWOPInstruction       101b5a7c f   useasm:useasm.obj
 0001:001b4f44       _DllMainCRTStartupHelper   101b5f44 f   corelib0:pegdmain.obj
 0001:001b52cc       doexit                     101b62cc f   corelib0:cexit.obj
 0001:001bc070       glsl_lex                   101bd070 f   glsl_parser:glsl_parser.tab.obj
 0001:001bc108       glsl_error                 101bd108 f   glsl_parser:glsl_parser.tab.obj
 0001:001bc1e8       __CheckTypeSpecifier       101bd1e8 f   glsl_parser:glsl_parser.tab.obj
 0001:001bc818       __CheckArraySpecifierMustHaveSize 101bd818 f   glsl_parser:glsl_parser.tab.obj
 0001:001bc864       __ProcessArraySpecifier    101bd864 f   glsl_parser:glsl_parser.tab.obj
 0001:001bca1c       __ProcessSingleDeclaration 101bda1c f   glsl_parser:glsl_parser.tab.obj
 0001:001bcd7c       __ProcessParameterDeclaration 101bdd7c f   glsl_parser:glsl_parser.tab.obj
 0001:001bd37c       __NewOperator              101be37c f   glsl_parser:glsl_parser.tab.obj
 0001:001bd454       yysyntax_error             101be454 f   glsl_parser:glsl_parser.tab.obj
 0001:001bd8f0       yystrlen                   101be8f0 f   glsl_parser:glsl_parser.tab.obj
 0001:001bd950       yystpcpy                   101be950 f   glsl_parser:glsl_parser.tab.obj
 0001:001bd9cc       yytnamerr                  101be9cc f   glsl_parser:glsl_parser.tab.obj
 0001:001bdb34       yydestruct                 101beb34 f   glsl_parser:glsl_parser.tab.obj
 0001:001bde74       LexGeneratePreprocessorTokens 101bee74 f   glsl_parser:lex.obj
 0001:001bf42c       LexCallocToken             101c042c f   glsl_parser:lex.obj
 0001:001bf560       LexEatNewlines             101c0560 f   glsl_parser:lex.obj
 0001:001bf664       LexMatchKeywords           101c0664 f   glsl_parser:lex.obj
 0001:001bf8d0       LexKeywordHash             101c08d0 f   glsl_parser:lex.obj
 0001:001bf9dc       LexReservedHash            101c09dc f   glsl_parser:lex.obj
