; Listing generated by Microsoft (R) Optimizing Compiler Version 14.01.60511.01 

	TTL	C:\WINCE600\PUBLIC\PowerVR-SDK\OVG\TrainingCourse\19_Font\OVG\Content\ImageFont.cpp
	CODE32

  00000			 AREA	 |.drectve|, DRECTVE
	DCB	"-defaultlib:LIBCMT "
	DCB	"-defaultlib:OLDNAMES "


  00000			 AREA	 |.rdata|, DATA, READONLY
|_ImageFont_pvr| DCD 0x34
	DCD	0x100
	DCD	0x100
	DCD	0x0
	DCD	0x9b
	DCD	0x10000
	DCD	0x8
	DCD	0xffffffff
	DCD	0xffffffff
	DCD	0xffffffff
	DCD	0x0
	DCD	0x21525650
	DCD	0x1
	DCD	0x0
	DCD	0x0
	DCD	0x0
	DCD	0x0
	DCD	0x0
	DCD	0x0
	DCD	0x0
	DCD	0x0
	DCD	0x0
	DCD	0x0
	DCD	0x0
	DCD	0x0
	DCD	0x0
	DCD	0x0
	DCD	0x0
	DCD	0x0
	DCD	0x0
	DCD	0x0
	DCD	0x0
	DCD	0x0
	DCD	0x0
	DCD	0x0
	DCD	0x0
	DCD	0x0
	DCD	0x0
	DCD	0x0
	DCD	0x0
	DCD	0x0
	DCD	0x0
	DCD	0x0
	DCD	0x0
	DCD	0x0
	DCD	0x0
	DCD	0x0
	DCD	0x0
	DCD	0x0
	DCD	0x0
	DCD	0x0
	DCD	0x0
	DCD	0x0
	DCD	0x0
	DCD	0x0
	DCD	0x0
	DCD	0x0
	DCD	0x0
	DCD	0x0
	DCD	0x0
	DCD	0x0
	DCD	0x0
	DCD	0x0
	DCD	0x0
	DCD	0x0
	DCD	0x0
	DCD	0x0
	DCD	0x0
	DCD	0x0
	DCD	0x0
	DCD	0x0
	DCD	0x0
	DCD	0x0
	DCD	0x0
	DCD	0x0
	DCD	0x0
	DCD	0x0
	DCD	0x0
	DCD	0x0
	DCD	0x0
	DCD	0x0
	DCD	0x0
	DCD	0x0
	DCD	0x0
	DCD	0x0
	DCD	0x0
	DCD	0x0
	DCD	0x0
	DCD	0x0
	DCD	0x0
	DCD	0x0
	DCD	0x0
	DCD	0x0
	DCD	0x0
	DCD	0x0
	DCD	0x0
	DCD	0x0
	DCD	0x0
	DCD	0x0
	DCD	0x0
	DCD	0x0
	DCD	0x0
	DCD	0x0
	DCD	0x0
	DCD	0x0
	DCD	0x0
	DCD	0x0
	DCD	0x0
	DCD	0x0
	DCD	0x0
	DCD	0x0
	DCD	0x0
	DCD	0x0
	DCD	0x0
	DCD	0x0
	DCD	0x0
	DCD	0x0
	DCD	0x0
	DCD	0x0
	DCD	0x0
	DCD	0x0
	DCD	0x0
	DCD	0x0
	DCD	0x0
	DCD	0x0
	DCD	0x0
	DCD	0x0
	DCD	0x0
	DCD	0x0
	DCD	0x0
	DCD	0x0
	DCD	0x0
	DCD	0x0
	DCD	0x0
	DCD	0x0
	DCD	0x0
	DCD	0x0
	DCD	0x0
	DCD	0x0
	DCD	0x0
	DCD	0x0
	DCD	0x0
	DCD	0x0
	DCD	0x0
	DCD	0x0
	DCD	0x0
	DCD	0x0
	DCD	0x0
	DCD	0x0
	DCD	0x0
	DCD	0x0
	DCD	0x0
	DCD	0x0
	DCD	0x0
	DCD	0x0
	DCD	0x0
	DCD	0x0
	DCD	0x0
	DCD	0x0
	DCD	0x0
	DCD	0x0
	DCD	0x0
	DCD	0x0
	DCD	0x0
	DCD	0x0
	DCD	0x0
	DCD	0x0
	DCD	0x0
	DCD	0x0
	DCD	0x0
	DCD	0x0
	DCD	0x0
	DCD	0x0
	DCD	0x0
	DCD	0x0
	DCD	0x0
	DCD	0x0
	DCD	0x0
	DCD	0x0
	DCD	0x0
	DCD	0x0
	DCD	0x0
	DCD	0x0
	DCD	0x0
	DCD	0x0
	DCD	0x0
	DCD	0x0
	DCD	0x0
	DCD	0x0
	DCD	0x0
	DCD	0x0
	DCD	0x0
	DCD	0x0
	DCD	0x0
	DCD	0x0
	DCD	0x0
	DCD	0x0
	DCD	0x0
	DCD	0x0
	DCD	0x0
	DCD	0x0
	DCD	0x0
	DCD	0x0
	DCD	0x0
	DCD	0x0
	DCD	0x0
	DCD	0x0
	DCD	0x0
	DCD	0x0
	DCD	0x0
	DCD	0x0
	DCD	0x0
	DCD	0x0
	DCD	0x0
	DCD	0x0
	DCD	0x0
	DCD	0x0
	DCD	0x0
	DCD	0x0
	DCD	0x0
	DCD	0x0
	DCD	0x0
	DCD	0x0
	DCD	0x0
	DCD	0x0
	DCD	0x0
	DCD	0x0
	DCD	0x0
	DCD	0x0
	DCD	0x0
	DCD	0x0
	DCD	0x0
	DCD	0x0
	DCD	0x0
	DCD	0x0
	DCD	0x0
	DCD	0x0
	DCD	0x0
	DCD	0x0
	DCD	0x0
	DCD	0x0
	DCD	0x0
	DCD	0x0
	DCD	0x0
	DCD	0x0
	DCD	0x0
	DCD	0x0
	DCD	0x0
	DCD	0x0
	DCD	0x0
	DCD	0x0
	DCD	0x0
	DCD	0x0
	DCD	0x0
	DCD	0x0
	DCD	0x0
	DCD	0x0
	DCD	0x0
	DCD	0x0
	DCD	0x0
	DCD	0x0
	DCD	0x0
	DCD	0x0
	DCD	0x0
	DCD	0x0
	DCD	0x0
	DCD	0x0
	DCD	0x0
	DCD	0x0
	DCD	0x0
	DCD	0x0
	DCD	0x0
	DCD	0x0
	DCD	0x0
	DCD	0x0
	DCD	0x0
	DCD	0x0
	DCD	0x0
	DCD	0x0
	DCD	0x0
	DCD	0x0
	DCD	0x0
	DCD	0x0
	DCD	0x0
	DCD	0x0
	DCD	0x0
	DCD	0x0
	DCD	0x0
	DCD	0x0
	DCD	0x0
	DCD	0x0
	DCD	0x0
	DCD	0x0
	DCD	0x0
	DCD	0x0
	DCD	0x0
	DCD	0x0
	DCD	0x0
	DCD	0x0
	DCD	0x0
	DCD	0x0
	DCD	0x0
	DCD	0x0
	DCD	0x0
	DCD	0x0
	DCD	0x0
	DCD	0x0
	DCD	0x0
	DCD	0x0
	DCD	0x0
	DCD	0x0
	DCD	0x0
	DCD	0x0
	DCD	0x0
	DCD	0x0
	DCD	0x0
	DCD	0x0
	DCD	0x0
	DCD	0x0
	DCD	0x0
	DCD	0x0
	DCD	0x0
	DCD	0x0
	DCD	0x0
	DCD	0x0
	DCD	0x0
	DCD	0x0
	DCD	0x0
	DCD	0x0
	DCD	0x0
	DCD	0x0
	DCD	0x0
	DCD	0x0
	DCD	0x0
	DCD	0x0
	DCD	0x0
	DCD	0x0
	DCD	0x0
	DCD	0x0
	DCD	0x0
	DCD	0x0
	DCD	0x0
	DCD	0x0
	DCD	0x0
	DCD	0x0
	DCD	0x0
	DCD	0x0
	DCD	0x0
	DCD	0x0
	DCD	0x0
	DCD	0x0
	DCD	0x0
	DCD	0x0
	DCD	0x0
	DCD	0x0
	DCD	0x0
	DCD	0x0
	DCD	0x0
	DCD	0x0
	DCD	0x0
	DCD	0x0
	DCD	0x0
	DCD	0x0
	DCD	0x0
	DCD	0x0
	DCD	0x0
	DCD	0x0
	DCD	0x0
	DCD	0x0
	DCD	0x0
	DCD	0x0
	DCD	0x0
	DCD	0x0
	DCD	0x0
	DCD	0x0
	DCD	0x0
	DCD	0x0
	DCD	0x0
	DCD	0x0
	DCD	0x0
	DCD	0x0
	DCD	0x0
	DCD	0x0
	DCD	0x0
	DCD	0x0
	DCD	0x0
	DCD	0x0
	DCD	0x0
	DCD	0x0
	DCD	0x0
	DCD	0x0
	DCD	0x0
	DCD	0x0
	DCD	0x0
	DCD	0x0
	DCD	0x0
	DCD	0x0
	DCD	0x0
	DCD	0x0
	DCD	0x0
	DCD	0x0
	DCD	0x0
	DCD	0x0
	DCD	0x0
	DCD	0x0
	DCD	0x0
	DCD	0x0
	DCD	0x0
	DCD	0x0
	DCD	0x0
	DCD	0x0
	DCD	0x0
	DCD	0x0
	DCD	0x0
	DCD	0x0
	DCD	0x0
	DCD	0x0
	DCD	0x0
	DCD	0x0
	DCD	0x0
	DCD	0x0
	DCD	0x0
	DCD	0x0
	DCD	0x0
	DCD	0x0
	DCD	0x0
	DCD	0x0
	DCD	0x0
	DCD	0x0
	DCD	0x0
	DCD	0x0
	DCD	0x0
	DCD	0x0
	DCD	0x0
	DCD	0x0
	DCD	0x0
	DCD	0x0
	DCD	0x0
	DCD	0x0
	DCD	0x0
	DCD	0x0
	DCD	0x0
	DCD	0x0
	DCD	0x0
	DCD	0x0
	DCD	0x0
	DCD	0x0
	DCD	0x0
	DCD	0x0
	DCD	0x0
	DCD	0x0
	DCD	0x0
	DCD	0x0
	DCD	0x0
	DCD	0x0
	DCD	0x0
	DCD	0x0
	DCD	0x0
	DCD	0x0
	DCD	0x0
	DCD	0x0
	DCD	0x0
	DCD	0x0
	DCD	0x0
	DCD	0x0
	DCD	0x0
	DCD	0x0
	DCD	0x0
	DCD	0x0
	DCD	0x0
	DCD	0x0
	DCD	0x0
	DCD	0x0
	DCD	0x0
	DCD	0x0
	DCD	0x0
	DCD	0x0
	DCD	0x0
	DCD	0x0
	DCD	0x0
	DCD	0x0
	DCD	0x0
	DCD	0x0
	DCD	0x0
	DCD	0x0
	DCD	0x0
	DCD	0x0
	DCD	0x0
	DCD	0x0
	DCD	0x0
	DCD	0x0
	DCD	0x0
	DCD	0x0
	DCD	0x0
	DCD	0x0
	DCD	0x0
	DCD	0x0
	DCD	0x0
	DCD	0x0
	DCD	0x0
	DCD	0x0
	DCD	0x0
	DCD	0x0
	DCD	0x0
	DCD	0x0
	DCD	0x0
	DCD	0x0
	DCD	0x0
	DCD	0x0
	DCD	0x0
	DCD	0x0
	DCD	0x0
	DCD	0x0
	DCD	0x0
	DCD	0x0
	DCD	0x0
	DCD	0x0
	DCD	0x0
	DCD	0x0
	DCD	0x0
	DCD	0x0
	DCD	0x0
	DCD	0x0
	DCD	0x0
	DCD	0x0
	DCD	0x0
	DCD	0x0
	DCD	0x0
	DCD	0x0
	DCD	0x0
	DCD	0x0
	DCD	0x0
	DCD	0x0
	DCD	0x0
	DCD	0x0
	DCD	0x0
	DCD	0x0
	DCD	0x0
	DCD	0x0
	DCD	0x0
	DCD	0x0
	DCD	0x0
	DCD	0x0
	DCD	0x0
	DCD	0x0
	DCD	0x0
	DCD	0x0
	DCD	0x0
	DCD	0x0
	DCD	0x0
	DCD	0x0
	DCD	0x0
	DCD	0x0
	DCD	0x0
	DCD	0x0
	DCD	0x0
	DCD	0x0
	DCD	0x0
	DCD	0x0
	DCD	0x0
	DCD	0x0
	DCD	0x0
	DCD	0x0
	DCD	0x0
	DCD	0x0
	DCD	0x0
	DCD	0x0
	DCD	0x0
	DCD	0x0
	DCD	0x0
	DCD	0x0
	DCD	0x0
	DCD	0x0
	DCD	0x0
	DCD	0x0
	DCD	0x0
	DCD	0x0
	DCD	0x0
	DCD	0x0
	DCD	0x0
	DCD	0x0
	DCD	0x0
	DCD	0x0
	DCD	0x0
	DCD	0x0
	DCD	0x0
	DCD	0x0
	DCD	0x0
	DCD	0x0
	DCD	0x0
	DCD	0x0
	DCD	0x0
	DCD	0x0
	DCD	0x0
	DCD	0x0
	DCD	0x0
	DCD	0x0
	DCD	0x0
	DCD	0x0
	DCD	0x0
	DCD	0x0
	DCD	0x0
	DCD	0x0
	DCD	0x0
	DCD	0x0
	DCD	0x0
	DCD	0x0
	DCD	0x0
	DCD	0x0
	DCD	0x0
	DCD	0x0
	DCD	0x0
	DCD	0x0
	DCD	0x0
	DCD	0x0
	DCD	0x0
	DCD	0x0
	DCD	0x0
	DCD	0x0
	DCD	0x0
	DCD	0x0
	DCD	0x0
	DCD	0x0
	DCD	0x0
	DCD	0x0
	DCD	0x0
	DCD	0x0
	DCD	0x0
	DCD	0x0
	DCD	0x0
	DCD	0x0
	DCD	0x0
	DCD	0x0
	DCD	0x0
	DCD	0x0
	DCD	0x0
	DCD	0x0
	DCD	0x0
	DCD	0x0
	DCD	0x0
	DCD	0x0
	DCD	0x0
	DCD	0x0
	DCD	0x0
	DCD	0x0
	DCD	0x0
	DCD	0x0
	DCD	0x0
	DCD	0x0
	DCD	0x0
	DCD	0x0
	DCD	0x0
	DCD	0x0
	DCD	0x0
	DCD	0x0
	DCD	0x0
	DCD	0x0
	DCD	0x0
	DCD	0x0
	DCD	0x0
	DCD	0x0
	DCD	0x0
	DCD	0x0
	DCD	0x0
	DCD	0x0
	DCD	0x0
	DCD	0x0
	DCD	0x0
	DCD	0x0
	DCD	0x0
	DCD	0x0
	DCD	0x0
	DCD	0x0
	DCD	0x0
	DCD	0x0
	DCD	0x0
	DCD	0x0
	DCD	0x0
	DCD	0x0
	DCD	0x0
	DCD	0x0
	DCD	0x0
	DCD	0x0
	DCD	0x0
	DCD	0x0
	DCD	0x0
	DCD	0x0
	DCD	0x0
	DCD	0x0
	DCD	0x0
	DCD	0x0
	DCD	0x0
	DCD	0x0
	DCD	0x0
	DCD	0x0
	DCD	0x0
	DCD	0x0
	DCD	0x0
	DCD	0x0
	DCD	0x0
	DCD	0x0
	DCD	0x0
	DCD	0x0
	DCD	0x0
	DCD	0x0
	DCD	0x0
	DCD	0x0
	DCD	0x0
	DCD	0x0
	DCD	0x0
	DCD	0x0
	DCD	0x0
	DCD	0x0
	DCD	0x0
	DCD	0x0
	DCD	0x0
	DCD	0x0
	DCD	0x0
	DCD	0x0
	DCD	0x0
	DCD	0x0
	DCD	0x0
	DCD	0x0
	DCD	0x0
	DCD	0x0
	DCD	0x0
	DCD	0x0
	DCD	0x0
	DCD	0x0
	DCD	0x0
	DCD	0x0
	DCD	0x0
	DCD	0x0
	DCD	0x0
	DCD	0x0
	DCD	0x0
	DCD	0x0
	DCD	0x0
	DCD	0x0
	DCD	0x0
	DCD	0x0
	DCD	0x0
	DCD	0x0
	DCD	0x0
	DCD	0x0
	DCD	0x0
	DCD	0x0
	DCD	0x0
	DCD	0x0
	DCD	0x0
	DCD	0x0
	DCD	0x0
	DCD	0x0
	DCD	0x0
	DCD	0x0
	DCD	0x0
	DCD	0x0
	DCD	0x0
	DCD	0x0
	DCD	0x0
	DCD	0x0
	DCD	0x0
	DCD	0x0
	DCD	0x0
	DCD	0x0
	DCD	0x0
	DCD	0x0
	DCD	0x0
	DCD	0x0
	DCD	0x0
	DCD	0x0
	DCD	0x0
	DCD	0x0
	DCD	0x0
	DCD	0x0
	DCD	0x0
	DCD	0x0
	DCD	0x0
	DCD	0x0
	DCD	0x0
	DCD	0x0
	DCD	0x0
	DCD	0x0
	DCD	0x0
	DCD	0x0
	DCD	0x0
	DCD	0x0
	DCD	0x0
	DCD	0x0
	DCD	0x0
	DCD	0x0
	DCD	0x0
	DCD	0x0
	DCD	0x0
	DCD	0x0
	DCD	0x0
	DCD	0x0
	DCD	0x0
	DCD	0x0
	DCD	0x0
	DCD	0x0
	DCD	0x0
	DCD	0x0
	DCD	0x0
	DCD	0x0
	DCD	0x0
	DCD	0x0
	DCD	0x0
	DCD	0x0
	DCD	0x0
	DCD	0x0
	DCD	0x0
	DCD	0x0
	DCD	0x0
	DCD	0x0
	DCD	0x0
	DCD	0x0
	DCD	0x0
	DCD	0x0
	DCD	0x0
	DCD	0x0
	DCD	0x0
	DCD	0x0
	DCD	0x0
	DCD	0x0
	DCD	0x0
	DCD	0x0
	DCD	0x0
	DCD	0x0
	DCD	0x0
	DCD	0x0
	DCD	0x0
	DCD	0x0
	DCD	0x0
	DCD	0x0
	DCD	0x0
	DCD	0x0
	DCD	0x0
	DCD	0x0
	DCD	0x0
	DCD	0x0
	DCD	0x0
	DCD	0x0
	DCD	0x0
	DCD	0x0
	DCD	0x0
	DCD	0x0
	DCD	0x0
	DCD	0x0
	DCD	0x0
	DCD	0x0
	DCD	0x0
	DCD	0x0
	DCD	0x0
	DCD	0x0
	DCD	0x0
	DCD	0x0
	DCD	0x0
	DCD	0x0
	DCD	0x0
	DCD	0x0
	DCD	0x0
	DCD	0x0
	DCD	0x0
	DCD	0x0
	DCD	0x0
	DCD	0x0
	DCD	0x0
	DCD	0x0
	DCD	0x0
	DCD	0x0
	DCD	0x0
	DCD	0x0
	DCD	0x0
	DCD	0x0
	DCD	0x0
	DCD	0x0
	DCD	0x0
	DCD	0x0
	DCD	0x0
	DCD	0x0
	DCD	0x0
	DCD	0x0
	DCD	0x0
	DCD	0x0
	DCD	0x0
	DCD	0x0
	DCD	0x0
	DCD	0x0
	DCD	0x0
	DCD	0x0
	DCD	0x0
	DCD	0x0
	DCD	0x0
	DCD	0x0
	DCD	0x0
	DCD	0x0
	DCD	0x0
	DCD	0x0
	DCD	0x0
	DCD	0x0
	DCD	0x0
	DCD	0x0
	DCD	0x0
	DCD	0x0
	DCD	0x0
	DCD	0x0
	DCD	0x0
	DCD	0x0
	DCD	0x0
	DCD	0x0
	DCD	0x0
	DCD	0x0
	DCD	0x0
	DCD	0x0
	DCD	0x0
	DCD	0x0
	DCD	0x0
	DCD	0x0
	DCD	0x0
	DCD	0x0
	DCD	0x0
	DCD	0x0
	DCD	0x0
	DCD	0x0
	DCD	0x0
	DCD	0x0
	DCD	0x0
	DCD	0x0
	DCD	0x0
	DCD	0x0
	DCD	0x0
	DCD	0x0
	DCD	0x0
	DCD	0x0
	DCD	0x0
	DCD	0x0
	DCD	0x0
	DCD	0x0
	DCD	0x0
	DCD	0x0
	DCD	0x0
	DCD	0x0
	DCD	0x0
	DCD	0x0
	DCD	0x0
	DCD	0x0
	DCD	0x0
	DCD	0x0
	DCD	0x0
	DCD	0x0
	DCD	0x0
	DCD	0x0
	DCD	0x0
	DCD	0x0
	DCD	0x0
	DCD	0x0
	DCD	0x0
	DCD	0x0
	DCD	0x0
	DCD	0x0
	DCD	0x0
	DCD	0x0
	DCD	0x0
	DCD	0x0
	DCD	0x0
	DCD	0x0
	DCD	0x0
	DCD	0x0
	DCD	0x0
	DCD	0x0
	DCD	0x0
	DCD	0x0
	DCD	0x0
	DCD	0x0
	DCD	0x0
	DCD	0x0
	DCD	0x0
	DCD	0x0
	DCD	0x0
	DCD	0x0
	DCD	0x0
	DCD	0x0
	DCD	0x0
	DCD	0x0
	DCD	0x0
	DCD	0x0
	DCD	0x0
	DCD	0x0
	DCD	0x0
	DCD	0x0
	DCD	0x0
	DCD	0x0
	DCD	0x0
	DCD	0x0
	DCD	0x0
	DCD	0x0
	DCD	0x0
	DCD	0x0
	DCD	0x0
	DCD	0x0
	DCD	0x0
	DCD	0x0
	DCD	0x0
	DCD	0x0
	DCD	0x0
	DCD	0x0
	DCD	0x0
	DCD	0x0
	DCD	0x0
	DCD	0x0
	DCD	0x0
	DCD	0x0
	DCD	0x0
	DCD	0x0
	DCD	0x0
	DCD	0x0
	DCD	0x0
	DCD	0x0
	DCD	0x0
	DCD	0x0
	DCD	0x0
	DCD	0x0
	DCD	0x0
	DCD	0x0
	DCD	0x0
	DCD	0x0
	DCD	0x0
	DCD	0x0
	DCD	0x0
	DCD	0x0
	DCD	0x0
	DCD	0x0
	DCD	0x0
	DCD	0x0
	DCD	0x0
	DCD	0x0
	DCD	0x0
	DCD	0x0
	DCD	0x0
	DCD	0x0
	DCD	0x0
	DCD	0x0
	DCD	0x0
	DCD	0x0
	DCD	0x0
	DCD	0x0
	DCD	0x0
	DCD	0x0
	DCD	0x0
	DCD	0x0
	DCD	0x0
	DCD	0x0
	DCD	0x0
	DCD	0x0
	DCD	0x0
	DCD	0x0
	DCD	0x0
	DCD	0x0
	DCD	0x0
	DCD	0x0
	DCD	0x0
	DCD	0x0
	DCD	0x0
	DCD	0x0
	DCD	0x0
	DCD	0x0
	DCD	0x0
	DCD	0x0
	DCD	0x0
	DCD	0x0
	DCD	0x0
	DCD	0x0
	DCD	0x0
	DCD	0x0
	DCD	0x0
	DCD	0x0
	DCD	0x0
	DCD	0x0
	DCD	0x0
	DCD	0x0
	DCD	0x0
	DCD	0x0
	DCD	0x0
	DCD	0x0
	DCD	0x0
	DCD	0x0
	DCD	0x0
	DCD	0x0
	DCD	0x0
	DCD	0x0
	DCD	0x0
	DCD	0x0
	DCD	0x0
	DCD	0x0
	DCD	0x0
	DCD	0x0
	DCD	0x0
	DCD	0x0
	DCD	0x0
	DCD	0x0
	DCD	0x0
	DCD	0x0
	DCD	0x0
	DCD	0x0
	DCD	0x0
	DCD	0x0
	DCD	0x0
	DCD	0x0
	DCD	0x0
	DCD	0x0
	DCD	0x0
	DCD	0x0
	DCD	0x0
	DCD	0x0
	DCD	0x0
	DCD	0x0
	DCD	0x0
	DCD	0x0
	DCD	0x0
	DCD	0x0
	DCD	0x0
	DCD	0x0
	DCD	0x0
	DCD	0x0
	DCD	0x0
	DCD	0x0
	DCD	0x0
	DCD	0x0
	DCD	0x0
	DCD	0x0
	DCD	0x0
	DCD	0x0
	DCD	0x0
	DCD	0x0
	DCD	0x0
	DCD	0x0
	DCD	0x0
	DCD	0x0
	DCD	0x0
	DCD	0x0
	DCD	0x0
	DCD	0x0
	DCD	0x0
	DCD	0x0
	DCD	0x0
	DCD	0x0
	DCD	0x0
	DCD	0x0
	DCD	0x0
	DCD	0x0
	DCD	0x0
	DCD	0x0
	DCD	0x0
	DCD	0x0
	DCD	0x0
	DCD	0x0
	DCD	0x0
	DCD	0x0
	DCD	0x0
	DCD	0x0
	DCD	0x0
	DCD	0x0
	DCD	0x0
	DCD	0x0
	DCD	0x0
	DCD	0x0
	DCD	0x0
	DCD	0x0
	DCD	0x0
	DCD	0x0
	DCD	0x0
	DCD	0x0
	DCD	0x0
	DCD	0x0
	DCD	0x0
	DCD	0x0
	DCD	0x0
	DCD	0x0
	DCD	0x0
	DCD	0x0
	DCD	0x0
	DCD	0x0
	DCD	0x0
	DCD	0x0
	DCD	0x0
	DCD	0x0
	DCD	0x0
	DCD	0x0
	DCD	0x0
	DCD	0x0
	DCD	0x0
	DCD	0x0
	DCD	0x0
	DCD	0x0
	DCD	0x0
	DCD	0x0
	DCD	0x0
	DCD	0x0
	DCD	0x0
	DCD	0x0
	DCD	0x0
	DCD	0x0
	DCD	0x0
	DCD	0x0
	DCD	0x0
	DCD	0x0
	DCD	0x0
	DCD	0x0
	DCD	0x0
	DCD	0x0
	DCD	0x0
	DCD	0x0
	DCD	0x0
	DCD	0x0
	DCD	0x0
	DCD	0x0
	DCD	0x0
	DCD	0x0
	DCD	0x0
	DCD	0x0
	DCD	0x0
	DCD	0x0
	DCD	0x0
	DCD	0x0
	DCD	0x0
	DCD	0x0
	DCD	0x0
	DCD	0x0
	DCD	0x0
	DCD	0x0
	DCD	0x0
	DCD	0x0
	DCD	0x0
	DCD	0x0
	DCD	0x0
	DCD	0x0
	DCD	0x0
	DCD	0x0
	DCD	0x0
	DCD	0x0
	DCD	0x0
	DCD	0x0
	DCD	0x0
	DCD	0x0
	DCD	0x0
	DCD	0x0
	DCD	0x0
	DCD	0x0
	DCD	0x0
	DCD	0x0
	DCD	0x0
	DCD	0x0
	DCD	0x0
	DCD	0x0
	DCD	0x0
	DCD	0x0
	DCD	0x0
	DCD	0x0
	DCD	0x0
	DCD	0x0
	DCD	0x0
	DCD	0x0
	DCD	0x0
	DCD	0x0
	DCD	0x0
	DCD	0x0
	DCD	0x0
	DCD	0x0
	DCD	0x0
	DCD	0x0
	DCD	0x0
	DCD	0x0
	DCD	0x0
	DCD	0x0
	DCD	0x0
	DCD	0x0
	DCD	0x0
	DCD	0x0
	DCD	0x0
	DCD	0x0
	DCD	0x0
	DCD	0x0
	DCD	0x0
	DCD	0x0
	DCD	0x0
	DCD	0x0
	DCD	0x0
	DCD	0x0
	DCD	0x0
	DCD	0x0
	DCD	0x0
	DCD	0x0
	DCD	0x0
	DCD	0x0
	DCD	0x0
	DCD	0x0
	DCD	0x0
	DCD	0x0
	DCD	0x0
	DCD	0x0
	DCD	0x0
	DCD	0x0
	DCD	0x0
	DCD	0x0
	DCD	0x0
	DCD	0x0
	DCD	0x0
	DCD	0x0
	DCD	0x0
	DCD	0x0
	DCD	0x0
	DCD	0x0
	DCD	0x0
	DCD	0x0
	DCD	0x0
	DCD	0x0
	DCD	0x0
	DCD	0x0
	DCD	0x0
	DCD	0x0
	DCD	0x0
	DCD	0x0
	DCD	0x0
	DCD	0x0
	DCD	0x0
	DCD	0x0
	DCD	0x0
	DCD	0x0
	DCD	0x0
	DCD	0x0
	DCD	0x0
	DCD	0x0
	DCD	0x0
	DCD	0x0
	DCD	0x0
	DCD	0x0
	DCD	0x0
	DCD	0x0
	DCD	0x0
	DCD	0x0
	DCD	0x0
	DCD	0x0
	DCD	0x0
	DCD	0x0
	DCD	0x0
	DCD	0x0
	DCD	0x0
	DCD	0x0
	DCD	0x0
	DCD	0x0
	DCD	0x0
	DCD	0x0
	DCD	0x0
	DCD	0x0
	DCD	0x0
	DCD	0x0
	DCD	0x0
	DCD	0x0
	DCD	0x0
	DCD	0x0
	DCD	0x0
	DCD	0x0
	DCD	0x0
	DCD	0x0
	DCD	0x0
	DCD	0x0
	DCD	0x0
	DCD	0x0
	DCD	0x0
	DCD	0x0
	DCD	0x0
	DCD	0x0
	DCD	0x0
	DCD	0x0
	DCD	0x0
	DCD	0x0
	DCD	0x0
	DCD	0x0
	DCD	0x0
	DCD	0x0
	DCD	0x0
	DCD	0x0
	DCD	0x0
	DCD	0x0
	DCD	0x0
	DCD	0x0
	DCD	0x0
	DCD	0x0
	DCD	0x0
	DCD	0x0
	DCD	0x0
	DCD	0x0
	DCD	0x0
	DCD	0x0
	DCD	0x0
	DCD	0x0
	DCD	0x0
	DCD	0x0
	DCD	0x0
	DCD	0x0
	DCD	0x0
	DCD	0x0
	DCD	0x0
	DCD	0x0
	DCD	0x0
	DCD	0x0
	DCD	0x0
	DCD	0x0
	DCD	0x0
	DCD	0x0
	DCD	0x0
	DCD	0x0
	DCD	0x0
	DCD	0x0
	DCD	0x0
	DCD	0x0
	DCD	0x0
	DCD	0x0
	DCD	0x0
	DCD	0x0
	DCD	0x0
	DCD	0x0
	DCD	0x0
	DCD	0x0
	DCD	0x0
	DCD	0x0
	DCD	0x0
	DCD	0x0
	DCD	0x0
	DCD	0x0
	DCD	0x0
	DCD	0x0
	DCD	0x0
	DCD	0x0
	DCD	0x0
	DCD	0x0
	DCD	0x0
	DCD	0x0
	DCD	0x0
	DCD	0x0
	DCD	0x0
	DCD	0x0
	DCD	0x0
	DCD	0x0
	DCD	0x0
	DCD	0x0
	DCD	0x0
	DCD	0x0
	DCD	0x0
	DCD	0x0
	DCD	0x0
	DCD	0x0
	DCD	0x0
	DCD	0x0
	DCD	0x0
	DCD	0x0
	DCD	0x0
	DCD	0x0
	DCD	0x0
	DCD	0x0
	DCD	0x0
	DCD	0x0
	DCD	0x0
	DCD	0x0
	DCD	0x0
	DCD	0x0
	DCD	0x0
	DCD	0x0
	DCD	0x0
	DCD	0x0
	DCD	0x0
	DCD	0x0
	DCD	0x0
	DCD	0x0
	DCD	0x0
	DCD	0x0
	DCD	0x0
	DCD	0x0
	DCD	0x0
	DCD	0x0
	DCD	0x0
	DCD	0x0
	DCD	0x0
	DCD	0x0
	DCD	0x0
	DCD	0x0
	DCD	0x0
	DCD	0x0
	DCD	0x0
	DCD	0x0
	DCD	0x0
	DCD	0x0
	DCD	0x0
	DCD	0x0
	DCD	0x0
	DCD	0x0
	DCD	0x0
	DCD	0x0
	DCD	0x0
	DCD	0x0
	DCD	0x0
	DCD	0x0
	DCD	0x0
	DCD	0x0
	DCD	0x0
	DCD	0x0
	DCD	0x0
	DCD	0x0
	DCD	0x0
	DCD	0x0
	DCD	0x0
	DCD	0x0
	DCD	0x0
	DCD	0x0
	DCD	0x0
	DCD	0x0
	DCD	0x0
	DCD	0x0
	DCD	0x0
	DCD	0x0
	DCD	0x0
	DCD	0x0
	DCD	0x0
	DCD	0x0
	DCD	0x0
	DCD	0x0
	DCD	0x0
	DCD	0x0
	DCD	0x0
	DCD	0x0
	DCD	0x0
	DCD	0x0
	DCD	0x0
	DCD	0x0
	DCD	0x0
	DCD	0x0
	DCD	0x0
	DCD	0x0
	DCD	0x0
	DCD	0x0
	DCD	0x0
	DCD	0x0
	DCD	0x0
	DCD	0x0
	DCD	0x0
	DCD	0x0
	DCD	0x0
	DCD	0x0
	DCD	0x0
	DCD	0x0
	DCD	0x0
	DCD	0x0
	DCD	0x0
	DCD	0x0
	DCD	0x0
	DCD	0x0
	DCD	0x0
	DCD	0x0
	DCD	0x0
	DCD	0x0
	DCD	0x0
	DCD	0x0
	DCD	0x0
	DCD	0x0
	DCD	0x0
	DCD	0x0
	DCD	0x0
	DCD	0x0
	DCD	0x0
	DCD	0x0
	DCD	0x0
	DCD	0x0
	DCD	0x0
	DCD	0x0
	DCD	0x0
	DCD	0x0
	DCD	0x0
	DCD	0x0
	DCD	0x0
	DCD	0x0
	DCD	0x0
	DCD	0x0
	DCD	0x0
	DCD	0x0
	DCD	0x0
	DCD	0x0
	DCD	0x0
	DCD	0x0
	DCD	0x0
	DCD	0x0
	DCD	0x0
	DCD	0x0
	DCD	0x0
	DCD	0x0
	DCD	0x0
	DCD	0x0
	DCD	0x0
	DCD	0x0
	DCD	0x0
	DCD	0x0
	DCD	0x0
	DCD	0x0
	DCD	0x0
	DCD	0x0
	DCD	0x0
	DCD	0x0
	DCD	0x0
	DCD	0x0
	DCD	0x0
	DCD	0x0
	DCD	0x0
	DCD	0x0
	DCD	0x0
	DCD	0x0
	DCD	0x0
	DCD	0x0
	DCD	0x0
	DCD	0x0
	DCD	0x0
	DCD	0x0
	DCD	0x0
	DCD	0x0
	DCD	0x0
	DCD	0x0
	DCD	0x0
	DCD	0x0
	DCD	0x0
	DCD	0x0
	DCD	0x0
	DCD	0x0
	DCD	0x0
	DCD	0x0
	DCD	0x0
	DCD	0x0
	DCD	0x0
	DCD	0x0
	DCD	0x0
	DCD	0x0
	DCD	0x0
	DCD	0x0
	DCD	0x0
	DCD	0x0
	DCD	0x0
	DCD	0x0
	DCD	0x0
	DCD	0x0
	DCD	0x0
	DCD	0x0
	DCD	0x0
	DCD	0x0
	DCD	0x0
	DCD	0x0
	DCD	0x0
	DCD	0x0
	DCD	0x0
	DCD	0x0
	DCD	0x0
	DCD	0x0
	DCD	0x0
	DCD	0x0
	DCD	0x0
	DCD	0x0
	DCD	0x0
	DCD	0x0
	DCD	0x0
	DCD	0x0
	DCD	0x0
	DCD	0x0
	DCD	0x0
	DCD	0x0
	DCD	0x0
	DCD	0x0
	DCD	0x0
	DCD	0x0
	DCD	0x0
	DCD	0x0
	DCD	0x0
	DCD	0x0
	DCD	0x0
	DCD	0x0
	DCD	0x0
	DCD	0x0
	DCD	0x0
	DCD	0x0
	DCD	0x0
	DCD	0x0
	DCD	0x0
	DCD	0x0
	DCD	0x0
	DCD	0x0
	DCD	0x0
	DCD	0x0
	DCD	0x0
	DCD	0x0
	DCD	0x0
	DCD	0x0
	DCD	0x0
	DCD	0x0
	DCD	0x0
	DCD	0x0
	DCD	0x0
	DCD	0x0
	DCD	0x0
	DCD	0x0
	DCD	0x0
	DCD	0x0
	DCD	0x0
	DCD	0x0
	DCD	0x0
	DCD	0x0
	DCD	0x0
	DCD	0x0
	DCD	0x0
	DCD	0x0
	DCD	0x0
	DCD	0x0
	DCD	0x0
	DCD	0x0
	DCD	0x0
	DCD	0x0
	DCD	0x0
	DCD	0x0
	DCD	0x0
	DCD	0x0
	DCD	0x0
	DCD	0x0
	DCD	0x0
	DCD	0x0
	DCD	0x0
	DCD	0x0
	DCD	0x0
	DCD	0x0
	DCD	0x0
	DCD	0x0
	DCD	0x0
	DCD	0x0
	DCD	0x0
	DCD	0x0
	DCD	0x0
	DCD	0x0
	DCD	0x0
	DCD	0x0
	DCD	0x0
	DCD	0x0
	DCD	0x0
	DCD	0x0
	DCD	0x0
	DCD	0x0
	DCD	0x0
	DCD	0x0
	DCD	0x0
	DCD	0x0
	DCD	0x0
	DCD	0x0
	DCD	0x0
	DCD	0x0
	DCD	0x0
	DCD	0x0
	DCD	0x0
	DCD	0x0
	DCD	0x0
	DCD	0x0
	DCD	0x0
	DCD	0x0
	DCD	0x0
	DCD	0x0
	DCD	0x0
	DCD	0x0
	DCD	0x0
	DCD	0x0
	DCD	0x0
	DCD	0x0
	DCD	0x0
	DCD	0x0
	DCD	0x0
	DCD	0x0
	DCD	0x0
	DCD	0x0
	DCD	0x0
	DCD	0x0
	DCD	0x0
	DCD	0x0
	DCD	0x0
	DCD	0x0
	DCD	0x0
	DCD	0x0
	DCD	0x0
	DCD	0x0
	DCD	0x0
	DCD	0x0
	DCD	0x0
	DCD	0x0
	DCD	0x0
	DCD	0x0
	DCD	0x0
	DCD	0x0
	DCD	0x0
	DCD	0x0
	DCD	0x0
	DCD	0x0
	DCD	0x0
	DCD	0x0
	DCD	0x0
	DCD	0x0
	DCD	0x0
	DCD	0x0
	DCD	0x0
	DCD	0x0
	DCD	0x0
	DCD	0x0
	DCD	0x0
	DCD	0x0
	DCD	0x0
	DCD	0x0
	DCD	0x0
	DCD	0x0
	DCD	0x0
	DCD	0x0
	DCD	0x0
	DCD	0x0
	DCD	0x0
	DCD	0x0
	DCD	0x0
	DCD	0x0
	DCD	0x0
	DCD	0x0
	DCD	0x0
	DCD	0x0
	DCD	0x0
	DCD	0x0
	DCD	0x0
	DCD	0x0
	DCD	0x0
	DCD	0x0
	DCD	0x0
	DCD	0x0
	DCD	0x0
	DCD	0x0
	DCD	0x0
	DCD	0x0
	DCD	0x0
	DCD	0x0
	DCD	0x0
	DCD	0x0
	DCD	0x0
	DCD	0x0
	DCD	0x0
	DCD	0x0
	DCD	0x0
	DCD	0x0
	DCD	0x0
	DCD	0x0
	DCD	0x0
	DCD	0x0
	DCD	0x0
	DCD	0x0
	DCD	0x0
	DCD	0x0
	DCD	0x0
	DCD	0x0
	DCD	0x0
	DCD	0x0
	DCD	0x0
	DCD	0x0
	DCD	0x0
	DCD	0x0
	DCD	0x0
	DCD	0x0
	DCD	0x0
	DCD	0x0
	DCD	0x0
	DCD	0x0
	DCD	0x0
	DCD	0x0
	DCD	0x0
	DCD	0x0
	DCD	0x0
	DCD	0x0
	DCD	0x0
	DCD	0x0
	DCD	0x0
	DCD	0x0
	DCD	0x0
	DCD	0x0
	DCD	0x0
	DCD	0x0
	DCD	0x0
	DCD	0x0
	DCD	0x0
	DCD	0x0
	DCD	0x0
	DCD	0x0
	DCD	0x0
	DCD	0x0
	DCD	0x0
	DCD	0x0
	DCD	0x0
	DCD	0x0
	DCD	0x0
	DCD	0x0
	DCD	0x0
	DCD	0x0
	DCD	0x0
	DCD	0x0
	DCD	0x0
	DCD	0x0
	DCD	0x0
	DCD	0x0
	DCD	0x0
	DCD	0x0
	DCD	0x0
	DCD	0x0
	DCD	0x0
	DCD	0x0
	DCD	0x0
	DCD	0x0
	DCD	0x0
	DCD	0x0
	DCD	0x0
	DCD	0x0
	DCD	0x0
	DCD	0x0
	DCD	0x0
	DCD	0x0
	DCD	0x0
	DCD	0x0
	DCD	0x0
	DCD	0x0
	DCD	0x0
	DCD	0x0
	DCD	0x0
	DCD	0x0
	DCD	0x0
	DCD	0x0
	DCD	0x0
	DCD	0x0
	DCD	0x0
	DCD	0x0
	DCD	0x0
	DCD	0x0
	DCD	0x0
	DCD	0x0
	DCD	0x0
	DCD	0x0
	DCD	0x0
	DCD	0x0
	DCD	0x0
	DCD	0x0
	DCD	0x0
	DCD	0x0
	DCD	0x0
	DCD	0x0
	DCD	0x0
	DCD	0x0
	DCD	0x0
	DCD	0x0
	DCD	0x0
	DCD	0x0
	DCD	0x0
	DCD	0x0
	DCD	0x0
	DCD	0x0
	DCD	0x0
	DCD	0x0
	DCD	0x0
	DCD	0x0
	DCD	0x0
	DCD	0x0
	DCD	0x0
	DCD	0x0
	DCD	0x0
	DCD	0x0
	DCD	0x0
	DCD	0x0
	DCD	0x0
	DCD	0x0
	DCD	0x0
	DCD	0x0
	DCD	0x0
	DCD	0x0
	DCD	0x0
	DCD	0x0
	DCD	0x0
	DCD	0x0
	DCD	0x0
	DCD	0x0
	DCD	0x0
	DCD	0x0
	DCD	0x0
	DCD	0x0
	DCD	0x0
	DCD	0x0
	DCD	0x0
	DCD	0x0
	DCD	0x0
	DCD	0x0
	DCD	0x0
	DCD	0x0
	DCD	0x0
	DCD	0x0
	DCD	0x0
	DCD	0x0
	DCD	0x0
	DCD	0x0
	DCD	0x0
	DCD	0x0
	DCD	0x0
	DCD	0x0
	DCD	0x0
	DCD	0x0
	DCD	0x0
	DCD	0x0
	DCD	0x0
	DCD	0x0
	DCD	0x0
	DCD	0x0
	DCD	0x0
	DCD	0x0
	DCD	0x0
	DCD	0x0
	DCD	0x0
	DCD	0x0
	DCD	0x0
	DCD	0x0
	DCD	0x0
	DCD	0x0
	DCD	0x0
	DCD	0x0
	DCD	0x0
	DCD	0x0
	DCD	0x0
	DCD	0x0
	DCD	0x0
	DCD	0x0
	DCD	0x0
	DCD	0x0
	DCD	0x0
	DCD	0x0
	DCD	0x0
	DCD	0x0
	DCD	0x0
	DCD	0x0
	DCD	0x0
	DCD	0x0
	DCD	0x0
	DCD	0x0
	DCD	0x0
	DCD	0x0
	DCD	0x0
	DCD	0x0
	DCD	0x0
	DCD	0x0
	DCD	0x0
	DCD	0x0
	DCD	0x0
	DCD	0x0
	DCD	0x0
	DCD	0x0
	DCD	0x0
	DCD	0x0
	DCD	0x0
	DCD	0x0
	DCD	0x0
	DCD	0x0
	DCD	0x0
	DCD	0x0
	DCD	0x0
	DCD	0x0
	DCD	0x0
	DCD	0x0
	DCD	0x0
	DCD	0x0
	DCD	0x0
	DCD	0x0
	DCD	0x0
	DCD	0x0
	DCD	0x0
	DCD	0x0
	DCD	0x0
	DCD	0x0
	DCD	0x0
	DCD	0x0
	DCD	0x0
	DCD	0x0
	DCD	0x0
	DCD	0x0
	DCD	0x0
	DCD	0x0
	DCD	0x0
	DCD	0x0
	DCD	0x0
	DCD	0x0
	DCD	0x0
	DCD	0x0
	DCD	0x0
	DCD	0x0
	DCD	0x0
	DCD	0x0
	DCD	0x0
	DCD	0x0
	DCD	0x0
	DCD	0x0
	DCD	0x0
	DCD	0x0
	DCD	0x0
	DCD	0x0
	DCD	0x0
	DCD	0x0
	DCD	0x0
	DCD	0x0
	DCD	0x0
	DCD	0x0
	DCD	0x0
	DCD	0x0
	DCD	0x0
	DCD	0x0
	DCD	0x0
	DCD	0x0
	DCD	0x0
	DCD	0x0
	DCD	0x0
	DCD	0x0
	DCD	0x0
	DCD	0x0
	DCD	0x0
	DCD	0x0
	DCD	0x0
	DCD	0x0
	DCD	0x0
	DCD	0x0
	DCD	0x0
	DCD	0x0
	DCD	0x0
	DCD	0x0
	DCD	0x0
	DCD	0x0
	DCD	0x0
	DCD	0x0
	DCD	0x0
	DCD	0x0
	DCD	0x0
	DCD	0x0
	DCD	0x0
	DCD	0x0
	DCD	0x0
	DCD	0x0
	DCD	0x0
	DCD	0x0
	DCD	0x0
	DCD	0x0
	DCD	0x0
	DCD	0x0
	DCD	0x0
	DCD	0x0
	DCD	0x0
	DCD	0x0
	DCD	0x0
	DCD	0x0
	DCD	0x0
	DCD	0x0
	DCD	0x0
	DCD	0x0
	DCD	0x0
	DCD	0x0
	DCD	0x0
	DCD	0x0
	DCD	0x0
	DCD	0x0
	DCD	0x0
	DCD	0x0
	DCD	0x0
	DCD	0x0
	DCD	0x0
	DCD	0x0
	DCD	0x0
	DCD	0x0
	DCD	0x0
	DCD	0x0
	DCD	0x0
	DCD	0x0
	DCD	0x0
	DCD	0x0
	DCD	0x0
	DCD	0x0
	DCD	0x0
	DCD	0x0
	DCD	0x0
	DCD	0x0
	DCD	0x0
	DCD	0x0
	DCD	0x0
	DCD	0x0
	DCD	0x0
	DCD	0x0
	DCD	0x0
	DCD	0x0
	DCD	0x0
	DCD	0x0
	DCD	0x0
	DCD	0x0
	DCD	0x0
	DCD	0x0
	DCD	0x0
	DCD	0x0
	DCD	0x0
	DCD	0x0
	DCD	0x0
	DCD	0x0
	DCD	0x0
	DCD	0x0
	DCD	0x0
	DCD	0x0
	DCD	0x0
	DCD	0x0
	DCD	0x0
	DCD	0x0
	DCD	0x0
	DCD	0x0
	DCD	0x0
	DCD	0x0
	DCD	0x0
	DCD	0x0
	DCD	0x0
	DCD	0x0
	DCD	0x0
	DCD	0x0
	DCD	0x0
	DCD	0x0
	DCD	0x0
	DCD	0x0
	DCD	0x0
	DCD	0x0
	DCD	0x0
	DCD	0x0
	DCD	0x0
	DCD	0x0
	DCD	0x0
	DCD	0x0
	DCD	0x0
	DCD	0x0
	DCD	0x0
	DCD	0x0
	DCD	0x0
	DCD	0x0
	DCD	0x0
	DCD	0x0
	DCD	0x0
	DCD	0x0
	DCD	0x0
	DCD	0x0
	DCD	0x0
	DCD	0x0
	DCD	0x0
	DCD	0x0
	DCD	0x0
	DCD	0x0
	DCD	0x0
	DCD	0x0
	DCD	0x0
	DCD	0x0
	DCD	0x0
	DCD	0x0
	DCD	0x0
	DCD	0x0
	DCD	0x0
	DCD	0x0
	DCD	0x0
	DCD	0x0
	DCD	0x0
	DCD	0x0
	DCD	0x0
	DCD	0x0
	DCD	0x0
	DCD	0x0
	DCD	0x0
	DCD	0x0
	DCD	0x0
	DCD	0x0
	DCD	0x0
	DCD	0x0
	DCD	0x0
	DCD	0x0
	DCD	0x0
	DCD	0x0
	DCD	0x0
	DCD	0x0
	DCD	0x0
	DCD	0x0
	DCD	0x0
	DCD	0x0
	DCD	0x0
	DCD	0x0
	DCD	0x0
	DCD	0x0
	DCD	0x0
	DCD	0x0
	DCD	0x0
	DCD	0x0
	DCD	0x0
	DCD	0x0
	DCD	0x0
	DCD	0x0
	DCD	0x0
	DCD	0x0
	DCD	0x0
	DCD	0x0
	DCD	0x0
	DCD	0x0
	DCD	0x0
	DCD	0x0
	DCD	0x0
	DCD	0x0
	DCD	0x0
	DCD	0x0
	DCD	0x0
	DCD	0x0
	DCD	0x0
	DCD	0x0
	DCD	0x0
	DCD	0x0
	DCD	0x0
	DCD	0x0
	DCD	0x0
	DCD	0x0
	DCD	0x0
	DCD	0x0
	DCD	0x0
	DCD	0x0
	DCD	0x0
	DCD	0x0
	DCD	0x0
	DCD	0x0
	DCD	0x0
	DCD	0x0
	DCD	0x0
	DCD	0x0
	DCD	0x0
	DCD	0x0
	DCD	0x0
	DCD	0x0
	DCD	0x0
	DCD	0x0
	DCD	0x0
	DCD	0x0
	DCD	0x0
	DCD	0x0
	DCD	0x0
	DCD	0x0
	DCD	0x0
	DCD	0x0
	DCD	0x0
	DCD	0x0
	DCD	0x0
	DCD	0x0
	DCD	0x0
	DCD	0x0
	DCD	0x0
	DCD	0x0
	DCD	0x0
	DCD	0x0
	DCD	0x0
	DCD	0x0
	DCD	0x0
	DCD	0x0
	DCD	0x0
	DCD	0x0
	DCD	0x0
	DCD	0x0
	DCD	0x0
	DCD	0x0
	DCD	0x0
	DCD	0x0
	DCD	0x0
	DCD	0x0
	DCD	0x0
	DCD	0x0
	DCD	0x0
	DCD	0x0
	DCD	0x0
	DCD	0x0
	DCD	0x0
	DCD	0x0
	DCD	0x0
	DCD	0x0
	DCD	0x0
	DCD	0x0
	DCD	0x0
	DCD	0x0
	DCD	0x0
	DCD	0x0
	DCD	0x0
	DCD	0x0
	DCD	0x0
	DCD	0x0
	DCD	0x0
	DCD	0x0
	DCD	0x0
	DCD	0x0
	DCD	0x0
	DCD	0x0
	DCD	0x0
	DCD	0x0
	DCD	0x0
	DCD	0x0
	DCD	0x0
	DCD	0x0
	DCD	0x0
	DCD	0x0
	DCD	0x0
	DCD	0x0
	DCD	0x0
	DCD	0x0
	DCD	0x0
	DCD	0x0
	DCD	0x0
	DCD	0x0
	DCD	0x0
	DCD	0x0
	DCD	0x0
	DCD	0x0
	DCD	0x0
	DCD	0x0
	DCD	0x0
	DCD	0x0
	DCD	0x0
	DCD	0x0
	DCD	0x0
	DCD	0x0
	DCD	0x0
	DCD	0x0
	DCD	0x0
	DCD	0x0
	DCD	0x0
	DCD	0x0
	DCD	0x0
	DCD	0x0
	DCD	0x0
	DCD	0x0
	DCD	0x0
	DCD	0x0
	DCD	0x0
	DCD	0x0
	DCD	0x0
	DCD	0x0
	DCD	0x0
	DCD	0x0
	DCD	0x0
	DCD	0x0
	DCD	0x0
	DCD	0x0
	DCD	0x0
	DCD	0x0
	DCD	0x0
	DCD	0x0
	DCD	0x0
	DCD	0x0
	DCD	0x0
	DCD	0x0
	DCD	0x0
	DCD	0x0
	DCD	0x0
	DCD	0x0
	DCD	0x0
	DCD	0x0
	DCD	0x0
	DCD	0x0
	DCD	0x0
	DCD	0x0
	DCD	0x0
	DCD	0x0
	DCD	0x0
	DCD	0x0
	DCD	0x0
	DCD	0x0
	DCD	0x0
	DCD	0x0
	DCD	0x0
	DCD	0x0
	DCD	0x0
	DCD	0x0
	DCD	0x0
	DCD	0x0
	DCD	0x0
	DCD	0x0
	DCD	0x0
	DCD	0x0
	DCD	0x0
	DCD	0x0
	DCD	0x0
	DCD	0x0
	DCD	0x0
	DCD	0x0
	DCD	0x0
	DCD	0x0
	DCD	0x0
	DCD	0x0
	DCD	0x0
	DCD	0x0
	DCD	0x0
	DCD	0x0
	DCD	0x0
	DCD	0x0
	DCD	0x0
	DCD	0x0
	DCD	0x0
	DCD	0x0
	DCD	0x0
	DCD	0x0
	DCD	0x0
	DCD	0x0
	DCD	0x0
	DCD	0x0
	DCD	0x0
	DCD	0x0
	DCD	0x0
	DCD	0x0
	DCD	0x0
	DCD	0x0
	DCD	0x0
	DCD	0x0
	DCD	0x0
	DCD	0x0
	DCD	0x0
	DCD	0x0
	DCD	0x0
	DCD	0x0
	DCD	0x0
	DCD	0x0
	DCD	0x0
	DCD	0x0
	DCD	0x0
	DCD	0x0
	DCD	0x0
	DCD	0x0
	DCD	0x0
	DCD	0x0
	DCD	0x0
	DCD	0x0
	DCD	0x0
	DCD	0x0
	DCD	0x0
	DCD	0x0
	DCD	0x0
	DCD	0x0
	DCD	0x0
	DCD	0x0
	DCD	0x0
	DCD	0x0
	DCD	0x0
	DCD	0x0
	DCD	0x0
	DCD	0x0
	DCD	0x0
	DCD	0x0
	DCD	0x0
	DCD	0x0
	DCD	0x0
	DCD	0x0
	DCD	0x0
	DCD	0x0
	DCD	0x0
	DCD	0x0
	DCD	0x0
	DCD	0x0
	DCD	0x0
	DCD	0x0
	DCD	0x0
	DCD	0x0
	DCD	0x0
	DCD	0x0
	DCD	0x0
	DCD	0x0
	DCD	0x0
	DCD	0x0
	DCD	0x0
	DCD	0x0
	DCD	0x0
	DCD	0x0
	DCD	0x0
	DCD	0x0
	DCD	0x0
	DCD	0x0
	DCD	0x0
	DCD	0x0
	DCD	0x0
	DCD	0x0
	DCD	0x0
	DCD	0x0
	DCD	0x0
	DCD	0x0
	DCD	0x0
	DCD	0x0
	DCD	0x0
	DCD	0x0
	DCD	0x0
	DCD	0x0
	DCD	0x0
	DCD	0x0
	DCD	0x0
	DCD	0x0
	DCD	0x0
	DCD	0x0
	DCD	0x0
	DCD	0x0
	DCD	0x0
	DCD	0x0
	DCD	0x0
	DCD	0x0
	DCD	0x0
	DCD	0x0
	DCD	0x0
	DCD	0x0
	DCD	0x0
	DCD	0x0
	DCD	0x0
	DCD	0x0
	DCD	0x0
	DCD	0x0
	DCD	0x0
	DCD	0x0
	DCD	0x0
	DCD	0x0
	DCD	0x0
	DCD	0x0
	DCD	0x0
	DCD	0x0
	DCD	0x0
	DCD	0x0
	DCD	0x0
	DCD	0x0
	DCD	0x0
	DCD	0x0
	DCD	0x0
	DCD	0x0
	DCD	0x0
	DCD	0x0
	DCD	0x0
	DCD	0x0
	DCD	0x0
	DCD	0x0
	DCD	0x0
	DCD	0x0
	DCD	0x0
	DCD	0x0
	DCD	0x0
	DCD	0x0
	DCD	0x0
	DCD	0x0
	DCD	0x0
	DCD	0x0
	DCD	0x0
	DCD	0x0
	DCD	0x0
	DCD	0x0
	DCD	0x0
	DCD	0x0
	DCD	0x0
	DCD	0x0
	DCD	0x0
	DCD	0x0
	DCD	0x0
	DCD	0x0
	DCD	0x0
	DCD	0x0
	DCD	0x0
	DCD	0x0
	DCD	0x0
	DCD	0x0
	DCD	0x0
	DCD	0x0
	DCD	0x0
	DCD	0x0
	DCD	0x0
	DCD	0x0
	DCD	0x0
	DCD	0x0
	DCD	0x0
	DCD	0x0
	DCD	0x0
	DCD	0x0
	DCD	0x0
	DCD	0x0
	DCD	0x0
	DCD	0x0
	DCD	0x0
	DCD	0x0
	DCD	0x0
	DCD	0x0
	DCD	0x0
	DCD	0x0
	DCD	0x0
	DCD	0x0
	DCD	0x0
	DCD	0x0
	DCD	0x0
	DCD	0x0
	DCD	0x0
	DCD	0x0
	DCD	0x0
	DCD	0x0
	DCD	0x0
	DCD	0x0
	DCD	0x0
	DCD	0x0
	DCD	0x0
	DCD	0x0
	DCD	0x0
	DCD	0x0
	DCD	0x0
	DCD	0x0
	DCD	0x0
	DCD	0x0
	DCD	0x0
	DCD	0x0
	DCD	0x0
	DCD	0x0
	DCD	0x0
	DCD	0x0
	DCD	0x0
	DCD	0x0
	DCD	0x0
	DCD	0x0
	DCD	0x0
	DCD	0x0
	DCD	0x0
	DCD	0x0
	DCD	0x0
	DCD	0x0
	DCD	0x0
	DCD	0x0
	DCD	0x0
	DCD	0x0
	DCD	0x0
	DCD	0x0
	DCD	0x0
	DCD	0x0
	DCD	0x0
	DCD	0x0
	DCD	0x0
	DCD	0x0
	DCD	0x0
	DCD	0x0
	DCD	0x0
	DCD	0x0
	DCD	0x0
	DCD	0x0
	DCD	0x0
	DCD	0x0
	DCD	0x0
	DCD	0x0
	DCD	0x0
	DCD	0x0
	DCD	0x0
	DCD	0x0
	DCD	0x0
	DCD	0x0
	DCD	0x0
	DCD	0x0
	DCD	0x0
	DCD	0x0
	DCD	0x0
	DCD	0x0
	DCD	0x0
	DCD	0x0
	DCD	0x0
	DCD	0x0
	DCD	0x0
	DCD	0x0
	DCD	0x0
	DCD	0x0
	DCD	0x0
	DCD	0x0
	DCD	0x0
	DCD	0x0
	DCD	0x0
	DCD	0x0
	DCD	0x0
	DCD	0x0
	DCD	0x0
	DCD	0x0
	DCD	0x0
	DCD	0x0
	DCD	0x0
	DCD	0x0
	DCD	0x0
	DCD	0x0
	DCD	0x0
	DCD	0x0
	DCD	0x0
	DCD	0x0
	DCD	0x0
	DCD	0x0
	DCD	0x0
	DCD	0x0
	DCD	0x0
	DCD	0x0
	DCD	0x0
	DCD	0x0
	DCD	0x0
	DCD	0x0
	DCD	0x0
	DCD	0x0
	DCD	0x0
	DCD	0x0
	DCD	0x0
	DCD	0x0
	DCD	0x0
	DCD	0x0
	DCD	0x0
	DCD	0x0
	DCD	0x0
	DCD	0x0
	DCD	0x0
	DCD	0x0
	DCD	0x0
	DCD	0x0
	DCD	0x0
	DCD	0x0
	DCD	0x0
	DCD	0x0
	DCD	0x0
	DCD	0x0
	DCD	0x0
	DCD	0x0
	DCD	0x0
	DCD	0x0
	DCD	0x0
	DCD	0x0
	DCD	0x0
	DCD	0x0
	DCD	0x0
	DCD	0x0
	DCD	0x0
	DCD	0x0
	DCD	0x0
	DCD	0x0
	DCD	0x0
	DCD	0x0
	DCD	0x0
	DCD	0x0
	DCD	0x0
	DCD	0x0
	DCD	0x0
	DCD	0x0
	DCD	0x0
	DCD	0x0
	DCD	0x0
	DCD	0x0
	DCD	0x0
	DCD	0x0
	DCD	0x0
	DCD	0x0
	DCD	0x0
	DCD	0x0
	DCD	0x0
	DCD	0x0
	DCD	0x0
	DCD	0x0
	DCD	0x0
	DCD	0x0
	DCD	0x0
	DCD	0x0
	DCD	0x0
	DCD	0x0
	DCD	0x0
	DCD	0x0
	DCD	0x0
	DCD	0x0
	DCD	0x0
	DCD	0x0
	DCD	0x0
	DCD	0x0
	DCD	0x0
	DCD	0x0
	DCD	0x0
	DCD	0x0
	DCD	0x0
	DCD	0x0
	DCD	0x0
	DCD	0x0
	DCD	0x0
	DCD	0x0
	DCD	0x0
	DCD	0x0
	DCD	0x0
	DCD	0x0
	DCD	0x0
	DCD	0x0
	DCD	0x0
	DCD	0x0
	DCD	0x0
	DCD	0x0
	DCD	0x0
	DCD	0x0
	DCD	0x0
	DCD	0x0
	DCD	0x0
	DCD	0x0
	DCD	0x0
	DCD	0x0
	DCD	0x0
	DCD	0x0
	DCD	0x0
	DCD	0x0
	DCD	0x0
	DCD	0x0
	DCD	0x0
	DCD	0x0
	DCD	0x0
	DCD	0x0
	DCD	0x0
	DCD	0x0
	DCD	0x0
	DCD	0x0
	DCD	0x0
	DCD	0x0
	DCD	0x0
	DCD	0x0
	DCD	0x0
	DCD	0x0
	DCD	0x0
	DCD	0x0
	DCD	0x0
	DCD	0x0
	DCD	0x0
	DCD	0x0
	DCD	0x0
	DCD	0x0
	DCD	0x0
	DCD	0x0
	DCD	0x0
	DCD	0x0
	DCD	0x0
	DCD	0x0
	DCD	0x0
	DCD	0x0
	DCD	0x0
	DCD	0x0
	DCD	0x0
	DCD	0x0
	DCD	0x0
	DCD	0x0
	DCD	0x0
	DCD	0x0
	DCD	0x0
	DCD	0x0
	DCD	0x0
	DCD	0x0
	DCD	0x0
	DCD	0x0
	DCD	0x0
	DCD	0x0
	DCD	0x0
	DCD	0x0
	DCD	0x0
	DCD	0x0
	DCD	0x0
	DCD	0x0
	DCD	0x0
	DCD	0x0
	DCD	0x0
	DCD	0x0
	DCD	0x0
	DCD	0x0
	DCD	0x0
	DCD	0x0
	DCD	0x0
	DCD	0x0
	DCD	0x0
	DCD	0x0
	DCD	0x0
	DCD	0x0
	DCD	0x0
	DCD	0x0
	DCD	0x0
	DCD	0x0
	DCD	0x0
	DCD	0x0
	DCD	0x0
	DCD	0x0
	DCD	0x0
	DCD	0x0
	DCD	0x0
	DCD	0x0
	DCD	0x0
	DCD	0x0
	DCD	0x0
	DCD	0x0
	DCD	0x0
	DCD	0x0
	DCD	0x0
	DCD	0x0
	DCD	0x0
	DCD	0x0
	DCD	0x0
	DCD	0x0
	DCD	0x0
	DCD	0x0
	DCD	0x0
	DCD	0x0
	DCD	0x0
	DCD	0x0
	DCD	0x0
	DCD	0x0
	DCD	0x0
	DCD	0x0
	DCD	0x0
	DCD	0x0
	DCD	0x0
	DCD	0x0
	DCD	0x0
	DCD	0x0
	DCD	0x0
	DCD	0x0
	DCD	0x0
	DCD	0x0
	DCD	0x0
	DCD	0x0
	DCD	0x0
	DCD	0x0
	DCD	0x0
	DCD	0x0
	DCD	0x0
	DCD	0x0
	DCD	0x0
	DCD	0x0
	DCD	0x0
	DCD	0x0
	DCD	0x0
	DCD	0x0
	DCD	0x0
	DCD	0x0
	DCD	0x0
	DCD	0x0
	DCD	0x0
	DCD	0x0
	DCD	0x0
	DCD	0x0
	DCD	0x0
	DCD	0x0
	DCD	0x0
	DCD	0x0
	DCD	0x0
	DCD	0x0
	DCD	0x0
	DCD	0x0
	DCD	0x0
	DCD	0x0
	DCD	0x0
	DCD	0x0
	DCD	0x0
	DCD	0x0
	DCD	0x0
	DCD	0x0
	DCD	0x0
	DCD	0x0
	DCD	0x0
	DCD	0x0
	DCD	0x0
	DCD	0x0
	DCD	0x0
	DCD	0x0
	DCD	0x0
	DCD	0x0
	DCD	0x0
	DCD	0x0
	DCD	0x0
	DCD	0x0
	DCD	0x0
	DCD	0x0
	DCD	0x0
	DCD	0x0
	DCD	0x0
	DCD	0x0
	DCD	0x0
	DCD	0x0
	DCD	0x0
	DCD	0x0
	DCD	0x0
	DCD	0x0
	DCD	0x0
	DCD	0x0
	DCD	0x0
	DCD	0x0
	DCD	0x0
	DCD	0x0
	DCD	0x0
	DCD	0x0
	DCD	0x0
	DCD	0x0
	DCD	0x0
	DCD	0x0
	DCD	0x0
	DCD	0x0
	DCD	0x0
	DCD	0x0
	DCD	0x0
	DCD	0x0
	DCD	0x0
	DCD	0x0
	DCD	0x0
	DCD	0x0
	DCD	0x0
	DCD	0x0
	DCD	0x0
	DCD	0x0
	DCD	0x0
	DCD	0x0
	DCD	0x0
	DCD	0x0
	DCD	0x0
	DCD	0x0
	DCD	0x0
	DCD	0x0
	DCD	0x0
	DCD	0x0
	DCD	0x0
	DCD	0x0
	DCD	0x0
	DCD	0x0
	DCD	0x0
	DCD	0x0
	DCD	0x0
	DCD	0x0
	DCD	0x0
	DCD	0x0
	DCD	0x0
	DCD	0x0
	DCD	0x0
	DCD	0x0
	DCD	0x0
	DCD	0x0
	DCD	0x0
	DCD	0x0
	DCD	0x0
	DCD	0x0
	DCD	0x0
	DCD	0x0
	DCD	0x0
	DCD	0x0
	DCD	0x0
	DCD	0x0
	DCD	0x0
	DCD	0x0
	DCD	0x0
	DCD	0x0
	DCD	0x0
	DCD	0x0
	DCD	0x0
	DCD	0x0
	DCD	0x0
	DCD	0x0
	DCD	0x0
	DCD	0x0
	DCD	0x0
	DCD	0x0
	DCD	0x0
	DCD	0x0
	DCD	0x0
	DCD	0x0
	DCD	0x0
	DCD	0x0
	DCD	0x0
	DCD	0x0
	DCD	0x0
	DCD	0x0
	DCD	0x0
	DCD	0x0
	DCD	0x0
	DCD	0x0
	DCD	0x0
	DCD	0x0
	DCD	0x0
	DCD	0x0
	DCD	0x0
	DCD	0x0
	DCD	0x0
	DCD	0x0
	DCD	0x0
	DCD	0x0
	DCD	0x0
	DCD	0x0
	DCD	0x0
	DCD	0x0
	DCD	0x0
	DCD	0x0
	DCD	0x0
	DCD	0x0
	DCD	0x0
	DCD	0x0
	DCD	0x0
	DCD	0x0
	DCD	0x0
	DCD	0x0
	DCD	0x0
	DCD	0x0
	DCD	0x0
	DCD	0x0
	DCD	0x0
	DCD	0x0
	DCD	0x0
	DCD	0x0
	DCD	0x0
	DCD	0x0
	DCD	0x0
	DCD	0x0
	DCD	0x0
	DCD	0x0
	DCD	0x0
	DCD	0x0
	DCD	0x0
	DCD	0x0
	DCD	0x0
	DCD	0x0
	DCD	0x0
	DCD	0x0
	DCD	0x0
	DCD	0x0
	DCD	0x0
	DCD	0x0
	DCD	0x0
	DCD	0x0
	DCD	0x0
	DCD	0x0
	DCD	0x0
	DCD	0x0
	DCD	0x0
	DCD	0x0
	DCD	0x0
	DCD	0x0
	DCD	0x0
	DCD	0x0
	DCD	0x0
	DCD	0x0
	DCD	0x0
	DCD	0x0
	DCD	0x0
	DCD	0x0
	DCD	0x0
	DCD	0x0
	DCD	0x0
	DCD	0x0
	DCD	0x0
	DCD	0x0
	DCD	0x0
	DCD	0x0
	DCD	0x0
	DCD	0x0
	DCD	0x0
	DCD	0x0
	DCD	0x0
	DCD	0x0
	DCD	0x0
	DCD	0x0
	DCD	0x0
	DCD	0x0
	DCD	0x0
	DCD	0x0
	DCD	0x0
	DCD	0x0
	DCD	0x0
	DCD	0x0
	DCD	0x0
	DCD	0x0
	DCD	0x0
	DCD	0x0
	DCD	0x0
	DCD	0x0
	DCD	0x0
	DCD	0x0
	DCD	0x0
	DCD	0x0
	DCD	0x0
	DCD	0x0
	DCD	0x0
	DCD	0x0
	DCD	0x0
	DCD	0x0
	DCD	0x0
	DCD	0x0
	DCD	0x0
	DCD	0x0
	DCD	0x0
	DCD	0x0
	DCD	0x0
	DCD	0x0
	DCD	0x0
	DCD	0x0
	DCD	0x0
	DCD	0x0
	DCD	0x0
	DCD	0x0
	DCD	0x0
	DCD	0x0
	DCD	0x0
	DCD	0x0
	DCD	0x0
	DCD	0x0
	DCD	0x0
	DCD	0x0
	DCD	0x0
	DCD	0x0
	DCD	0x0
	DCD	0x0
	DCD	0x0
	DCD	0x0
	DCD	0x0
	DCD	0x0
	DCD	0x0
	DCD	0x0
	DCD	0x0
	DCD	0x0
	DCD	0x0
	DCD	0x0
	DCD	0x0
	DCD	0x0
	DCD	0x0
	DCD	0x0
	DCD	0x0
	DCD	0x0
	DCD	0x0
	DCD	0x0
	DCD	0x0
	DCD	0x0
	DCD	0x0
	DCD	0x0
	DCD	0x0
	DCD	0x0
	DCD	0x0
	DCD	0x0
	DCD	0x0
	DCD	0x0
	DCD	0x0
	DCD	0x0
	DCD	0x0
	DCD	0x0
	DCD	0x0
	DCD	0x0
	DCD	0x0
	DCD	0x0
	DCD	0x0
	DCD	0x0
	DCD	0x0
	DCD	0x0
	DCD	0x0
	DCD	0x0
	DCD	0x0
	DCD	0x0
	DCD	0x0
	DCD	0x0
	DCD	0x0
	DCD	0x0
	DCD	0x0
	DCD	0x0
	DCD	0x0
	DCD	0x0
	DCD	0x0
	DCD	0x0
	DCD	0x0
	DCD	0x0
	DCD	0x0
	DCD	0x0
	DCD	0x0
	DCD	0x0
	DCD	0x0
	DCD	0x0
	DCD	0x0
	DCD	0x0
	DCD	0x0
	DCD	0x0
	DCD	0x0
	DCD	0x0
	DCD	0x0
	DCD	0x0
	DCD	0x0
	DCD	0x0
	DCD	0x0
	DCD	0x0
	DCD	0x0
	DCD	0x0
	DCD	0x0
	DCD	0x0
	DCD	0x0
	DCD	0x0
	DCD	0x0
	DCD	0x0
	DCD	0x0
	DCD	0x0
	DCD	0x0
	DCD	0x0
	DCD	0x0
	DCD	0x0
	DCD	0x0
	DCD	0x0
	DCD	0x0
	DCD	0x0
	DCD	0x0
	DCD	0x0
	DCD	0x0
	DCD	0x0
	DCD	0x0
	DCD	0x0
	DCD	0x0
	DCD	0x0
	DCD	0x0
	DCD	0x0
	DCD	0x0
	DCD	0x0
	DCD	0x0
	DCD	0x0
	DCD	0x0
	DCD	0x0
	DCD	0x0
	DCD	0x0
	DCD	0x0
	DCD	0x0
	DCD	0x0
	DCD	0x0
	DCD	0x0
	DCD	0x0
	DCD	0x0
	DCD	0x0
	DCD	0x0
	DCD	0x0
	DCD	0x0
	DCD	0x0
	DCD	0x0
	DCD	0x0
	DCD	0x0
	DCD	0x0
	DCD	0x0
	DCD	0x0
	DCD	0x0
	DCD	0x0
	DCD	0x0
	DCD	0x0
	DCD	0x0
	DCD	0x0
	DCD	0x0
	DCD	0x0
	DCD	0x0
	DCD	0x0
	DCD	0x0
	DCD	0x0
	DCD	0x0
	DCD	0x0
	DCD	0x0
	DCD	0x0
	DCD	0x0
	DCD	0x0
	DCD	0x0
	DCD	0x0
	DCD	0x0
	DCD	0x0
	DCD	0x0
	DCD	0x0
	DCD	0x0
	DCD	0x0
	DCD	0x0
	DCD	0x0
	DCD	0x0
	DCD	0x0
	DCD	0x0
	DCD	0x0
	DCD	0x0
	DCD	0x0
	DCD	0x0
	DCD	0x0
	DCD	0x0
	DCD	0x0
	DCD	0x0
	DCD	0x0
	DCD	0x0
	DCD	0x0
	DCD	0x0
	DCD	0x0
	DCD	0x0
	DCD	0x0
	DCD	0x0
	DCD	0x0
	DCD	0x0
	DCD	0x0
	DCD	0x0
	DCD	0x0
	DCD	0x0
	DCD	0x0
	DCD	0x0
	DCD	0x0
	DCD	0x0
	DCD	0x0
	DCD	0x0
	DCD	0x0
	DCD	0x0
	DCD	0x0
	DCD	0x0
	DCD	0x0
	DCD	0x0
	DCD	0x0
	DCD	0x0
	DCD	0x0
	DCD	0x0
	DCD	0x0
	DCD	0x0
	DCD	0x0
	DCD	0x0
	DCD	0x0
	DCD	0x0
	DCD	0x0
	DCD	0x0
	DCD	0x0
	DCD	0x0
	DCD	0x0
	DCD	0x0
	DCD	0x0
	DCD	0x0
	DCD	0x0
	DCD	0x0
	DCD	0x0
	DCD	0x0
	DCD	0x0
	DCD	0x0
	DCD	0x0
	DCD	0x0
	DCD	0x0
	DCD	0x0
	DCD	0x0
	DCD	0x0
	DCD	0x0
	DCD	0x0
	DCD	0x0
	DCD	0x0
	DCD	0x0
	DCD	0x0
	DCD	0x0
	DCD	0x0
	DCD	0x0
	DCD	0x0
	DCD	0x0
	DCD	0x0
	DCD	0x0
	DCD	0x0
	DCD	0x0
	DCD	0x0
	DCD	0x0
	DCD	0x0
	DCD	0x0
	DCD	0x0
	DCD	0x0
	DCD	0x0
	DCD	0x0
	DCD	0x0
	DCD	0x0
	DCD	0x0
	DCD	0x0
	DCD	0x0
	DCD	0x0
	DCD	0x0
	DCD	0x0
	DCD	0x0
	DCD	0x0
	DCD	0x0
	DCD	0x0
	DCD	0x0
	DCD	0x0
	DCD	0x0
	DCD	0x0
	DCD	0x0
	DCD	0x0
	DCD	0x0
	DCD	0x0
	DCD	0x0
	DCD	0x0
	DCD	0x0
	DCD	0x0
	DCD	0x0
	DCD	0x0
	DCD	0x0
	DCD	0x0
	DCD	0x0
	DCD	0x0
	DCD	0x0
	DCD	0x0
	DCD	0x0
	DCD	0x0
	DCD	0x0
	DCD	0x0
	DCD	0x0
	DCD	0x0
	DCD	0x0
	DCD	0x0
	DCD	0x0
	DCD	0x0
	DCD	0x0
	DCD	0x0
	DCD	0x0
	DCD	0x0
	DCD	0x0
	DCD	0x0
	DCD	0x0
	DCD	0x0
	DCD	0x0
	DCD	0x0
	DCD	0x0
	DCD	0x0
	DCD	0x0
	DCD	0x0
	DCD	0x0
	DCD	0x0
	DCD	0x0
	DCD	0x0
	DCD	0x0
	DCD	0x0
	DCD	0x0
	DCD	0x0
	DCD	0x0
	DCD	0x0
	DCD	0x0
	DCD	0x0
	DCD	0x0
	DCD	0x0
	DCD	0x0
	DCD	0x0
	DCD	0x0
	DCD	0x0
	DCD	0x0
	DCD	0x0
	DCD	0x0
	DCD	0x0
	DCD	0x0
	DCD	0x0
	DCD	0x0
	DCD	0x0
	DCD	0x0
	DCD	0x0
	DCD	0x0
	DCD	0x0
	DCD	0x0
	DCD	0x0
	DCD	0x0
	DCD	0x0
	DCD	0x0
	DCD	0x0
	DCD	0x0
	DCD	0x0
	DCD	0x0
	DCD	0x0
	DCD	0x0
	DCD	0x0
	DCD	0x0
	DCD	0x0
	DCD	0x0
	DCD	0x0
	DCD	0x0
	DCD	0x0
	DCD	0x0
	DCD	0x0
	DCD	0x0
	DCD	0x0
	DCD	0x0
	DCD	0x0
	DCD	0x0
	DCD	0x0
	DCD	0x0
	DCD	0x0
	DCD	0x0
	DCD	0x0
	DCD	0x0
	DCD	0x0
	DCD	0x0
	DCD	0x0
	DCD	0x0
	DCD	0x0
	DCD	0x0
	DCD	0x0
	DCD	0x0
	DCD	0x0
	DCD	0x0
	DCD	0x0
	DCD	0x0
	DCD	0x0
	DCD	0x0
	DCD	0x0
	DCD	0x0
	DCD	0x0
	DCD	0x0
	DCD	0x0
	DCD	0x0
	DCD	0x0
	DCD	0x0
	DCD	0x0
	DCD	0x0
	DCD	0x0
	DCD	0x0
	DCD	0x0
	DCD	0x0
	DCD	0x0
	DCD	0x0
	DCD	0x0
	DCD	0x0
	DCD	0x0
	DCD	0x0
	DCD	0x0
	DCD	0x0
	DCD	0x0
	DCD	0x0
	DCD	0x0
	DCD	0x0
	DCD	0x0
	DCD	0x0
	DCD	0x0
	DCD	0x0
	DCD	0x0
	DCD	0x0
	DCD	0x0
	DCD	0x0
	DCD	0x0
	DCD	0x0
	DCD	0x0
	DCD	0x0
	DCD	0x0
	DCD	0x0
	DCD	0x0
	DCD	0x0
	DCD	0x0
	DCD	0x0
	DCD	0x0
	DCD	0x0
	DCD	0x0
	DCD	0x0
	DCD	0x0
	DCD	0x0
	DCD	0x0
	DCD	0x0
	DCD	0x0
	DCD	0x0
	DCD	0x0
	DCD	0x0
	DCD	0x0
	DCD	0x0
	DCD	0x0
	DCD	0x0
	DCD	0x0
	DCD	0x0
	DCD	0x0
	DCD	0x0
	DCD	0x0
	DCD	0x0
	DCD	0x0
	DCD	0x0
	DCD	0x0
	DCD	0x0
	DCD	0x0
	DCD	0x0
	DCD	0x0
	DCD	0x0
	DCD	0x0
	DCD	0x0
	DCD	0x0
	DCD	0x0
	DCD	0x0
	DCD	0x0
	DCD	0x0
	DCD	0x0
	DCD	0x0
	DCD	0x0
	DCD	0x0
	DCD	0x0
	DCD	0x0
	DCD	0x0
	DCD	0x0
	DCD	0x0
	DCD	0x0
	DCD	0x0
	DCD	0x0
	DCD	0x0
	DCD	0x0
	DCD	0x0
	DCD	0x0
	DCD	0x0
	DCD	0x0
	DCD	0x0
	DCD	0x0
	DCD	0x0
	DCD	0x0
	DCD	0x0
	DCD	0x0
	DCD	0x0
	DCD	0x0
	DCD	0x0
	DCD	0x0
	DCD	0x0
	DCD	0x0
	DCD	0x0
	DCD	0x0
	DCD	0x0
	DCD	0x0
	DCD	0x0
	DCD	0x0
	DCD	0x0
	DCD	0x0
	DCD	0x0
	DCD	0x0
	DCD	0x0
	DCD	0x0
	DCD	0x0
	DCD	0x0
	DCD	0x0
	DCD	0x0
	DCD	0x0
	DCD	0x0
	DCD	0x0
	DCD	0x0
	DCD	0x0
	DCD	0x0
	DCD	0x0
	DCD	0x0
	DCD	0x0
	DCD	0x0
	DCD	0x0
	DCD	0x0
	DCD	0x0
	DCD	0x0
	DCD	0x0
	DCD	0x0
	DCD	0x0
	DCD	0x0
	DCD	0x0
	DCD	0x0
	DCD	0x0
	DCD	0x0
	DCD	0x0
	DCD	0x0
	DCD	0x0
	DCD	0x0
	DCD	0x0
	DCD	0x0
	DCD	0x0
	DCD	0x0
	DCD	0x0
	DCD	0x0
	DCD	0x0
	DCD	0x0
	DCD	0x0
	DCD	0x0
	DCD	0x0
	DCD	0x0
	DCD	0x0
	DCD	0x0
	DCD	0x0
	DCD	0x0
	DCD	0x0
	DCD	0x0
	DCD	0x0
	DCD	0x0
	DCD	0x0
	DCD	0x0
	DCD	0x0
	DCD	0x0
	DCD	0x0
	DCD	0x0
	DCD	0x0
	DCD	0x0
	DCD	0x0
	DCD	0x0
	DCD	0x0
	DCD	0x0
	DCD	0x0
	DCD	0x0
	DCD	0x0
	DCD	0x0
	DCD	0x0
	DCD	0x0
	DCD	0x0
	DCD	0x0
	DCD	0x0
	DCD	0x0
	DCD	0x0
	DCD	0x0
	DCD	0x0
	DCD	0x0
	DCD	0x0
	DCD	0x0
	DCD	0x0
	DCD	0x0
	DCD	0x0
	DCD	0x0
	DCD	0x0
	DCD	0x0
	DCD	0x0
	DCD	0x0
	DCD	0x0
	DCD	0x0
	DCD	0x0
	DCD	0x0
	DCD	0x0
	DCD	0x0
	DCD	0x0
	DCD	0x0
	DCD	0x0
	DCD	0x0
	DCD	0x0
	DCD	0x0
	DCD	0x0
	DCD	0x0
	DCD	0x0
	DCD	0x0
	DCD	0x0
	DCD	0x0
	DCD	0x0
	DCD	0x0
	DCD	0x0
	DCD	0x0
	DCD	0x0
	DCD	0x0
	DCD	0x0
	DCD	0x0
	DCD	0x0
	DCD	0x0
	DCD	0x0
	DCD	0x0
	DCD	0x0
	DCD	0x0
	DCD	0x0
	DCD	0x0
	DCD	0x0
	DCD	0x0
	DCD	0x0
	DCD	0x0
	DCD	0x0
	DCD	0x0
	DCD	0x0
	DCD	0x0
	DCD	0x0
	DCD	0x0
	DCD	0x0
	DCD	0x0
	DCD	0x0
	DCD	0x0
	DCD	0x0
	DCD	0x0
	DCD	0x0
	DCD	0x0
	DCD	0x0
	DCD	0x0
	DCD	0x0
	DCD	0x0
	DCD	0x0
	DCD	0x0
	DCD	0x0
	DCD	0x0
	DCD	0x0
	DCD	0x0
	DCD	0x0
	DCD	0x0
	DCD	0x0
	DCD	0x0
	DCD	0x0
	DCD	0x0
	DCD	0x0
	DCD	0x0
	DCD	0x0
	DCD	0x0
	DCD	0x0
	DCD	0x0
	DCD	0x0
	DCD	0x0
	DCD	0x0
	DCD	0x0
	DCD	0x0
	DCD	0x0
	DCD	0x0
	DCD	0x0
	DCD	0x0
	DCD	0x0
	DCD	0x0
	DCD	0x0
	DCD	0x0
	DCD	0x0
	DCD	0x0
	DCD	0x0
	DCD	0x0
	DCD	0x0
	DCD	0x0
	DCD	0x0
	DCD	0x0
	DCD	0x0
	DCD	0x0
	DCD	0x0
	DCD	0x0
	DCD	0x0
	DCD	0x0
	DCD	0x0
	DCD	0x0
	DCD	0x0
	DCD	0x0
	DCD	0x0
	DCD	0x0
	DCD	0x0
	DCD	0x0
	DCD	0x0
	DCD	0x0
	DCD	0x0
	DCD	0x0
	DCD	0x0
	DCD	0x0
	DCD	0x0
	DCD	0x0
	DCD	0x0
	DCD	0x0
	DCD	0x0
	DCD	0x0
	DCD	0x0
	DCD	0x0
	DCD	0x0
	DCD	0x0
	DCD	0x0
	DCD	0x0
	DCD	0x0
	DCD	0x0
	DCD	0x0
	DCD	0x0
	DCD	0x0
	DCD	0x0
	DCD	0x0
	DCD	0x0
	DCD	0x0
	DCD	0x0
	DCD	0x0
	DCD	0x0
	DCD	0x0
	DCD	0x0
	DCD	0x0
	DCD	0x0
	DCD	0x0
	DCD	0x0
	DCD	0x0
	DCD	0x0
	DCD	0x0
	DCD	0x0
	DCD	0x0
	DCD	0x0
	DCD	0x0
	DCD	0x0
	DCD	0x0
	DCD	0x0
	DCD	0x0
	DCD	0x0
	DCD	0x0
	DCD	0x0
	DCD	0x0
	DCD	0x0
	DCD	0x0
	DCD	0x0
	DCD	0x0
	DCD	0x0
	DCD	0x0
	DCD	0x0
	DCD	0x0
	DCD	0x0
	DCD	0x0
	DCD	0x0
	DCD	0x0
	DCD	0x0
	DCD	0x0
	DCD	0x0
	DCD	0x0
	DCD	0x0
	DCD	0x0
	DCD	0x0
	DCD	0x0
	DCD	0x0
	DCD	0x0
	DCD	0x0
	DCD	0x0
	DCD	0x0
	DCD	0x0
	DCD	0x0
	DCD	0x0
	DCD	0x0
	DCD	0x0
	DCD	0x0
	DCD	0x0
	DCD	0x0
	DCD	0x0
	DCD	0x0
	DCD	0x0
	DCD	0x0
	DCD	0x0
	DCD	0x0
	DCD	0x0
	DCD	0x0
	DCD	0x0
	DCD	0x0
	DCD	0x0
	DCD	0x0
	DCD	0x0
	DCD	0x0
	DCD	0x0
	DCD	0x0
	DCD	0x0
	DCD	0x0
	DCD	0x0
	DCD	0x0
	DCD	0x0
	DCD	0x0
	DCD	0x0
	DCD	0x0
	DCD	0x0
	DCD	0x0
	DCD	0x0
	DCD	0x0
	DCD	0x0
	DCD	0x0
	DCD	0x0
	DCD	0x0
	DCD	0x0
	DCD	0x0
	DCD	0x0
	DCD	0x0
	DCD	0x0
	DCD	0x0
	DCD	0x0
	DCD	0x0
	DCD	0x0
	DCD	0x0
	DCD	0x0
	DCD	0x0
	DCD	0x0
	DCD	0x0
	DCD	0x0
	DCD	0x0
	DCD	0x0
	DCD	0x0
	DCD	0x0
	DCD	0x0
	DCD	0x0
	DCD	0x0
	DCD	0x0
	DCD	0x0
	DCD	0x0
	DCD	0x0
	DCD	0x0
	DCD	0x0
	DCD	0x0
	DCD	0x0
	DCD	0x0
	DCD	0x0
	DCD	0x0
	DCD	0x0
	DCD	0x0
	DCD	0x0
	DCD	0x0
	DCD	0x0
	DCD	0x0
	DCD	0x0
	DCD	0x0
	DCD	0x0
	DCD	0x0
	DCD	0x0
	DCD	0x0
	DCD	0x0
	DCD	0x0
	DCD	0x0
	DCD	0x0
	DCD	0x0
	DCD	0x0
	DCD	0x0
	DCD	0x0
	DCD	0x0
	DCD	0x0
	DCD	0x0
	DCD	0x0
	DCD	0x0
	DCD	0x0
	DCD	0x0
	DCD	0x0
	DCD	0x0
	DCD	0x0
	DCD	0x0
	DCD	0x0
	DCD	0x0
	DCD	0x0
	DCD	0x0
	DCD	0x0
	DCD	0x0
	DCD	0x0
	DCD	0x0
	DCD	0x0
	DCD	0x0
	DCD	0x0
	DCD	0x0
	DCD	0x0
	DCD	0x0
	DCD	0x0
	DCD	0x0
	DCD	0x0
	DCD	0x0
	DCD	0x0
	DCD	0x0
	DCD	0x0
	DCD	0x0
	DCD	0x0
	DCD	0x0
	DCD	0x0
	DCD	0x0
	DCD	0x0
	DCD	0x0
	DCD	0x0
	DCD	0x0
	DCD	0x0
	DCD	0x0
	DCD	0x0
	DCD	0x0
	DCD	0x0
	DCD	0x0
	DCD	0x0
	DCD	0x0
	DCD	0x0
	DCD	0x0
	DCD	0x0
	DCD	0x0
	DCD	0x0
	DCD	0x0
	DCD	0x0
	DCD	0x0
	DCD	0x0
	DCD	0x0
	DCD	0x0
	DCD	0x0
	DCD	0x0
	DCD	0x0
	DCD	0x0
	DCD	0x0
	DCD	0x0
	DCD	0x0
	DCD	0x0
	DCD	0x0
	DCD	0x0
	DCD	0x0
	DCD	0x0
	DCD	0x0
	DCD	0x0
	DCD	0x0
	DCD	0x0
	DCD	0x0
	DCD	0x0
	DCD	0x0
	DCD	0x0
	DCD	0x0
	DCD	0x0
	DCD	0x0
	DCD	0x0
	DCD	0x0
	DCD	0x0
	DCD	0x0
	DCD	0x0
	DCD	0x0
	DCD	0x0
	DCD	0x0
	DCD	0x0
	DCD	0x0
	DCD	0x0
	DCD	0x0
	DCD	0x0
	DCD	0x0
	DCD	0x0
	DCD	0x0
	DCD	0x0
	DCD	0x0
	DCD	0x0
	DCD	0x0
	DCD	0x0
	DCD	0x0
	DCD	0x0
	DCD	0x0
	DCD	0x0
	DCD	0x0
	DCD	0x0
	DCD	0x0
	DCD	0x0
	DCD	0x0
	DCD	0x0
	DCD	0x0
	DCD	0x0
	DCD	0x0
	DCD	0x0
	DCD	0x0
	DCD	0x0
	DCD	0x0
	DCD	0x0
	DCD	0x0
	DCD	0x0
	DCD	0x0
	DCD	0x0
	DCD	0x0
	DCD	0x0
	DCD	0x0
	DCD	0x0
	DCD	0x0
	DCD	0x0
	DCD	0x0
	DCD	0x0
	DCD	0x0
	DCD	0x0
	DCD	0x0
	DCD	0x0
	DCD	0x0
	DCD	0x0
	DCD	0x0
	DCD	0x0
	DCD	0x0
	DCD	0x0
	DCD	0x0
	DCD	0x0
	DCD	0x0
	DCD	0x0
	DCD	0x0
	DCD	0x0
	DCD	0x0
	DCD	0x0
	DCD	0x0
	DCD	0x0
	DCD	0x0
	DCD	0x0
	DCD	0x0
	DCD	0x0
	DCD	0x0
	DCD	0x0
	DCD	0x0
	DCD	0x0
	DCD	0x0
	DCD	0x0
	DCD	0x0
	DCD	0x0
	DCD	0x0
	DCD	0x0
	DCD	0x0
	DCD	0x0
	DCD	0x0
	DCD	0x0
	DCD	0x0
	DCD	0x0
	DCD	0x0
	DCD	0x0
	DCD	0x0
	DCD	0x0
	DCD	0x0
	DCD	0x0
	DCD	0x0
	DCD	0x0
	DCD	0x0
	DCD	0x0
	DCD	0x0
	DCD	0x0
	DCD	0x0
	DCD	0x0
	DCD	0x0
	DCD	0x0
	DCD	0x0
	DCD	0x0
	DCD	0x0
	DCD	0x0
	DCD	0x0
	DCD	0x0
	DCD	0x0
	DCD	0x0
	DCD	0x0
	DCD	0x0
	DCD	0x0
	DCD	0x0
	DCD	0x0
	DCD	0x0
	DCD	0x0
	DCD	0x0
	DCD	0x0
	DCD	0x0
	DCD	0x0
	DCD	0x0
	DCD	0x0
	DCD	0x0
	DCD	0x0
	DCD	0x0
	DCD	0x0
	DCD	0x0
	DCD	0x0
	DCD	0x0
	DCD	0x0
	DCD	0x0
	DCD	0x0
	DCD	0x0
	DCD	0x0
	DCD	0x0
	DCD	0x0
	DCD	0x0
	DCD	0x0
	DCD	0x0
	DCD	0x0
	DCD	0x0
	DCD	0x0
	DCD	0x0
	DCD	0x0
	DCD	0x0
	DCD	0x0
	DCD	0x0
	DCD	0x0
	DCD	0x0
	DCD	0x0
	DCD	0x0
	DCD	0x0
	DCD	0x0
	DCD	0x0
	DCD	0x0
	DCD	0x0
	DCD	0x0
	DCD	0x0
	DCD	0x0
	DCD	0x0
	DCD	0x0
	DCD	0x0
	DCD	0x0
	DCD	0x0
	DCD	0x0
	DCD	0x0
	DCD	0x0
	DCD	0x0
	DCD	0x0
	DCD	0x0
	DCD	0x0
	DCD	0x0
	DCD	0x0
	DCD	0x0
	DCD	0x0
	DCD	0x0
	DCD	0x0
	DCD	0x0
	DCD	0x0
	DCD	0x0
	DCD	0x0
	DCD	0x0
	DCD	0x0
	DCD	0x0
	DCD	0x0
	DCD	0x0
	DCD	0x0
	DCD	0x0
	DCD	0x0
	DCD	0x0
	DCD	0x0
	DCD	0x0
	DCD	0x0
	DCD	0x0
	DCD	0x0
	DCD	0x0
	DCD	0x0
	DCD	0x0
	DCD	0x0
	DCD	0x0
	DCD	0x0
	DCD	0x0
	DCD	0x0
	DCD	0x0
	DCD	0x0
	DCD	0x0
	DCD	0x0
	DCD	0x0
	DCD	0x0
	DCD	0x0
	DCD	0x0
	DCD	0x0
	DCD	0x0
	DCD	0x0
	DCD	0x0
	DCD	0x0
	DCD	0x0
	DCD	0x0
	DCD	0x0
	DCD	0x0
	DCD	0x0
	DCD	0x0
	DCD	0x0
	DCD	0x0
	DCD	0x0
	DCD	0x0
	DCD	0x0
	DCD	0x0
	DCD	0x0
	DCD	0x0
	DCD	0x0
	DCD	0x0
	DCD	0x0
	DCD	0x0
	DCD	0x0
	DCD	0x0
	DCD	0x0
	DCD	0x0
	DCD	0x0
	DCD	0x0
	DCD	0x0
	DCD	0x0
	DCD	0x0
	DCD	0x0
	DCD	0x0
	DCD	0x0
	DCD	0x0
	DCD	0x0
	DCD	0x0
	DCD	0x0
	DCD	0x0
	DCD	0x0
	DCD	0x0
	DCD	0x0
	DCD	0x0
	DCD	0x0
	DCD	0x0
	DCD	0x0
	DCD	0x0
	DCD	0x0
	DCD	0x0
	DCD	0x0
	DCD	0x0
	DCD	0x0
	DCD	0x0
	DCD	0x0
	DCD	0x0
	DCD	0x0
	DCD	0x0
	DCD	0x0
	DCD	0x0
	DCD	0x0
	DCD	0x0
	DCD	0x0
	DCD	0x0
	DCD	0x0
	DCD	0x0
	DCD	0x0
	DCD	0x0
	DCD	0x0
	DCD	0x0
	DCD	0x0
	DCD	0x0
	DCD	0x0
	DCD	0x0
	DCD	0x0
	DCD	0x0
	DCD	0x0
	DCD	0x0
	DCD	0x0
	DCD	0x0
	DCD	0x0
	DCD	0x0
	DCD	0x0
	DCD	0x0
	DCD	0x0
	DCD	0x0
	DCD	0x0
	DCD	0x0
	DCD	0xd000000
	DCD	0x0
	DCD	0x0
	DCD	0x0
	DCD	0x0
	DCD	0x0
	DCD	0x0
	DCD	0x0
	DCD	0x0
	DCD	0x0
	DCD	0x0
	DCD	0x0
	DCD	0x0
	DCD	0x0
	DCD	0x0
	DCD	0x0
	DCD	0x0
	DCD	0x0
	DCD	0x0
	DCD	0x0
	DCD	0x0
	DCD	0x0
	DCD	0x0
	DCD	0x0
	DCD	0x0
	DCD	0x0
	DCD	0x0
	DCD	0x0
	DCD	0x0
	DCD	0x0
	DCD	0x0
	DCD	0x0
	DCD	0x0
	DCD	0x0
	DCD	0x0
	DCD	0x0
	DCD	0x0
	DCD	0x0
	DCD	0x0
	DCD	0x0
	DCD	0x0
	DCD	0x0
	DCD	0x0
	DCD	0x0
	DCD	0x0
	DCD	0x0
	DCD	0x0
	DCD	0x0
	DCD	0x0
	DCD	0x0
	DCD	0x0
	DCD	0x0
	DCD	0x0
	DCD	0x0
	DCD	0x0
	DCD	0x0
	DCD	0x0
	DCD	0x0
	DCD	0x0
	DCD	0x0
	DCD	0x0
	DCD	0x0
	DCD	0x0
	DCD	0x0
	DCD	0x54250000
	DCD	0x25
	DCD	0x201f0000
	DCD	0xd
	DCD	0x0
	DCD	0x200d0000
	DCD	0x1f
	DCD	0x0
	DCD	0x0
	DCD	0x0
	DCD	0x0
	DCD	0x0
	DCD	0x0
	DCD	0x0
	DCD	0x0
	DCD	0x0
	DCD	0x0
	DCD	0x0
	DCD	0x0
	DCD	0x0
	DCD	0x0
	DCD	0x0
	DCD	0x0
	DCD	0x0
	DCD	0x0
	DCD	0x0
	DCD	0x0
	DCD	0x0
	DCD	0x0
	DCD	0x0
	DCD	0x0
	DCD	0x0
	DCD	0x0
	DCD	0x0
	DCD	0x0
	DCD	0x0
	DCD	0x0
	DCD	0x0
	DCD	0x0
	DCD	0x0
	DCD	0x0
	DCD	0x0
	DCD	0x0
	DCD	0x0
	DCD	0x0
	DCD	0x0
	DCD	0x0
	DCD	0x0
	DCD	0x0
	DCD	0x0
	DCD	0x0
	DCD	0x0
	DCD	0x0
	DCD	0x0
	DCD	0x0
	DCD	0x0
	DCD	0x0
	DCD	0x0
	DCD	0x0
	DCD	0x0
	DCD	0x0
	DCD	0x0
	DCD	0x0
	DCD	0x0
	DCD	0xdc9d1800
	DCD	0x189d
	DCD	0xcbb61f00
	DCD	0xd6d
	DCD	0x0
	DCD	0xcb6d0d00
	DCD	0x1fb6
	DCD	0x0
	DCD	0x0
	DCD	0x0
	DCD	0x0
	DCD	0x0
	DCD	0x0
	DCD	0x0
	DCD	0x0
	DCD	0x0
	DCD	0x0
	DCD	0x0
	DCD	0x0
	DCD	0x0
	DCD	0x0
	DCD	0x0
	DCD	0x0
	DCD	0x0
	DCD	0x0
	DCD	0x0
	DCD	0x0
	DCD	0x0
	DCD	0x0
	DCD	0x0
	DCD	0x0
	DCD	0x0
	DCD	0x0
	DCD	0x0
	DCD	0x0
	DCD	0x0
	DCD	0x0
	DCD	0x0
	DCD	0x0
	DCD	0x0
	DCD	0x0
	DCD	0x0
	DCD	0x0
	DCD	0x0
	DCD	0x0
	DCD	0x0
	DCD	0x0
	DCD	0x0
	DCD	0x0
	DCD	0x0
	DCD	0x0
	DCD	0x0
	DCD	0x0
	DCD	0x0
	DCD	0x0
	DCD	0x0
	DCD	0x0
	DCD	0x0
	DCD	0x0
	DCD	0x0
	DCD	0x0
	DCD	0x0
	DCD	0x0
	DCD	0x0
	DCD	0xfdd31f00
	DCD	0x1fd3
	DCD	0xf2b41a00
	DCD	0x19af
	DCD	0x0
	DCD	0xf2af1900
	DCD	0x1ab4
	DCD	0x0
	DCD	0x0
	DCD	0x0
	DCD	0x0
	DCD	0x0
	DCD	0x0
	DCD	0x0
	DCD	0x0
	DCD	0x0
	DCD	0x0
	DCD	0x0
	DCD	0x0
	DCD	0x0
	DCD	0x0
	DCD	0x0
	DCD	0x0
	DCD	0x0
	DCD	0x0
	DCD	0x0
	DCD	0x0
	DCD	0x0
	DCD	0x0
	DCD	0x0
	DCD	0x0
	DCD	0x0
	DCD	0x0
	DCD	0x0
	DCD	0x0
	DCD	0x0
	DCD	0x0
	DCD	0x0
	DCD	0x0
	DCD	0x0
	DCD	0x0
	DCD	0x0
	DCD	0x0
	DCD	0x0
	DCD	0x0
	DCD	0x0
	DCD	0x0
	DCD	0x0
	DCD	0x0
	DCD	0x0
	DCD	0x0
	DCD	0x0
	DCD	0x0
	DCD	0x0
	DCD	0x0
	DCD	0x0
	DCD	0x0
	DCD	0x0
	DCD	0x0
	DCD	0x0
	DCD	0x0
	DCD	0x0
	DCD	0x0
	DCD	0x0
	DCD	0xfdd11f00
	DCD	0x1fd3
	DCD	0xe76e0d00
	DCD	0x35d5
	DCD	0x0
	DCD	0xe7d53500
	DCD	0xd6e
	DCD	0x0
	DCD	0x0
	DCD	0x0
	DCD	0x0
	DCD	0x0
	DCD	0x0
	DCD	0x0
	DCD	0x0
	DCD	0x0
	DCD	0x0
	DCD	0x0
	DCD	0x0
	DCD	0x0
	DCD	0x0
	DCD	0x0
	DCD	0x0
	DCD	0x0
	DCD	0x0
	DCD	0x0
	DCD	0x0
	DCD	0x0
	DCD	0x0
	DCD	0x0
	DCD	0x0
	DCD	0x0
	DCD	0x0
	DCD	0x0
	DCD	0x0
	DCD	0x0
	DCD	0x0
	DCD	0x0
	DCD	0x0
	DCD	0x0
	DCD	0x0
	DCD	0x0
	DCD	0x0
	DCD	0x0
	DCD	0x0
	DCD	0x0
	DCD	0x0
	DCD	0x0
	DCD	0x0
	DCD	0x0
	DCD	0x0
	DCD	0x0
	DCD	0x0
	DCD	0x0
	DCD	0x0
	DCD	0x0
	DCD	0x0
	DCD	0x0
	DCD	0x0
	DCD	0x0
	DCD	0x0
	DCD	0x0
	DCD	0x0
	DCD	0x0
	DCD	0xcd981600
	DCD	0x189d
	DCD	0xbe280000
	DCD	0x1697f0
	DCD	0x0
	DCD	0xbef09716
	DCD	0x28
	DCD	0x0
	DCD	0x1d12
	DCD	0xd1c1200
	DCD	0x0
	DCD	0x0
	DCD	0x0
	DCD	0x0
	DCD	0x0
	DCD	0x0
	DCD	0x0
	DCD	0x0
	DCD	0x0
	DCD	0x0
	DCD	0x0
	DCD	0x0
	DCD	0x0
	DCD	0x0
	DCD	0x0
	DCD	0x0
	DCD	0x0
	DCD	0x0
	DCD	0x0
	DCD	0x0
	DCD	0x0
	DCD	0x0
	DCD	0x0
	DCD	0x0
	DCD	0x0
	DCD	0x0
	DCD	0x0
	DCD	0x0
	DCD	0x0
	DCD	0x0
	DCD	0x0
	DCD	0x0
	DCD	0x0
	DCD	0x0
	DCD	0x0
	DCD	0x0
	DCD	0x0
	DCD	0x0
	DCD	0x0
	DCD	0x0
	DCD	0x0
	DCD	0x0
	DCD	0x0
	DCD	0x0
	DCD	0x0
	DCD	0x0
	DCD	0x0
	DCD	0x0
	DCD	0x0
	DCD	0x0
	DCD	0x0
	DCD	0x0
	DCD	0x0
	DCD	0x0
	DCD	0x20160000
	DCD	0x18
	DCD	0x81120000
	DCD	0x33ceeb
	DCD	0x0
	DCD	0x81ecce33
	DCD	0x12
	DCD	0x12000000
	DCD	0x35a680
	DCD	0x6daf7e12
	DCD	0xd
	DCD	0x0
	DCD	0x0
	DCD	0x0
	DCD	0x0
	DCD	0x0
	DCD	0x0
	DCD	0x0
	DCD	0x0
	DCD	0x0
	DCD	0x0
	DCD	0x0
	DCD	0x0
	DCD	0x0
	DCD	0x0
	DCD	0x0
	DCD	0x0
	DCD	0x0
	DCD	0x0
	DCD	0x0
	DCD	0x0
	DCD	0x0
	DCD	0x0
	DCD	0x0
	DCD	0x0
	DCD	0x0
	DCD	0x0
	DCD	0x0
	DCD	0x0
	DCD	0x0
	DCD	0x0
	DCD	0x0
	DCD	0x0
	DCD	0x0
	DCD	0x0
	DCD	0x0
	DCD	0x0
	DCD	0x0
	DCD	0x0
	DCD	0x0
	DCD	0x0
	DCD	0x0
	DCD	0x0
	DCD	0x0
	DCD	0x0
	DCD	0x0
	DCD	0x0
	DCD	0x0
	DCD	0x0
	DCD	0x0
	DCD	0x0
	DCD	0x0
	DCD	0x0
	DCD	0x0
	DCD	0x0
	DCD	0x0
	DCD	0x2e000000
	DCD	0x1590eec5
	DCD	0x15000000
	DCD	0x2fc9ef90
	DCD	0x0
	DCD	0x1d000000
	DCD	0x189df0b5
	DCD	0xa1f4c229
	DCD	0x1d
	DCD	0x1d000000
	DCD	0xd1c
	DCD	0x0
	DCD	0x0
	DCD	0x0
	DCD	0x0
	DCD	0x0
	DCD	0x0
	DCD	0x0
	DCD	0x0
	DCD	0x0
	DCD	0x0
	DCD	0x0
	DCD	0x0
	DCD	0x0
	DCD	0x0
	DCD	0x0
	DCD	0x0
	DCD	0x0
	DCD	0x0
	DCD	0x0
	DCD	0x0
	DCD	0x0
	DCD	0x0
	DCD	0x0
	DCD	0x0
	DCD	0x0
	DCD	0x0
	DCD	0x0
	DCD	0x0
	DCD	0x0
	DCD	0x0
	DCD	0x0
	DCD	0x0
	DCD	0x0
	DCD	0x0
	DCD	0x0
	DCD	0x0
	DCD	0x0
	DCD	0x0
	DCD	0x0
	DCD	0x0
	DCD	0x0
	DCD	0x0
	DCD	0x0
	DCD	0x0
	DCD	0x0
	DCD	0x0
	DCD	0x0
	DCD	0x0
	DCD	0x0
	DCD	0x0
	DCD	0x0
	DCD	0x0
	DCD	0x0
	DCD	0x15000000
	DCD	0x2ec5ee90
	DCD	0x2e000000
	DCD	0x1591eec5
	DCD	0x0
	DCD	0x10000000
	DCD	0x44d3dc7a
	DCD	0x3ccbe76e
	DCD	0x0
	DCD	0xa81d0000
	DCD	0xd6abb
	DCD	0x0
	DCD	0x20202000
	DCD	0x20202020
	DCD	0x20202020
	DCD	0x20202020
	DCD	0x0
	DCD	0x0
	DCD	0x0
	DCD	0x0
	DCD	0x0
	DCD	0x0
	DCD	0x0
	DCD	0x0
	DCD	0x0
	DCD	0x0
	DCD	0x0
	DCD	0x0
	DCD	0x0
	DCD	0x0
	DCD	0x0
	DCD	0x0
	DCD	0x0
	DCD	0x0
	DCD	0x0
	DCD	0x0
	DCD	0x0
	DCD	0x0
	DCD	0x0
	DCD	0x0
	DCD	0x0
	DCD	0x0
	DCD	0x0
	DCD	0x0
	DCD	0x0
	DCD	0x0
	DCD	0x0
	DCD	0x0
	DCD	0x0
	DCD	0x0
	DCD	0x0
	DCD	0x0
	DCD	0x0
	DCD	0x0
	DCD	0x0
	DCD	0x0
	DCD	0x0
	DCD	0x0
	DCD	0x0
	DCD	0x0
	DCD	0x0
	DCD	0x0
	DCD	0x0
	DCD	0x0
	DCD	0x0
	DCD	0x80ebce33
	DCD	0x80120012
	DCD	0x33cfeb
	DCD	0x0
	DCD	0x15180000
	DCD	0xb7dd9433
	DCD	0x218edacc
	DCD	0x1818
	DCD	0xab180000
	DCD	0x27b5ed
	DCD	0x0
	DCD	0xdfdfbf20
	DCD	0xdfdfdfdf
	DCD	0xdfdfdfdf
	DCD	0xbfdfdfdf
	DCD	0x20
	DCD	0x0
	DCD	0x0
	DCD	0x0
	DCD	0x0
	DCD	0x0
	DCD	0x0
	DCD	0x0
	DCD	0x0
	DCD	0x0
	DCD	0x0
	DCD	0x0
	DCD	0x0
	DCD	0x0
	DCD	0x0
	DCD	0x0
	DCD	0x0
	DCD	0x0
	DCD	0x0
	DCD	0x0
	DCD	0x0
	DCD	0x0
	DCD	0x0
	DCD	0x0
	DCD	0x0
	DCD	0x0
	DCD	0x0
	DCD	0x0
	DCD	0x0
	DCD	0x0
	DCD	0x0
	DCD	0x0
	DCD	0x0
	DCD	0x0
	DCD	0x0
	DCD	0x0
	DCD	0x0
	DCD	0x0
	DCD	0x0
	DCD	0x0
	DCD	0x0
	DCD	0x0
	DCD	0x0
	DCD	0x0
	DCD	0x0
	DCD	0x0
	DCD	0x0
	DCD	0x0
	DCD	0x0
	DCD	0xb9ef9716
	DCD	0xb9270027
	DCD	0x189cf0
	DCD	0x0
	DCD	0x9d931800
	DCD	0xe8c2968a
	DCD	0x8f9cc4ed
	DCD	0x1896a8
	DCD	0x76100000
	DCD	0xd6ae6ee
	DCD	0x0
	DCD	0xdfdfbf20
	DCD	0xdfdfdfdf
	DCD	0xdfdfdfdf
	DCD	0xbfdfdfdf
	DCD	0x20
	DCD	0x0
	DCD	0x0
	DCD	0x0
	DCD	0x0
	DCD	0x0
	DCD	0x0
	DCD	0x0
	DCD	0x0
	DCD	0x0
	DCD	0x0
	DCD	0x0
	DCD	0x0
	DCD	0x0
	DCD	0x0
	DCD	0x0
	DCD	0x0
	DCD	0x0
	DCD	0x0
	DCD	0x0
	DCD	0x0
	DCD	0x0
	DCD	0x0
	DCD	0x0
	DCD	0x0
	DCD	0x0
	DCD	0x0
	DCD	0x0
	DCD	0x0
	DCD	0x0
	DCD	0x0
	DCD	0x0
	DCD	0x0
	DCD	0x0
	DCD	0x0
	DCD	0x0
	DCD	0x0
	DCD	0x0
	DCD	0x0
	DCD	0x0
	DCD	0x0
	DCD	0x0
	DCD	0x0
	DCD	0x0
	DCD	0x0
	DCD	0x0
	DCD	0xd000000
	DCD	0x0
	DCD	0x0
	DCD	0xe5d53500
	DCD	0xe56e1a6e
	DCD	0x37d5
	DCD	0x0
	DCD	0xeccf2000
	DCD	0xfeece0e2
	DCD	0xe2e2e7ff
	DCD	0x20cfed
	DCD	0x2f000000
	DCD	0x16a4f5d7
	DCD	0x0
	DCD	0x20202000
	DCD	0x20202020
	DCD	0x20202020
	DCD	0x20202020
	DCD	0x0
	DCD	0x0
	DCD	0x0
	DCD	0x0
	DCD	0x0
	DCD	0x0
	DCD	0x0
	DCD	0x0
	DCD	0x0
	DCD	0x0
	DCD	0x0
	DCD	0x0
	DCD	0x0
	DCD	0x0
	DCD	0x0
	DCD	0x0
	DCD	0x0
	DCD	0x0
	DCD	0x0
	DCD	0x0
	DCD	0x0
	DCD	0x0
	DCD	0x0
	DCD	0x0
	DCD	0x0
	DCD	0x0
	DCD	0x0
	DCD	0x0
	DCD	0x0
	DCD	0x0
	DCD	0x0
	DCD	0x0
	DCD	0x0
	DCD	0x0
	DCD	0x0
	DCD	0x0
	DCD	0x0
	DCD	0x0
	DCD	0x0
	DCD	0x0
	DCD	0x0
	DCD	0x0
	DCD	0x0
	DCD	0x0
	DCD	0x0
	DCD	0x0
	DCD	0x54250000
	DCD	0x25
	DCD	0x0
	DCD	0xf2af1900
	DCD	0xf2b441b4
	DCD	0x19af
	DCD	0x0
	DCD	0xa8961800
	DCD	0xf1d0a18f
	DCD	0x8e9abded
	DCD	0x1895a2
	DCD	0x1b000000
	DCD	0x2ecef8c3
	DCD	0x0
	DCD	0x0
	DCD	0x0
	DCD	0x0
	DCD	0x0
	DCD	0x0
	DCD	0x0
	DCD	0x0
	DCD	0x0
	DCD	0x0
	DCD	0x0
	DCD	0x0
	DCD	0x0
	DCD	0x0
	DCD	0x0
	DCD	0x0
	DCD	0x0
	DCD	0x0
	DCD	0x0
	DCD	0x0
	DCD	0x0
	DCD	0x0
	DCD	0x0
	DCD	0x0
	DCD	0x0
	DCD	0x0
	DCD	0x0
	DCD	0x0
	DCD	0x0
	DCD	0x0
	DCD	0x0
	DCD	0x0
	DCD	0x0
	DCD	0x0
	DCD	0x0
	DCD	0x0
	DCD	0x0
	DCD	0x0
	DCD	0x0
	DCD	0x0
	DCD	0x0
	DCD	0x0
	DCD	0x0
	DCD	0x0
	DCD	0x0
	DCD	0x0
	DCD	0x0
	DCD	0x0
	DCD	0x0
	DCD	0x0
	DCD	0x0
	DCD	0xdc9d1800
	DCD	0x189d
	DCD	0x0
	DCD	0xe56d0d00
	DCD	0xe5e390e3
	DCD	0xd6d
	DCD	0x0
	DCD	0x18180000
	DCD	0xcfe39630
	DCD	0x218dd9ce
	DCD	0x1816
	DCD	0x18000000
	DCD	0x74edf7ab
	DCD	0x10
	DCD	0x0
	DCD	0x0
	DCD	0x0
	DCD	0x0
	DCD	0x0
	DCD	0x18201800
	DCD	0x20180000
	DCD	0x18
	DCD	0x20180000
	DCD	0x18
	DCD	0x0
	DCD	0x0
	DCD	0x0
	DCD	0x0
	DCD	0x0
	DCD	0x0
	DCD	0x0
	DCD	0x0
	DCD	0x0
	DCD	0x0
	DCD	0x0
	DCD	0x0
	DCD	0x0
	DCD	0x0
	DCD	0x0
	DCD	0x0
	DCD	0x0
	DCD	0x0
	DCD	0x0
	DCD	0x0
	DCD	0x0
	DCD	0x0
	DCD	0x0
	DCD	0x0
	DCD	0x0
	DCD	0x0
	DCD	0x0
	DCD	0x0
	DCD	0x0
	DCD	0x0
	DCD	0x0
	DCD	0x0
	DCD	0x0
	DCD	0x0
	DCD	0x0
	DCD	0x0
	DCD	0x0
	DCD	0x0
	DCD	0x0
	DCD	0x0
	DCD	0xfdd31f00
	DCD	0x1fd3
	DCD	0x0
	DCD	0xb9270000
	DCD	0xb9f6e5f6
	DCD	0x27
	DCD	0x0
	DCD	0xd000000
	DCD	0x7be5da70
	DCD	0x3ac7e47b
	DCD	0x0
	DCD	0x12000000
	DCD	0xa6f5f17e
	DCD	0x16
	DCD	0x20202000
	DCD	0x20202020
	DCD	0x20202020
	DCD	0x20202020
	DCD	0x0
	DCD	0x98cf9818
	DCD	0xcf981818
	DCD	0x1898
	DCD	0xcf981800
	DCD	0x1898
	DCD	0x0
	DCD	0x0
	DCD	0x0
	DCD	0x0
	DCD	0x0
	DCD	0x0
	DCD	0x0
	DCD	0x0
	DCD	0x0
	DCD	0x0
	DCD	0x0
	DCD	0x0
	DCD	0x0
	DCD	0x0
	DCD	0x0
	DCD	0x0
	DCD	0x0
	DCD	0x0
	DCD	0x0
	DCD	0x0
	DCD	0x0
	DCD	0x0
	DCD	0x0
	DCD	0x0
	DCD	0x0
	DCD	0x0
	DCD	0x0
	DCD	0x0
	DCD	0x0
	DCD	0x0
	DCD	0x0
	DCD	0x0
	DCD	0x0
	DCD	0x0
	DCD	0x0
	DCD	0x0
	DCD	0x0
	DCD	0x0
	DCD	0x0
	DCD	0x0
	DCD	0xfdd11f00
	DCD	0x1fd3
	DCD	0x0
	DCD	0x80120000
	DCD	0x80edfded
	DCD	0x12
	DCD	0x0
	DCD	0x1d000000
	DCD	0x27b5f2b3
	DCD	0xa2f0b527
	DCD	0x1c
	DCD	0x0
	DCD	0xbcecbf31
	DCD	0x1d
	DCD	0xdfdfbf20
	DCD	0xdfdfdfdf
	DCD	0xdfdfdfdf
	DCD	0xbfdfdfdf
	DCD	0x20
	DCD	0xbcf3bc1a
	DCD	0xf3bc1a1a
	DCD	0x1abc
	DCD	0xf3bc1a00
	DCD	0x1abc
	DCD	0x0
	DCD	0x0
	DCD	0x0
	DCD	0x0
	DCD	0x0
	DCD	0x0
	DCD	0x0
	DCD	0x0
	DCD	0x0
	DCD	0x0
	DCD	0x0
	DCD	0x0
	DCD	0x0
	DCD	0x0
	DCD	0x0
	DCD	0x0
	DCD	0x0
	DCD	0x0
	DCD	0x0
	DCD	0x0
	DCD	0x0
	DCD	0x0
	DCD	0x0
	DCD	0x0
	DCD	0x0
	DCD	0x0
	DCD	0x0
	DCD	0x0
	DCD	0x0
	DCD	0x0
	DCD	0x0
	DCD	0x0
	DCD	0x0
	DCD	0x0
	DCD	0x0
	DCD	0x0
	DCD	0x0
	DCD	0x0
	DCD	0x0
	DCD	0x0
	DCD	0xcd981600
	DCD	0x189d
	DCD	0x0
	DCD	0x2e000000
	DCD	0x2eb0d8b0
	DCD	0x0
	DCD	0x0
	DCD	0x12000000
	DCD	0xd6aaf7f
	DCD	0x7eaf6a0d
	DCD	0x12
	DCD	0x0
	DCD	0x736f2f00
	DCD	0x12
	DCD	0xdfdfbf20
	DCD	0xdfdfdfdf
	DCD	0xdfdfdfdf
	DCD	0xbfdfdfdf
	DCD	0x20
	DCD	0xc7f8c71c
	DCD	0xf8c71c1c
	DCD	0x1cc7
	DCD	0xf8c71c00
	DCD	0x1cc7
	DCD	0x20200000
	DCD	0x0
	DCD	0x13000000
	DCD	0x2020201b
	DCD	0x1c
	DCD	0x0
	DCD	0x0
	DCD	0x0
	DCD	0x0
	DCD	0x0
	DCD	0x0
	DCD	0x0
	DCD	0x0
	DCD	0x0
	DCD	0x0
	DCD	0x0
	DCD	0x0
	DCD	0x0
	DCD	0x0
	DCD	0x0
	DCD	0x0
	DCD	0x0
	DCD	0x0
	DCD	0x0
	DCD	0x0
	DCD	0x0
	DCD	0x0
	DCD	0x0
	DCD	0x0
	DCD	0x0
	DCD	0x0
	DCD	0x0
	DCD	0x0
	DCD	0x0
	DCD	0x0
	DCD	0x0
	DCD	0x0
	DCD	0x0
	DCD	0x0
	DCD	0x0
	DCD	0x20160000
	DCD	0x18
	DCD	0x0
	DCD	0x0
	DCD	0x1c201c
	DCD	0x0
	DCD	0x0
	DCD	0x0
	DCD	0xd1c12
	DCD	0x121c0d00
	DCD	0x0
	DCD	0x0
	DCD	0x12100000
	DCD	0x0
	DCD	0x20202000
	DCD	0x20202020
	DCD	0x20202020
	DCD	0x20202020
	DCD	0x0
	DCD	0xc9f8c91c
	DCD	0xf8c91c1c
	DCD	0x1cc9
	DCD	0xf8c91c00
	DCD	0x1cc9
	DCD	0xbfbd2000
	DCD	0x2f
	DCD	0x88311200
	DCD	0xdbdfdac0
	DCD	0x39b0
	DCD	0x0
	DCD	0x0
	DCD	0x0
	DCD	0x0
	DCD	0x0
	DCD	0x0
	DCD	0x0
	DCD	0x0
	DCD	0x0
	DCD	0x0
	DCD	0x0
	DCD	0x0
	DCD	0x0
	DCD	0x0
	DCD	0x0
	DCD	0x0
	DCD	0x0
	DCD	0x0
	DCD	0x0
	DCD	0x0
	DCD	0x0
	DCD	0x0
	DCD	0x0
	DCD	0x0
	DCD	0x0
	DCD	0x0
	DCD	0x0
	DCD	0x0
	DCD	0x0
	DCD	0x0
	DCD	0x0
	DCD	0x0
	DCD	0x0
	DCD	0x0
	DCD	0x0
	DCD	0x0
	DCD	0x0
	DCD	0x0
	DCD	0x0
	DCD	0x0
	DCD	0x0
	DCD	0x0
	DCD	0x0
	DCD	0x0
	DCD	0x0
	DCD	0x0
	DCD	0x0
	DCD	0x0
	DCD	0x0
	DCD	0x0
	DCD	0x0
	DCD	0x0
	DCD	0x0
	DCD	0x0
	DCD	0xcaf8ca1c
	DCD	0xf8ca1c1c
	DCD	0x1cca
	DCD	0xf8ca1c00
	DCD	0x1cca
	DCD	0xedd21e00
	DCD	0x15001079
	DCD	0xf0c9842f
	DCD	0xecdfecf3
	DCD	0x2fb4f8
	DCD	0x0
	DCD	0x15000000
	DCD	0x1c20
	DCD	0x0
	DCD	0x0
	DCD	0x0
	DCD	0x0
	DCD	0x0
	DCD	0x0
	DCD	0x0
	DCD	0x0
	DCD	0x0
	DCD	0x0
	DCD	0x0
	DCD	0x0
	DCD	0x0
	DCD	0x0
	DCD	0x0
	DCD	0x0
	DCD	0x0
	DCD	0x0
	DCD	0x0
	DCD	0x0
	DCD	0x0
	DCD	0x0
	DCD	0x0
	DCD	0x0
	DCD	0x0
	DCD	0x0
	DCD	0x0
	DCD	0x0
	DCD	0x0
	DCD	0x0
	DCD	0x0
	DCD	0x0
	DCD	0x0
	DCD	0x0
	DCD	0x0
	DCD	0x0
	DCD	0x0
	DCD	0x0
	DCD	0x0
	DCD	0x0
	DCD	0x0
	DCD	0x0
	DCD	0x0
	DCD	0x0
	DCD	0x0
	DCD	0x0
	DCD	0x0
	DCD	0x0
	DCD	0x0
	DCD	0x0
	DCD	0x0
	DCD	0xd0fad01d
	DCD	0xfad01d1d
	DCD	0x1dd0
	DCD	0xfad01d00
	DCD	0x1dd0
	DCD	0xf4b51a00
	DCD	0x91353bbc
	DCD	0xd5f4edc9
	DCD	0x733a6daf
	DCD	0x127eede3
	DCD	0x0
	DCD	0x93240000
	DCD	0x1c9dd0
	DCD	0x18000000
	DCD	0x1820
	DCD	0x0
	DCD	0x0
	DCD	0x0
	DCD	0x0
	DCD	0x0
	DCD	0x0
	DCD	0x0
	DCD	0x0
	DCD	0x0
	DCD	0x0
	DCD	0x0
	DCD	0x0
	DCD	0x0
	DCD	0x0
	DCD	0x0
	DCD	0x0
	DCD	0x0
	DCD	0x0
	DCD	0x0
	DCD	0x0
	DCD	0x0
	DCD	0x0
	DCD	0x0
	DCD	0x0
	DCD	0x0
	DCD	0x0
	DCD	0x0
	DCD	0x0
	DCD	0x0
	DCD	0x0
	DCD	0x0
	DCD	0x0
	DCD	0x0
	DCD	0x0
	DCD	0x0
	DCD	0x0
	DCD	0x0
	DCD	0x0
	DCD	0x0
	DCD	0x0
	DCD	0x0
	DCD	0x0
	DCD	0x0
	DCD	0x0
	DCD	0x0
	DCD	0x0
	DCD	0x0
	DCD	0x0
	DCD	0x0
	DCD	0xdcffdc20
	DCD	0xffdc2020
	DCD	0x20dc
	DCD	0xffdc2000
	DCD	0x20dc
	DCD	0xdb771000
	DCD	0xf2dfdff7
	DCD	0x379dd3f3
	DCD	0x27000d19
	DCD	0x18a8f1bf
	DCD	0x0
	DCD	0xe47d1000
	DCD	0xd70e4
	DCD	0x9e180000
	DCD	0x189ecf
	DCD	0x0
	DCD	0x0
	DCD	0x0
	DCD	0x0
	DCD	0x0
	DCD	0x0
	DCD	0x0
	DCD	0x0
	DCD	0x0
	DCD	0x0
	DCD	0x0
	DCD	0x0
	DCD	0x0
	DCD	0x0
	DCD	0x0
	DCD	0x0
	DCD	0x0
	DCD	0x0
	DCD	0x0
	DCD	0x0
	DCD	0x0
	DCD	0x0
	DCD	0x0
	DCD	0x0
	DCD	0x0
	DCD	0x0
	DCD	0x0
	DCD	0x0
	DCD	0x0
	DCD	0x0
	DCD	0x20200000
	DCD	0x20
	DCD	0x0
	DCD	0x202020
	DCD	0x0
	DCD	0x20200000
	DCD	0x20
	DCD	0x0
	DCD	0x201f0000
	DCD	0x1d2020
	DCD	0x0
	DCD	0x2020201e
	DCD	0x1f
	DCD	0x0
	DCD	0x0
	DCD	0x0
	DCD	0x0
	DCD	0x0
	DCD	0x0
	DCD	0xbfdfbf20
	DCD	0xdfbf2020
	DCD	0x20bf
	DCD	0xdfbf2000
	DCD	0x20bf
	DCD	0x7a1f0000
	DCD	0xcfdddcc4
	DCD	0x18379c
	DCD	0x18000000
	DCD	0x1896cf98
	DCD	0x0
	DCD	0xf4cb3c00
	DCD	0x259e
	DCD	0xd7200000
	DCD	0x20d7ff
	DCD	0x20000000
	DCD	0x20202020
	DCD	0x20202020
	DCD	0x20202020
	DCD	0x202020
	DCD	0x0
	DCD	0x0
	DCD	0x0
	DCD	0x0
	DCD	0x0
	DCD	0x0
	DCD	0x0
	DCD	0x0
	DCD	0x0
	DCD	0x0
	DCD	0x0
	DCD	0x0
	DCD	0x0
	DCD	0x0
	DCD	0x0
	DCD	0x0
	DCD	0x0
	DCD	0x0
	DCD	0x0
	DCD	0x0
	DCD	0x0
	DCD	0x0
	DCD	0x0
	DCD	0x0
	DCD	0x0
	DCD	0xdfbf2000
	DCD	0x20bf
	DCD	0x20000000
	DCD	0x20bfdfbf
	DCD	0x0
	DCD	0xdfbf2000
	DCD	0x20bf
	DCD	0x0
	DCD	0xdebc2f00
	DCD	0x1db4dcdf
	DCD	0x1e000000
	DCD	0xdedfddb8
	DCD	0x2fbc
	DCD	0x0
	DCD	0x0
	DCD	0x0
	DCD	0x0
	DCD	0x0
	DCD	0x0
	DCD	0x20202000
	DCD	0x20200000
	DCD	0x20
	DCD	0x20200000
	DCD	0x20
	DCD	0x10000000
	DCD	0x1e20201d
	DCD	0x18
	DCD	0x0
	DCD	0x182018
	DCD	0x0
	DCD	0xcbfab437
	DCD	0x36
	DCD	0xd7200000
	DCD	0x20d9ff
	DCD	0xbf200000
	DCD	0xdfdfdfdf
	DCD	0xdfdfdfdf
	DCD	0xdfdfdfdf
	DCD	0x20bfdfdf
	DCD	0x0
	DCD	0x20202020
	DCD	0x20202020
	DCD	0x0
	DCD	0x0
	DCD	0x0
	DCD	0x0
	DCD	0x0
	DCD	0x0
	DCD	0x0
	DCD	0x0
	DCD	0x0
	DCD	0x0
	DCD	0x0
	DCD	0x0
	DCD	0x0
	DCD	0x0
	DCD	0x0
	DCD	0x0
	DCD	0x0
	DCD	0x0
	DCD	0x0
	DCD	0x0
	DCD	0x0
	DCD	0x0
	DCD	0xffdf2000
	DCD	0x20df
	DCD	0x20000000
	DCD	0x20dfffdf
	DCD	0x0
	DCD	0xffdf2000
	DCD	0x20df
	DCD	0x0
	DCD	0xffee7610
	DCD	0x31dcffff
	DCD	0x33000000
	DCD	0xffffffdd
	DCD	0x1074ee
	DCD	0x0
	DCD	0x0
	DCD	0x0
	DCD	0x0
	DCD	0x0
	DCD	0x0
	DCD	0x0
	DCD	0x0
	DCD	0x0
	DCD	0x0
	DCD	0x0
	DCD	0x0
	DCD	0x0
	DCD	0x0
	DCD	0x0
	DCD	0x0
	DCD	0x1a000000
	DCD	0x8bd3d788
	DCD	0x13
	DCD	0x9e180000
	DCD	0x1aa8d1
	DCD	0xbf200000
	DCD	0xdfdfdfdf
	DCD	0xdfdfdfdf
	DCD	0xdfdfdfdf
	DCD	0x20bfdfdf
	DCD	0x20000000
	DCD	0xdfdfdfbf
	DCD	0xbfdfdfdf
	DCD	0x20
	DCD	0x0
	DCD	0x0
	DCD	0x0
	DCD	0x0
	DCD	0x0
	DCD	0x0
	DCD	0x0
	DCD	0x0
	DCD	0x0
	DCD	0x0
	DCD	0x0
	DCD	0x0
	DCD	0x0
	DCD	0x0
	DCD	0x0
	DCD	0x0
	DCD	0x0
	DCD	0x0
	DCD	0x0
	DCD	0x0
	DCD	0x0
	DCD	0xffdf2000
	DCD	0x20df
	DCD	0x20000000
	DCD	0x20dfffdf
	DCD	0x0
	DCD	0xffdf2000
	DCD	0x20df
	DCD	0x0
	DCD	0xfff7aa18
	DCD	0x7ef1fffa
	DCD	0x85130012
	DCD	0xfffafff2
	DCD	0x16a5f5
	DCD	0x0
	DCD	0x0
	DCD	0x0
	DCD	0x0
	DCD	0x0
	DCD	0x0
	DCD	0x0
	DCD	0x0
	DCD	0x0
	DCD	0x0
	DCD	0x0
	DCD	0x0
	DCD	0x0
	DCD	0x0
	DCD	0x0
	DCD	0x0
	DCD	0x0
	DCD	0x1320201a
	DCD	0x0
	DCD	0x18000000
	DCD	0x1a20
	DCD	0x20000000
	DCD	0x20202020
	DCD	0x20202020
	DCD	0x20202020
	DCD	0x202020
	DCD	0x20000000
	DCD	0xdfdfdfbf
	DCD	0xbfdfdfdf
	DCD	0x20
	DCD	0x0
	DCD	0x0
	DCD	0x0
	DCD	0x0
	DCD	0x0
	DCD	0x0
	DCD	0x0
	DCD	0x0
	DCD	0x0
	DCD	0x0
	DCD	0x0
	DCD	0x0
	DCD	0x0
	DCD	0x0
	DCD	0x0
	DCD	0x0
	DCD	0x0
	DCD	0x0
	DCD	0x0
	DCD	0x0
	DCD	0x0
	DCD	0xffdf2000
	DCD	0x20df
	DCD	0x20000000
	DCD	0x20dfffdf
	DCD	0x0
	DCD	0xffdf2000
	DCD	0x20df
	DCD	0x0
	DCD	0xfafbc81c
	DCD	0xacf7fade
	DCD	0xae180018
	DCD	0xfadffaf7
	DCD	0x1cc7fb
	DCD	0x0
	DCD	0x0
	DCD	0x0
	DCD	0x0
	DCD	0x0
	DCD	0x0
	DCD	0x0
	DCD	0x0
	DCD	0x0
	DCD	0x0
	DCD	0x0
	DCD	0x0
	DCD	0x0
	DCD	0x0
	DCD	0x0
	DCD	0x0
	DCD	0x0
	DCD	0x0
	DCD	0x0
	DCD	0x0
	DCD	0x0
	DCD	0x0
	DCD	0x0
	DCD	0x0
	DCD	0x0
	DCD	0x0
	DCD	0x0
	DCD	0x20202020
	DCD	0x20202020
	DCD	0x0
	DCD	0x0
	DCD	0x0
	DCD	0x0
	DCD	0x0
	DCD	0x0
	DCD	0x0
	DCD	0x0
	DCD	0x0
	DCD	0x0
	DCD	0x0
	DCD	0x0
	DCD	0x0
	DCD	0x0
	DCD	0x0
	DCD	0x0
	DCD	0x0
	DCD	0x0
	DCD	0x0
	DCD	0x0
	DCD	0x0
	DCD	0x0
	DCD	0xffdf2000
	DCD	0x20df
	DCD	0x20000000
	DCD	0x20dfffdf
	DCD	0x0
	DCD	0xffdf2000
	DCD	0x20df
	DCD	0x0
	DCD	0xefffdb31
	DCD	0xc8fbf0a1
	DCD	0xc81c001c
	DCD	0xf2a8f2fb
	DCD	0x31dbff
	DCD	0x0
	DCD	0x0
	DCD	0x0
	DCD	0x202000
	DCD	0x0
	DCD	0x0
	DCD	0x0
	DCD	0x16000000
	DCD	0x1f20201c
	DCD	0x151b
	DCD	0x0
	DCD	0x0
	DCD	0x0
	DCD	0x0
	DCD	0x0
	DCD	0x0
	DCD	0x0
	DCD	0x0
	DCD	0x0
	DCD	0x0
	DCD	0x0
	DCD	0x0
	DCD	0x0
	DCD	0x0
	DCD	0x0
	DCD	0x0
	DCD	0x0
	DCD	0x0
	DCD	0x0
	DCD	0x0
	DCD	0x0
	DCD	0x0
	DCD	0x0
	DCD	0x0
	DCD	0x0
	DCD	0x0
	DCD	0x0
	DCD	0x0
	DCD	0x0
	DCD	0x0
	DCD	0x0
	DCD	0x0
	DCD	0x0
	DCD	0x0
	DCD	0x0
	DCD	0x0
	DCD	0x0
	DCD	0x0
	DCD	0x0
	DCD	0x0
	DCD	0x0
	DCD	0xffdf2000
	DCD	0x20df
	DCD	0x20000000
	DCD	0x20dfffdf
	DCD	0x0
	DCD	0xffdf2000
	DCD	0x20df
	DCD	0x12000000
	DCD	0xd2fdf17e
	DCD	0xdbfed84f
	DCD	0xdb310031
	DCD	0xd751d8fe
	DCD	0x127ef1fe
	DCD	0x0
	DCD	0x0
	DCD	0x0
	DCD	0x20bfbf20
	DCD	0x0
	DCD	0x0
	DCD	0x0
	DCD	0x95351000
	DCD	0xd7dedbc7
	DCD	0x10328fc0
	DCD	0x0
	DCD	0x0
	DCD	0x0
	DCD	0x0
	DCD	0x0
	DCD	0x0
	DCD	0x0
	DCD	0x0
	DCD	0x0
	DCD	0x0
	DCD	0x0
	DCD	0x0
	DCD	0x0
	DCD	0x0
	DCD	0x0
	DCD	0x0
	DCD	0x0
	DCD	0x0
	DCD	0x0
	DCD	0x0
	DCD	0x0
	DCD	0x0
	DCD	0x0
	DCD	0x0
	DCD	0x0
	DCD	0x0
	DCD	0x0
	DCD	0x0
	DCD	0x0
	DCD	0x0
	DCD	0x0
	DCD	0x0
	DCD	0x0
	DCD	0x0
	DCD	0x0
	DCD	0x0
	DCD	0x0
	DCD	0x0
	DCD	0x0
	DCD	0x0
	DCD	0x0
	DCD	0xffdf2000
	DCD	0x20df
	DCD	0x20000000
	DCD	0x20dfffdf
	DCD	0x0
	DCD	0xffdf2000
	DCD	0x20df
	DCD	0x18000000
	DCD	0xb9f9f7ad
	DCD	0xf1fbc736
	DCD	0xf17c237c
	DCD	0xc237c7fb
	DCD	0x18acf7fa
	DCD	0x0
	DCD	0x0
	DCD	0x0
	DCD	0x20dfdf20
	DCD	0x0
	DCD	0x0
	DCD	0x0
	DCD	0xf5cb7c1f
	DCD	0xebdfecf3
	DCD	0x7ac4f1f3
	DCD	0x1f
	DCD	0x0
	DCD	0x0
	DCD	0x20202012
	DCD	0x0
	DCD	0x0
	DCD	0x1b000000
	DCD	0x132020
	DCD	0x0
	DCD	0x20160000
	DCD	0x1a20
	DCD	0x0
	DCD	0x16000000
	DCD	0x2020201c
	DCD	0x13191c1f
	DCD	0x0
	DCD	0x0
	DCD	0x0
	DCD	0x0
	DCD	0x0
	DCD	0x0
	DCD	0x0
	DCD	0x0
	DCD	0x0
	DCD	0x0
	DCD	0x0
	DCD	0x0
	DCD	0x0
	DCD	0x0
	DCD	0x0
	DCD	0x0
	DCD	0x0
	DCD	0x0
	DCD	0x0
	DCD	0x0
	DCD	0x0
	DCD	0x0
	DCD	0x0
	DCD	0x0
	DCD	0x0
	DCD	0x0
	DCD	0xffdf2000
	DCD	0x20df
	DCD	0x20000000
	DCD	0x20dfffdf
	DCD	0x0
	DCD	0xffdf2000
	DCD	0x20df
	DCD	0x1d000000
	DCD	0x87f2fccc
	DCD	0xf5f7ac2b
	DCD	0xf5a62da6
	DCD	0xa12eaef7
	DCD	0x1cc8fbf5
	DCD	0x0
	DCD	0x0
	DCD	0x0
	DCD	0x20dfdf20
	DCD	0x0
	DCD	0x0
	DCD	0x10000000
	DCD	0xedfddb7b
	DCD	0x6d3a6cab
	DCD	0xdbfbeeb0
	DCD	0x107a
	DCD	0x0
	DCD	0x12000000
	DCD	0xbfdfd180
	DCD	0x35
	DCD	0x0
	DCD	0x8c1b0000
	DCD	0x208cd3d9
	DCD	0x0
	DCD	0xd6992600
	DCD	0x1a88d7
	DCD	0x0
	DCD	0x95351200
	DCD	0xdedfdbc7
	DCD	0x84b3c8d8
	DCD	0x13
	DCD	0x20200000
	DCD	0x20
	DCD	0x0
	DCD	0x202020
	DCD	0x0
	DCD	0x0
	DCD	0x0
	DCD	0x0
	DCD	0x0
	DCD	0x0
	DCD	0x0
	DCD	0x0
	DCD	0x0
	DCD	0x0
	DCD	0x0
	DCD	0x0
	DCD	0x0
	DCD	0x0
	DCD	0x0
	DCD	0x0
	DCD	0x0
	DCD	0x0
	DCD	0x0
	DCD	0x0
	DCD	0x0
	DCD	0xffdf2000
	DCD	0x20df
	DCD	0x20000000
	DCD	0x20dfffdf
	DCD	0x0
	DCD	0xffdf2000
	DCD	0x20df
	DCD	0x33000000
	DCD	0x33dcffdc
	DCD	0xfaf17e12
	DCD	0xfac136c1
	DCD	0x6a2092f2
	DCD	0x33dbffea
	DCD	0x0
	DCD	0x0
	DCD	0x0
	DCD	0x20dfdf20
	DCD	0x0
	DCD	0x0
	DCD	0x33000000
	DCD	0x99f2fcc7
	DCD	0xd000d2e
	DCD	0xfbf2992f
	DCD	0x32c4
	DCD	0x0
	DCD	0x1a000000
	DCD	0xf4fff9b8
	DCD	0x1591
	DCD	0x0
	DCD	0x39000000
	DCD	0x6fdcfcc9
	DCD	0xd
	DCD	0xfbe57c10
	DCD	0x37c4
	DCD	0x0
	DCD	0xf5cd8523
	DCD	0xdfdfeff5
	DCD	0xc4efedde
	DCD	0x1e
	DCD	0xdfbf2000
	DCD	0x20bf
	DCD	0x20000000
	DCD	0x20bfdfbf
	DCD	0x0
	DCD	0x0
	DCD	0x0
	DCD	0x0
	DCD	0x0
	DCD	0x0
	DCD	0x0
	DCD	0x0
	DCD	0x0
	DCD	0x0
	DCD	0x0
	DCD	0x0
	DCD	0x0
	DCD	0x0
	DCD	0x0
	DCD	0x0
	DCD	0x0
	DCD	0x0
	DCD	0x0
	DCD	0x0
	DCD	0x0
	DCD	0xffdf2000
	DCD	0x20df
	DCD	0x20000000
	DCD	0x20dfffdf
	DCD	0x0
	DCD	0xffdf2000
	DCD	0x20df
	DCD	0x86130000
	DCD	0x1dcdfcf2
	DCD	0xfddd3100
	DCD	0xfdd349d3
	DCD	0x2b0d67ea
	DCD	0x86f2fdd1
	DCD	0x13
	DCD	0x0
	DCD	0x0
	DCD	0x20dfdf20
	DCD	0x0
	DCD	0x0
	DCD	0x8f150000
	DCD	0x32c5fbf2
	DCD	0x0
	DCD	0xfbc53200
	DCD	0x158ff1
	DCD	0x0
	DCD	0x34000000
	DCD	0xfcfffed6
	DCD	0x2dc9
	DCD	0x0
	DCD	0x12000000
	DCD	0xbdfae884
	DCD	0x32
	DCD	0xe0fcc739
	DCD	0x107a
	DCD	0x12000000
	DCD	0xeefee285
	DCD	0x202f78b7
	DCD	0x9aae7f31
	DCD	0x19
	DCD	0xffdf2000
	DCD	0x20df
	DCD	0x20000000
	DCD	0x20dfffdf
	DCD	0x0
	DCD	0x0
	DCD	0x0
	DCD	0x0
	DCD	0x0
	DCD	0x0
	DCD	0x0
	DCD	0x0
	DCD	0x0
	DCD	0x0
	DCD	0x0
	DCD	0x0
	DCD	0x0
	DCD	0x0
	DCD	0x0
	DCD	0x0
	DCD	0x0
	DCD	0x0
	DCD	0x0
	DCD	0x0
	DCD	0x0
	DCD	0xffdf2000
	DCD	0x35df
	DCD	0x31000000
	DCD	0x33dfffdf
	DCD	0x0
	DCD	0xffdf3300
	DCD	0x20db
	DCD	0xb4190000
	DCD	0x19b2f8f8
	DCD	0xfdd21e00
	DCD	0xfdea8bea
	DCD	0x19002bd3
	DCD	0xb4f8f8b5
	DCD	0x19
	DCD	0x0
	DCD	0x0
	DCD	0x20dfdf20
	DCD	0x0
	DCD	0x0
	DCD	0xc01b0000
	DCD	0x159df4fa
	DCD	0x0
	DCD	0xf49d1500
	DCD	0x1bbffa
	DCD	0x0
	DCD	0x90150000
	DCD	0xfffdfff3
	DCD	0x1077ec
	DCD	0x0
	DCD	0x0
	DCD	0xf2f49e29
	DCD	0x31002398
	DCD	0x92eef8ac
	DCD	0x24
	DCD	0x35000000
	DCD	0x93eefecd
	DCD	0x102f
	DCD	0x19191200
	DCD	0x0
	DCD	0xffdf2000
	DCD	0x20df
	DCD	0x20000000
	DCD	0x20dfffdf
	DCD	0x0
	DCD	0x1b120000
	DCD	0x191e2020
	DCD	0x201c0000
	DCD	0x20
	DCD	0x0
	DCD	0x0
	DCD	0x0
	DCD	0x0
	DCD	0x0
	DCD	0x0
	DCD	0x0
	DCD	0x0
	DCD	0x0
	DCD	0x0
	DCD	0x0
	DCD	0x0
	DCD	0x0
	DCD	0x0
	DCD	0x0
	DCD	0x0
	DCD	0xffdf2000
	DCD	0x1592f4
	DCD	0x81120000
	DCD	0x8af2fff1
	DCD	0x13
	DCD	0xfbf28913
	DCD	0x1cc7
	DCD	0xcd1d0000
	DCD	0x127ff1fc
	DCD	0xf9bb1a00
	DCD	0xfaf7c9f7
	DCD	0x13001bc2
	DCD	0xcdfcf286
	DCD	0x1d
	DCD	0x20200000
	DCD	0x20202020
	DCD	0x40dfdf40
	DCD	0x20202020
	DCD	0x2020
	DCD	0xd71f0000
	DCD	0xd69ecfe
	DCD	0x0
	DCD	0xec690d00
	DCD	0x1ed3fd
	DCD	0x0
	DCD	0xc5290000
	DCD	0xfde9fdfb
	DCD	0x19b2f8
	DCD	0x0
	DCD	0x0
	DCD	0xfbc13500
	DCD	0x99336fdf
	DCD	0x2fa8f6f1
	DCD	0x0
	DCD	0x95160000
	DCD	0x2fb7f9f5
	DCD	0x0
	DCD	0x0
	DCD	0x0
	DCD	0xffdf2000
	DCD	0x20df
	DCD	0x20000000
	DCD	0x20dfffdf
	DCD	0x0
	DCD	0xbe812600
	DCD	0xa1d1ddda
	DCD	0xdbad2c38
	DCD	0x20bf
	DCD	0x20200000
	DCD	0x20202020
	DCD	0x20202020
	DCD	0x202020
	DCD	0x0
	DCD	0x0
	DCD	0x0
	DCD	0x0
	DCD	0x0
	DCD	0x0
	DCD	0x0
	DCD	0x0
	DCD	0x0
	DCD	0x0
	DCD	0x0
	DCD	0x0
	DCD	0xffdf2000
	DCD	0x123cd0fe
	DCD	0xbe350000
	DCD	0xc8f6fffa
	DCD	0xd00103a
	DCD	0xf5fbc436
	DCD	0x1695
	DCD	0xdc350000
	DCD	0x31daff
	DCD	0xf49d1500
	DCD	0xf7fdeffd
	DCD	0x18ab
	DCD	0xdcffdb33
	DCD	0x35
	DCD	0xdfbf2000
	DCD	0xdfdfdfdf
	DCD	0xdfffffdf
	DCD	0xdfdfdfdf
	DCD	0x20bfdf
	DCD	0xde200000
	DCD	0x2ddfff
	DCD	0x0
	DCD	0xdf2d0000
	DCD	0x20ddff
	DCD	0x0
	DCD	0xe86a0d00
	DCD	0xeca4ecff
	DCD	0x34d5fe
	DCD	0x0
	DCD	0x0
	DCD	0xde700d00
	DCD	0xe59acdfa
	DCD	0x37c4fb
	DCD	0x0
	DCD	0xc71c0000
	DCD	0x1078effb
	DCD	0x0
	DCD	0x0
	DCD	0x0
	DCD	0xffdf2000
	DCD	0x20df
	DCD	0x20000000
	DCD	0x20dfffdf
	DCD	0x0
	DCD	0xfae69222
	DCD	0xe9dddff9
	DCD	0xfbd997c9
	DCD	0x20df
	DCD	0xdfbd2000
	DCD	0xdfdfdfdf
	DCD	0xdfdfdfdf
	DCD	0x20bfdfdf
	DCD	0x0
	DCD	0x0
	DCD	0x0
	DCD	0x0
	DCD	0x0
	DCD	0x0
	DCD	0x0
	DCD	0x0
	DCD	0x0
	DCD	0x0
	DCD	0x0
	DCD	0x0
	DCD	0xffdf2000
	DCD	0x83c2e8fe
	DCD	0xf4a83a31
	DCD	0xedc8f3ff
	DCD	0x6e3c7bc4
	DCD	0xcffef5b5
	DCD	0x35
	DCD	0xf48d1500
	DCD	0x1bc3fa
	DCD	0xee731000
	DCD	0xf1fffdff
	DCD	0x127e
	DCD	0xf4fbc71c
	DCD	0x158d
	DCD	0xdfbf2000
	DCD	0xdfdfdfdf
	DCD	0xdfffffdf
	DCD	0xdfdfdfdf
	DCD	0x20bfdf
	DCD	0xdd200000
	DCD	0x2ddfff
	DCD	0x0
	DCD	0xdf2d0000
	DCD	0x20deff
	DCD	0x0
	DCD	0xf5a41600
	DCD	0xc148c1fa
	DCD	0x158ff3fa
	DCD	0x0
	DCD	0x0
	DCD	0x92220000
	DCD	0xfeeffbef
	DCD	0x107ae2
	DCD	0x0
	DCD	0xdb200000
	DCD	0x204fdfff
	DCD	0x20202020
	DCD	0x20202020
	DCD	0x20
	DCD	0xffdf2000
	DCD	0x20df
	DCD	0x20000000
	DCD	0x20dfffdf
	DCD	0xd000000
	DCD	0xf5fede6c
	DCD	0x83313aa8
	DCD	0xfceedfc3
	DCD	0x20df
	DCD	0xfbc41d00
	DCD	0xdfdffcff
	DCD	0xdfdfdfdf
	DCD	0x20bfdfdf
	DCD	0x0
	DCD	0x0
	DCD	0x0
	DCD	0x0
	DCD	0x0
	DCD	0x0
	DCD	0x0
	DCD	0x0
	DCD	0x0
	DCD	0x0
	DCD	0x0
	DCD	0x0
	DCD	0xffdf2000
	DCD	0xe6c19aef
	DCD	0xfcf9dfdc
	DCD	0xa34da8ee
	DCD	0xecdee9e7
	DCD	0x8ce2faf9
	DCD	0x13
	DCD	0xf9bb1a00
	DCD	0x16a4f5
	DCD	0xd82f0000
	DCD	0xdcfffffe
	DCD	0x31
	DCD	0xf9f5a516
	DCD	0x1abb
	DCD	0x20200000
	DCD	0x20202020
	DCD	0x40dfdf40
	DCD	0x20202020
	DCD	0x2020
	DCD	0xd31e0000
	DCD	0xd69ecfd
	DCD	0x0
	DCD	0xec690d00
	DCD	0x1fd8fe
	DCD	0x0
	DCD	0xfdce2e00
	DCD	0x8f2a8ff3
	DCD	0x28c1faf3
	DCD	0x0
	DCD	0x0
	DCD	0x30000000
	DCD	0xf5fffac3
	DCD	0x2698
	DCD	0x0
	DCD	0xdf200000
	DCD	0xdfdfffff
	DCD	0xdfdfdfdf
	DCD	0xdfdfdfdf
	DCD	0x20bf
	DCD	0xffdf2000
	DCD	0x20df
	DCD	0x20000000
	DCD	0x20dfffdf
	DCD	0x19000000
	DCD	0xc4fbf7ad
	DCD	0x12000036
	DCD	0xfffac63a
	DCD	0x20df
	DCD	0xe07a1000
	DCD	0x2058d4fb
	DCD	0x20202020
	DCD	0x202020
	DCD	0x0
	DCD	0x1f1a0000
	DCD	0x121b2020
	DCD	0x20201a00
	DCD	0x0
	DCD	0x1e1c1600
	DCD	0x1c202020
	DCD	0x16
	DCD	0x0
	DCD	0x0
	DCD	0x0
	DCD	0x0
	DCD	0xdfbf2000
	DCD	0x9c352fbf
	DCD	0xc9dcdccc
	DCD	0x2a002f91
	DCD	0xded6b880
	DCD	0x2379bcda
	DCD	0x0
	DCD	0xddb21e00
	DCD	0x1074cf
	DCD	0xaf1c0000
	DCD	0xb4dcdfdb
	DCD	0x1d
	DCD	0xddcf7410
	DCD	0x1eb2
	DCD	0x0
	DCD	0x0
	DCD	0x20dfdf20
	DCD	0x0
	DCD	0x0
	DCD	0xbf1b0000
	DCD	0x159df4fa
	DCD	0x0
	DCD	0xf49d1500
	DCD	0x1cc4fb
	DCD	0x0
	DCD	0xfeed7810
	DCD	0x340034d5
	DCD	0x6ce7fed5
	DCD	0xd
	DCD	0x0
	DCD	0x26000000
	DCD	0xdffff5b3
	DCD	0x53
	DCD	0x0
	DCD	0xdd200000
	DCD	0xdfdfffff
	DCD	0xdfdfdfdf
	DCD	0xffffdfdf
	DCD	0x20df
	DCD	0xffdf2000
	DCD	0x20df
	DCD	0x20000000
	DCD	0x20dfffdf
	DCD	0x1c000000
	DCD	0x89f2fbc9
	DCD	0x13
	DCD	0xfff28a13
	DCD	0x20df
	DCD	0x92240000
	DCD	0x33acf8ee
	DCD	0x0
	DCD	0x0
	DCD	0x0
	DCD	0xd6a73700
	DCD	0x81bedade
	DCD	0xbfd9a444
	DCD	0x20
	DCD	0xd4c59116
	DCD	0xc7dbdfdd
	DCD	0x3395
	DCD	0x0
	DCD	0x202020
	DCD	0x0
	DCD	0x0
	DCD	0x20200000
	DCD	0x18000020
	DCD	0x1d20201d
	DCD	0x15
	DCD	0x201f1a12
	DCD	0x101b20
	DCD	0x0
	DCD	0x201e0000
	DCD	0x1020
	DCD	0x1c000000
	DCD	0x1d202020
	DCD	0x0
	DCD	0x20201000
	DCD	0x1e
	DCD	0x0
	DCD	0x0
	DCD	0x20dfdf20
	DCD	0x0
	DCD	0x0
	DCD	0x8f150000
	DCD	0x31c5fbf1
	DCD	0x0
	DCD	0xfbc53100
	DCD	0x1590f2
	DCD	0x0
	DCD	0xf8f9b61a
	DCD	0x190019af
	DCD	0xa9f7f8b2
	DCD	0x18
	DCD	0x0
	DCD	0x7a100000
	DCD	0xfcf4fee2
	DCD	0x37b4
	DCD	0x0
	DCD	0xd21e0000
	DCD	0x2053dffd
	DCD	0x20202020
	DCD	0xffdf4d20
	DCD	0x20db
	DCD	0xffdf2000
	DCD	0x20df
	DCD	0x20000000
	DCD	0x20dfffdf
	DCD	0x20000000
	DCD	0x33dfffdb
	DCD	0x0
	DCD	0xffdf3300
	DCD	0x20df
	DCD	0x2f000000
	DCD	0x9ef2f7a8
	DCD	0x29
	DCD	0x0
	DCD	0x0
	DCD	0xfbf6b437
	DCD	0xe5e7dfec
	DCD	0xdffbe3bf
	DCD	0x20
	DCD	0xeff2bd1c
	DCD	0xf9efdfdf
	DCD	0x37b4f3
	DCD	0x20000000
	DCD	0x20bfdfbf
	DCD	0x0
	DCD	0x0
	DCD	0x0
	DCD	0x0
	DCD	0x0
	DCD	0x0
	DCD	0x0
	DCD	0x0
	DCD	0x0
	DCD	0x0
	DCD	0x0
	DCD	0x0
	DCD	0x0
	DCD	0x0
	DCD	0x0
	DCD	0x0
	DCD	0x0
	DCD	0x0
	DCD	0x20dfdf20
	DCD	0x0
	DCD	0x0
	DCD	0x32000000
	DCD	0x93f0fbc4
	DCD	0xd000d2d
	DCD	0xfdf0932d
	DCD	0x33c7
	DCD	0x0
	DCD	0xe9fed634
	DCD	0x10000d6d
	DCD	0xcffdec77
	DCD	0x30
	DCD	0x0
	DCD	0xc4370000
	DCD	0xeab3eafb
	DCD	0x2fa8f6
	DCD	0x0
	DCD	0xb71a0000
	DCD	0x1389f2f9
	DCD	0x0
	DCD	0xfbec690d
	DCD	0x1cc9
	DCD	0xffdf2000
	DCD	0x20df
	DCD	0x20000000
	DCD	0x20dfffdf
	DCD	0x20000000
	DCD	0x20dfffdf
	DCD	0x0
	DCD	0xffdf2000
	DCD	0x20df
	DCD	0x0
	DCD	0xe8fdc738
	DCD	0x1285
	DCD	0x0
	DCD	0x1a000000
	DCD	0xd1fcf6a7
	DCD	0xb96f3a71
	DCD	0xdffffbed
	DCD	0x20
	DCD	0x80b08f16
	DCD	0xd17b2f31
	DCD	0x1aa8f6fc
	DCD	0x20000000
	DCD	0x20dfffdf
	DCD	0x0
	DCD	0x0
	DCD	0x0
	DCD	0x0
	DCD	0x0
	DCD	0x0
	DCD	0x0
	DCD	0x0
	DCD	0x0
	DCD	0x0
	DCD	0x0
	DCD	0x0
	DCD	0x0
	DCD	0x0
	DCD	0x0
	DCD	0x0
	DCD	0x0
	DCD	0x0
	DCD	0x20dfdf20
	DCD	0x0
	DCD	0x0
	DCD	0x10000000
	DCD	0xecfcdb7a
	DCD	0x6c3a6cab
	DCD	0xe0feecab
	DCD	0x107c
	DCD	0x15000000
	DCD	0xc9fcf38f
	DCD	0x2a
	DCD	0xeffcc92d
	DCD	0x1280
	DCD	0x0
	DCD	0xf6a82f00
	DCD	0x994199f1
	DCD	0x2493eef1
	DCD	0x0
	DCD	0x80120000
	DCD	0x31c4fbed
	DCD	0x0
	DCD	0xf8f49e15
	DCD	0x19ad
	DCD	0xffdf2000
	DCD	0x33df
	DCD	0x33000000
	DCD	0x20dbffdf
	DCD	0x20000000
	DCD	0x20dfffdf
	DCD	0x0
	DCD	0xffdf2000
	DCD	0x20df
	DCD	0x0
	DCD	0xfee57c10
	DCD	0x3bcd
	DCD	0x0
	DCD	0x1f000000
	DCD	0x7beffed6
	DCD	0x350d001d
	DCD	0xdffff9a8
	DCD	0x20
	DCD	0x121a1600
	DCD	0x711d0000
	DCD	0x20d9ffec
	DCD	0x20000000
	DCD	0x20dfffdf
	DCD	0x0
	DCD	0x0
	DCD	0x0
	DCD	0x0
	DCD	0x0
	DCD	0x0
	DCD	0x0
	DCD	0x0
	DCD	0x0
	DCD	0x0
	DCD	0x0
	DCD	0x0
	DCD	0x0
	DCD	0x0
	DCD	0x0
	DCD	0x0
	DCD	0x0
	DCD	0x0
	DCD	0x20dfdf20
	DCD	0x0
	DCD	0x0
	DCD	0x0
	DCD	0xf2c77b1f
	DCD	0xecdfecf3
	DCD	0x85cdf6f3
	DCD	0x21
	DCD	0x1b000000
	DCD	0x91f3fac1
	DCD	0x15
	DCD	0xf9f39115
	DCD	0x1ab9
	DCD	0x0
	DCD	0xf8ee9224
	DCD	0x310031ac
	DCD	0x7de4f8ac
	DCD	0x10
	DCD	0x2e000000
	DCD	0x93f0fabd
	DCD	0x1000002b
	DCD	0xe4fdcd3b
	DCD	0xd6d
	DCD	0xffdf2000
	DCD	0x138af2
	DCD	0x89130000
	DCD	0x1cc8fbf2
	DCD	0x20000000
	DCD	0x20dfffdf
	DCD	0x0
	DCD	0xffdf2000
	DCD	0x20df
	DCD	0x0
	DCD	0xf1992600
	DCD	0x34b0fa
	DCD	0x0
	DCD	0x20000000
	DCD	0x3cdfffdc
	DCD	0x0
	DCD	0xdfffdf3a
	DCD	0x20
	DCD	0x0
	DCD	0x42000000
	DCD	0x20ddffdf
	DCD	0x20000000
	DCD	0x20dfffdf
	DCD	0x0
	DCD	0x0
	DCD	0x0
	DCD	0x1c150000
	DCD	0x1b1f2020
	DCD	0x15
	DCD	0x0
	DCD	0x0
	DCD	0x1c1e2020
	DCD	0x1218
	DCD	0x0
	DCD	0x0
	DCD	0x0
	DCD	0x0
	DCD	0x0
	DCD	0x0
	DCD	0x0
	DCD	0x0
	DCD	0x20bfbf20
	DCD	0x0
	DCD	0x0
	DCD	0x0
	DCD	0x90331000
	DCD	0xdbdfdbc5
	DCD	0x12379bc8
	DCD	0x0
	DCD	0x36000000
	DCD	0x34d6feda
	DCD	0x0
	DCD	0xfed63400
	DCD	0x35d9
	DCD	0x10000000
	DCD	0xc7fce07a
	DCD	0x39
	DCD	0xcbfcc739
	DCD	0x3c
	DCD	0xd000000
	DCD	0xeafcd86f
	DCD	0x7b2f3699
	DCD	0x9ef1fac4
	DCD	0x25
	DCD	0xffdf2000
	DCD	0x123ac7fc
	DCD	0xc4360d00
	DCD	0x18a8f6fb
	DCD	0x20000000
	DCD	0x20dfffdf
	DCD	0x0
	DCD	0xffdf2000
	DCD	0x20df
	DCD	0x0
	DCD	0xac310000
	DCD	0x299ef3f8
	DCD	0x0
	DCD	0x1e000000
	DCD	0x6fecfdcf
	DCD	0xd
	DCD	0xdfffdf20
	DCD	0x20
	DCD	0x0
	DCD	0x932b0000
	DCD	0x1ed1fdf4
	DCD	0x20000000
	DCD	0x20dfffdf
	DCD	0x0
	DCD	0x0
	DCD	0x0
	DCD	0xc5903100
	DCD	0xc0d7dedb
	DCD	0x318f
	DCD	0x0
	DCD	0x20000000
	DCD	0xc6d4ddbf
	DCD	0x15307eac
	DCD	0x0
	DCD	0x0
	DCD	0x0
	DCD	0x0
	DCD	0x0
	DCD	0x0
	DCD	0x0
	DCD	0x0
	DCD	0x202000
	DCD	0x0
	DCD	0x0
	DCD	0x0
	DCD	0x15000000
	DCD	0x2020201c
	DCD	0x181c
	DCD	0x0
	DCD	0x96160000
	DCD	0x1ab6f9f5
	DCD	0x0
	DCD	0xf9b61a00
	DCD	0x1591f4
	DCD	0x37000000
	DCD	0x7ce5fbc4
	DCD	0x10
	DCD	0xfbe47c10
	DCD	0x37b4
	DCD	0x0
	DCD	0xf4c77b1d
	DCD	0xefdfdff2
	DCD	0x32a8edf8
	DCD	0x0
	DCD	0xffdf2000
	DCD	0x83c4e6fe
	DCD	0xf5b56e3e
	DCD	0xd6bdefe
	DCD	0x20000000
	DCD	0x20dfffdf
	DCD	0x0
	DCD	0xffdf2000
	DCD	0x20df
	DCD	0x0
	DCD	0x39000000
	DCD	0x85e8fdc7
	DCD	0x12
	DCD	0x18000000
	DCD	0xb9faf49c
	DCD	0x101537
	DCD	0xdfffdf20
	DCD	0x20
	DCD	0x0
	DCD	0xea993415
	DCD	0x19a1f1ff
	DCD	0x20000000
	DCD	0x20dfffdf
	DCD	0x0
	DCD	0x0
	DCD	0x0
	DCD	0xf7f0b039
	DCD	0xf6ebdfec
	DCD	0x39b0f0
	DCD	0x0
	DCD	0x20000000
	DCD	0xeddddfbf
	DCD	0x91cdedf0
	DCD	0x31
	DCD	0x0
	DCD	0x0
	DCD	0x0
	DCD	0x0
	DCD	0x0
	DCD	0x0
	DCD	0x0
	DCD	0x0
	DCD	0x0
	DCD	0x0
	DCD	0x0
	DCD	0x0
	DCD	0x0
	DCD	0x0
	DCD	0x0
	DCD	0xab1d0000
	DCD	0x1078cfdc
	DCD	0x0
	DCD	0xcf781000
	DCD	0x1da9dc
	DCD	0x881a0000
	DCD	0x2699d6d7
	DCD	0x0
	DCD	0xd4932400
	DCD	0x1a88d7
	DCD	0x0
	DCD	0x95341000
	DCD	0xdadfdbc7
	DCD	0x2d88c0
	DCD	0x0
	DCD	0xffdf2000
	DCD	0xe9c99cef
	DCD	0xfaf9ecdd
	DCD	0x2292e4
	DCD	0x20000000
	DCD	0x20dfffdf
	DCD	0x0
	DCD	0xffdf2000
	DCD	0x20df
	DCD	0x0
	DCD	0x10000000
	DCD	0xcdfee47c
	DCD	0x3b
	DCD	0x0
	DCD	0xf7f8b435
	DCD	0x2f739fc5
	DCD	0xdfffdf40
	DCD	0x20
	DCD	0x31000000
	DCD	0xfbf4cd91
	DCD	0x32a3ea
	DCD	0x20000000
	DCD	0x20dfffdf
	DCD	0x0
	DCD	0x0
	DCD	0x35000000
	DCD	0xb9f6f9b4
	DCD	0xb96f3a6f
	DCD	0x35b4f9f4
	DCD	0x0
	DCD	0x0
	DCD	0x7f312020
	DCD	0xf0f3d1b3
	DCD	0x39b0
	DCD	0x0
	DCD	0x0
	DCD	0x0
	DCD	0x0
	DCD	0x0
	DCD	0x0
	DCD	0x0
	DCD	0x0
	DCD	0x0
	DCD	0x0
	DCD	0x0
	DCD	0x0
	DCD	0x0
	DCD	0x0
	DCD	0x0
	DCD	0x1d000000
	DCD	0x102020
	DCD	0x0
	DCD	0x20100000
	DCD	0x1d20
	DCD	0x1a000000
	DCD	0x162020
	DCD	0x0
	DCD	0x20150000
	DCD	0x1a20
	DCD	0x0
	DCD	0x16000000
	DCD	0x2020201c
	DCD	0x131b
	DCD	0x0
	DCD	0xdfbf2000
	DCD	0xa1382fbf
	DCD	0xbcdaddd1
	DCD	0x2479
	DCD	0x20000000
	DCD	0x20dfffdf
	DCD	0x0
	DCD	0xffdf2000
	DCD	0x20df
	DCD	0x0
	DCD	0x0
	DCD	0xfaee9324
	DCD	0x34b0
	DCD	0x0
	DCD	0xe7ac3800
	DCD	0xdfedf0f3
	DCD	0xdfffffdf
	DCD	0x20
	DCD	0xb0390000
	DCD	0xc2edfaf0
	DCD	0x2a82
	DCD	0x20000000
	DCD	0x20dfffdf
	DCD	0x0
	DCD	0x0
	DCD	0x9d180000
	DCD	0x36b9faf4
	DCD	0x350d000d
	DCD	0x9df4f8a8
	DCD	0x18
	DCD	0x0
	DCD	0x12000000
	DCD	0xe69e3619
	DCD	0x39b4f8
	DCD	0x0
	DCD	0x0
	DCD	0x0
	DCD	0x0
	DCD	0x0
	DCD	0x0
	DCD	0x0
	DCD	0x0
	DCD	0x0
	DCD	0x0
	DCD	0x0
	DCD	0x0
	DCD	0x0
	DCD	0x0
	DCD	0x0
	DCD	0x0
	DCD	0x0
	DCD	0x0
	DCD	0x0
	DCD	0x0
	DCD	0x0
	DCD	0x0
	DCD	0x0
	DCD	0x0
	DCD	0x0
	DCD	0x0
	DCD	0x0
	DCD	0x0
	DCD	0x0
	DCD	0x0
	DCD	0x20200000
	DCD	0x19000020
	DCD	0x1b20201e
	DCD	0x10
	DCD	0x20000000
	DCD	0x20dfffdf
	DCD	0x0
	DCD	0xffdf2000
	DCD	0x20df
	DCD	0x0
	DCD	0x0
	DCD	0xf6a82f00
	DCD	0x299ef3
	DCD	0x0
	DCD	0x6c280000
	DCD	0xddd4c6a8
	DCD	0xdfffffdf
	DCD	0x20
	DCD	0xf9b43700
	DCD	0x2e83c6f6
	DCD	0x12
	DCD	0x20000000
	DCD	0x20dfffdf
	DCD	0x0
	DCD	0x0
	DCD	0xd3320000
	DCD	0xd6fe7fe
	DCD	0x0
	DCD	0xd3fdd639
	DCD	0x32
	DCD	0x0
	DCD	0x0
	DCD	0x7d270000
	DCD	0x31b0f8e0
	DCD	0x0
	DCD	0x0
	DCD	0x1b150000
	DCD	0x1d20201f
	DCD	0x18
	DCD	0x0
	DCD	0x0
	DCD	0x1d1a1200
	DCD	0x1d202020
	DCD	0xd19
	DCD	0x0
	DCD	0x0
	DCD	0x0
	DCD	0x0
	DCD	0x0
	DCD	0x0
	DCD	0x0
	DCD	0x0
	DCD	0x0
	DCD	0x0
	DCD	0x0
	DCD	0x0
	DCD	0x0
	DCD	0x0
	DCD	0x0
	DCD	0x0
	DCD	0x0
	DCD	0x0
	DCD	0x0
	DCD	0x0
	DCD	0x0
	DCD	0x0
	DCD	0x0
	DCD	0x0
	DCD	0x20000000
	DCD	0x20dfffdf
	DCD	0x0
	DCD	0xffdf2000
	DCD	0x20df
	DCD	0x20000000
	DCD	0x20202020
	DCD	0xd4572020
	DCD	0x1285e8fc
	DCD	0x0
	DCD	0xd000000
	DCD	0x201e1c18
	DCD	0xdcffdf4f
	DCD	0x20
	DCD	0xf9f6a81a
	DCD	0x1237a8
	DCD	0x0
	DCD	0x20000000
	DCD	0x2ddfffdf
	DCD	0x0
	DCD	0x0
	DCD	0xf2871300
	DCD	0x28c3fa
	DCD	0x0
	DCD	0xf2f9bc1a
	DCD	0x1386
	DCD	0x0
	DCD	0x0
	DCD	0x24000000
	DCD	0x91f0f092
	DCD	0x15
	DCD	0x0
	DCD	0xc08f320d
	DCD	0xccdcded7
	DCD	0x13379c
	DCD	0x0
	DCD	0x0
	DCD	0xceb7802e
	DCD	0xcddcdfdc
	DCD	0x266dae
	DCD	0x0
	DCD	0x0
	DCD	0x0
	DCD	0x0
	DCD	0x0
	DCD	0x0
	DCD	0x0
	DCD	0x0
	DCD	0x0
	DCD	0x0
	DCD	0x0
	DCD	0x0
	DCD	0x0
	DCD	0x0
	DCD	0x0
	DCD	0x0
	DCD	0x0
	DCD	0x0
	DCD	0x0
	DCD	0x0
	DCD	0x0
	DCD	0x0
	DCD	0x0
	DCD	0x0
	DCD	0x20000000
	DCD	0x20bfdfbf
	DCD	0x0
	DCD	0xdfbf2000
	DCD	0x20bf
	DCD	0xbf200000
	DCD	0xdfdfdfdf
	DCD	0xfcdfdfdf
	DCD	0x1fcdfeff
	DCD	0x0
	DCD	0x0
	DCD	0x10000000
	DCD	0xcdfcef76
	DCD	0x1d
	DCD	0xdfffd920
	DCD	0x3a
	DCD	0x0
	DCD	0x20000000
	DCD	0x69ecffdf
	DCD	0xd
	DCD	0x0
	DCD	0xf9b71a00
	DCD	0x16a6f5
	DCD	0x0
	DCD	0xf8f49f15
	DCD	0x19b3
	DCD	0x0
	DCD	0x1f1b1500
	DCD	0x191d2020
	DCD	0xcdf9c53e
	DCD	0x2e
	DCD	0xd000000
	DCD	0xf4f1c170
	DCD	0xf1dfdfee
	DCD	0x278ccff5
	DCD	0x0
	DCD	0x39000000
	DCD	0xf1f7edb0
	DCD	0xf0dfdfdf
	DCD	0x33a3e5f5
	DCD	0x0
	DCD	0x0
	DCD	0x201f
	DCD	0x201f00
	DCD	0x0
	DCD	0x0
	DCD	0x20202000
	DCD	0x20202020
	DCD	0x20202020
	DCD	0x202020
	DCD	0x0
	DCD	0x1f1c1a16
	DCD	0x1f202020
	DCD	0xd161c
	DCD	0x0
	DCD	0x10000000
	DCD	0x201e1c18
	DCD	0x1a1e2020
	DCD	0x12
	DCD	0x0
	DCD	0x0
	DCD	0x0
	DCD	0x0
	DCD	0x0
	DCD	0x0
	DCD	0x202020
	DCD	0x0
	DCD	0x20200000
	DCD	0x20
	DCD	0xbf200000
	DCD	0xdfdfdfdf
	DCD	0xdfdfdfdf
	DCD	0x20bedfdf
	DCD	0x0
	DCD	0x121a1800
	DCD	0x2f000000
	DCD	0xaef7f7ae
	DCD	0x19
	DCD	0xdfffd920
	DCD	0x10000d3b
	DCD	0x1618
	DCD	0x20000000
	DCD	0x9ff4ffdf
	DCD	0x15
	DCD	0x0
	DCD	0xfbc91c00
	DCD	0x127cf1
	DCD	0x0
	DCD	0xfbf17b12
	DCD	0x1cc8
	DCD	0x0
	DCD	0xd7c08f30
	DCD	0xaecddcde
	DCD	0xedf4b382
	DCD	0x1077
	DCD	0x3b000000
	DCD	0xb7f0fbc9
	DCD	0x92352f78
	DCD	0x8ce6fce0
	DCD	0x13
	DCD	0xb4350000
	DCD	0x91cdfaf9
	DCD	0x8a332035
	DCD	0xa8f2f9c8
	DCD	0x2f
	DCD	0x1f000000
	DCD	0x31beb8
	DCD	0x31beb81f
	DCD	0x0
	DCD	0x0
	DCD	0xdfdfbd20
	DCD	0xdfdfdfdf
	DCD	0xdfdfdfdf
	DCD	0x20bfdfdf
	DCD	0x16000000
	DCD	0xd8c9ba8e
	DCD	0xd8dedfde
	DCD	0x256aa2c6
	DCD	0x0
	DCD	0x73100000
	DCD	0xddd4c6aa
	DCD	0xb7d2dddf
	DCD	0xd2e80
	DCD	0x0
	DCD	0x1c000000
	DCD	0x122020
	DCD	0x0
	DCD	0x0
	DCD	0x0
	DCD	0x0
	DCD	0x0
	DCD	0x0
	DCD	0x0
	DCD	0x20000000
	DCD	0x20202020
	DCD	0x20202020
	DCD	0x202020
	DCD	0x0
	DCD	0x80b19718
	DCD	0x9e382031
	DCD	0x6cdefeef
	DCD	0xd
	DCD	0xfaf6a81a
	DCD	0x763c6fb9
	DCD	0x168ea4
	DCD	0x20000000
	DCD	0xcffeffdf
	DCD	0x133d
	DCD	0x0
	DCD	0xfed81f00
	DCD	0x31df
	DCD	0x0
	DCD	0xfedf3100
	DCD	0x1fd8
	DCD	0x36000000
	DCD	0xf3f9efac
	DCD	0xede9dfdf
	DCD	0xf8f5cee2
	DCD	0x19af
	DCD	0xb02e0000
	DCD	0x3099f2fa
	DCD	0x24000010
	DCD	0xcffde37c
	DCD	0x37
	DCD	0xf49c1800
	DCD	0x153bc6fc
	DCD	0x13000000
	DCD	0xeefbc039
	DCD	0x1591
	DCD	0x1c000000
	DCD	0x127bedc9
	DCD	0x7bedc91c
	DCD	0x12
	DCD	0x0
	DCD	0xfffab41d
	DCD	0xdfdfeffe
	DCD	0xdfdfdfdf
	DCD	0x20bfdfdf
	DCD	0x1b000000
	DCD	0xf0f2f0b8
	DCD	0xebdfdfdf
	DCD	0x9ee4f5f2
	DCD	0x32
	DCD	0xba1d0000
	DCD	0xdfedf0ef
	DCD	0xf4f1dfdf
	DCD	0x1d6fbded
	DCD	0x0
	DCD	0xa41c0000
	DCD	0x1282d1db
	DCD	0x0
	DCD	0x0
	DCD	0x0
	DCD	0x0
	DCD	0x0
	DCD	0x0
	DCD	0x0
	DCD	0x0
	DCD	0x0
	DCD	0x0
	DCD	0x0
	DCD	0x0
	DCD	0xedf0bd1e
	DCD	0xf5dfdfde
	DCD	0x2292e4f9
	DCD	0x0
	DCD	0xf4b43700
	DCD	0xeedfecf8
	DCD	0x1dc0ef
	DCD	0x20000000
	DCD	0xe6fdffdf
	DCD	0x20338bc8
	DCD	0x0
	DCD	0xffde2000
	DCD	0x20df
	DCD	0x0
	DCD	0xffdf2000
	DCD	0x20de
	DCD	0xac300000
	DCD	0x92d1fdf6
	DCD	0x9f692d35
	DCD	0xfbfff2d1
	DCD	0x1cc8
	DCD	0xed7f1200
	DCD	0x32c5fb
	DCD	0x0
	DCD	0xf6f7ad27
	DCD	0x189c
	DCD	0xfdcf1e00
	DCD	0x1283f1
	DCD	0x0
	DCD	0xfcef7a10
	DCD	0x1dc9
	DCD	0x1a000000
	DCD	0x159deebc
	DCD	0x9deebc1a
	DCD	0x15
	DCD	0x0
	DCD	0xfab43a00
	DCD	0x203f9ceb
	DCD	0x20202020
	DCD	0x202020
	DCD	0x15000000
	DCD	0x7ca6b88a
	DCD	0x6a2d2031
	DCD	0xf1fcd2a5
	DCD	0x2fa8
	DCD	0x91160000
	DCD	0x2f739eb8
	DCD	0xc0883320
	DCD	0x7bd8faef
	DCD	0x10
	DCD	0x89130000
	DCD	0x2cc2fbf1
	DCD	0x0
	DCD	0x0
	DCD	0x0
	DCD	0x0
	DCD	0x0
	DCD	0x0
	DCD	0x0
	DCD	0x0
	DCD	0x0
	DCD	0x0
	DCD	0x0
	DCD	0x0
	DCD	0xc8ad6b0d
	DCD	0xd2ddded8
	DCD	0x2478b5
	DCD	0x0
	DCD	0x9c350000
	DCD	0xd7dedccc
	DCD	0x158cc0
	DCD	0x20000000
	DCD	0xa3f1ffdf
	DCD	0xbfdfeddb
	DCD	0x20
	DCD	0xffdf2000
	DCD	0x20df
	DCD	0x0
	DCD	0xffdf2000
	DCD	0x20df
	DCD	0xef8f1500
	DCD	0x153ed1fe
	DCD	0x150d0000
	DCD	0xfefcc63c
	DCD	0x1fd8
	DCD	0xf8b21900
	DCD	0x159df4
	DCD	0x0
	DCD	0xfcef7610
	DCD	0x1dcc
	DCD	0xffdc2000
	DCD	0x31df
	DCD	0x0
	DCD	0xffdf2f00
	DCD	0x20dc
	DCD	0x18000000
	DCD	0x18aeefac
	DCD	0xaeefac18
	DCD	0x18
	DCD	0x0
	DCD	0xc73b0000
	DCD	0x107bdbfb
	DCD	0x0
	DCD	0x0
	DCD	0x0
	DCD	0x12161b15
	DCD	0xd000000
	DCD	0xfdcb3d16
	DCD	0x1591ee
	DCD	0x16000000
	DCD	0x10151b
	DCD	0x30130000
	DCD	0xc7fcee93
	DCD	0x34
	DCD	0x31000000
	DCD	0x78ebfdcd
	DCD	0x10
	DCD	0x0
	DCD	0x0
	DCD	0xd000000
	DCD	0x20201f1a
	DCD	0x20
	DCD	0x0
	DCD	0x0
	DCD	0x0
	DCD	0x0
	DCD	0x0
	DCD	0x0
	DCD	0x1c190d00
	DCD	0x1e20201f
	DCD	0x101a
	DCD	0x0
	DCD	0x18000000
	DCD	0x1f20201d
	DCD	0x151b
	DCD	0x20000000
	DCD	0x41bfdfbf
	DCD	0xbfdabc78
	DCD	0x20
	DCD	0xffde2000
	DCD	0x20df
	DCD	0x0
	DCD	0xffdf2000
	DCD	0x20df
	DCD	0xfac11b00
	DCD	0x159ff4
	DCD	0x0
	DCD	0xfff18312
	DCD	0x20de
	DCD	0xfccd1d00
	DCD	0xd69ec
	DCD	0x0
	DCD	0xffdf2f00
	DCD	0x20dc
	DCD	0xfed61f00
	DCD	0x35df
	DCD	0x0
	DCD	0xffdf3800
	DCD	0x20da
	DCD	0x13000000
	DCD	0x1bc0ee96
	DCD	0xc0ee9613
	DCD	0x1b
	DCD	0x0
	DCD	0x7b100000
	DCD	0x3bc7fbdb
	DCD	0x0
	DCD	0x0
	DCD	0x0
	DCD	0x0
	DCD	0x0
	DCD	0xf28b1300
	DCD	0x1dc9fc
	DCD	0x0
	DCD	0x0
	DCD	0x0
	DCD	0xf4f9b72f
	DCD	0x1695
	DCD	0x15000000
	DCD	0xb7f9f291
	DCD	0x27
	DCD	0x0
	DCD	0x0
	DCD	0x6d0d0000
	DCD	0xdfded6b4
	DCD	0x20bf
	DCD	0x1c1d0000
	DCD	0xd
	DCD	0x0
	DCD	0x0
	DCD	0x0
	DCD	0x0
	DCD	0x0
	DCD	0x0
	DCD	0x0
	DCD	0x0
	DCD	0x0
	DCD	0x0
	DCD	0x0
	DCD	0x0
	DCD	0x202020
	DCD	0x20201b10
	DCD	0x0
	DCD	0xfed81f00
	DCD	0x31df
	DCD	0x0
	DCD	0xffdf3100
	DCD	0x20db
	DCD	0xffda2000
	DCD	0xd69ec
	DCD	0x0
	DCD	0xffdf3100
	DCD	0x20df
	DCD	0xffdc2000
	DCD	0x2ddf
	DCD	0x0
	DCD	0xffdf2d00
	DCD	0x20de
	DCD	0xf8b41a00
	DCD	0x2492f4
	DCD	0x0
	DCD	0xfaf79e2e
	DCD	0x1bbe
	DCD	0x31200000
	DCD	0x3ccbed99
	DCD	0xcbed9931
	DCD	0x20203c
	DCD	0x0
	DCD	0x1f000000
	DCD	0xb4f9db7c
	DCD	0x3a
	DCD	0x0
	DCD	0x0
	DCD	0x0
	DCD	0x0
	DCD	0xdf330000
	DCD	0x20dcff
	DCD	0x0
	DCD	0x0
	DCD	0x0
	DCD	0xfbef7810
	DCD	0x1cc7
	DCD	0x0
	DCD	0xe6fdcf33
	DCD	0xd6d
	DCD	0x0
	DCD	0x0
	DCD	0xc9370000
	DCD	0xdfecfbf8
	DCD	0x20bf
	DCD	0xbba81d00
	DCD	0xd6a
	DCD	0x0
	DCD	0x0
	DCD	0x0
	DCD	0x0
	DCD	0x0
	DCD	0x0
	DCD	0x0
	DCD	0x0
	DCD	0x0
	DCD	0x0
	DCD	0x0
	DCD	0x0
	DCD	0x0
	DCD	0x0
	DCD	0x0
	DCD	0xfbc81c00
	DCD	0x127bf1
	DCD	0x0
	DCD	0xfbf17b12
	DCD	0x1cca
	DCD	0xffdf2000
	DCD	0x2ddf
	DCD	0x0
	DCD	0xffdf2f00
	DCD	0x20dc
	DCD	0xffdf2000
	DCD	0x35df
	DCD	0x0
	DCD	0xfeec6c0d
	DCD	0x1fd7
	DCD	0xd86d0d00
	DCD	0x277de0fc
	DCD	0x34160d0d
	DCD	0xe6ffed99
	DCD	0x1281
	DCD	0xdfbf2000
	DCD	0xdffbfff1
	DCD	0xfbfff1df
	DCD	0x20bfdfdf
	DCD	0x0
	DCD	0x0
	DCD	0xf9e07c1f
	DCD	0x38b4
	DCD	0x0
	DCD	0x0
	DCD	0x0
	DCD	0x0
	DCD	0xdf350000
	DCD	0x20daff
	DCD	0x0
	DCD	0x0
	DCD	0x0
	DCD	0xffdf2f00
	DCD	0x20db
	DCD	0x0
	DCD	0xf8f69c18
	DCD	0x19af
	DCD	0x0
	DCD	0x0
	DCD	0xf69c1800
	DCD	0x2d71d1fc
	DCD	0x20
	DCD	0xedab1800
	DCD	0x27b5
	DCD	0x0
	DCD	0x0
	DCD	0x0
	DCD	0x0
	DCD	0x0
	DCD	0x0
	DCD	0x0
	DCD	0x0
	DCD	0x0
	DCD	0x0
	DCD	0x0
	DCD	0x0
	DCD	0x0
	DCD	0x0
	DCD	0x0
	DCD	0xf8b31900
	DCD	0x15a0f4
	DCD	0x0
	DCD	0xf9f49f15
	DCD	0x1ab9
	DCD	0xffdb2000
	DCD	0x31df
	DCD	0x0
	DCD	0xfcef7310
	DCD	0x1dce
	DCD	0xffde2000
	DCD	0x2492f4
	DCD	0x0
	DCD	0xfaf7aa27
	DCD	0x1bbf
	DCD	0x7c1d0000
	DCD	0xabe6f5cb
	DCD	0xcea47779
	DCD	0x93e6fbf4
	DCD	0x26
	DCD	0xdfbf2000
	DCD	0xf1fffbdf
	DCD	0xfffbdfdf
	DCD	0x20bfdff1
	DCD	0x0
	DCD	0x0
	DCD	0xe9922400
	DCD	0x35acf8
	DCD	0x0
	DCD	0x0
	DCD	0x0
	DCD	0x0
	DCD	0xf4922600
	DCD	0x1bbefa
	DCD	0x0
	DCD	0x0
	DCD	0x0
	DCD	0xffdf2f00
	DCD	0x20de
	DCD	0x0
	DCD	0xfdd33700
	DCD	0x37d5
	DCD	0x0
	DCD	0x0
	DCD	0xfccc1d00
	DCD	0x1d7bef
	DCD	0x0
	DCD	0xee761000
	DCD	0xd6ae6
	DCD	0x0
	DCD	0x121c
	DCD	0x0
	DCD	0x0
	DCD	0x0
	DCD	0x0
	DCD	0x0
	DCD	0x0
	DCD	0x0
	DCD	0x1c1200
	DCD	0x0
	DCD	0x0
	DCD	0x0
	DCD	0x0
	DCD	0x0
	DCD	0xf1861300
	DCD	0x28c1fa
	DCD	0x0
	DCD	0xf4f9bc1a
	DCD	0x158d
	DCD	0xfbc51c00
	DCD	0x1280f1
	DCD	0x0
	DCD	0xf9f49f15
	DCD	0x1ab8
	DCD	0xfed81f00
	DCD	0x277ce0fe
	DCD	0x2400000d
	DCD	0xeefee37c
	DCD	0x1388
	DCD	0x10000000
	DCD	0xf6f3b937
	DCD	0xfdf5ecec
	DCD	0x2682d5fa
	DCD	0x0
	DCD	0x20200000
	DCD	0x9bedcb3c
	DCD	0xedcb3c31
	DCD	0x20319b
	DCD	0x0
	DCD	0x0
	DCD	0x932a0000
	DCD	0x2fa8f4ee
	DCD	0x0
	DCD	0x0
	DCD	0x0
	DCD	0x13000000
	DCD	0xfee2852c
	DCD	0x1281e6
	DCD	0x0
	DCD	0x0
	DCD	0x0
	DCD	0xfeef7910
	DCD	0x1fd7
	DCD	0x0
	DCD	0xf7aa1800
	DCD	0x189df6
	DCD	0x0
	DCD	0x0
	DCD	0xffdc2000
	DCD	0x2fdf
	DCD	0x0
	DCD	0xd72f0000
	DCD	0x16a4f5
	DCD	0x1c000000
	DCD	0x122e82a2
	DCD	0x0
	DCD	0x0
	DCD	0x0
	DCD	0x0
	DCD	0x0
	DCD	0x0
	DCD	0x12000000
	DCD	0x1ca2822e
	DCD	0x0
	DCD	0x0
	DCD	0x201e1a13
	DCD	0x191c2020
	DCD	0x10
	DCD	0xcb310000
	DCD	0xd70e7fd
	DCD	0x0
	DCD	0xd8fed638
	DCD	0x35
	DCD	0xf1901500
	DCD	0x2cb9f9
	DCD	0x0
	DCD	0xf0fbc532
	DCD	0x1387
	DCD	0xfbc71c00
	DCD	0xaae3f5ff
	DCD	0x92352d6c
	DCD	0xacf6fde0
	DCD	0x2e
	DCD	0x0
	DCD	0xfef9c438
	DCD	0xfaf1ecf7
	DCD	0x3fa8ef
	DCD	0x0
	DCD	0x0
	DCD	0x9defc01b
	DCD	0xefc01b15
	DCD	0x159d
	DCD	0x0
	DCD	0x0
	DCD	0x2f000000
	DCD	0x93eef5a8
	DCD	0x24
	DCD	0x0
	DCD	0x20000000
	DCD	0x87332020
	DCD	0xe1f8eabb
	DCD	0x2693
	DCD	0x0
	DCD	0x0
	DCD	0x0
	DCD	0xfafabc33
	DCD	0x1bbd
	DCD	0x0
	DCD	0xe66c0d00
	DCD	0x34d3fe
	DCD	0x0
	DCD	0x0
	DCD	0xffdf2000
	DCD	0x20df
	DCD	0x0
	DCD	0xc31b0000
	DCD	0x2ecef8
	DCD	0x20000000
	DCD	0x82c2ebd0
	DCD	0x122e
	DCD	0x0
	DCD	0x0
	DCD	0x0
	DCD	0x0
	DCD	0x0
	DCD	0x822e1200
	DCD	0x20d0ebc2
	DCD	0x0
	DCD	0x2f0d0000
	DCD	0xddd2b987
	DCD	0xafc9dbdf
	DCD	0x1075
	DCD	0x8b130000
	DCD	0x37bdfbed
	DCD	0x320d000d
	DCD	0xa3f5f7a3
	DCD	0x19
	DCD	0xc4320000
	DCD	0x2986ebfb
	DCD	0x2e0d0000
	DCD	0xc4fbf299
	DCD	0x30
	DCD	0xf7aa1800
	DCD	0xf0e3d3f7
	DCD	0xf3dfdfe9
	DCD	0x36aceef9
	DCD	0x0
	DCD	0x36000000
	DCD	0xd3fbf8b4
	DCD	0xc28f7daa
	DCD	0x2da8edf6
	DCD	0x0
	DCD	0x0
	DCD	0xaeefad18
	DCD	0xefad1818
	DCD	0x18ae
	DCD	0x0
	DCD	0x0
	DCD	0x0
	DCD	0xe4fbbd36
	DCD	0x107c
	DCD	0x0
	DCD	0xbf200000
	DCD	0xf2dfdfdf
	DCD	0x6ec7f3f8
	DCD	0x22
	DCD	0x0
	DCD	0x10
	DCD	0x36161000
	DCD	0xeafff29e
	DCD	0x1281
	DCD	0x0
	DCD	0xb5270000
	DCD	0x1591f3f9
	DCD	0x0
	DCD	0x0
	DCD	0xffdf2000
	DCD	0x20df
	DCD	0x0
	DCD	0xab180000
	DCD	0x1074edf7
	DCD	0x15000000
	DCD	0xebeecd91
	DCD	0x122e82c2
	DCD	0x0
	DCD	0x0
	DCD	0x0
	DCD	0x0
	DCD	0x12000000
	DCD	0xebc2822e
	DCD	0x1591cdee
	DCD	0x0
	DCD	0xbd6f1d00
	DCD	0xecf2f7ef
	DCD	0xefeddfdf
	DCD	0x1ec0
	DCD	0x2d000000
	DCD	0xb9f7f3a8
	DCD	0xb06d3a6f
	DCD	0x36c4faf1
	DCD	0x0
	DCD	0x7a100000
	DCD	0x9ee8fcdb
	DCD	0xab6c2d38
	DCD	0x7adbfded
	DCD	0x10
	DCD	0xeb761000
	DCD	0xae82b4f4
	DCD	0xd7dedccd
	DCD	0x2e88bf
	DCD	0x0
	DCD	0xa1190000
	DCD	0x3cc6fcf5
	DCD	0x37120d18
	DCD	0x8aedfabc
	DCD	0x13
	DCD	0x0
	DCD	0xc0ee9613
	DCD	0xee96131b
	DCD	0x1bc0
	DCD	0x0
	DCD	0x0
	DCD	0x0
	DCD	0xfde6700d
	DCD	0x33c7
	DCD	0x0
	DCD	0xbf200000
	DCD	0xf7efdfdf
	DCD	0x39a4e7fb
	DCD	0x0
	DCD	0x10000000
	DCD	0x20202f5e
	DCD	0xcea6742f
	DCD	0xa3f0fff5
	DCD	0x2a
	DCD	0x0
	DCD	0x6e0d0000
	DCD	0x33cdfde7
	DCD	0x0
	DCD	0x0
	DCD	0xffdf2000
	DCD	0x20df
	DCD	0x0
	DCD	0x7e120000
	DCD	0x16a6f5f1
	DCD	0x0
	DCD	0xcd913315
	DCD	0x82c2ebee
	DCD	0x122e
	DCD	0x0
	DCD	0x0
	DCD	0x0
	DCD	0x822e1200
	DCD	0xcdeeebc2
	DCD	0x153391
	DCD	0x0
	DCD	0xfad87a10
	DCD	0x699ecdf9
	DCD	0xae7f312d
	DCD	0x199a
	DCD	0x0
	DCD	0xf6eba834
	DCD	0xf4ecdfeb
	DCD	0x1078c4f3
	DCD	0x0
	DCD	0x1f000000
	DCD	0xf3f2c77b
	DCD	0xf3ecdfdf
	DCD	0x1f7ccbf5
	DCD	0x0
	DCD	0xc22c0000
	DCD	0x193ec5f8
	DCD	0x1f20201d
	DCD	0x131b
	DCD	0x0
	DCD	0xd11e0000
	DCD	0x1283f1fd
	DCD	0x10000000
	DCD	0xc8fcef79
	DCD	0x1d
	DCD	0x20000000
	DCD	0xcbed9931
	DCD	0xed99313c
	DCD	0x20203ccb
	DCD	0x0
	DCD	0x0
	DCD	0x0
	DCD	0xf9b72700
	DCD	0x1590f2
	DCD	0x0
	DCD	0x20000000
	DCD	0xad762f20
	DCD	0xa3ebf9d3
	DCD	0x2c
	DCD	0x20000000
	DCD	0xdfdfdfcb
	DCD	0xf9f5efdf
	DCD	0x319ee4f5
	DCD	0x0
	DCD	0x0
	DCD	0x28000000
	DCD	0x90f2fabe
	DCD	0x15
	DCD	0x0
	DCD	0xffdf2000
	DCD	0x20df
	DCD	0x0
	DCD	0x31000000
	DCD	0x1dbcecbf
	DCD	0x0
	DCD	0x33150000
	DCD	0xebeecd91
	DCD	0x122e82c2
	DCD	0x0
	DCD	0x0
	DCD	0x12000000
	DCD	0xecc2822e
	DCD	0x3391cdf1
	DCD	0x15
	DCD	0x0
	DCD	0xf9fbc432
	DCD	0xd153ab0
	DCD	0x19120000
	DCD	0x19
	DCD	0x0
	DCD	0xbd812c00
	DCD	0xc7dbded7
	DCD	0x103395
	DCD	0x0
	DCD	0x0
	DCD	0xc5903310
	DCD	0xc7dbdfdb
	DCD	0x103595
	DCD	0x0
	DCD	0x82120000
	DCD	0x2a93f0e8
	DCD	0x0
	DCD	0x0
	DCD	0x0
	DCD	0xdc200000
	DCD	0x31dfff
	DCD	0x0
	DCD	0xdcffdf2f
	DCD	0x20
	DCD	0xbf200000
	DCD	0xfbfff1df
	DCD	0xfff1dfdf
	DCD	0xbfdfdffb
	DCD	0x20
	DCD	0x0
	DCD	0x0
	DCD	0xef781000
	DCD	0x1cc5fb
	DCD	0x0
	DCD	0x0
	DCD	0x18100000
	DCD	0xebfcc63c
	DCD	0x138a
	DCD	0x1c000000
	DCD	0xf5fffbcc
	DCD	0xc7dbdfdf
	DCD	0x256aa2
	DCD	0x0
	DCD	0x0
	DCD	0x12000000
	DCD	0xc5fbed81
	DCD	0x2e
	DCD	0x0
	DCD	0xffdf2000
	DCD	0x20df
	DCD	0x0
	DCD	0x0
	DCD	0x12736f2f
	DCD	0x0
	DCD	0x0
	DCD	0xcd913315
	DCD	0x82c2ebee
	DCD	0x122e
	DCD	0x0
	DCD	0x822c0d00
	DCD	0xd3f2ecc2
	DCD	0x15369d
	DCD	0x0
	DCD	0x15000000
	DCD	0xcdfdf18f
	DCD	0x3a
	DCD	0x0
	DCD	0x0
	DCD	0x0
	DCD	0x1b120000
	DCD	0x1c20201f
	DCD	0x16
	DCD	0x0
	DCD	0x0
	DCD	0x1c150000
	DCD	0x1c202020
	DCD	0x16
	DCD	0x0
	DCD	0x29000000
	DCD	0x93e9f19e
	DCD	0x2e
	DCD	0x0
	DCD	0x0
	DCD	0xd61f0000
	DCD	0x38dffe
	DCD	0x0
	DCD	0xdaffdf38
	DCD	0x20
	DCD	0xbf200000
	DCD	0xfffbdfdf
	DCD	0xfbdfdff1
	DCD	0xbfdff1ff
	DCD	0x20
	DCD	0x0
	DCD	0x0
	DCD	0xdf2f0000
	DCD	0x20dbff
	DCD	0x0
	DCD	0x0
	DCD	0x0
	DCD	0xfcf18312
	DCD	0x1dc8
	DCD	0x1c000000
	DCD	0xb0f5fbc5
	DCD	0x1c202036
	DCD	0xd16
	DCD	0x0
	DCD	0x0
	DCD	0x0
	DCD	0xedfbc42e
	DCD	0x1282
	DCD	0x0
	DCD	0xffdf2000
	DCD	0x20df
	DCD	0x0
	DCD	0x0
	DCD	0x121000
	DCD	0x0
	DCD	0x0
	DCD	0x33150000
	DCD	0xebeecd91
	DCD	0x2e82c2
	DCD	0x0
	DCD	0xeab56e27
	DCD	0x379dd3f2
	DCD	0x18
	DCD	0x0
	DCD	0x1b000000
	DCD	0x9ef4fac0
	DCD	0x15
	DCD	0x0
	DCD	0x0
	DCD	0x0
	DCD	0x0
	DCD	0x0
	DCD	0x0
	DCD	0x0
	DCD	0x0
	DCD	0x0
	DCD	0x0
	DCD	0x0
	DCD	0x0
	DCD	0x0
	DCD	0xedf2a832
	DCD	0x151a39a3
	DCD	0x12
	DCD	0x0
	DCD	0xa71a0000
	DCD	0x2f9ef7f8
	DCD	0x2f00000d
	DCD	0xbefaf79e
	DCD	0x1b
	DCD	0x20000000
	DCD	0xedcb3c20
	DCD	0xcb3c319b
	DCD	0x20319bed
	DCD	0x0
	DCD	0x0
	DCD	0x0
	DCD	0xdf2f0000
	DCD	0x20ddff
	DCD	0x0
	DCD	0x0
	DCD	0x0
	DCD	0xffdf3100
	DCD	0x20dc
	DCD	0x19000000
	DCD	0xacf7f8b7
	DCD	0x18
	DCD	0x0
	DCD	0x0
	DCD	0x0
	DCD	0x0
	DCD	0xfbf18913
	DCD	0x29c2
	DCD	0x0
	DCD	0xffdf2000
	DCD	0x20df
	DCD	0x0
	DCD	0x0
	DCD	0x0
	DCD	0x0
	DCD	0x0
	DCD	0x0
	DCD	0xcd913315
	DCD	0x1cb0edf6
	DCD	0x1a000000
	DCD	0xe0f6e6a8
	DCD	0x18379d
	DCD	0x0
	DCD	0x0
	DCD	0x1f000000
	DCD	0x69ecfed7
	DCD	0xd
	DCD	0x0
	DCD	0x0
	DCD	0x0
	DCD	0x0
	DCD	0x0
	DCD	0x0
	DCD	0x0
	DCD	0x0
	DCD	0x0
	DCD	0x0
	DCD	0x0
	DCD	0x0
	DCD	0x0
	DCD	0xeaa33300
	DCD	0x9fbdd9f3
	DCD	0x20317b
	DCD	0x0
	DCD	0x39000000
	DCD	0xabeffbcb
	DCD	0x9e382d6c
	DCD	0x81e6feef
	DCD	0x12
	DCD	0x0
	DCD	0xefc01b00
	DCD	0xc01b159d
	DCD	0x159def
	DCD	0x0
	DCD	0x18120000
	DCD	0x0
	DCD	0xef791000
	DCD	0x1ed2fd
	DCD	0x0
	DCD	0x0
	DCD	0x0
	DCD	0xffdf3800
	DCD	0x20dc
	DCD	0x18000000
	DCD	0xb2f7f7ac
	DCD	0x18
	DCD	0x0
	DCD	0x0
	DCD	0x0
	DCD	0x0
	DCD	0xfdcd3100
	DCD	0xd6ee8
	DCD	0x0
	DCD	0xffdf2000
	DCD	0x20df
	DCD	0x0
	DCD	0x0
	DCD	0x0
	DCD	0x0
	DCD	0x0
	DCD	0x0
	DCD	0x582a0000
	DCD	0x20d8fbd0
	DCD	0x20000000
	DCD	0x90e5fdd3
	DCD	0x3c
	DCD	0x0
	DCD	0x0
	DCD	0x20000000
	DCD	0x2ddfffde
	DCD	0x0
	DCD	0x0
	DCD	0x0
	DCD	0x0
	DCD	0x0
	DCD	0x0
	DCD	0x0
	DCD	0x0
	DCD	0x0
	DCD	0x0
	DCD	0x0
	DCD	0x0
	DCD	0x0
	DCD	0x0
	DCD	0x812a0000
	DCD	0xeeeedabe
	DCD	0x20bfdfed
	DCD	0x0
	DCD	0x10000000
	DCD	0xf3f1c47a
	DCD	0xf4dfdfec
	DCD	0x2692def7
	DCD	0x0
	DCD	0x0
	DCD	0xefae1800
	DCD	0xae1818ae
	DCD	0x18aeef
	DCD	0x0
	DCD	0x907a1200
	DCD	0x1334
	DCD	0xfabc3610
	DCD	0x1ab3f8
	DCD	0x0
	DCD	0x151b1500
	DCD	0xd000010
	DCD	0xfcf79e2f
	DCD	0x1dc8
	DCD	0x15000000
	DCD	0xc4fbf49d
	DCD	0x1c
	DCD	0x0
	DCD	0x0
	DCD	0x0
	DCD	0x0
	DCD	0xf2911500
	DCD	0x27b5f9
	DCD	0x0
	DCD	0xffdf4020
	DCD	0x202040df
	DCD	0x20
	DCD	0x0
	DCD	0x0
	DCD	0x0
	DCD	0x0
	DCD	0x0
	DCD	0xcd913315
	DCD	0x1cb0edf6
	DCD	0x1a000000
	DCD	0xe0f6e6a8
	DCD	0x18379d
	DCD	0x0
	DCD	0x0
	DCD	0x20000000
	DCD	0x2ddfffdd
	DCD	0x0
	DCD	0x0
	DCD	0x0
	DCD	0x16000000
	DCD	0x151d
	DCD	0x0
	DCD	0x0
	DCD	0x0
	DCD	0x20200000
	DCD	0x20
	DCD	0x0
	DCD	0x0
	DCD	0x0
	DCD	0x0
	DCD	0x12000000
	DCD	0xb98d351b
	DCD	0x20bfdbca
	DCD	0x0
	DCD	0x0
	DCD	0xc5903210
	DCD	0xcddcdfdb
	DCD	0x226cae
	DCD	0x0
	DCD	0x0
	DCD	0xef9d1500
	DCD	0x9d151bc0
	DCD	0x1bc0ef
	DCD	0x0
	DCD	0xeeb81c00
	DCD	0x2f3389c4
	DCD	0xfdf6bc79
	DCD	0xd6dd8
	DCD	0x0
	DCD	0x9eb68b15
	DCD	0x6c2d2f73
	DCD	0xe7ffefab
	DCD	0x138a
	DCD	0x12000000
	DCD	0xccfbf18a
	DCD	0x2020203c
	DCD	0x20202020
	DCD	0x0
	DCD	0x0
	DCD	0x0
	DCD	0xcf330000
	DCD	0xd6de6fd
	DCD	0x20000000
	DCD	0xffffdfbf
	DCD	0xdfdfdfff
	DCD	0x20bf
	DCD	0x0
	DCD	0xd
	DCD	0x0
	DCD	0x0
	DCD	0x33150000
	DCD	0xebeecd91
	DCD	0x2e82c2
	DCD	0x0
	DCD	0xeab56e27
	DCD	0x379dd3f2
	DCD	0x18
	DCD	0x0
	DCD	0x1e000000
	DCD	0x6aecfdd2
	DCD	0xd
	DCD	0x0
	DCD	0x0
	DCD	0x93160000
	DCD	0xd3291c0
	DCD	0x0
	DCD	0x0
	DCD	0x0
	DCD	0xdfbf2000
	DCD	0x20bf
	DCD	0x0
	DCD	0x0
	DCD	0x0
	DCD	0x0
	DCD	0x0
	DCD	0x1a150000
	DCD	0x20201c
	DCD	0x0
	DCD	0x0
	DCD	0x1c150000
	DCD	0x1d202020
	DCD	0xd19
	DCD	0x0
	DCD	0x0
	DCD	0xed7b1200
	DCD	0x7b121ccb
	DCD	0x1ccbed
	DCD	0x0
	DCD	0xd2941600
	DCD	0xdfdeeff1
	DCD	0xcbf7f8ef
	DCD	0x1d7c
	DCD	0x0
	DCD	0xf0f0b91c
	DCD	0xecdfdfed
	DCD	0x93e1f9f5
	DCD	0x28
	DCD	0x10000000
	DCD	0xfbffef6f
	DCD	0xdfdfdfdf
	DCD	0xbfdfdfdf
	DCD	0x20
	DCD	0x20200000
	DCD	0x20202020
	DCD	0xbc382020
	DCD	0x19aff8f7
	DCD	0x20000000
	DCD	0xffffdfbf
	DCD	0xdfdfdfff
	DCD	0x20bf
	DCD	0x25000000
	DCD	0x2554
	DCD	0x0
	DCD	0x0
	DCD	0xcd913315
	DCD	0x82c2ebee
	DCD	0x122e
	DCD	0x0
	DCD	0x822c0d00
	DCD	0xd3f2ecc2
	DCD	0x15369d
	DCD	0x0
	DCD	0x1a000000
	DCD	0xa4f5f9b7
	DCD	0x16
	DCD	0x0
	DCD	0x0
	DCD	0xba1d0000
	DCD	0x70c1f1f6
	DCD	0xd
	DCD	0x0
	DCD	0x0
	DCD	0xffdf2000
	DCD	0x20df
	DCD	0x0
	DCD	0x0
	DCD	0x0
	DCD	0x0
	DCD	0x0
	DCD	0x0
	DCD	0x0
	DCD	0x0
	DCD	0x0
	DCD	0x0
	DCD	0x0
	DCD	0x0
	DCD	0x0
	DCD	0x0
	DCD	0xbf310000
	DCD	0x310020bc
	DCD	0x20bcbf
	DCD	0x0
	DCD	0x35160000
	DCD	0xded8c695
	DCD	0x38a1cddc
	DCD	0x10
	DCD	0x0
	DCD	0xc7b38213
	DCD	0xdddfddd4
	DCD	0x226eb3d2
	DCD	0x0
	DCD	0x0
	DCD	0xdfdfbf2f
	DCD	0xdfdfdfdf
	DCD	0xbfdfdfdf
	DCD	0x20
	DCD	0xdfbf2000
	DCD	0xdfdfdfdf
	DCD	0xf7dfdfdf
	DCD	0x1fd5feff
	DCD	0x0
	DCD	0xffdf4020
	DCD	0x202040df
	DCD	0x20
	DCD	0x9d180000
	DCD	0x189ddc
	DCD	0x0
	DCD	0x33150000
	DCD	0xebeecd91
	DCD	0x122e82c2
	DCD	0x0
	DCD	0x0
	DCD	0x12000000
	DCD	0xecc2822e
	DCD	0x3391cdf1
	DCD	0x15
	DCD	0x12000000
	DCD	0xcefdea80
	DCD	0x3b
	DCD	0x0
	DCD	0x0
	DCD	0x77100000
	DCD	0xc9fbf5c0
	DCD	0x3c
	DCD	0x0
	DCD	0x0
	DCD	0xffdf2000
	DCD	0x20df
	DCD	0x0
	DCD	0x0
	DCD	0x0
	DCD	0x0
	DCD	0x0
	DCD	0x0
	DCD	0x0
	DCD	0x0
	DCD	0x0
	DCD	0x0
	DCD	0x0
	DCD	0x0
	DCD	0x0
	DCD	0x0
	DCD	0x20000000
	DCD	0x20
	DCD	0x2020
	DCD	0x0
	DCD	0x0
	DCD	0x201f1c16
	DCD	0x191d20
	DCD	0x0
	DCD	0x0
	DCD	0x1c191300
	DCD	0x2020201e
	DCD	0xd1a1e
	DCD	0x0
	DCD	0x0
	DCD	0x20202000
	DCD	0x20202020
	DCD	0x20202020
	DCD	0x0
	DCD	0xdfbf2000
	DCD	0xdfdfdfdf
	DCD	0xdfdfdfdf
	DCD	0x20bedfdf
	DCD	0x0
	DCD	0xffdf2000
	DCD	0x20df
	DCD	0x0
	DCD	0xd31f0000
	DCD	0x1fd3fd
	DCD	0x0
	DCD	0xcd913315
	DCD	0x82c2ebee
	DCD	0x122e
	DCD	0x0
	DCD	0x0
	DCD	0x0
	DCD	0x822e1200
	DCD	0xcdeeebc2
	DCD	0x153391
	DCD	0x0
	DCD	0xfaf5a32a
	DCD	0xd153bb4
	DCD	0x19100000
	DCD	0x18
	DCD	0x10000000
	DCD	0xfbf5a836
	DCD	0x35b4
	DCD	0x0
	DCD	0x0
	DCD	0xffdf2000
	DCD	0x20df
	DCD	0x0
	DCD	0x0
	DCD	0x0
	DCD	0x0
	DCD	0x0
	DCD	0x0
	DCD	0x0
	DCD	0x0
	DCD	0x0
	DCD	0x0
	DCD	0x0
	DCD	0x0
	DCD	0x0
	DCD	0x0
	DCD	0x0
	DCD	0x0
	DCD	0x0
	DCD	0x0
	DCD	0x0
	DCD	0x0
	DCD	0x0
	DCD	0x0
	DCD	0x0
	DCD	0x0
	DCD	0x0
	DCD	0x0
	DCD	0x0
	DCD	0x0
	DCD	0x0
	DCD	0x0
	DCD	0x0
	DCD	0x0
	DCD	0x20200000
	DCD	0x20202020
	DCD	0x20202020
	DCD	0x202020
	DCD	0x0
	DCD	0xf8d32000
	DCD	0x20dd
	DCD	0x0
	DCD	0xd11f0000
	DCD	0x1fd3fd
	DCD	0x15000000
	DCD	0xebeecd91
	DCD	0x122e82c2
	DCD	0x0
	DCD	0x0
	DCD	0x0
	DCD	0x0
	DCD	0x12000000
	DCD	0xebc2822e
	DCD	0x1591cdee
	DCD	0x0
	DCD	0xf5b43600
	DCD	0x699ecdfa
	DCD	0xab772f2d
	DCD	0x1895
	DCD	0x0
	DCD	0xfbbd3600
	DCD	0x189df4
	DCD	0x0
	DCD	0x0
	DCD	0xffdf2000
	DCD	0x20df
	DCD	0x0
	DCD	0x0
	DCD	0x0
	DCD	0x1e1c0000
	DCD	0x20202020
	DCD	0x151a1c20
	DCD	0x0
	DCD	0x0
	DCD	0x20202000
	DCD	0x0
	DCD	0x0
	DCD	0x0
	DCD	0x0
	DCD	0x0
	DCD	0x0
	DCD	0x0
	DCD	0x0
	DCD	0x0
	DCD	0x0
	DCD	0x0
	DCD	0x0
	DCD	0x0
	DCD	0x0
	DCD	0x0
	DCD	0x0
	DCD	0x0
	DCD	0x0
	DCD	0x0
	DCD	0x0
	DCD	0x0
	DCD	0x0
	DCD	0x0
	DCD	0x0
	DCD	0x0
	DCD	0x0
	DCD	0x0
	DCD	0x0
	DCD	0xb5861300
	DCD	0x1eb1
	DCD	0x0
	DCD	0x98160000
	DCD	0x189dcd
	DCD	0x20000000
	DCD	0x82c2ebd0
	DCD	0x122e
	DCD	0x0
	DCD	0x0
	DCD	0x0
	DCD	0x0
	DCD	0x0
	DCD	0x822e1200
	DCD	0x20d0ebc2
	DCD	0x0
	DCD	0xa3360000
	DCD	0xecf0f6e5
	DCD	0xf0eddfdf
	DCD	0x1ec1
	DCD	0x0
	DCD	0xe6700d00
	DCD	0x39d3fe
	DCD	0x0
	DCD	0x0
	DCD	0xffdf2000
	DCD	0x1a0d20df
	DCD	0x1d20201e
	DCD	0x18
	DCD	0x0
	DCD	0xd4ae1c00
	DCD	0xdfdfdfdd
	DCD	0x8db9cadb
	DCD	0x1534
	DCD	0x0
	DCD	0xbfdfbf20
	DCD	0x20
	DCD	0x0
	DCD	0x0
	DCD	0x0
	DCD	0x0
	DCD	0x0
	DCD	0x0
	DCD	0x0
	DCD	0x0
	DCD	0x0
	DCD	0x0
	DCD	0x0
	DCD	0x0
	DCD	0x0
	DCD	0x0
	DCD	0x0
	DCD	0x0
	DCD	0x0
	DCD	0x0
	DCD	0x0
	DCD	0x0
	DCD	0x0
	DCD	0x0
	DCD	0x0
	DCD	0x0
	DCD	0x0
	DCD	0x0
	DCD	0x0
	DCD	0x19130000
	DCD	0x1e
	DCD	0x0
	DCD	0x16000000
	DCD	0x1820
	DCD	0x1c000000
	DCD	0x122e82a2
	DCD	0x0
	DCD	0x0
	DCD	0x0
	DCD	0x0
	DCD	0x0
	DCD	0x0
	DCD	0x12000000
	DCD	0x1ca2822e
	DCD	0x0
	DCD	0x26000000
	DCD	0xdbc9ad6d
	DCD	0xb7d2dddf
	DCD	0x127e
	DCD	0x0
	DCD	0xc2270000
	DCD	0x27a8f8f9
	DCD	0x0
	DCD	0x0
	DCD	0xffdf2000
	DCD	0xb36e42df
	DCD	0xccdcddd2
	DCD	0x10379c
	DCD	0x0
	DCD	0xfddb2000
	DCD	0xdfdfdfff
	DCD	0xf3f2eddf
	DCD	0x2a92d1
	DCD	0x0
	DCD	0xdfffdf20
	DCD	0x20
	DCD	0x0
	DCD	0x0
	DCD	0x0
	DCD	0x20202020
	DCD	0x20202020
	DCD	0x20202020
	DCD	0x20
	DCD	0x1c190000
	DCD	0x2020201d
	DCD	0x121a1d20
	DCD	0x0
	DCD	0x0
	DCD	0x20202020
	DCD	0x20202020
	DCD	0x20202020
	DCD	0x0
	DCD	0x20202000
	DCD	0x0
	DCD	0x0
	DCD	0x0
	DCD	0x0
	DCD	0x0
	DCD	0x0
	DCD	0x0
	DCD	0x0
	DCD	0x0
	DCD	0x0
	DCD	0x0
	DCD	0x0
	DCD	0x0
	DCD	0x0
	DCD	0x0
	DCD	0x0
	DCD	0x121c
	DCD	0x0
	DCD	0x0
	DCD	0x0
	DCD	0x0
	DCD	0x0
	DCD	0x0
	DCD	0x0
	DCD	0x1c1200
	DCD	0x0
	DCD	0x0
	DCD	0x201c190d
	DCD	0x1a1e2020
	DCD	0x12
	DCD	0x0
	DCD	0xc21a0000
	DCD	0x70e6fff9
	DCD	0xd
	DCD	0x0
	DCD	0xffdf2000
	DCD	0xeee0b3f4
	DCD	0xf5ecdfdd
	DCD	0x1f7ccbf6
	DCD	0x0
	DCD	0xffdf2000
	DCD	0x202040df
	DCD	0xe8b57f31
	DCD	0x2693e9fd
	DCD	0x0
	DCD	0xdfffdf20
	DCD	0x20
	DCD	0x0
	DCD	0x0
	DCD	0x20000000
	DCD	0xdfdfdfbf
	DCD	0xdfdfdfdf
	DCD	0xdfdfdfdf
	DCD	0x20bf
	DCD	0xc69b1900
	DCD	0xdfdfdcd0
	DCD	0x80b7cedc
	DCD	0x2c
	DCD	0x20000000
	DCD	0xdfdfdfbf
	DCD	0xdfdfdfdf
	DCD	0xbfdfdfdf
	DCD	0x20
	DCD	0xbfdfbf20
	DCD	0x20
	DCD	0x0
	DCD	0x0
	DCD	0x1c130000
	DCD	0x1c1f2020
	DCD	0x15
	DCD	0x0
	DCD	0x0
	DCD	0x0
	DCD	0x0
	DCD	0x0
	DCD	0x0
	DCD	0x0
	DCD	0x0
	DCD	0x0
	DCD	0x0
	DCD	0x0
	DCD	0x0
	DCD	0x0
	DCD	0x0
	DCD	0x0
	DCD	0x0
	DCD	0x0
	DCD	0x0
	DCD	0x0
	DCD	0x0
	DCD	0x0
	DCD	0x0
	DCD	0x0
	DCD	0x0
	DCD	0x0
	DCD	0xd9350000
	DCD	0xbdfbffff
	DCD	0x2e
	DCD	0x0
	DCD	0xffdf2000
	DCD	0x92e0f2ff
	DCD	0xb06d2d35
	DCD	0x7bdbfded
	DCD	0x10
	DCD	0xffdf2000
	DCD	0x20df
	DCD	0x7d281200
	DCD	0x80e6fee0
	DCD	0x12
	DCD	0xdfffdf20
	DCD	0x20
	DCD	0x0
	DCD	0x0
	DCD	0x20000000
	DCD	0xdfffffdf
	DCD	0xdfdfdfdf
	DCD	0xdfdfdfdf
	DCD	0x20bf
	DCD	0xf2ba1b00
	DCD	0xdfdfeff1
	DCD	0xebf5f0df
	DCD	0x35a8
	DCD	0x20000000
	DCD	0xdfffffdf
	DCD	0xdfdfdfdf
	DCD	0xbfdfdfdf
	DCD	0x20
	DCD	0xdfffdf20
	DCD	0x20
	DCD	0x0
	DCD	0x0
	DCD	0xc4871300
	DCD	0xc4d8dedb
	DCD	0x3290
	DCD	0x0
	DCD	0x0
	DCD	0x0
	DCD	0x0
	DCD	0x0
	DCD	0x0
	DCD	0x0
	DCD	0x0
	DCD	0x0
	DCD	0x0
	DCD	0x0
	DCD	0x0
	DCD	0x0
	DCD	0x0
	DCD	0x0
	DCD	0x0
	DCD	0x0
	DCD	0x0
	DCD	0x0
	DCD	0x0
	DCD	0x0
	DCD	0x0
	DCD	0x0
	DCD	0x0
	DCD	0x0
	DCD	0xf4911500
	DCD	0xedfff9ff
	DCD	0x1282
	DCD	0x0
	DCD	0xffdf2000
	DCD	0x247ce0fe
	DCD	0x2e0d0000
	DCD	0xc7fcf093
	DCD	0x33
	DCD	0xffdf2000
	DCD	0x20df
	DCD	0x24000000
	DCD	0xb8f9f492
	DCD	0x1a
	DCD	0xdfffdf20
	DCD	0x20
	DCD	0x0
	DCD	0x0
	DCD	0x20000000
	DCD	0x40dfffdf
	DCD	0x20202020
	DCD	0x20202020
	DCD	0x20
	DCD	0xb68a1500
	DCD	0x202f739e
	DCD	0xf7c48933
	DCD	0x30acf4
	DCD	0x20000000
	DCD	0x40dfffdf
	DCD	0x20202020
	DCD	0x20202020
	DCD	0x0
	DCD	0xdfffdf20
	DCD	0x20
	DCD	0x0
	DCD	0x0
	DCD	0xedc41e00
	DCD	0xf7eedfdf
	DCD	0x39b4f1
	DCD	0x0
	DCD	0x0
	DCD	0x182018
	DCD	0x0
	DCD	0x0
	DCD	0x202020
	DCD	0x0
	DCD	0x202020
	DCD	0x0
	DCD	0x0
	DCD	0x0
	DCD	0x0
	DCD	0x0
	DCD	0x0
	DCD	0x0
	DCD	0x0
	DCD	0x0
	DCD	0x0
	DCD	0x0
	DCD	0x0
	DCD	0x0
	DCD	0x0
	DCD	0x0
	DCD	0x0
	DCD	0x0
	DCD	0xfcc92a00
	DCD	0xfbf8c8f8
	DCD	0x29c2
	DCD	0x0
	DCD	0xffdf2000
	DCD	0x2492f4
	DCD	0x0
	DCD	0xf2fbc531
	DCD	0x158f
	DCD	0xffdf2000
	DCD	0x20df
	DCD	0x0
	DCD	0xd6fedf35
	DCD	0x1f
	DCD	0xdfffdf20
	DCD	0x20
	DCD	0x0
	DCD	0x0
	DCD	0x20000000
	DCD	0x20dfffdf
	DCD	0x0
	DCD	0x0
	DCD	0x0
	DCD	0x1b150000
	DCD	0x1015
	DCD	0xbc371300
	DCD	0x1590effa
	DCD	0x20000000
	DCD	0x20dfffdf
	DCD	0x0
	DCD	0x0
	DCD	0x0
	DCD	0xdfffdf20
	DCD	0x20
	DCD	0x0
	DCD	0x0
	DCD	0x86951900
	DCD	0xbc792f33
	DCD	0x2eb0f9f8
	DCD	0x0
	DCD	0x18000000
	DCD	0x189ecf9e
	DCD	0x0
	DCD	0x20000000
	DCD	0x20bfdfbf
	DCD	0x20000000
	DCD	0x20bfdfbf
	DCD	0x0
	DCD	0x0
	DCD	0xd1f1f00
	DCD	0x0
	DCD	0x0
	DCD	0x20201d13
	DCD	0x101b
	DCD	0x0
	DCD	0x0
	DCD	0x0
	DCD	0x20000000
	DCD	0x2020
	DCD	0x0
	DCD	0x0
	DCD	0x20200000
	DCD	0x20
	DCD	0x0
	DCD	0xfee96c0d
	DCD	0xfed658d5
	DCD	0xd6ce8
	DCD	0x0
	DCD	0xffdf2000
	DCD	0x35df
	DCD	0x0
	DCD	0xfaf49d15
	DCD	0x1bbf
	DCD	0xffdf2000
	DCD	0x20df
	DCD	0x0
	DCD	0xddffdf20
	DCD	0x20
	DCD	0xdfffdf20
	DCD	0x20
	DCD	0x0
	DCD	0x0
	DCD	0x20000000
	DCD	0x20dfffdf
	DCD	0x0
	DCD	0x0
	DCD	0x0
	DCD	0x0
	DCD	0x0
	DCD	0x79100000
	DCD	0x1cc5fbef
	DCD	0x20000000
	DCD	0x20dfffdf
	DCD	0x0
	DCD	0x0
	DCD	0x0
	DCD	0xdfffdf20
	DCD	0x20
	DCD	0x0
	DCD	0x0
	DCD	0x13190000
	DCD	0x38100000
	DCD	0x80edfcc9
	DCD	0x12
	DCD	0x20000000
	DCD	0x20d7ffd7
	DCD	0x0
	DCD	0x20000000
	DCD	0x20dfffdf
	DCD	0x20000000
	DCD	0x20dfffdf
	DCD	0x0
	DCD	0x0
	DCD	0x6ec8b01f
	DCD	0xd
	DCD	0x28000000
	DCD	0xdadcc88a
	DCD	0x2479bc
	DCD	0x0
	DCD	0x0
	DCD	0x0
	DCD	0xbf200000
	DCD	0x20bfdf
	DCD	0x0
	DCD	0x0
	DCD	0xdfbf2000
	DCD	0x20bf
	DCD	0x0
	DCD	0xf8f7a918
	DCD	0xf9b833b2
	DCD	0x18a9f7
	DCD	0x0
	DCD	0xffdf2000
	DCD	0x20df
	DCD	0x0
	DCD	0xfdec690d
	DCD	0x1ed3
	DCD	0xffdf2000
	DCD	0x20df
	DCD	0x0
	DCD	0xd7fedf35
	DCD	0x1f
	DCD	0xdfffdf20
	DCD	0x20
	DCD	0x0
	DCD	0x0
	DCD	0x20000000
	DCD	0x20dfffdf
	DCD	0x0
	DCD	0x0
	DCD	0x0
	DCD	0x0
	DCD	0x0
	DCD	0x2f000000
	DCD	0x20dbffdf
	DCD	0x20000000
	DCD	0x20dfffdf
	DCD	0x0
	DCD	0x0
	DCD	0x0
	DCD	0xdfffdf20
	DCD	0x20
	DCD	0x0
	DCD	0x0
	DCD	0x0
	DCD	0x15000000
	DCD	0xb7f9f4a0
	DCD	0x1a
	DCD	0x20000000
	DCD	0x20d9ffd7
	DCD	0x0
	DCD	0x20000000
	DCD	0x20dfffdf
	DCD	0x20000000
	DCD	0x20dfffdf
	DCD	0x0
	DCD	0x0
	DCD	0xb9eb9215
	DCD	0x2d
	DCD	0x93220000
	DCD	0xececfbe7
	DCD	0x1592e4f8
	DCD	0x0
	DCD	0x0
	DCD	0x0
	DCD	0xdf200000
	DCD	0x20dfff
	DCD	0x0
	DCD	0x0
	DCD	0xffdf2000
	DCD	0x20df
	DCD	0x0
	DCD	0xecfdcf30
	DCD	0xef802177
	DCD	0x30cffd
	DCD	0x0
	DCD	0xffdf2000
	DCD	0x20df
	DCD	0x0
	DCD	0xffdf2d00
	DCD	0x20dd
	DCD	0xffdf2000
	DCD	0x20df
	DCD	0x24000000
	DCD	0xbbfaf492
	DCD	0x1b
	DCD	0xdfffdf20
	DCD	0x2020203e
	DCD	0x151a1d
	DCD	0x0
	DCD	0x20000000
	DCD	0x20dfffdf
	DCD	0x0
	DCD	0x0
	DCD	0x0
	DCD	0x0
	DCD	0x0
	DCD	0x35000000
	DCD	0x20deffdf
	DCD	0x20000000
	DCD	0x20dfffdf
	DCD	0x0
	DCD	0x0
	DCD	0x0
	DCD	0xdfffdf20
	DCD	0x20
	DCD	0x0
	DCD	0x0
	DCD	0x0
	DCD	0x10000000
	DCD	0xcefcef73
	DCD	0x1d
	DCD	0x18000000
	DCD	0x1aa8d19e
	DCD	0x0
	DCD	0x20000000
	DCD	0x20dfffdf
	DCD	0x20000000
	DCD	0x20dfffdf
	DCD	0x0
	DCD	0x0
	DCD	0xe8c03100
	DCD	0x1284
	DCD	0xe16d0d00
	DCD	0x7f80dffe
	DCD	0x37d1fcda
	DCD	0x0
	DCD	0x0
	DCD	0x0
	DCD	0xdf200000
	DCD	0x20dfff
	DCD	0x0
	DCD	0x0
	DCD	0xffdf2000
	DCD	0x20df
	DCD	0x12000000
	DCD	0xcbfcef80
	DCD	0xce30002d
	DCD	0x1280effd
	DCD	0x0
	DCD	0xffdf2000
	DCD	0x20df
	DCD	0x0
	DCD	0xffdf2000
	DCD	0x20df
	DCD	0xffdf2000
	DCD	0x20df
	DCD	0x7d2a1200
	DCD	0x79e4fee0
	DCD	0x10
	DCD	0xfdffdf20
	DCD	0xdcdfddd8
	DCD	0x338dbace
	DCD	0x13
	DCD	0x20000000
	DCD	0x20dfffdf
	DCD	0x0
	DCD	0x0
	DCD	0x0
	DCD	0x0
	DCD	0x0
	DCD	0x92240000
	DCD	0x1fd6fef4
	DCD	0x20000000
	DCD	0x20dfffdf
	DCD	0x0
	DCD	0x0
	DCD	0x0
	DCD	0xdfffdf20
	DCD	0x20
	DCD	0x0
	DCD	0x0
	DCD	0x0
	DCD	0x0
	DCD	0xdcffdf2f
	DCD	0x20
	DCD	0x0
	DCD	0x1a2018
	DCD	0x0
	DCD	0x20000000
	DCD	0x20dfffdf
	DCD	0x20000000
	DCD	0x20dfffdf
	DCD	0x0
	DCD	0x0
	DCD	0xe67a1000
	DCD	0x36c9
	DCD	0xf8ae1900
	DCD	0x2223a7f5
	DCD	0x9bf6f4a1
	DCD	0x18
	DCD	0x0
	DCD	0x0
	DCD	0xdf200000
	DCD	0x20dfff
	DCD	0x0
	DCD	0x0
	DCD	0xffdf2000
	DCD	0x20df
	DCD	0x1a000000
	DCD	0x96f5f9b8
	DCD	0xa4160016
	DCD	0x1ab8f9f5
	DCD	0x0
	DCD	0xffdf2000
	DCD	0x31df
	DCD	0x0
	DCD	0xffdf3300
	DCD	0x20db
	DCD	0xffdf2000
	DCD	0x202040df
	DCD	0xe9b98031
	DCD	0x2493e6fa
	DCD	0x0
	DCD	0xffffdf20
	DCD	0xdfdfdfea
	DCD	0xcbf2f3ee
	DCD	0x288b
	DCD	0x20000000
	DCD	0x20dfffdf
	DCD	0x0
	DCD	0x0
	DCD	0x0
	DCD	0x0
	DCD	0x0
	DCD	0xe07c2700
	DCD	0x1ab4f9fe
	DCD	0x20000000
	DCD	0x20dfffdf
	DCD	0x0
	DCD	0x0
	DCD	0x0
	DCD	0xdfffdf20
	DCD	0x20
	DCD	0x0
	DCD	0x0
	DCD	0x0
	DCD	0x0
	DCD	0xdfffdf20
	DCD	0x20
	DCD	0x12000000
	DCD	0x1c2020
	DCD	0x0
	DCD	0x20000000
	DCD	0x20dfffdf
	DCD	0x20000000
	DCD	0x20dfffdf
	DCD	0x0
	DCD	0x0
	DCD	0xa3280000
	DCD	0x189ded
	DCD	0xfccd1d00
	DCD	0x101074ef
	DCD	0xc8fbef73
	DCD	0x1c
	DCD	0x0
	DCD	0x0
	DCD	0xdf200000
	DCD	0x20dfff
	DCD	0x0
	DCD	0x0
	DCD	0xffdf2000
	DCD	0x20df
	DCD	0x34000000
	DCD	0x36dafed6
	DCD	0x6a0d0000
	DCD	0x34d6fee7
	DCD	0x0
	DCD	0xffdf2000
	DCD	0x1280f1
	DCD	0x0
	DCD	0xfbf28913
	DCD	0x1cc7
	DCD	0xffdf2000
	DCD	0xdfdfdfff
	DCD	0xf9f9f1df
	DCD	0x2682d3
	DCD	0x0
	DCD	0xecffdf20
	DCD	0x31202d74
	DCD	0xfce9b980
	DCD	0x2493e7
	DCD	0x20000000
	DCD	0x40dfffdf
	DCD	0x20202020
	DCD	0x202020
	DCD	0x0
	DCD	0x0
	DCD	0x1a120000
	DCD	0xfde39d38
	DCD	0xd6ee1ff
	DCD	0x20000000
	DCD	0x20dfffdf
	DCD	0x0
	DCD	0x0
	DCD	0x0
	DCD	0xdfffdf20
	DCD	0x20202040
	DCD	0x20202020
	DCD	0x0
	DCD	0x0
	DCD	0x0
	DCD	0xdfffdf20
	DCD	0x20
	DCD	0x77120000
	DCD	0x1caedbd1
	DCD	0x0
	DCD	0x20000000
	DCD	0x20dfffdf
	DCD	0x20000000
	DCD	0x20dfffdf
	DCD	0x0
	DCD	0x0
	DCD	0x38000000
	DCD	0x39d3d0
	DCD	0xffdc2000
	DCD	0x2fdf
	DCD	0xdbffdf2f
	DCD	0x20
	DCD	0x20202000
	DCD	0x20202020
	DCD	0xdf402020
	DCD	0x2040dfff
	DCD	0x20
	DCD	0x0
	DCD	0xffdf2000
	DCD	0x20df
	DCD	0x8f150000
	DCD	0x1bc0faf3
	DCD	0x28000000
	DCD	0x8ff3fac1
	DCD	0x15
	DCD	0xffdf2000
	DCD	0x2cb9f9
	DCD	0x0
	DCD	0xf5fbc431
	DCD	0x1695
	DCD	0xffdf2000
	DCD	0xdfdfdfff
	DCD	0xe6f9f2df
	DCD	0x3c9f
	DCD	0x0
	DCD	0xdfffdf20
	DCD	0x2d
	DCD	0xe37d2a12
	DCD	0x1078e4fe
	DCD	0x20000000
	DCD	0xdfffffdf
	DCD	0xdfdfdfdf
	DCD	0x20bfdfdf
	DCD	0x0
	DCD	0x0
	DCD	0xb9802e0d
	DCD	0xfbfef7d9
	DCD	0x2293e4
	DCD	0x20000000
	DCD	0x20dfffdf
	DCD	0x0
	DCD	0x0
	DCD	0x0
	DCD	0xffffdf20
	DCD	0xdfdfdfdf
	DCD	0xbfdfdfdf
	DCD	0x20
	DCD	0x0
	DCD	0x0
	DCD	0xdfffdf20
	DCD	0x20
	DCD	0x84120000
	DCD	0x1ed4fdf1
	DCD	0x0
	DCD	0x20000000
	DCD	0x20dfffdf
	DCD	0x20000000
	DCD	0x20dfffdf
	DCD	0x0
	DCD	0x0
	DCD	0x15000000
	DCD	0x2ca8eb92
	DCD	0xffdf2000
	DCD	0x20df
	DCD	0xdfffdf20
	DCD	0x20
	DCD	0xdfdfbe20
	DCD	0xdfdfdfdf
	DCD	0xffdfdfdf
	DCD	0xdfdfffff
	DCD	0x20bf
	DCD	0x0
	DCD	0xffdf2000
	DCD	0x20df
	DCD	0xc1280000
	DCD	0x1388f2fa
	DCD	0x15000000
	DCD	0xc1faf38f
	DCD	0x28
	DCD	0xffdf2000
	DCD	0x2986eafd
	DCD	0x2d0d000d
	DCD	0xd1fef093
	DCD	0x35
	DCD	0xffdf2000
	DCD	0x202040df
	DCD	0xf4c48933
	DCD	0x2ca3ea
	DCD	0x0
	DCD	0xdfffdf20
	DCD	0x20
	DCD	0xaa270000
	DCD	0x1ab5f9f7
	DCD	0x20000000
	DCD	0xdfffffdf
	DCD	0xdfdfdfdf
	DCD	0x20bfdfdf
	DCD	0x0
	DCD	0x22000000
	DCD	0xf9edbd6f
	DCD	0xc0edfaff
	DCD	0x247a
	DCD	0x20000000
	DCD	0x20dfffdf
	DCD	0x0
	DCD	0x0
	DCD	0x0
	DCD	0xffffdf20
	DCD	0xdfdfdfdf
	DCD	0xbfdfdfdf
	DCD	0x20
	DCD	0x0
	DCD	0x0
	DCD	0xdfffdf20
	DCD	0x20
	DCD	0x650d0000
	DCD	0x33ddffea
	DCD	0x0
	DCD	0x20000000
	DCD	0x20dfffdf
	DCD	0x20000000
	DCD	0x20dfffdf
	DCD	0x0
	DCD	0x1d130000
	DCD	0x101b2020
	DCD	0x83e8c632
	DCD	0xffdb2012
	DCD	0x2fdf
	DCD	0xddffdf2d
	DCD	0x20
	DCD	0xfdfed11f
	DCD	0xdfdfdfdf
	DCD	0xffdfdfdf
	DCD	0xdfdfffff
	DCD	0x20bf
	DCD	0x0
	DCD	0xffdf2000
	DCD	0x20df
	DCD	0xe76a0d00
	DCD	0x32d5fe
	DCD	0x0
	DCD	0xe7fed634
	DCD	0xd6a
	DCD	0xfddf2000
	DCD	0xabe7e9f2
	DCD	0xab6c3a6c
	DCD	0x92e9ffec
	DCD	0x15
	DCD	0xffdf2000
	DCD	0x20df
	DCD	0xb9371300
	DCD	0x138aebfa
	DCD	0x0
	DCD	0xdfffdf20
	DCD	0x20
	DCD	0x6c0d0000
	DCD	0x1ed2fdec
	DCD	0x20000000
	DCD	0x40dfffdf
	DCD	0x20202020
	DCD	0x202020
	DCD	0x0
	DCD	0x92240000
	DCD	0xf7fefade
	DCD	0x2e81bee7
	DCD	0x10
	DCD	0x20000000
	DCD	0x20dfffdf
	DCD	0x0
	DCD	0x0
	DCD	0x0
	DCD	0xdfffdf20
	DCD	0x20202040
	DCD	0x20202020
	DCD	0x0
	DCD	0x0
	DCD	0x0
	DCD	0xdfffdf20
	DCD	0x20
	DCD	0x2b000000
	DCD	0x89f2fdcf
	DCD	0x13
	DCD	0x20000000
	DCD	0x20dfffdf
	DCD	0x20000000
	DCD	0x20dfffdf
	DCD	0x0
	DCD	0xc88a2800
	DCD	0x79bcdadc
	DCD	0xc6e88336
	DCD	0xfbc81c33
	DCD	0xd1074ef
	DCD	0xd2fdec69
	DCD	0x1e
	DCD	0xd8ed9215
	DCD	0x20202059
	DCD	0xdf402020
	DCD	0x2040dfff
	DCD	0x20
	DCD	0x0
	DCD	0xffdf2000
	DCD	0x20df
	DCD	0xf5a31600
	DCD	0x19b2f8
	DCD	0x0
	DCD	0xf5f9b61a
	DCD	0x16a3
	DCD	0xfadf2000
	DCD	0xeecb97d2
	DCD	0xf6ecdfe9
	DCD	0x2a93e4f9
	DCD	0x0
	DCD	0xffdf2000
	DCD	0x20df
	DCD	0x6f0d0000
	DCD	0x1dc8fcec
	DCD	0x0
	DCD	0xdfffdf20
	DCD	0x20
	DCD	0x2d000000
	DCD	0x20ddffdf
	DCD	0x20000000
	DCD	0x20dfffdf
	DCD	0x0
	DCD	0x0
	DCD	0x0
	DCD	0xe4791000
	DCD	0xaae3fcfe
	DCD	0x12286c
	DCD	0x0
	DCD	0x20000000
	DCD	0x20dfffdf
	DCD	0x0
	DCD	0x0
	DCD	0x0
	DCD	0xdfffdf20
	DCD	0x20
	DCD	0x0
	DCD	0x0
	DCD	0x0
	DCD	0x0
	DCD	0xdfffdf20
	DCD	0x20
	DCD	0x18000000
	DCD	0xc4fbf69c
	DCD	0x32
	DCD	0x20000000
	DCD	0x20dfffdf
	DCD	0x20000000
	DCD	0x20dfffdf
	DCD	0x0
	DCD	0xfbe79322
	DCD	0xe4f8ecec
	DCD	0xeca84092
	DCD	0xf69b2e98
	DCD	0x2223a7f5
	DCD	0xb7f9f49e
	DCD	0x1a
	DCD	0xf2ac3000
	DCD	0x33ac
	DCD	0xdf200000
	DCD	0x20dfff
	DCD	0x0
	DCD	0x0
	DCD	0xffdf2000
	DCD	0x20df
	DCD	0xdcab1d00
	DCD	0x1077cf
	DCD	0x0
	DCD	0xdccf7810
	DCD	0x1dab
	DCD	0xd7bf2000
	DCD	0x9c37279a
	DCD	0xd6dedccc
	DCD	0x2478b6
	DCD	0x0
	DCD	0xffdf2000
	DCD	0x20df
	DCD	0x3a000000
	DCD	0x20dcffdf
	DCD	0x0
	DCD	0xdfffdf20
	DCD	0x20
	DCD	0x35000000
	DCD	0x20dbffdf
	DCD	0x20000000
	DCD	0x20dfffdf
	DCD	0x0
	DCD	0x0
	DCD	0x0
	DCD	0xfabc1b00
	DCD	0x277bd9fd
	DCD	0xd
	DCD	0x0
	DCD	0x20000000
	DCD	0x20dfffdf
	DCD	0x0
	DCD	0x0
	DCD	0x0
	DCD	0xdfffdf20
	DCD	0x20
	DCD	0x0
	DCD	0x0
	DCD	0x0
	DCD	0x0
	DCD	0xdfffdf20
	DCD	0x20
	DCD	0x0
	DCD	0xf2fecf37
	DCD	0x2699
	DCD	0x20000000
	DCD	0x20dfffdf
	DCD	0x20000000
	DCD	0x20dfffdf
	DCD	0xd000000
	DCD	0xdffee16d
	DCD	0xfcda7f80
	DCD	0xd13937d1
	DCD	0xcf3739d1
	DCD	0x7f80dffd
	DCD	0x80eafdda
	DCD	0x12
	DCD	0xc7390000
	DCD	0x299ef0
	DCD	0xdf200000
	DCD	0x20dfff
	DCD	0x0
	DCD	0x0
	DCD	0xffdf2000
	DCD	0x20df
	DCD	0x201d0000
	DCD	0x1020
	DCD	0x0
	DCD	0x20201000
	DCD	0x1d
	DCD	0x20200000
	DCD	0x18000018
	DCD	0x1f20201d
	DCD	0x101a
	DCD	0x0
	DCD	0xffdf2000
	DCD	0x20df
	DCD	0x6c0d0000
	DCD	0x20daffec
	DCD	0x0
	DCD	0xdfffdf20
	DCD	0x20
	DCD	0x91150000
	DCD	0x1cc5fbf4
	DCD	0x20000000
	DCD	0x20dfffdf
	DCD	0x0
	DCD	0x0
	DCD	0x0
	DCD	0xffda2000
	DCD	0x2184f1
	DCD	0x0
	DCD	0x0
	DCD	0x20000000
	DCD	0x20dfffdf
	DCD	0x0
	DCD	0x0
	DCD	0x0
	DCD	0xdfffdf20
	DCD	0x20
	DCD	0x0
	DCD	0x0
	DCD	0x0
	DCD	0x0
	DCD	0xdfffdf20
	DCD	0x20
	DCD	0x0
	DCD	0xffeb8c13
	DCD	0x107ce5
	DCD	0x20000000
	DCD	0x20dfffdf
	DCD	0x20000000
	DCD	0x20dfffdf
	DCD	0x19000000
	DCD	0xa7f5f8ae
	DCD	0xf4a12223
	DCD	0x982e9bf6
	DCD	0x8c3fa8ec
	DCD	0xececf9e2
	DCD	0x2aa3edfa
	DCD	0x0
	DCD	0x7c100000
	DCD	0x1f85e8e6
	DCD	0xdf200000
	DCD	0x20dfff
	DCD	0x0
	DCD	0x0
	DCD	0xffdf2000
	DCD	0x20df
	DCD	0x0
	DCD	0x0
	DCD	0x0
	DCD	0x0
	DCD	0x0
	DCD	0x0
	DCD	0x0
	DCD	0x0
	DCD	0x0
	DCD	0x0
	DCD	0xffdf2000
	DCD	0x20df
	DCD	0xab321200
	DCD	0x1bbcf9f7
	DCD	0x0
	DCD	0xdfffdf20
	DCD	0x2f
	DCD	0xcd3d1810
	DCD	0x1590f0fd
	DCD	0x20000000
	DCD	0x20dfffdf
	DCD	0x0
	DCD	0x0
	DCD	0x0
	DCD	0xffdd2000
	DCD	0x31df
	DCD	0x0
	DCD	0x0
	DCD	0x20000000
	DCD	0x20dfffdf
	DCD	0x0
	DCD	0x0
	DCD	0x0
	DCD	0xdfffdf20
	DCD	0x20
	DCD	0x0
	DCD	0x0
	DCD	0x0
	DCD	0x0
	DCD	0xdfffdf20
	DCD	0x20
	DCD	0x0
	DCD	0xf6a32c00
	DCD	0x33c7fd
	DCD	0x20000000
	DCD	0x20dfffdf
	DCD	0x20000000
	DCD	0x20dfffdf
	DCD	0x1d000000
	DCD	0x74effccd
	DCD	0xef731010
	DCD	0x331cc8fb
	DCD	0x3482e8c6
	DCD	0xdcdabc79
	DCD	0x2e91c9
	DCD	0x0
	DCD	0x27000000
	DCD	0x70daf29e
	DCD	0xdf20000d
	DCD	0x20dfff
	DCD	0x0
	DCD	0x0
	DCD	0xffdf2000
	DCD	0x20df
	DCD	0x0
	DCD	0x0
	DCD	0x0
	DCD	0x0
	DCD	0x0
	DCD	0x0
	DCD	0x0
	DCD	0x0
	DCD	0x0
	DCD	0x0
	DCD	0xffdf2000
	DCD	0x202040df
	DCD	0xf1b98031
	DCD	0x1078dbfd
	DCD	0x0
	DCD	0xefffdf20
	DCD	0x2f202f7e
	DCD	0xfcd3ad76
	DCD	0x31b0f4
	DCD	0x20000000
	DCD	0x20dfffdf
	DCD	0x0
	DCD	0x0
	DCD	0x0
	DCD	0xfdcf1e00
	DCD	0x39df
	DCD	0x0
	DCD	0x0
	DCD	0x20000000
	DCD	0x20dfffdf
	DCD	0x0
	DCD	0x0
	DCD	0x0
	DCD	0xdfffdf20
	DCD	0x20
	DCD	0x0
	DCD	0x0
	DCD	0x0
	DCD	0x0
	DCD	0xdfffdf20
	DCD	0x20
	DCD	0x0
	DCD	0xcd370000
	DCD	0x1590f2fd
	DCD	0x20000000
	DCD	0x20dfffdf
	DCD	0x20000000
	DCD	0x20dfffdf
	DCD	0x20000000
	DCD	0x2fdfffdc
	DCD	0xdf2f0000
	DCD	0x1220dbff
	DCD	0x31c2e783
	DCD	0x20201b10
	DCD	0x151d
	DCD	0x0
	DCD	0x0
	DCD	0xc1f7b034
	DCD	0xdf200037
	DCD	0x20dfff
	DCD	0x0
	DCD	0x0
	DCD	0xffdf2000
	DCD	0x20df
	DCD	0x0
	DCD	0x0
	DCD	0x0
	DCD	0x0
	DCD	0x0
	DCD	0x0
	DCD	0x0
	DCD	0x0
	DCD	0x0
	DCD	0x0
	DCD	0xffdf2000
	DCD	0xdfdfdfff
	DCD	0xf3f4efdf
	DCD	0x1f7ccb
	DCD	0x0
	DCD	0xffffdf20
	DCD	0xdfdfdfef
	DCD	0xe5f7f3ee
	DCD	0x35a3
	DCD	0x20000000
	DCD	0x20dfffdf
	DCD	0x0
	DCD	0x0
	DCD	0x0
	DCD	0xf49c1800
	DCD	0x1034a3f8
	DCD	0x13000000
	DCD	0x151a
	DCD	0x20000000
	DCD	0x20dfffdf
	DCD	0x0
	DCD	0x0
	DCD	0x0
	DCD	0xdfffdf20
	DCD	0x20
	DCD	0x0
	DCD	0x0
	DCD	0x0
	DCD	0x0
	DCD	0xdfffdf20
	DCD	0x20
	DCD	0x0
	DCD	0x91150000
	DCD	0x1cc5fbf4
	DCD	0x20000000
	DCD	0x20dfffdf
	DCD	0x20000000
	DCD	0x20bfdfbf
	DCD	0x20000000
	DCD	0x20dfffdf
	DCD	0xdf200000
	DCD	0x20dfff
	DCD	0x92eab52c
	DCD	0x15
	DCD	0x0
	DCD	0x0
	DCD	0x0
	DCD	0xf6cf3b00
	DCD	0xdf202da8
	DCD	0x20dfff
	DCD	0x0
	DCD	0x0
	DCD	0xffdf2000
	DCD	0x20df
	DCD	0x0
	DCD	0x1a130000
	DCD	0x2020201e
	DCD	0xd191c
	DCD	0x0
	DCD	0x0
	DCD	0x0
	DCD	0x0
	DCD	0x0
	DCD	0x0
	DCD	0xdfbf2000
	DCD	0xdfdfdfdf
	DCD	0x8fbfd3dd
	DCD	0x1034
	DCD	0x0
	DCD	0xdfdfbf20
	DCD	0xdedfdfdf
	DCD	0x6dadc8d8
	DCD	0x26
	DCD	0x20000000
	DCD	0x40dfffdf
	DCD	0x20202020
	DCD	0x20202020
	DCD	0x0
	DCD	0xb4350000
	DCD	0x79bcf3f9
	DCD	0x8733202f
	DCD	0x1589b0
	DCD	0x20000000
	DCD	0x20dfffdf
	DCD	0x0
	DCD	0x0
	DCD	0x0
	DCD	0xdfffdf20
	DCD	0x20202040
	DCD	0x20202020
	DCD	0x20
	DCD	0x0
	DCD	0x0
	DCD	0xdfffdf20
	DCD	0x20
	DCD	0x0
	DCD	0x35000000
	DCD	0x20dbffdf
	DCD	0x20000000
	DCD	0x20dfffdf
	DCD	0x0
	DCD	0x202020
	DCD	0x20000000
	DCD	0x2fdfffdb
	DCD	0xdf2d0000
	DCD	0x20ddff
	DCD	0xd0e06d0d
	DCD	0x38
	DCD	0x0
	DCD	0x0
	DCD	0x0
	DCD	0xeb8c1300
	DCD	0xdf338ced
	DCD	0x20dfff
	DCD	0x0
	DCD	0x0
	DCD	0xffdf2000
	DCD	0x20df
	DCD	0x0
	DCD	0xb9872f00
	DCD	0xdbdfddd2
	DCD	0x266dadc9
	DCD	0x0
	DCD	0x0
	DCD	0x0
	DCD	0x0
	DCD	0x0
	DCD	0x0
	DCD	0x20200000
	DCD	0x20202020
	DCD	0x151b1e20
	DCD	0x0
	DCD	0x0
	DCD	0x20202000
	DCD	0x20202020
	DCD	0xd191c1f
	DCD	0x0
	DCD	0x20000000
	DCD	0xdfffffdf
	DCD	0xdfdfdfdf
	DCD	0xbfdfdfdf
	DCD	0x20
	DCD	0x39000000
	DCD	0xedf6efb0
	DCD	0xf1dfdfdf
	DCD	0x1bbaf1
	DCD	0x20000000
	DCD	0x20dfffdf
	DCD	0x0
	DCD	0x0
	DCD	0x0
	DCD	0xffffdf20
	DCD	0xdfdfdfdf
	DCD	0xdfdfdfdf
	DCD	0x20bf
	DCD	0x0
	DCD	0x0
	DCD	0xdfffdf20
	DCD	0x20
	DCD	0x0
	DCD	0x31000000
	DCD	0x20dcffdf
	DCD	0x20000000
	DCD	0x20dfffdf
	DCD	0x0
	DCD	0x162018
	DCD	0x1c000000
	DCD	0x74effbc8
	DCD	0xec690d10
	DCD	0x1ed2fd
	DCD	0xed9d2500
	DCD	0x28a3
	DCD	0x0
	DCD	0x0
	DCD	0x0
	DCD	0xa32c0000
	DCD	0xdf58cff4
	DCD	0x20dfff
	DCD	0x0
	DCD	0x16190000
	DCD	0xffdf2000
	DCD	0x20df
	DCD	0x0
	DCD	0xf6efb039
	DCD	0xdfdfdff1
	DCD	0xa3e5f5f0
	DCD	0x35
	DCD	0x0
	DCD	0x0
	DCD	0x0
	DCD	0x0
	DCD	0x0
	DCD	0x0
	DCD	0x0
	DCD	0x0
	DCD	0x0
	DCD	0x0
	DCD	0x0
	DCD	0x0
	DCD	0x0
	DCD	0x0
	DCD	0x20000000
	DCD	0xdfdfdfbf
	DCD	0xdfdfdfdf
	DCD	0xbfdfdfdf
	DCD	0x20
	DCD	0x0
	DCD	0xd3be882f
	DCD	0xd4dddfdd
	DCD	0x199bc7
	DCD	0x20000000
	DCD	0x20bfdfbf
	DCD	0x0
	DCD	0x0
	DCD	0x0
	DCD	0xdfdfbf20
	DCD	0xdfdfdfdf
	DCD	0xdfdfdfdf
	DCD	0x20bf
	DCD	0x0
	DCD	0x0
	DCD	0xdfffdf20
	DCD	0x20
	DCD	0x101a1500
	DCD	0x85250000
	DCD	0x1dcbfcf1
	DCD	0x20000000
	DCD	0x20dfffdf
	DCD	0x18000000
	DCD	0x1698cd9d
	DCD	0x18000000
	DCD	0xa7f5f69b
	DCD	0xf49e2223
	DCD	0x1ab7f9
	DCD	0xc9360000
	DCD	0x107ae6
	DCD	0x0
	DCD	0x0
	DCD	0x0
	DCD	0x36000000
	DCD	0xf8c3f4c4
	DCD	0x20dfff
	DCD	0x0
	DCD	0x92981900
	DCD	0xffdf3133
	DCD	0x20df
	DCD	0x37000000
	DCD	0xc8f8f9b4
	DCD	0x3520338a
	DCD	0xf4f8c991
	DCD	0x34b0
	DCD	0x0
	DCD	0x0
	DCD	0x0
	DCD	0x0
	DCD	0x0
	DCD	0x0
	DCD	0x0
	DCD	0x0
	DCD	0x0
	DCD	0x0
	DCD	0x0
	DCD	0x0
	DCD	0x0
	DCD	0x0
	DCD	0x0
	DCD	0x20202020
	DCD	0x20202020
	DCD	0x20202020
	DCD	0x0
	DCD	0x0
	DCD	0x1e1b1300
	DCD	0x1e202020
	DCD	0x191c
	DCD	0x0
	DCD	0x202020
	DCD	0x0
	DCD	0x0
	DCD	0x0
	DCD	0x20202000
	DCD	0x20202020
	DCD	0x20202020
	DCD	0x20
	DCD	0x0
	DCD	0x0
	DCD	0xbfdfbf20
	DCD	0x20
	DCD	0x78ac8b15
	DCD	0xe18c332f
	DCD	0x1696f0fe
	DCD	0x20000000
	DCD	0x20dfffdf
	DCD	0x1f000000
	DCD	0x1fd1fdd3
	DCD	0x0
	DCD	0xdffdcf37
	DCD	0xfdda7f80
	DCD	0x1280ea
	DCD	0x84120000
	DCD	0x31c0e8
	DCD	0x0
	DCD	0x0
	DCD	0x0
	DCD	0x10000000
	DCD	0xfff7e27a
	DCD	0x20dfff
	DCD	0x0
	DCD	0xecc21e00
	DCD	0xfff1a3c6
	DCD	0x20df
	DCD	0xa8270000
	DCD	0x38acf9f6
	DCD	0x13
	DCD	0xf9ac3815
	DCD	0x189ef3
	DCD	0x0
	DCD	0x0
	DCD	0x0
	DCD	0x0
	DCD	0x0
	DCD	0x0
	DCD	0x0
	DCD	0x0
	DCD	0x0
	DCD	0x0
	DCD	0x0
	DCD	0x0
	DCD	0x0
	DCD	0x0
	DCD	0x0
	DCD	0x0
	DCD	0x0
	DCD	0x0
	DCD	0x0
	DCD	0x0
	DCD	0x0
	DCD	0x0
	DCD	0x0
	DCD	0x0
	DCD	0x0
	DCD	0x0
	DCD	0x0
	DCD	0x0
	DCD	0x0
	DCD	0x0
	DCD	0x0
	DCD	0x0
	DCD	0x0
	DCD	0x0
	DCD	0x20202000
	DCD	0x0
	DCD	0xecefbb1d
	DCD	0xfaf2dfdf
	DCD	0x30a8ee
	DCD	0x20000000
	DCD	0x20dfffdf
	DCD	0x1f000000
	DCD	0x1fd1fdd1
	DCD	0x0
	DCD	0xf9e28c13
	DCD	0xedfaecec
	DCD	0x2aa3
	DCD	0x2d000000
	DCD	0x1592ebb9
	DCD	0x0
	DCD	0x0
	DCD	0x0
	DCD	0x0
	DCD	0xfff19826
	DCD	0x20dfff
	DCD	0x0
	DCD	0xbe7f1200
	DCD	0xffffebe5
	DCD	0x20df
	DCD	0xe66c0d00
	DCD	0x3ad5fe
	DCD	0x0
	DCD	0xd53a0000
	DCD	0x36d7fe
	DCD	0x0
	DCD	0x0
	DCD	0x20000000
	DCD	0x2020
	DCD	0x0
	DCD	0x0
	DCD	0x20200000
	DCD	0x20
	DCD	0x0
	DCD	0x0
	DCD	0x202020
	DCD	0x0
	DCD	0x0
	DCD	0x0
	DCD	0x0
	DCD	0x0
	DCD	0x0
	DCD	0x0
	DCD	0x0
	DCD	0x0
	DCD	0x0
	DCD	0x0
	DCD	0x0
	DCD	0x0
	DCD	0x0
	DCD	0x0
	DCD	0x0
	DCD	0x0
	DCD	0x0
	DCD	0x0
	DCD	0x0
	DCD	0x0
	DCD	0x0
	DCD	0x0
	DCD	0x0
	DCD	0x0
	DCD	0xcdb27c12
	DCD	0xc5dbdfdc
	DCD	0x2f90
	DCD	0x20000000
	DCD	0x20bfdfbf
	DCD	0x16000000
	DCD	0x1698cc98
	DCD	0x0
	DCD	0xbc792300
	DCD	0x91c9dcda
	DCD	0x2e
	DCD	0xd000000
	DCD	0x1fb0c86e
	DCD	0x0
	DCD	0x0
	DCD	0x0
	DCD	0x0
	DCD	0xdaac3100
	DCD	0x20bfdf
	DCD	0x0
	DCD	0x28120000
	DCD	0xdfd9b56e
	DCD	0x20bf
	DCD	0xf7a81800
	DCD	0x19b4f8
	DCD	0x0
	DCD	0xb4190000
	DCD	0x1694f5f8
	DCD	0x0
	DCD	0x0
	DCD	0xbf200000
	DCD	0x20bfdf
	DCD	0x0
	DCD	0x0
	DCD	0xdfbf2000
	DCD	0x20bf
	DCD	0x0
	DCD	0x20000000
	DCD	0x20bfdfbf
	DCD	0x0
	DCD	0x0
	DCD	0x0
	DCD	0x0
	DCD	0x0
	DCD	0x0
	DCD	0x0
	DCD	0x0
	DCD	0x0
	DCD	0x0
	DCD	0x0
	DCD	0x0
	DCD	0x0
	DCD	0x0
	DCD	0x0
	DCD	0x0
	DCD	0x0
	DCD	0x0
	DCD	0x0
	DCD	0x0
	DCD	0x0
	DCD	0x0
	DCD	0x0
	DCD	0x0
	DCD	0x0
	DCD	0x1d191200
	DCD	0x1c202020
	DCD	0x15
	DCD	0x0
	DCD	0x202020
	DCD	0x0
	DCD	0x162016
	DCD	0x0
	DCD	0x1b100000
	DCD	0x151d2020
	DCD	0x0
	DCD	0x0
	DCD	0x1f1f0d
	DCD	0x0
	DCD	0x0
	DCD	0x0
	DCD	0x0
	DCD	0x201b0000
	DCD	0x2020
	DCD	0x0
	DCD	0x0
	DCD	0x20201a0d
	DCD	0x20
	DCD	0xfbc71c00
	DCD	0x127ff1
	DCD	0x0
	DCD	0x7f120000
	DCD	0x1bc1faf1
	DCD	0x0
	DCD	0x0
	DCD	0xdf200000
	DCD	0x20dfff
	DCD	0x0
	DCD	0x0
	DCD	0xffdf2000
	DCD	0x20df
	DCD	0x0
	DCD	0x20000000
	DCD	0x20dfffdf
	DCD	0x0
	DCD	0x0
	DCD	0x19120000
	DCD	0x2020201c
	DCD	0x1b1c2020
	DCD	0x18
	DCD	0x0
	DCD	0x0
	DCD	0x20201c00
	DCD	0x0
	DCD	0x0
	DCD	0x0
	DCD	0x1320201b
	DCD	0x0
	DCD	0x0
	DCD	0x20201300
	DCD	0x1b
	DCD	0x0
	DCD	0x0
	DCD	0x0
	DCD	0x0
	DCD	0x0
	DCD	0x0
	DCD	0x0
	DCD	0x0
	DCD	0x0
	DCD	0x0
	DCD	0x0
	DCD	0x0
	DCD	0x0
	DCD	0x0
	DCD	0x0
	DCD	0x0
	DCD	0x0
	DCD	0x0
	DCD	0x0
	DCD	0x0
	DCD	0x0
	DCD	0x0
	DCD	0x0
	DCD	0x0
	DCD	0x0
	DCD	0x0
	DCD	0x0
	DCD	0x0
	DCD	0x0
	DCD	0x0
	DCD	0x0
	DCD	0xfed81f00
	DCD	0x31df
	DCD	0x0
	DCD	0x31000000
	DCD	0x1ed3fddf
	DCD	0x0
	DCD	0x0
	DCD	0xdf200000
	DCD	0x20dfff
	DCD	0x0
	DCD	0x0
	DCD	0xffdf2000
	DCD	0x20df
	DCD	0x0
	DCD	0x20000000
	DCD	0x20dfffdf
	DCD	0x0
	DCD	0x0
	DCD	0xb17f2f12
	DCD	0xdfdfdbc9
	DCD	0xc0cbdbdf
	DCD	0x1897
	DCD	0x0
	DCD	0x0
	DCD	0xbfdbad1c
	DCD	0x20
	DCD	0x0
	DCD	0x1b000000
	DCD	0x8bd3da99
	DCD	0x13
	DCD	0x0
	DCD	0xdad38c13
	DCD	0x1b8c
	DCD	0x20200000
	DCD	0x20
	DCD	0x0
	DCD	0x1c000000
	DCD	0x202020
	DCD	0x0
	DCD	0x0
	DCD	0x0
	DCD	0x0
	DCD	0x0
	DCD	0x0
	DCD	0x0
	DCD	0x0
	DCD	0x0
	DCD	0x0
	DCD	0x0
	DCD	0x0
	DCD	0x0
	DCD	0x0
	DCD	0x0
	DCD	0x0
	DCD	0x0
	DCD	0x0
	DCD	0x0
	DCD	0x0
	DCD	0x0
	DCD	0x0
	DCD	0x0
	DCD	0x0
	DCD	0x0
	DCD	0x0
	DCD	0xffde2000
	DCD	0x20df
	DCD	0x0
	DCD	0x20000000
	DCD	0x20ddffdf
	DCD	0x0
	DCD	0x0
	DCD	0xdf200000
	DCD	0x20dfff
	DCD	0x0
	DCD	0x0
	DCD	0xffdf2000
	DCD	0x20df
	DCD	0x0
	DCD	0x20000000
	DCD	0x20dfffdf
	DCD	0x0
	DCD	0x29000000
	DCD	0xf5eec683
	DCD	0xdfdfeff2
	DCD	0xf2efecdf
	DCD	0x1dc4
	DCD	0x0
	DCD	0x0
	DCD	0xdffbc91c
	DCD	0x20
	DCD	0x0
	DCD	0xd000000
	DCD	0xcbfcdf6e
	DCD	0x34
	DCD	0x0
	DCD	0xd2fdcf38
	DCD	0x3a
	DCD	0xdfbf2000
	DCD	0x20bf
	DCD	0x0
	DCD	0xb0310000
	DCD	0x20bfdfdb
	DCD	0x0
	DCD	0x0
	DCD	0x0
	DCD	0x0
	DCD	0x0
	DCD	0x0
	DCD	0x0
	DCD	0x0
	DCD	0x0
	DCD	0x0
	DCD	0x0
	DCD	0x0
	DCD	0x0
	DCD	0x0
	DCD	0x0
	DCD	0x0
	DCD	0x0
	DCD	0x0
	DCD	0x0
	DCD	0x0
	DCD	0x0
	DCD	0x0
	DCD	0x0
	DCD	0x0
	DCD	0x0
	DCD	0x0
	DCD	0xffdf2000
	DCD	0x20df
	DCD	0x0
	DCD	0x20000000
	DCD	0x20dfffdf
	DCD	0x0
	DCD	0x0
	DCD	0xdf200000
	DCD	0x20dfff
	DCD	0x0
	DCD	0x0
	DCD	0xffdf2000
	DCD	0x20df
	DCD	0x0
	DCD	0x20000000
	DCD	0x20dfffdf
	DCD	0x0
	DCD	0x9e310000
	DCD	0xcbf3fbe8
	DCD	0x202f74a6
	DCD	0xb394672d
	DCD	0x1896
	DCD	0x0
	DCD	0x0
	DCD	0xdffbc91c
	DCD	0x20
	DCD	0x0
	DCD	0x0
	DCD	0xf4f39823
	DCD	0x1698
	DCD	0x2a000000
	DCD	0x98f2f7a3
	DCD	0x16
	DCD	0xffdf2000
	DCD	0x20df
	DCD	0x0
	DCD	0xf0921500
	DCD	0x20dfffff
	DCD	0x0
	DCD	0x20202020
	DCD	0x20202020
	DCD	0x20202020
	DCD	0x20202020
	DCD	0x0
	DCD	0x20202000
	DCD	0x0
	DCD	0x0
	DCD	0x20201600
	DCD	0x1a
	DCD	0x20200000
	DCD	0x20
	DCD	0x0
	DCD	0x20201000
	DCD	0x1d
	DCD	0x16000000
	DCD	0x20201c1b
	DCD	0x1b1e2020
	DCD	0x15
	DCD	0x0
	DCD	0x0
	DCD	0x0
	DCD	0x0
	DCD	0x20200000
	DCD	0x20
	DCD	0xffdf2000
	DCD	0x20df
	DCD	0x0
	DCD	0x20000000
	DCD	0x20dfffdf
	DCD	0x0
	DCD	0x0
	DCD	0xdf200000
	DCD	0x20dfff
	DCD	0x0
	DCD	0x0
	DCD	0xffdf2000
	DCD	0x20df
	DCD	0x0
	DCD	0x20000000
	DCD	0x20dfffdf
	DCD	0x0
	DCD	0xf0a32a00
	DCD	0x3398e2fd
	DCD	0x1016
	DCD	0x1a130d00
	DCD	0x18
	DCD	0x0
	DCD	0x0
	DCD	0xdffbc91c
	DCD	0x20
	DCD	0x0
	DCD	0x0
	DCD	0xfbc43300
	DCD	0x37d2
	DCD	0x84120000
	DCD	0x32bdfbea
	DCD	0x0
	DCD	0xffdf2000
	DCD	0x20df
	DCD	0x0
	DCD	0xfed13800
	DCD	0x20dfffff
	DCD	0x20000000
	DCD	0xdfdfdfbd
	DCD	0xdfdfdfdf
	DCD	0xdfdfdfdf
	DCD	0xbfdfdfdf
	DCD	0x20
	DCD	0xbfdfbf20
	DCD	0x20
	DCD	0x0
	DCD	0xd7d69926
	DCD	0x1a88
	DCD	0xdfbf2000
	DCD	0x20bf
	DCD	0x0
	DCD	0xdccf7610
	DCD	0x1dac
	DCD	0x90160000
	DCD	0xdfdbcbbf
	DCD	0xbfd3dddf
	DCD	0x10338f
	DCD	0x0
	DCD	0x0
	DCD	0x0
	DCD	0x0
	DCD	0xdfbf2000
	DCD	0x20bf
	DCD	0xffdf2000
	DCD	0x20df
	DCD	0x0
	DCD	0x20000000
	DCD	0x20dfffdf
	DCD	0x0
	DCD	0x0
	DCD	0xdf200000
	DCD	0x20dfff
	DCD	0x0
	DCD	0x0
	DCD	0xffdf2000
	DCD	0x20df
	DCD	0x0
	DCD	0x20000000
	DCD	0x20dfffdf
	DCD	0x0
	DCD	0xfeea8412
	DCD	0x267ce2
	DCD	0x0
	DCD	0x0
	DCD	0x0
	DCD	0x0
	DCD	0x0
	DCD	0xdffbc91c
	DCD	0x20
	DCD	0x0
	DCD	0x0
	DCD	0xe87b1000
	DCD	0x259ef6
	DCD	0xc9360000
	DCD	0xd70e4fd
	DCD	0x0
	DCD	0xffdf2000
	DCD	0x20df
	DCD	0x0
	DCD	0xfef7a328
	DCD	0x20dffffc
	DCD	0x1d000000
	DCD	0xfcfffcc4
	DCD	0xdfdfdfdf
	DCD	0xdfdfdfdf
	DCD	0xbfdfdfdf
	DCD	0x20
	DCD	0xdfffdf20
	DCD	0x20
	DCD	0x10000000
	DCD	0xc7fde57c
	DCD	0x38
	DCD	0xffdf2000
	DCD	0x20df
	DCD	0x0
	DCD	0xf7f7aa18
	DCD	0x18ad
	DCD	0xbd1c0000
	DCD	0xdfeff0f2
	DCD	0xf2eddfdf
	DCD	0x217cc7f1
	DCD	0x0
	DCD	0x0
	DCD	0x0
	DCD	0x0
	DCD	0xffdf2000
	DCD	0x20df
	DCD	0xffdf2000
	DCD	0x20df
	DCD	0x0
	DCD	0x20000000
	DCD	0x20dfffdf
	DCD	0x0
	DCD	0x0
	DCD	0xdf200000
	DCD	0x20dfff
	DCD	0x0
	DCD	0x0
	DCD	0xffdf2000
	DCD	0x20df
	DCD	0x0
	DCD	0x20000000
	DCD	0x20dfffdf
	DCD	0x0
	DCD	0xf4fdc931
	DCD	0x2698
	DCD	0x0
	DCD	0x0
	DCD	0x0
	DCD	0x0
	DCD	0x0
	DCD	0xdffbc91c
	DCD	0x20
	DCD	0x0
	DCD	0x0
	DCD	0xa3280000
	DCD	0xd6fe4f7
	DCD	0xf59e2700
	DCD	0x259ef4
	DCD	0x0
	DCD	0xffdf2000
	DCD	0x20df
	DCD	0x10000000
	DCD	0xf1fee87a
	DCD	0x20dffcef
	DCD	0x10000000
	DCD	0xd4fce67b
	DCD	0x20202055
	DCD	0x20202020
	DCD	0x20202020
	DCD	0x0
	DCD	0xdfffdf20
	DCD	0x20
	DCD	0x39000000
	DCD	0x7ce5fdc7
	DCD	0x10
	DCD	0xffdf2000
	DCD	0x20df
	DCD	0x0
	DCD	0xf1fbc81c
	DCD	0x127e
	DCD	0x90160000
	DCD	0x2f739eb8
	DCD	0xad762f20
	DCD	0x84e0fbe3
	DCD	0x12
	DCD	0x0
	DCD	0x0
	DCD	0x0
	DCD	0xffdf2000
	DCD	0x20df
	DCD	0xffdf2000
	DCD	0x20df
	DCD	0x0
	DCD	0x20000000
	DCD	0x20dfffdf
	DCD	0x0
	DCD	0x0
	DCD	0xdf200000
	DCD	0x20dfff
	DCD	0x0
	DCD	0x0
	DCD	0xffdf2000
	DCD	0x20df
	DCD	0x0
	DCD	0x20000000
	DCD	0x20dfffdf
	DCD	0x13000000
	DCD	0xcefdf187
	DCD	0x34
	DCD	0x0
	DCD	0x0
	DCD	0x0
	DCD	0x0
	DCD	0x0
	DCD	0xdffbc91c
	DCD	0x20
	DCD	0x0
	DCD	0x0
	DCD	0x38000000
	DCD	0x2db9f9cf
	DCD	0xfce67a10
	DCD	0x35c6
	DCD	0x0
	DCD	0xffdf2000
	DCD	0x20df
	DCD	0x31000000
	DCD	0xbaf6fbc0
	DCD	0x20dffbe3
	DCD	0x0
	DCD	0xf4f49e27
	DCD	0x279e
	DCD	0x0
	DCD	0x0
	DCD	0x0
	DCD	0xdfffdf20
	DCD	0x20
	DCD	0xac310000
	DCD	0x2699f2f8
	DCD	0x0
	DCD	0xffdf2000
	DCD	0x20df
	DCD	0x0
	DCD	0xdbffdb31
	DCD	0x31
	DCD	0x16000000
	DCD	0x10151b
	DCD	0x27100000
	DCD	0xc9fce07c
	DCD	0x33
	DCD	0x0
	DCD	0x0
	DCD	0x0
	DCD	0xffdf2000
	DCD	0x20df
	DCD	0xffdf2000
	DCD	0x20df
	DCD	0x0
	DCD	0x20000000
	DCD	0x20dfffdf
	DCD	0x0
	DCD	0x0
	DCD	0xdf200000
	DCD	0x20dfff
	DCD	0x0
	DCD	0x0
	DCD	0xffdf2000
	DCD	0x202040df
	DCD	0x20202020
	DCD	0x40202020
	DCD	0x20dfffdf
	DCD	0x1a000000
	DCD	0xa8f5f9b7
	DCD	0x16
	DCD	0x0
	DCD	0x0
	DCD	0x0
	DCD	0x0
	DCD	0x0
	DCD	0xdffbc91c
	DCD	0x20
	DCD	0x0
	DCD	0x0
	DCD	0x13000000
	DCD	0x82ecef8c
	DCD	0xeafbc044
	DCD	0x1283
	DCD	0x0
	DCD	0xffdf2000
	DCD	0x20df
	DCD	0x92150000
	DCD	0x55d3fef0
	DCD	0x20dffdd4
	DCD	0x0
	DCD	0xfcc43500
	DCD	0x107be6
	DCD	0x0
	DCD	0x0
	DCD	0x0
	DCD	0xdfffdf20
	DCD	0x20
	DCD	0xf1992600
	DCD	0x32b0fa
	DCD	0x0
	DCD	0xffdf2000
	DCD	0x20df
	DCD	0x12000000
	DCD	0xc8fbf17e
	DCD	0x1c
	DCD	0x0
	DCD	0x0
	DCD	0x0
	DCD	0xf2f49224
	DCD	0x158f
	DCD	0x0
	DCD	0x0
	DCD	0x0
	DCD	0xffdf2000
	DCD	0x20df
	DCD	0xffdf2000
	DCD	0x20df
	DCD	0x0
	DCD	0x20000000
	DCD	0x20dfffdf
	DCD	0x0
	DCD	0x0
	DCD	0xdf200000
	DCD	0x20dfff
	DCD	0x0
	DCD	0x0
	DCD	0xffdf2000
	DCD	0xdfdfdfff
	DCD	0xdfdfdfdf
	DCD	0xdfdfdfdf
	DCD	0x20dfffff
	DCD	0x1c000000
	DCD	0x7cf1fbca
	DCD	0x12
	DCD	0x0
	DCD	0x0
	DCD	0x0
	DCD	0x0
	DCD	0x0
	DCD	0xdffbcc29
	DCD	0x31
	DCD	0x0
	DCD	0x0
	DCD	0x0
	DCD	0xd8f7bd2f
	DCD	0xa3f6f2b5
	DCD	0x2a
	DCD	0x0
	DCD	0xffdf2000
	DCD	0x20df
	DCD	0xd1380000
	DCD	0x389df5fe
	DCD	0x20dfffdd
	DCD	0x0
	DCD	0xe67b1000
	DCD	0x35c4fc
	DCD	0x0
	DCD	0x0
	DCD	0x0
	DCD	0xdfffdf20
	DCD	0x20
	DCD	0xfee57c10
	DCD	0x3bcd
	DCD	0x0
	DCD	0xffdf2000
	DCD	0x20df
	DCD	0x18000000
	DCD	0xaef7f7ab
	DCD	0x18
	DCD	0x0
	DCD	0x1e1a0d00
	DCD	0x191d2020
	DCD	0xfadf350d
	DCD	0x1bbe
	DCD	0x0
	DCD	0x1e1a0d00
	DCD	0x191d2020
	DCD	0xffdf2000
	DCD	0x20df
	DCD	0xffdf2000
	DCD	0x20df
	DCD	0x0
	DCD	0x20000000
	DCD	0x20dfffdf
	DCD	0x0
	DCD	0x0
	DCD	0xdf200000
	DCD	0x20dfff
	DCD	0x0
	DCD	0x0
	DCD	0xffdf2000
	DCD	0xdfdfdfff
	DCD	0xdfdfdfdf
	DCD	0xdfdfdfdf
	DCD	0x20dfffff
	DCD	0x20000000
	DCD	0x31dfffdb
	DCD	0x0
	DCD	0x0
	DCD	0x0
	DCD	0x0
	DCD	0x0
	DCD	0xd000000
	DCD	0xf1ffe86f
	DCD	0x1283
	DCD	0x0
	DCD	0x0
	DCD	0x0
	DCD	0xfae06f0d
	DCD	0x37cbfdf5
	DCD	0x0
	DCD	0x0
	DCD	0xffdf2000
	DCD	0x20df
	DCD	0xf7a32800
	DCD	0x2036cdfd
	DCD	0x20dfffdf
	DCD	0x0
	DCD	0x9e270000
	DCD	0x279ef4f4
	DCD	0x0
	DCD	0x0
	DCD	0x0
	DCD	0xdfffdf20
	DCD	0x20
	DCD	0xe8fdc739
	DCD	0x1285
	DCD	0x0
	DCD	0xffdf2000
	DCD	0x20df
	DCD	0x1b000000
	DCD	0x85f2fac4
	DCD	0x13
	DCD	0x0
	DCD	0xd2b36d22
	DCD	0xaecddcdd
	DCD	0xfcdf3e6c
	DCD	0x1dcf
	DCD	0x0
	DCD	0xd2b36e22
	DCD	0xa1cddcdd
	DCD	0xffdf2f38
	DCD	0x20df
	DCD	0xffdf2000
	DCD	0x20df
	DCD	0x0
	DCD	0x20000000
	DCD	0x20dfffdf
	DCD	0x0
	DCD	0x0
	DCD	0xdf200000
	DCD	0x20dfff
	DCD	0x0
	DCD	0x0
	DCD	0xffdf2000
	DCD	0x202040df
	DCD	0x20202020
	DCD	0x40202020
	DCD	0x20dfffdf
	DCD	0x20000000
	DCD	0x20dfffdf
	DCD	0x0
	DCD	0x0
	DCD	0x0
	DCD	0x0
	DCD	0x0
	DCD	0x2d000000
	DCD	0xfcfffab9
	DCD	0x32c6
	DCD	0x0
	DCD	0x0
	DCD	0x0
	DCD	0xf7b12500
	DCD	0x138bf2ff
	DCD	0x0
	DCD	0x0
	DCD	0xffdf2000
	DCD	0x20df
	DCD	0xffe87a10
	DCD	0x201591f0
	DCD	0x20dfffdf
	DCD	0x0
	DCD	0x35000000
	DCD	0x7be6fcc4
	DCD	0x10
	DCD	0x0
	DCD	0x0
	DCD	0xdfffdf20
	DCD	0x31000035
	DCD	0x9ef4f8ac
	DCD	0x29
	DCD	0x0
	DCD	0xffdf2000
	DCD	0x20df
	DCD	0x3b000000
	DCD	0x33d9ffda
	DCD	0x0
	DCD	0x28000000
	DCD	0xf6f8de92
	DCD	0xecdcdfec
	DCD	0xfff1a4d9
	DCD	0x20dc
	DCD	0x28000000
	DCD	0xf5f9e193
	DCD	0xeedcdfec
	DCD	0xffef9cca
	DCD	0x20df
	DCD	0xffdf2000
	DCD	0x20df
	DCD	0x0
	DCD	0x20000000
	DCD	0x20dfffdf
	DCD	0x0
	DCD	0x0
	DCD	0xdf200000
	DCD	0x20dfff
	DCD	0x0
	DCD	0x0
	DCD	0xffdf2000
	DCD	0x20df
	DCD	0x0
	DCD	0x20000000
	DCD	0x20dfffdf
	DCD	0x20000000
	DCD	0x20dfffde
	DCD	0x0
	DCD	0x0
	DCD	0x0
	DCD	0x0
	DCD	0x0
	DCD	0x83120000
	DCD	0xfff2ffec
	DCD	0x1591f1
	DCD	0x0
	DCD	0x0
	DCD	0x0
	DCD	0xf2a31300
	DCD	0x4edfff
	DCD	0x0
	DCD	0x0
	DCD	0xffdf2000
	DCD	0x20df
	DCD	0xfbfbc031
	DCD	0x200031c0
	DCD	0x20dfffdf
	DCD	0x0
	DCD	0x10000000
	DCD	0xc4fce67b
	DCD	0x35
	DCD	0x0
	DCD	0x0
	DCD	0xf4ffdf20
	DCD	0x99262893
	DCD	0x35c1fbf1
	DCD	0x0
	DCD	0x0
	DCD	0xffdf2000
	DCD	0x20df
	DCD	0xac361000
	DCD	0x1aa8f8fa
	DCD	0x0
	DCD	0x8c130000
	DCD	0xb0edfee7
	DCD	0x92352d6d
	DCD	0xfffeebde
	DCD	0x20df
	DCD	0x8c130000
	DCD	0xabecffe7
	DCD	0x98362d6c
	DCD	0xfffeeae0
	DCD	0x20df
	DCD	0xffdf2000
	DCD	0x20df
	DCD	0x0
	DCD	0x20000000
	DCD	0x20dfffdf
	DCD	0x0
	DCD	0x0
	DCD	0xdf200000
	DCD	0x20dfff
	DCD	0x0
	DCD	0x0
	DCD	0xffdf2000
	DCD	0x20df
	DCD	0x0
	DCD	0x20000000
	DCD	0x20dfffdf
	DCD	0x1f000000
	DCD	0x31dffed8
	DCD	0x0
	DCD	0x0
	DCD	0x0
	DCD	0x0
	DCD	0x0
	DCD	0xc6320000
	DCD	0xedadebfc
	DCD	0x36cdfd
	DCD	0x0
	DCD	0x0
	DCD	0x0
	DCD	0xfdcb3700
	DCD	0x2eacfaf8
	DCD	0x0
	DCD	0x0
	DCD	0xffdf2000
	DCD	0x150020df
	DCD	0xe6fff092
	DCD	0x2000107a
	DCD	0x20dfffdf
	DCD	0x0
	DCD	0x0
	DCD	0xf4f49e27
	DCD	0x279e
	DCD	0x0
	DCD	0x0
	DCD	0xffffdf20
	DCD	0xe58f9be7
	DCD	0xd70dcfe
	DCD	0x0
	DCD	0x0
	DCD	0xffdf2000
	DCD	0x202040df
	DCD	0xf6bc792f
	DCD	0x39cbfa
	DCD	0x0
	DCD	0xcf350000
	DCD	0x2e93f0fe
	DCD	0x2400000d
	DCD	0xfffedf7c
	DCD	0x20df
	DCD	0xcf350000
	DCD	0x2d93f0fe
	DCD	0x2600000d
	DCD	0xffffe67d
	DCD	0x20df
	DCD	0xffdf2000
	DCD	0x20df
	DCD	0x0
	DCD	0x20000000
	DCD	0x20dfffdf
	DCD	0x0
	DCD	0x0
	DCD	0xdf200000
	DCD	0x20dfff
	DCD	0x0
	DCD	0x0
	DCD	0xffdf2000
	DCD	0x20df
	DCD	0x0
	DCD	0x20000000
	DCD	0x20dfffdf
	DCD	0x1c000000
	DCD	0x7ff1fbc6
	DCD	0x12
	DCD	0x0
	DCD	0x0
	DCD	0x0
	DCD	0x0
	DCD	0xf1921500
	DCD	0xa846a3f7
	DCD	0x189df5f8
	DCD	0x0
	DCD	0x0
	DCD	0x0
	DCD	0xf5f6a32a
	DCD	0x8ceef2c3
	DCD	0x13
	DCD	0x0
	DCD	0xffdf2000
	DCD	0x380020df
	DCD	0x9ef5fed1
	DCD	0x20000027
	DCD	0x20dfffdf
	DCD	0x0
	DCD	0x0
	DCD	0xfcc43500
	DCD	0x107be6
	DCD	0x0
	DCD	0x0
	DCD	0xffffdf20
	DCD	0xfde6edfe
	DCD	0x208ced
	DCD	0x0
	DCD	0x0
	DCD	0xffdf2000
	DCD	0xdfdfdfff
	DCD	0xfbfaefdf
	DCD	0x108cde
	DCD	0x0
	DCD	0xf5951600
	DCD	0x31c4fb
	DCD	0x0
	DCD	0xfff49224
	DCD	0x20df
	DCD	0xf5951600
	DCD	0x31c4fb
	DCD	0x0
	DCD	0xfff7ab27
	DCD	0x20df
	DCD	0xdfbf2000
	DCD	0x20bf
	DCD	0x0
	DCD	0x20000000
	DCD	0x20bfdfbf
	DCD	0x0
	DCD	0x0
	DCD	0xdf200000
	DCD	0x20dfff
	DCD	0x0
	DCD	0x0
	DCD	0xffdf2000
	DCD	0x20df
	DCD	0x0
	DCD	0x20000000
	DCD	0x20dfffdf
	DCD	0x16000000
	DCD	0xb4f8f5a2
	DCD	0x19
	DCD	0x0
	DCD	0x0
	DCD	0x0
	DCD	0x0
	DCD	0xfdd13700
	DCD	0x390038d2
	DCD	0x39d3fdd3
	DCD	0x0
	DCD	0x0
	DCD	0x12000000
	DCD	0xc4fcea83
	DCD	0xcff7a850
	DCD	0x3a
	DCD	0x0
	DCD	0xffdf2000
	DCD	0xa32620df
	DCD	0x36cbfdf7
	DCD	0x20000000
	DCD	0x20dfffdf
	DCD	0x0
	DCD	0x0
	DCD	0xe67b1000
	DCD	0x35c4fc
	DCD	0x0
	DCD	0x0
	DCD	0xffffdf20
	DCD	0xf9fdfef9
	DCD	0x2db5
	DCD	0x0
	DCD	0x0
	DCD	0xffdf2000
	DCD	0xdfdfdfff
	DCD	0xfcf5ecdf
	DCD	0x2c9ae7
	DCD	0x0
	DCD	0xfbc71c00
	DCD	0x1389f2
	DCD	0x0
	DCD	0xffdf3500
	DCD	0x20df
	DCD	0xfbc71c00
	DCD	0x1389f2
	DCD	0x0
	DCD	0xffec6c0d
	DCD	0x20df
	DCD	0x20200000
	DCD	0x20
	DCD	0x0
	DCD	0x0
	DCD	0x202020
	DCD	0x0
	DCD	0x0
	DCD	0xdf200000
	DCD	0x20dfff
	DCD	0x0
	DCD	0x0
	DCD	0xffdf2000
	DCD	0x20df
	DCD	0x0
	DCD	0x20000000
	DCD	0x20dfffdf
	DCD	0xd000000
	DCD	0xd5fee66a
	DCD	0x37
	DCD	0x0
	DCD	0x0
	DCD	0x0
	DCD	0x0
	DCD	0xf4f69e25
	DCD	0x18001698
	DCD	0xa8f8f59d
	DCD	0x2a
	DCD	0x0
	DCD	0x35000000
	DCD	0x7be6fcc6
	DCD	0xf9d13910
	DCD	0x2eac
	DCD	0x0
	DCD	0xffdf2000
	DCD	0xe56e2ddf
	DCD	0x138befff
	DCD	0x20000000
	DCD	0x20dfffdf
	DCD	0x0
	DCD	0x0
	DCD	0x9e270000
	DCD	0x279ef4f4
	DCD	0x0
	DCD	0x0
	DCD	0xf9ffdf20
	DCD	0xecfff3c8
	DCD	0xd8b
	DCD	0x0
	DCD	0x0
	DCD	0xffdf2000
	DCD	0x202040df
	DCD	0xd2a56a2d
	DCD	0x2aa3ebfa
	DCD	0x0
	DCD	0xffdb2000
	DCD	0x33df
	DCD	0x0
	DCD	0xffdf2000
	DCD	0x20df
	DCD	0xffdb2000
	DCD	0x33df
	DCD	0x0
	DCD	0xffdf2d00
	DCD	0x20df
	DCD	0x0
	DCD	0x0
	DCD	0x0
	DCD	0x0
	DCD	0x0
	DCD	0x0
	DCD	0x0
	DCD	0xdf200000
	DCD	0x20dfff
	DCD	0x0
	DCD	0x0
	DCD	0xffdf2000
	DCD	0x20df
	DCD	0x0
	DCD	0x20000000
	DCD	0x20dfffdf
	DCD	0x0
	DCD	0xf6f7a827
	DCD	0x2d9e
	DCD	0x0
	DCD	0x0
	DCD	0x0
	DCD	0xd000000
	DCD	0xc9fde46f
	DCD	0x34
	DCD	0xe9fdcd36
	DCD	0x107a
	DCD	0x0
	DCD	0x9e250000
	DCD	0x279ef5f4
	DCD	0xf0921500
	DCD	0x138cee
	DCD	0x0
	DCD	0xffdf2000
	DCD	0xf9b54bdf
	DCD	0x2fbdfb
	DCD	0x20000000
	DCD	0x20dfffdf
	DCD	0x0
	DCD	0x0
	DCD	0x35000000
	DCD	0x7be6fcc4
	DCD	0x10
	DCD	0x0
	DCD	0xdfffdf20
	DCD	0xfcf3a854
	DCD	0x3ac1
	DCD	0x0
	DCD	0x0
	DCD	0xffdf2000
	DCD	0x20df
	DCD	0x3c160d00
	DCD	0x81eafcc8
	DCD	0x12
	DCD	0xffdf2000
	DCD	0x20df
	DCD	0x0
	DCD	0xffdf2000
	DCD	0x20df
	DCD	0xffdf2000
	DCD	0x20df
	DCD	0x0
	DCD	0xffdf2000
	DCD	0x20df
	DCD	0x0
	DCD	0x0
	DCD	0x0
	DCD	0x0
	DCD	0x0
	DCD	0x0
	DCD	0x20202020
	DCD	0xdf402020
	DCD	0x2040dfff
	DCD	0x20202020
	DCD	0x20
	DCD	0xffdf2000
	DCD	0x20df
	DCD	0x0
	DCD	0x20000000
	DCD	0x20dfffdf
	DCD	0x0
	DCD	0xfcc73800
	DCD	0x2d93ec
	DCD	0x0
	DCD	0x0
	DCD	0x0
	DCD	0x2d000000
	DCD	0x84edfab9
	DCD	0x12
	DCD	0xfbf09115
	DCD	0x2ec0
	DCD	0x0
	DCD	0xe4700d00
	DCD	0x36c9fd
	DCD	0xc0310000
	DCD	0x3acffa
	DCD	0x0
	DCD	0xffdf2000
	DCD	0xffeba2ee
	DCD	0xd70e4
	DCD	0x20000000
	DCD	0x20dfffdf
	DCD	0x0
	DCD	0x0
	DCD	0x10000000
	DCD	0xc4fce67b
	DCD	0x35
	DCD	0x0
	DCD	0xdfffdf20
	DCD	0xf5a83420
	DCD	0x39b4fa
	DCD	0x0
	DCD	0x0
	DCD	0xffdf2000
	DCD	0x20df
	DCD	0x13000000
	DCD	0xbefaf28a
	DCD	0x1b
	DCD	0xffdd2000
	DCD	0x2ddf
	DCD	0x0
	DCD	0xffdf2000
	DCD	0x20df
	DCD	0xffdd2000
	DCD	0x2ddf
	DCD	0x0
	DCD	0xffdf2000
	DCD	0x20df
	DCD	0x0
	DCD	0x0
	DCD	0x0
	DCD	0x0
	DCD	0x0
	DCD	0x20000000
	DCD	0xdfdfdfbf
	DCD	0xffdfdfdf
	DCD	0xdfdfffff
	DCD	0xdfdfdfdf
	DCD	0x20bf
	DCD	0xffdf2000
	DCD	0x20df
	DCD	0x0
	DCD	0x20000000
	DCD	0x20dfffdf
	DCD	0x0
	DCD	0xdb7b1000
	DCD	0x369eecfc
	DCD	0x1216
	DCD	0x1a130d00
	DCD	0x16
	DCD	0x83120000
	DCD	0x2ec0fbec
	DCD	0x0
	DCD	0xfbc23100
	DCD	0x1284ed
	DCD	0x0
	DCD	0xfbbd3200
	DCD	0x1284eb
	DCD	0x7a100000
	DCD	0x2eacf9e8
	DCD	0x0
	DCD	0xfcdf2000
	DCD	0xf5fbdfef
	DCD	0x259e
	DCD	0x20000000
	DCD	0x20dfffdf
	DCD	0x0
	DCD	0x0
	DCD	0x0
	DCD	0xf4f49e27
	DCD	0x279e
	DCD	0x0
	DCD	0xdfffdf20
	DCD	0xb0360020
	DCD	0x36b0f9f9
	DCD	0x0
	DCD	0x0
	DCD	0xffdf2000
	DCD	0x20df
	DCD	0x0
	DCD	0xdaffdf33
	DCD	0x20
	DCD	0xfdd21e00
	DCD	0xd69ec
	DCD	0x0
	DCD	0xffdf2d00
	DCD	0x20df
	DCD	0xfdd31e00
	DCD	0xd69ec
	DCD	0x0
	DCD	0xffdf2000
	DCD	0x20df
	DCD	0x0
	DCD	0x202020
	DCD	0x0
	DCD	0x0
	DCD	0x0
	DCD	0x20000000
	DCD	0xdfdfdfbf
	DCD	0xdfdfdfdf
	DCD	0xdfdfdfdf
	DCD	0xdfdfdfdf
	DCD	0x20bf
	DCD	0xdfbf2000
	DCD	0x20bf
	DCD	0x0
	DCD	0x20000000
	DCD	0x20bfdfbf
	DCD	0x0
	DCD	0x7b1f0000
	DCD	0xcef5f6c7
	DCD	0x20317ca8
	DCD	0xb194672d
	DCD	0x168f
	DCD	0xc6320000
	DCD	0x107ae9fc
	DCD	0x0
	DCD	0xeb821200
	DCD	0x33c9fd
	DCD	0x0
	DCD	0xf8f29816
	DCD	0x2ca8
	DCD	0x28000000
	DCD	0x8ceef7a3
	DCD	0x13
	DCD	0xfedf2000
	DCD	0xc9fdfaf9
	DCD	0x36
	DCD	0x20000000
	DCD	0x20dfffdf
	DCD	0x0
	DCD	0x0
	DCD	0x0
	DCD	0xfcc43500
	DCD	0x107be6
	DCD	0x0
	DCD	0xdfffdf20
	DCD	0x39000020
	DCD	0xa8f5fab4
	DCD	0x34
	DCD	0x0
	DCD	0xffdf2000
	DCD	0x20df
	DCD	0x0
	DCD	0xddffdf33
	DCD	0x20
	DCD	0xf9b91a00
	DCD	0x159ef4
	DCD	0x0
	DCD	0xffec6c0d
	DCD	0x20df
	DCD	0xfabf1b00
	DCD	0x159df4
	DCD	0x0
	DCD	0xffdf3500
	DCD	0x20df
	DCD	0x20000000
	DCD	0x20bfdfbf
	DCD	0x0
	DCD	0x0
	DCD	0x0
	DCD	0x0
	DCD	0x20202020
	DCD	0x20202020
	DCD	0x20202020
	DCD	0x20202020
	DCD	0x20
	DCD	0x20200000
	DCD	0x20
	DCD	0x0
	DCD	0x0
	DCD	0x202020
	DCD	0x0
	DCD	0x10000000
	DCD	0xf2d8a337
	DCD	0xdfdfeef1
	DCD	0xf2f0ecdf
	DCD	0x1cbe
	DCD	0xf1921500
	DCD	0x2ab5f8
	DCD	0x0
	DCD	0xb52c0000
	DCD	0x1592f2f8
	DCD	0x0
	DCD	0xcffdd23a
	DCD	0x39
	DCD	0x0
	DCD	0xcffdcf38
	DCD	0x3a
	DCD	0xffdf2000
	DCD	0x84ecfffe
	DCD	0x12
	DCD	0x20000000
	DCD	0x20dfffdf
	DCD	0x0
	DCD	0x0
	DCD	0x0
	DCD	0xe67b1000
	DCD	0x35c4fc
	DCD	0x0
	DCD	0xdfffdf20
	DCD	0x20
	DCD	0xf3fcc73b
	DCD	0x34a8
	DCD	0x0
	DCD	0xffdf2000
	DCD	0x20df
	DCD	0x13000000
	DCD	0xd1fdf28a
	DCD	0x1e
	DCD	0xef871300
	DCD	0x36cdfd
	DCD	0x0
	DCD	0xfff7aa27
	DCD	0x20df
	DCD	0xf18f1500
	DCD	0x32c5fb
	DCD	0x0
	DCD	0xfff49224
	DCD	0x20df
	DCD	0x20000000
	DCD	0x20dfffdf
	DCD	0x0
	DCD	0x0
	DCD	0x0
	DCD	0x0
	DCD	0x0
	DCD	0x0
	DCD	0x0
	DCD	0x0
	DCD	0x0
	DCD	0x0
	DCD	0x0
	DCD	0x0
	DCD	0x0
	DCD	0x0
	DCD	0x0
	DCD	0x0
	DCD	0x8f351900
	DCD	0xdfdccfbe
	DCD	0xc5d0dcdf
	DCD	0x1897
	DCD	0xddb11f00
	DCD	0xd6dc9
	DCD	0x0
	DCD	0x6d0d0000
	DCD	0x1fb1ddc9
	DCD	0x1b000000
	DCD	0x8cd3da8c
	DCD	0x13
	DCD	0x0
	DCD	0xdad38c13
	DCD	0x1b8c
	DCD	0xffdf2000
	DCD	0x2db9f9ff
	DCD	0x0
	DCD	0x20000000
	DCD	0x20dfffdf
	DCD	0x0
	DCD	0x0
	DCD	0x0
	DCD	0x9e270000
	DCD	0x279ef4f4
	DCD	0x0
	DCD	0xdfffdf20
	DCD	0x20
	DCD	0xfedb7b10
	DCD	0x34a8f3
	DCD	0x0
	DCD	0xffdf2000
	DCD	0x20df
	DCD	0x3b150d00
	DCD	0xa1f7fcc8
	DCD	0x19
	DCD	0xbd2f0000
	DCD	0x339ef5fa
	DCD	0x24000010
	DCD	0xfffde37c
	DCD	0x20df
	DCD	0xc4320000
	DCD	0x3099f2fb
	DCD	0x24000010
	DCD	0xfffde07c
	DCD	0x20df
	DCD	0x20000000
	DCD	0x20dfffdf
	DCD	0x0
	DCD	0x0
	DCD	0x0
	DCD	0x0
	DCD	0x0
	DCD	0x0
	DCD	0x0
	DCD	0x0
	DCD	0x0
	DCD	0x0
	DCD	0x0
	DCD	0x0
	DCD	0x0
	DCD	0x0
	DCD	0x0
	DCD	0x0
	DCD	0x15000000
	DCD	0x20201d1b
	DCD	0x1c1d2020
	DCD	0x18
	DCD	0x201f0000
	DCD	0xd1f
	DCD	0x0
	DCD	0xd000000
	DCD	0x1f201f
	DCD	0x0
	DCD	0x1320201b
	DCD	0x0
	DCD	0x0
	DCD	0x20201300
	DCD	0x1b
	DCD	0xdfbf2000
	DCD	0xd6ec9de
	DCD	0x0
	DCD	0x20000000
	DCD	0x20bfdfbf
	DCD	0x0
	DCD	0x20202000
	DCD	0x20202020
	DCD	0x55202020
	DCD	0x7be6fcd4
	DCD	0x10
	DCD	0xdfffdf20
	DCD	0x20
	DCD	0xe47d1f00
	DCD	0x34a8f3ff
	DCD	0x0
	DCD	0xffdf2000
	DCD	0x202040df
	DCD	0xcd9e692d
	DCD	0x38c9fbfa
	DCD	0x0
	DCD	0x6f0d0000
	DCD	0xbcf2fbd8
	DCD	0x92352f79
	DCD	0xfef3f1e0
	DCD	0x20df
	DCD	0x7a100000
	DCD	0xb7f0fcdb
	DCD	0x92352f78
	DCD	0xfef8f1e0
	DCD	0x20df
	DCD	0x20000000
	DCD	0x20dfffdf
	DCD	0x0
	DCD	0x0
	DCD	0x0
	DCD	0x0
	DCD	0x0
	DCD	0x0
	DCD	0x0
	DCD	0x0
	DCD	0x0
	DCD	0x0
	DCD	0x0
	DCD	0x0
	DCD	0x0
	DCD	0x0
	DCD	0x0
	DCD	0x0
	DCD	0x0
	DCD	0x0
	DCD	0x0
	DCD	0x0
	DCD	0x0
	DCD	0x0
	DCD	0x0
	DCD	0x0
	DCD	0x0
	DCD	0x0
	DCD	0x0
	DCD	0x0
	DCD	0x0
	DCD	0x0
	DCD	0x0
	DCD	0x20200000
	DCD	0xd1f20
	DCD	0x0
	DCD	0x0
	DCD	0x202020
	DCD	0x0
	DCD	0xdfdfbf20
	DCD	0xdfdfdfdf
	DCD	0xdfdfdfdf
	DCD	0xc4fcfffc
	DCD	0x1d
	DCD	0xdfffdf20
	DCD	0x20
	DCD	0x93240000
	DCD	0xa8f3ffe9
	DCD	0x34
	DCD	0xffdf2000
	DCD	0xdfdfdfff
	DCD	0xf7f0ecdf
	DCD	0xd70c1f0
	DCD	0x0
	DCD	0x1d000000
	DCD	0xf7f3c47a
	DCD	0xeededfef
	DCD	0xf7caabe5
	DCD	0x20df
	DCD	0x1f000000
	DCD	0xf6f4c77b
	DCD	0xeededfef
	DCD	0xfbe0afe5
	DCD	0x20df
	DCD	0x20000000
	DCD	0x20dfffdf
	DCD	0x0
	DCD	0x0
	DCD	0x0
	DCD	0x201e0000
	DCD	0x1d2020
	DCD	0x0
	DCD	0x201e0000
	DCD	0x1d2020
	DCD	0x0
	DCD	0x0
	DCD	0x0
	DCD	0x0
	DCD	0x0
	DCD	0x0
	DCD	0x0
	DCD	0x0
	DCD	0x0
	DCD	0x0
	DCD	0x0
	DCD	0x0
	DCD	0x0
	DCD	0x0
	DCD	0x0
	DCD	0x0
	DCD	0x0
	DCD	0x0
	DCD	0x0
	DCD	0x0
	DCD	0x0
	DCD	0x0
	DCD	0x0
	DCD	0x0
	DCD	0x0
	DCD	0x0
	DCD	0x0
	DCD	0x0
	DCD	0x0
	DCD	0xdfdfbf20
	DCD	0xdfdfdfdf
	DCD	0xdfdfdfdf
	DCD	0xbddfdfdf
	DCD	0x20
	DCD	0xbfdfbf20
	DCD	0x20
	DCD	0x2a000000
	DCD	0xd3dfd493
	DCD	0x1a88
	DCD	0xdfbf2000
	DCD	0xdfdfdfdf
	DCD	0xb7cadbdf
	DCD	0xd3087
	DCD	0x0
	DCD	0x0
	DCD	0xc7953310
	DCD	0xb8d6dedb
	DCD	0xd7963e80
	DCD	0x20bf
	DCD	0x0
	DCD	0xcb963410
	DCD	0xb8d6dedc
	DCD	0xdbad4380
	DCD	0x20bf
	DCD	0x20000000
	DCD	0x20dfffdf
	DCD	0x0
	DCD	0x0
	DCD	0x0
	DCD	0xddb82b00
	DCD	0x1db4dcdf
	DCD	0x0
	DCD	0xddb82b00
	DCD	0x1db4dcdf
	DCD	0x0
	DCD	0x0
	DCD	0x0
	DCD	0x0
	DCD	0x0
	DCD	0x0
	DCD	0x0
	DCD	0x0
	DCD	0x0
	DCD	0x0
	DCD	0x0
	DCD	0x0
	DCD	0x0
	DCD	0x0
	DCD	0x0
	DCD	0x0
	DCD	0x0
	DCD	0x0
	DCD	0x0
	DCD	0x0
	DCD	0x0
	DCD	0x0
	DCD	0x0
	DCD	0x0
	DCD	0x0
	DCD	0x0
	DCD	0x0
	DCD	0x0
	DCD	0x0
	DCD	0x20202000
	DCD	0x20202020
	DCD	0x20202020
	DCD	0x20202020
	DCD	0x0
	DCD	0x20202000
	DCD	0x0
	DCD	0x0
	DCD	0x20202015
	DCD	0x1a
	DCD	0x20200000
	DCD	0x20202020
	DCD	0x1a1c2020
	DCD	0x13
	DCD	0x0
	DCD	0x0
	DCD	0x1c160000
	DCD	0x1a1f2020
	DCD	0x20180012
	DCD	0x20
	DCD	0x0
	DCD	0x1d160000
	DCD	0x1a1f2020
	DCD	0x201c0012
	DCD	0x20
	DCD	0x20000000
	DCD	0x20dfffdf
	DCD	0x0
	DCD	0x0
	DCD	0x0
	DCD	0xffea690d
	DCD	0x31dcffff
	DCD	0x0
	DCD	0xffea670d
	DCD	0x33dcffff
	DCD	0x0
	DCD	0x0
	DCD	0x20202000
	DCD	0x0
	DCD	0x20190000
	DCD	0x192020
	DCD	0x0
	DCD	0x20202000
	DCD	0x0
	DCD	0x0
	DCD	0x15000000
	DCD	0x20201e1b
	DCD	0x181c1e20
	DCD	0x10
	DCD	0x0
	DCD	0x0
	DCD	0x0
	DCD	0x1c160000
	DCD	0x1e20201f
	DCD	0x151b
	DCD	0x0
	DCD	0x0
	DCD	0x0
	DCD	0x0
	DCD	0x0
	DCD	0x0
	DCD	0x0
	DCD	0x0
	DCD	0x0
	DCD	0x0
	DCD	0x0
	DCD	0x0
	DCD	0x0
	DCD	0x0
	DCD	0x0
	DCD	0x0
	DCD	0x0
	DCD	0x0
	DCD	0x0
	DCD	0x0
	DCD	0x0
	DCD	0x0
	DCD	0x0
	DCD	0x0
	DCD	0x0
	DCD	0x0
	DCD	0x0
	DCD	0x0
	DCD	0x0
	DCD	0x0
	DCD	0x0
	DCD	0x0
	DCD	0x0
	DCD	0x0
	DCD	0x20000000
	DCD	0x20dfffdf
	DCD	0x0
	DCD	0x0
	DCD	0x0
	DCD	0xfff49915
	DCD	0x7ef1fffe
	DCD	0x12
	DCD	0xfff29213
	DCD	0x86f2fffe
	DCD	0x13
	DCD	0x0
	DCD	0xbfdfbd20
	DCD	0x31
	DCD	0xd8a11900
	DCD	0x19a1d8df
	DCD	0x0
	DCD	0xbddfbf31
	DCD	0x20
	DCD	0x0
	DCD	0x8f341600
	DCD	0xdfddd3bf
	DCD	0xaac6d4dd
	DCD	0x1073
	DCD	0x0
	DCD	0x0
	DCD	0x0
	DCD	0xc6953518
	DCD	0xd3ddded8
	DCD	0x13348fbf
	DCD	0x0
	DCD	0x0
	DCD	0x0
	DCD	0x0
	DCD	0x2020201b
	DCD	0x1b
	DCD	0x0
	DCD	0x0
	DCD	0x0
	DCD	0x0
	DCD	0x0
	DCD	0x0
	DCD	0x0
	DCD	0x0
	DCD	0x0
	DCD	0x0
	DCD	0x0
	DCD	0x0
	DCD	0x0
	DCD	0x0
	DCD	0x0
	DCD	0x0
	DCD	0x0
	DCD	0x0
	DCD	0x0
	DCD	0x0
	DCD	0x0
	DCD	0x0
	DCD	0x0
	DCD	0x0
	DCD	0x0
	DCD	0x0
	DCD	0x0
	DCD	0x0
	DCD	0x20000000
	DCD	0x20dfffdf
	DCD	0x0
	DCD	0x0
	DCD	0x0
	DCD	0xfef8b519
	DCD	0xabf7fef3
	DCD	0x18
	DCD	0xfef7ae18
	DCD	0xb4f8fef5
	DCD	0x19
	DCD	0x0
	DCD	0xf1fcd01d
	DCD	0x1277
	DCD	0xfccd1d00
	DCD	0x1dcdfcff
	DCD	0x12000000
	DCD	0xd0fcf177
	DCD	0x1d
	DCD	0x0
	DCD	0xf1d29831
	DCD	0xdfdfedf1
	DCD	0xe6ebdddf
	DCD	0x1db5
	DCD	0x0
	DCD	0x0
	DCD	0x33000000
	DCD	0xf3f4d39d
	DCD	0xeddfdfee
	DCD	0x8ccff2f2
	DCD	0x2d
	DCD	0x0
	DCD	0x0
	DCD	0x1b000000
	DCD	0xdadfdaac
	DCD	0x1bac
	DCD	0x0
	DCD	0x0
	DCD	0x0
	DCD	0x0
	DCD	0x0
	DCD	0x0
	DCD	0x0
	DCD	0x0
	DCD	0x0
	DCD	0x0
	DCD	0x0
	DCD	0x0
	DCD	0x0
	DCD	0x0
	DCD	0x0
	DCD	0x0
	DCD	0x0
	DCD	0x0
	DCD	0x0
	DCD	0x0
	DCD	0x0
	DCD	0x0
	DCD	0x0
	DCD	0x0
	DCD	0x0
	DCD	0x0
	DCD	0x0
	DCD	0x0
	DCD	0x20000000
	DCD	0x20dfffdf
	DCD	0x0
	DCD	0x0
	DCD	0x0
	DCD	0xf7fccd1d
	DCD	0xc2faf7ca
	DCD	0x1b
	DCD	0xf8fbc71c
	DCD	0xcdfcf8d2
	DCD	0x1d
	DCD	0x0
	DCD	0xf1fbc81c
	DCD	0x128f
	DCD	0xffdc3300
	DCD	0x33dcffff
	DCD	0x12000000
	DCD	0xc8fbf18e
	DCD	0x1c
	DCD	0x36000000
	DCD	0xcef3f0ac
	DCD	0x202f74a6
	DCD	0x876f2f20
	DCD	0x1275
	DCD	0x0
	DCD	0x0
	DCD	0xac350000
	DCD	0xadd3fbf2
	DCD	0x762f2f76
	DCD	0xedfbd3ad
	DCD	0x33a8
	DCD	0x0
	DCD	0x0
	DCD	0x35000000
	DCD	0xffffffda
	DCD	0x35da
	DCD	0x0
	DCD	0x0
	DCD	0x0
	DCD	0x201e1a12
	DCD	0x191c2020
	DCD	0x12
	DCD	0x1a202016
	DCD	0x0
	DCD	0x20201e00
	DCD	0x10
	DCD	0x0
	DCD	0x0
	DCD	0x1e202010
	DCD	0x0
	DCD	0x0
	DCD	0xd000000
	DCD	0x201d1b16
	DCD	0x1c202020
	DCD	0x10181b
	DCD	0x0
	DCD	0x201e1c00
	DCD	0x20202020
	DCD	0x13191c1f
	DCD	0x0
	DCD	0x0
	DCD	0x0
	DCD	0x162016
	DCD	0x0
	DCD	0x20000000
	DCD	0x20dfffdf
	DCD	0x0
	DCD	0x0
	DCD	0x0
	DCD	0xe9ffdc33
	DCD	0xd3fdeb8b
	DCD	0x1e
	DCD	0xeffed82f
	DCD	0xdcffec97
	DCD	0x31
	DCD	0x0
	DCD	0xf7f9bc1a
	DCD	0x18a8
	DCD	0xfff28613
	DCD	0x86f2fffb
	DCD	0x16000013
	DCD	0xbcf9f5a2
	DCD	0x1a
	DCD	0xac330000
	DCD	0x3498e2f4
	DCD	0x1016
	DCD	0x12100000
	DCD	0x12
	DCD	0x0
	DCD	0x0
	DCD	0xf4a82f00
	DCD	0x183cb4fb
	DCD	0x10000010
	DCD	0xfab43c18
	DCD	0x2aa3f2
	DCD	0x0
	DCD	0x0
	DCD	0x8f150000
	DCD	0xfffbfff4
	DCD	0x158ff4
	DCD	0x0
	DCD	0x0
	DCD	0x2c000000
	DCD	0xddd2b780
	DCD	0xb1c9dbdf
	DCD	0x2b122e7f
	DCD	0x88d5d699
	DCD	0x1a
	DCD	0xcfddb11e
	DCD	0x1077
	DCD	0x0
	DCD	0x10000000
	DCD	0xb1ddcf77
	DCD	0x1e
	DCD	0x0
	DCD	0x6a290d00
	DCD	0xdccfc0a1
	DCD	0xcbdbdfdf
	DCD	0x2f76a9c0
	DCD	0x0
	DCD	0xddd4ae1c
	DCD	0xdedfdfdf
	DCD	0x86b3c8d8
	DCD	0x1832
	DCD	0x0
	DCD	0x16000000
	DCD	0x1698cc98
	DCD	0x0
	DCD	0x20000000
	DCD	0x20dfffdf
	DCD	0x0
	DCD	0x0
	DCD	0x13000000
	DCD	0xcdfcf286
	DCD	0xddfed849
	DCD	0x10000033
	DCD	0xdbffee73
	DCD	0xf1fcce4d
	DCD	0x127e
	DCD	0x0
	DCD	0xf7f7b018
	DCD	0x18b2
	DCD	0xfbf8b419
	DCD	0xb4f8fbe5
	DCD	0x18000019
	DCD	0xb0f7f7ae
	DCD	0x18
	DCD	0xf19d1800
	DCD	0x13267cdf
	DCD	0x1b1f201d
	DCD	0x18000010
	DCD	0x151d201f
	DCD	0x0
	DCD	0x0
	DCD	0xfeee9115
	DCD	0x3ccf
	DCD	0x0
	DCD	0xcb3b0000
	DCD	0x1284eafd
	DCD	0x0
	DCD	0x0
	DCD	0xc11b0000
	DCD	0xfbddfbfa
	DCD	0x1bc1fa
	DCD	0x0
	DCD	0x0
	DCD	0xa8350000
	DCD	0xecf5f8eb
	DCD	0xf0ebdfdf
	DCD	0xa597c2ec
	DCD	0x35acf8ea
	DCD	0x0
	DCD	0xf8f8b119
	DCD	0x19b1
	DCD	0x0
	DCD	0x19000000
	DCD	0xb1f8f8b1
	DCD	0x19
	DCD	0x0
	DCD	0xe8bd6f22
	DCD	0xdfeef3f5
	DCD	0xebdfdfdf
	DCD	0xbceef7ef
	DCD	0x1f
	DCD	0xfffddb20
	DCD	0xdfdfdfdf
	DCD	0xf0f1edde
	DCD	0x10369dd3
	DCD	0x0
	DCD	0x1f000000
	DCD	0x1fd1fdd1
	DCD	0x0
	DCD	0x20000000
	DCD	0x20dfffdf
	DCD	0x0
	DCD	0x0
	DCD	0x19000000
	DCD	0xb5f8f8b3
	DCD	0xf2fbc735
	DCD	0x15001385
	DCD	0xc9fbf49c
	DCD	0xf7f9ba36
	DCD	0x18ac
	DCD	0x0
	DCD	0xfbf7a818
	DCD	0x1cc4
	DCD	0xf4fccd1d
	DCD	0xcdfcf4af
	DCD	0x1900001d
	DCD	0xa8f7f8b7
	DCD	0x18
	DCD	0xeed33500
	DCD	0x8a27238c
	DCD	0xbbd7dcc8
	DCD	0x9d292479
	DCD	0x91c9dcd3
	DCD	0x2f
	DCD	0x0
	DCD	0xf0fdcd31
	DCD	0x138c
	DCD	0x0
	DCD	0x8b130000
	DCD	0x30c9fdf0
	DCD	0x0
	DCD	0x0
	DCD	0xda350000
	DCD	0xe990e7ff
	DCD	0x35daff
	DCD	0x0
	DCD	0x0
	DCD	0xf4ac3000
	DCD	0x6caae0fd
	DCD	0xad762f2d
	DCD	0xf4f1f8d3
	DCD	0x38b4fa
	DCD	0x0
	DCD	0xfded7710
	DCD	0x2ed1
	DCD	0x0
	DCD	0x2e000000
	DCD	0x77edfdd1
	DCD	0x10
	DCD	0x2a000000
	DCD	0xf7fade92
	DCD	0x317fb4d5
	DCD	0x732f2020
	DCD	0xdefff4a3
	DCD	0x20
	DCD	0xdfffdf20
	DCD	0x20202040
	DCD	0xd1b37f31
	DCD	0x7bc7f5f4
	DCD	0x1f
	DCD	0x1f000000
	DCD	0x1fd3fdd1
	DCD	0x0
	DCD	0x40200000
	DCD	0x40dfffdf
	DCD	0x202020
	DCD	0x0
	DCD	0x1c000000
	DCD	0x99f4fbc9
	DCD	0xf7f7ae2d
	DCD	0x190018ae
	DCD	0xb4f8f8b5
	DCD	0xfbf49a2e
	DCD	0x1cc8
	DCD	0x0
	DCD	0xfbf18f12
	DCD	0x1ccc
	DCD	0xdbffdc33
	DCD	0xdcffdb55
	DCD	0x1c000033
	DCD	0x8ff1fbc5
	DCD	0x12
	DCD	0xc5f19516
	DCD	0xe68a132f
	DCD	0xe7deecfa
	DCD	0xe897a5db
	DCD	0xe9dcecfd
	DCD	0x33a8
	DCD	0x13000000
	DCD	0xcbfcf187
	DCD	0x30
	DCD	0x0
	DCD	0x30000000
	DCD	0x7feffccb
	DCD	0x12
	DCD	0x0
	DCD	0xf48f1500
	DCD	0xcb45c1fa
	DCD	0x158ff4fc
	DCD	0x0
	DCD	0x0
	DCD	0xfeef9115
	DCD	0xd2572de
	DCD	0x18100000
	DCD	0xfdfcd13c
	DCD	0x4bd8
	DCD	0x0
	DCD	0xfdd12e00
	DCD	0x1077ed
	DCD	0x0
	DCD	0x77100000
	DCD	0x2ed1fded
	DCD	0x0
	DCD	0x93240000
	DCD	0xa3edfee9
	DCD	0x121938
	DCD	0x10000000
	DCD	0xdfffdf35
	DCD	0x20
	DCD	0xdfffdf20
	DCD	0x20
	DCD	0x36191200
	DCD	0xdbfcec9e
	DCD	0x107c
	DCD	0x16000000
	DCD	0x189dcd98
	DCD	0x0
	DCD	0xdfbf2000
	DCD	0xdfffffff
	DCD	0x20bfdfdf
	DCD	0x0
	DCD	0x31000000
	DCD	0x69eaffdb
	DCD	0xfbf29220
	DCD	0x1d001cc7
	DCD	0x9cf4fccd
	DCD	0xffea6922
	DCD	0x31db
	DCD	0x0
	DCD	0xfef18412
	DCD	0x13001fd8
	DCD	0xc9fbf286
	DCD	0xf2fbc938
	DCD	0x1c001386
	DCD	0x84f1fbcc
	DCD	0x12
	DCD	0x9df0c61c
	DCD	0xfac81d15
	DCD	0x6c3a71ce
	DCD	0xfae1d8ab
	DCD	0xac4873e5
	DCD	0x28a3ec
	DCD	0x1a000000
	DCD	0xa8f5f9b8
	DCD	0x16
	DCD	0x0
	DCD	0x16000000
	DCD	0xb1f8f5a8
	DCD	0x19
	DCD	0x0
	DCD	0xfac11b00
	DCD	0xa32b8ff4
	DCD	0x1bc1faf5
	DCD	0x0
	DCD	0x0
	DCD	0xf4fcc91d
	DCD	0x2292
	DCD	0x0
	DCD	0xfffcd13a
	DCD	0x107ced
	DCD	0x0
	DCD	0xf8b11900
	DCD	0x19b1f8
	DCD	0x0
	DCD	0xb1190000
	DCD	0x19b1f8f8
	DCD	0x0
	DCD	0xe47a1000
	DCD	0x2e93edff
	DCD	0x0
	DCD	0x0
	DCD	0xdfffdf20
	DCD	0x20
	DCD	0xdfffdf20
	DCD	0x20
	DCD	0x0
	DCD	0xfdec932d
	DCD	0x39cb
	DCD	0x0
	DCD	0x182016
	DCD	0x0
	DCD	0xdfbf2000
	DCD	0xdfffffff
	DCD	0x20bfdfdf
	DCD	0x0
	DCD	0x7e120000
	DCD	0x2bd2fdf1
	DCD	0xfeea670d
	DCD	0x31002cd8
	DCD	0x73efffdc
	DCD	0xfdd22b10
	DCD	0x127ef1
	DCD	0x0
	DCD	0xffec650d
	DCD	0x19002fde
	DCD	0xb3f8f8b4
	DCD	0xf8f8b432
	DCD	0x200019b3
	DCD	0x65ecffdb
	DCD	0xd
	DCD	0x69ebd81f
	DCD	0xecdc200d
	DCD	0xd001a71
	DCD	0xfadb7d27
	DCD	0x390029cd
	DCD	0x1077e6ce
	DCD	0x1d000000
	DCD	0x7cf1fcce
	DCD	0x12
	DCD	0x0
	DCD	0x12000000
	DCD	0xc8fbf17c
	DCD	0x1c
	DCD	0x0
	DCD	0xffda3500
	DCD	0x6a0d35da
	DCD	0x35daffe9
	DCD	0x0
	DCD	0x0
	DCD	0xdfffdc20
	DCD	0x35
	DCD	0x38000000
	DCD	0xf9f5fab4
	DCD	0x33c7fd
	DCD	0x0
	DCD	0xed771000
	DCD	0x2ed1fd
	DCD	0x0
	DCD	0xd12e0000
	DCD	0x1077edfd
	DCD	0x0
	DCD	0xfbc02c00
	DCD	0x2ea3f7
	DCD	0x0
	DCD	0x0
	DCD	0xdfffdf20
	DCD	0x20
	DCD	0xdfffdf20
	DCD	0x20
	DCD	0x0
	DCD	0xf69e2d00
	DCD	0x27a8f8
	DCD	0x0
	DCD	0x202020
	DCD	0x0
	DCD	0x40200000
	DCD	0x40dfffdf
	DCD	0x202020
	DCD	0x0
	DCD	0xac180000
	DCD	0x1abbf9f7
	DCD	0xfdd32b00
	DCD	0x7c1f69eb
	DCD	0x2fdbfff1
	DCD	0xf9bb1a00
	DCD	0x18acf7
	DCD	0x0
	DCD	0xffde2d00
	DCD	0x1d106fef
	DCD	0x86f2fccd
	DCD	0xfbf49928
	DCD	0x2f001cc9
	DCD	0x2ddeffdf
	DCD	0x0
	DCD	0x2ddfde20
	DCD	0xdfdc2000
	DCD	0x3e
	DCD	0xee8c2300
	DCD	0x16001dd0
	DCD	0x19b0eea6
	DCD	0x20000000
	DCD	0x31dfffdc
	DCD	0x0
	DCD	0x0
	DCD	0x0
	DCD	0xd8fedf31
	DCD	0x1f
	DCD	0x0
	DCD	0xfaf49115
	DCD	0x2a001bc1
	DCD	0x90f4fccb
	DCD	0x15
	DCD	0x0
	DCD	0xdfffdc20
	DCD	0x36
	DCD	0xac350000
	DCD	0xcbb3f2f8
	DCD	0x1591f2f9
	DCD	0x0
	DCD	0xd12e0000
	DCD	0x2f7eedfd
	DCD	0x20202020
	DCD	0xed7e2f20
	DCD	0x2ed1fd
	DCD	0x0
	DCD	0xfeeb7710
	DCD	0x38d5
	DCD	0x0
	DCD	0x0
	DCD	0xdfffdf20
	DCD	0x20
	DCD	0xdfffdf20
	DCD	0x20
	DCD	0x0
	DCD	0xd5370000
	DCD	0xd6ae6fe
	DCD	0x20000000
	DCD	0x20bfdfbf
	DCD	0x0
	DCD	0x20000000
	DCD	0x2ddfffdc
	DCD	0x0
	DCD	0x0
	DCD	0xc81c0000
	DCD	0x159af4fb
	DCD	0xfac21b00
	DCD	0xa42b99f4
	DCD	0x1cc9fbf5
	DCD	0xf49a1500
	DCD	0x1cc7fb
	DCD	0x0
	DCD	0xfed81f00
	DCD	0x33128af1
	DCD	0x33dcffdc
	DCD	0xffea690d
	DCD	0x6f1031db
	DCD	0x1fd8feef
	DCD	0x0
	DCD	0x20dfde20
	DCD	0xeecb1d00
	DCD	0x1282
	DCD	0xd1310000
	DCD	0x100031db
	DCD	0x1dcdec74
	DCD	0x20000000
	DCD	0x20dfffdf
	DCD	0x0
	DCD	0x0
	DCD	0x0
	DCD	0xdeffdf20
	DCD	0x20
	DCD	0x0
	DCD	0xf4fcc92a
	DCD	0x1600158f
	DCD	0xc5fbf5a3
	DCD	0x29
	DCD	0x0
	DCD	0xf5fccc1d
	DCD	0x2b99
	DCD	0xf4a82f00
	DCD	0x6e3fb0fa
	DCD	0x2ac9fce9
	DCD	0x0
	DCD	0xb1190000
	DCD	0xdfeffff8
	DCD	0xdfdfdfdf
	DCD	0xffefdfdf
	DCD	0x19b1f8
	DCD	0x0
	DCD	0xf8f8af19
	DCD	0x19b4
	DCD	0x0
	DCD	0x0
	DCD	0xdfffdf20
	DCD	0x20
	DCD	0xdfffdf20
	DCD	0x20
	DCD	0x0
	DCD	0xb6190000
	DCD	0x16a1f5f8
	DCD	0x20000000
	DCD	0x20dfffdf
	DCD	0x0
	DCD	0x1d000000
	DCD	0x6cecfccd
	DCD	0xd
	DCD	0x0
	DCD	0xdb2f0000
	DCD	0xd69eaff
	DCD	0xf7ab1800
	DCD	0xbb33b4f8
	DCD	0x19b4f8f9
	DCD	0xea690d00
	DCD	0x2fd8fe
	DCD	0x0
	DCD	0xfbcc1c00
	DCD	0x86289df4
	DCD	0x1dcdfcf2
	DCD	0xfdd22b00
	DCD	0x89237ef1
	DCD	0x1cccfbf1
	DCD	0x0
	DCD	0x31ded81f
	DCD	0xef961600
	DCD	0x36c2
	DCD	0xb5190000
	DCD	0x127cea
	DCD	0x20dcdf2f
	DCD	0x20000000
	DCD	0x20dfffde
	DCD	0x0
	DCD	0x0
	DCD	0x0
	DCD	0xdfffdf20
	DCD	0x20
	DCD	0xd000000
	DCD	0xdaffe96a
	DCD	0xd000035
	DCD	0xe8ffe96a
	DCD	0xd6a
	DCD	0x0
	DCD	0xfff49c18
	DCD	0xd2f93ea
	DCD	0xfeee9328
	DCD	0x2a003bcf
	DCD	0x6ae9fccc
	DCD	0xd
	DCD	0x77100000
	DCD	0xefffffed
	DCD	0xdfdfdfdf
	DCD	0xffffefdf
	DCD	0x1077ed
	DCD	0x0
	DCD	0xf1fbc91c
	DCD	0x127f
	DCD	0x0
	DCD	0x0
	DCD	0xdfffdf20
	DCD	0x20
	DCD	0xdfffdf20
	DCD	0x20
	DCD	0x0
	DCD	0x93130000
	DCD	0x1bc1faf2
	DCD	0x20000000
	DCD	0x20dfffdf
	DCD	0x0
	DCD	0x19000000
	DCD	0xaaf7f8ae
	DCD	0x2d
	DCD	0x0
	DCD	0xef741000
	DCD	0x2bd2fd
	DCD	0xf17e1200
	DCD	0xce39c9fb
	DCD	0x1599f4fc
	DCD	0xd22b0000
	DCD	0x1074eefd
	DCD	0x0
	DCD	0xfbc51c00
	DCD	0xb431abf7
	DCD	0x19b4f8f8
	DCD	0xf9bb1a00
	DCD	0x962bacf7
	DCD	0x1cc5fbf2
	DCD	0x0
	DCD	0x7cedc81c
	DCD	0xc4330012
	DCD	0x1638a8f2
	DCD	0x95130010
	DCD	0x16a4e9
	DCD	0x20dfdf20
	DCD	0x1f000000
	DCD	0x31dffed8
	DCD	0x0
	DCD	0x0
	DCD	0x0
	DCD	0xdcffdf31
	DCD	0x20
	DCD	0x16000000
	DCD	0xc1faf5a3
	DCD	0x1b
	DCD	0xf5fcc92a
	DCD	0x16a3
	DCD	0x0
	DCD	0xfab43500
	DCD	0x81b5eeff
	DCD	0xebffe79a
	DCD	0x1800138c
	DCD	0xa1f5f7ad
	DCD	0x16
	DCD	0x2e000000
	DCD	0x97effdd1
	DCD	0x2020202f
	DCD	0xfdef972f
	DCD	0x2ed1
	DCD	0x0
	DCD	0xdfffdb20
	DCD	0x31
	DCD	0x0
	DCD	0x20202020
	DCD	0xdfffdf40
	DCD	0x20
	DCD	0xdfffdf20
	DCD	0x20
	DCD	0x0
	DCD	0x670d0000
	DCD	0x1ed3fdec
	DCD	0x20000000
	DCD	0x20dfffdf
	DCD	0x0
	DCD	0xd000000
	DCD	0xe8fee16d
	DCD	0x1c203592
	DCD	0x0
	DCD	0xf5a41600
	DCD	0x1abbf9
	DCD	0xdd310000
	DCD	0xdc55dbff
	DCD	0xd69ebff
	DCD	0xbb1a0000
	DCD	0x16a4f5f9
	DCD	0x0
	DCD	0xf8b71900
	DCD	0xcd35b1f7
	DCD	0x1386f2fc
	DCD	0xf49a1500
	DCD	0xa934c8fb
	DCD	0x19b7f8f7
	DCD	0x0
	DCD	0xa8eeaf19
	DCD	0x7a100016
	DCD	0xa6cef3cb
	DCD	0x912f2f74
	DCD	0x1abbe9
	DCD	0x20dcdf31
	DCD	0x1c000000
	DCD	0x7cf1fbc8
	DCD	0x12
	DCD	0x0
	DCD	0x12000000
	DCD	0xcefcf17c
	DCD	0x1d
	DCD	0x2a000000
	DCD	0x8ff3fccb
	DCD	0x15
	DCD	0xfcf49115
	DCD	0x2acb
	DCD	0x0
	DCD	0xb43a0000
	DCD	0xecf9fff5
	DCD	0xa3f5fff2
	DCD	0x1200002c
	DCD	0xc2faf17e
	DCD	0x1b
	DCD	0x19000000
	DCD	0xb1f8f8b1
	DCD	0x19
	DCD	0xf8f8b119
	DCD	0x19b1
	DCD	0x0
	DCD	0xdfffdf20
	DCD	0x20
	DCD	0x20000000
	DCD	0xdfdfdfbf
	DCD	0xdfffffdf
	DCD	0x20
	DCD	0xdfffdf20
	DCD	0x20
	DCD	0x0
	DCD	0x2d000000
	DCD	0x20ddffdf
	DCD	0x20000000
	DCD	0x20dfffdf
	DCD	0x0
	DCD	0x0
	DCD	0xf9e49322
	DCD	0xafdbdff3
	DCD	0x1c
	DCD	0xfac21b00
	DCD	0x159af4
	DCD	0xd21e0000
	DCD	0xf4acf4fd
	DCD	0x2cd8fe
	DCD	0x9a150000
	DCD	0x1bc2faf4
	DCD	0x0
	DCD	0xf7ae1800
	DCD	0xdc4dc0fa
	DCD	0x33dcff
	DCD	0xea690d00
	DCD	0xb149dbff
	DCD	0x18aef7f7
	DCD	0x0
	DCD	0xcee97710
	DCD	0x10000034
	DCD	0xf0ebb03b
	DCD	0xefdfdfed
	DCD	0x121dc5f9
	DCD	0x1dcdee7f
	DCD	0x19000000
	DCD	0xa8f5f8af
	DCD	0x16
	DCD	0x0
	DCD	0x16000000
	DCD	0xb8f9f5a8
	DCD	0x1a
	DCD	0x6a0d0000
	DCD	0x34d6fee9
	DCD	0x0
	DCD	0xffda3500
	DCD	0xd6ae9
	DCD	0x0
	DCD	0x36000000
	DCD	0xffffe8a3
	DCD	0x4ed4fcff
	DCD	0x0
	DCD	0xb7debf31
	DCD	0x1f
	DCD	0x10000000
	DCD	0xd1fded77
	DCD	0x2e
	DCD	0xedfdd12e
	DCD	0x1077
	DCD	0x0
	DCD	0xdfffde20
	DCD	0x20
	DCD	0x20000000
	DCD	0xdfdfdfbf
	DCD	0xbfdfdfdf
	DCD	0x20
	DCD	0xdfffdf20
	DCD	0x20
	DCD	0x0
	DCD	0x20000000
	DCD	0x20dfffdf
	DCD	0x20000000
	DCD	0x20dfffdf
	DCD	0x0
	DCD	0x0
	DCD	0xbb792400
	DCD	0xb8deded7
	DCD	0x1f
	DCD	0xfed72f00
	DCD	0xd69eb
	DCD	0xbc1a0000
	DCD	0xf8d8f8f9
	DCD	0x1cc7fb
	DCD	0x690d0000
	DCD	0x2fd7feea
	DCD	0x0
	DCD	0xf5a21600
	DCD	0xf19ad9fb
	DCD	0x1dcdfc
	DCD	0xd22b0000
	DCD	0xd297f1fd
	DCD	0x16a2f5fa
	DCD	0x0
	DCD	0xf0c02c00
	DCD	0x2698
	DCD	0xb7802e00
	DCD	0xdbdfddd2
	DCD	0x261692c7
	DCD	0x19b0f1b4
	DCD	0x10000000
	DCD	0xcefdeb77
	DCD	0x31
	DCD	0x0
	DCD	0x30000000
	DCD	0x87f1fccb
	DCD	0x13
	DCD	0xa3160000
	DCD	0x1abaf9f5
	DCD	0x0
	DCD	0xfac11b00
	DCD	0x16a3f5
	DCD	0x0
	DCD	0x0
	DCD	0xffef9928
	DCD	0x9ef4fbf7
	DCD	0x35
	DCD	0x1f202000
	DCD	0x0
	DCD	0x0
	DCD	0xedfdd12e
	DCD	0x10001078
	DCD	0xd1fded77
	DCD	0x2e
	DCD	0x0
	DCD	0xdffed81f
	DCD	0x31
	DCD	0x0
	DCD	0x20202020
	DCD	0x20202020
	DCD	0x0
	DCD	0xdfffdf20
	DCD	0x20
	DCD	0x0
	DCD	0x2f000000
	DCD	0x20ddffdf
	DCD	0x20000000
	DCD	0x20dfffdf
	DCD	0x0
	DCD	0x0
	DCD	0x1b100000
	DCD	0x1f20201f
	DCD	0x0
	DCD	0xfeee7310
	DCD	0x2cd7
	DCD	0xa4160000
	DCD	0xfff8fff5
	DCD	0x18acf7
	DCD	0x2b000000
	DCD	0x73eefdd2
	DCD	0x10
	DCD	0xf18e1200
	DCD	0xf7c7e2fb
	DCD	0x19b5f8
	DCD	0xb91a0000
	DCD	0xdfc1f5f9
	DCD	0x128ef1fb
	DCD	0x0
	DCD	0xe67a1000
	DCD	0x1f7ce2
	DCD	0x1a120000
	DCD	0x2020201e
	DCD	0x700d161c
	DCD	0x1077eae2
	DCD	0x0
	DCD	0xf1fbc02c
	DCD	0x138b
	DCD	0x0
	DCD	0x8c130000
	DCD	0x31cdfdf0
	DCD	0x0
	DCD	0xcb2a0000
	DCD	0x1387f2fc
	DCD	0x0
	DCD	0xf38f1500
	DCD	0x2acbfc
	DCD	0x0
	DCD	0x0
	DCD	0xf3fabc30
	DCD	0xf4f3c8ba
	DCD	0x3ab4
	DCD	0x0
	DCD	0x0
	DCD	0x0
	DCD	0xf9f8b119
	DCD	0x19001ab6
	DCD	0xb1f8f8b1
	DCD	0x19
	DCD	0x0
	DCD	0xf1fbc61c
	DCD	0x127f
	DCD	0x0
	DCD	0x0
	DCD	0x0
	DCD	0x0
	DCD	0xdfffdf20
	DCD	0x20
	DCD	0x0
	DCD	0x73100000
	DCD	0x1ed3fdef
	DCD	0x20000000
	DCD	0x20dfffdf
	DCD	0x0
	DCD	0x0
	DCD	0x0
	DCD	0x0
	DCD	0x0
	DCD	0xfaf49d15
	DCD	0x1bc2
	DCD	0x7c120000
	DCD	0xfffffff1
	DCD	0x127ef1
	DCD	0x1a000000
	DCD	0x9df4f9bb
	DCD	0x15
	DCD	0xf1771200
	DCD	0xfae0effd
	DCD	0x1599f4
	DCD	0x87130000
	DCD	0xead9f9f2
	DCD	0x1277f1fc
	DCD	0x0
	DCD	0x9e270000
	DCD	0x267cdbef
	DCD	0x0
	DCD	0x0
	DCD	0xc13a0d00
	DCD	0x2cb0f7
	DCD	0x0
	DCD	0xfde57a10
	DCD	0x3bcb
	DCD	0x0
	DCD	0xcf3c0000
	DCD	0x1591eefe
	DCD	0x0
	DCD	0xe96a0d00
	DCD	0x32d6fe
	DCD	0x0
	DCD	0xd6340000
	DCD	0xd6ae9fe
	DCD	0x0
	DCD	0x15000000
	DCD	0xc4fbef91
	DCD	0xf09e3434
	DCD	0x35b4fa
	DCD	0x0
	DCD	0x0
	DCD	0x0
	DCD	0xfeed7710
	DCD	0x2e0032d6
	DCD	0x77edfdd1
	DCD	0x10
	DCD	0x0
	DCD	0xf8f5a216
	DCD	0x19b4
	DCD	0x0
	DCD	0x0
	DCD	0x0
	DCD	0x0
	DCD	0xdfffdf20
	DCD	0x20
	DCD	0x0
	DCD	0x9f150000
	DCD	0x1bbffaf4
	DCD	0x20000000
	DCD	0x20dfffdf
	DCD	0x0
	DCD	0x0
	DCD	0x0
	DCD	0x0
	DCD	0x0
	DCD	0xf5f9bb1a
	DCD	0x16a4
	DCD	0x31000000
	DCD	0xffffffdc
	DCD	0x31dd
	DCD	0x15000000
	DCD	0xbbf9f49a
	DCD	0x1a
	DCD	0xdf310000
	DCD	0xfdf3fbff
	DCD	0xd69ea
	DCD	0x33000000
	DCD	0xfaf2fddc
	DCD	0x31dfff
	DCD	0x0
	DCD	0x32000000
	DCD	0x98e2efa8
	DCD	0x121934
	DCD	0x130d0000
	DCD	0xf8c17127
	DCD	0x3bcb
	DCD	0x0
	DCD	0xee992600
	DCD	0x183cb4fa
	DCD	0x10000010
	DCD	0xfbb43c18
	DCD	0x2fa8f5
	DCD	0x0
	DCD	0xf5a31600
	DCD	0x1ab8f9
	DCD	0x0
	DCD	0xba1a0000
	DCD	0x16a3f5f9
	DCD	0x0
	DCD	0x1d000000
	DCD	0x89f2fcc9
	DCD	0xb0310013
	DCD	0x189cf4f8
	DCD	0x0
	DCD	0x0
	DCD	0x0
	DCD	0xfdd12e00
	DCD	0x772387f2
	DCD	0x2ed1fded
	DCD	0x0
	DCD	0x0
	DCD	0xfee56a0d
	DCD	0x38d5
	DCD	0x0
	DCD	0x0
	DCD	0x0
	DCD	0x0
	DCD	0xdfffdf20
	DCD	0x20
	DCD	0x0
	DCD	0xc52e0000
	DCD	0x158ff3fb
	DCD	0x20000000
	DCD	0x20dfffdf
	DCD	0x0
	DCD	0x0
	DCD	0x0
	DCD	0x0
	DCD	0x0
	DCD	0xcfddb21e
	DCD	0x1074
	DCD	0x1d000000
	DCD	0xdddfdcb4
	DCD	0x1eb8
	DCD	0xd000000
	DCD	0xb2ddcc69
	DCD	0x1e
	DCD	0xdd200000
	DCD	0xfdfdffff
	DCD	0x2bd2
	DCD	0x1d000000
	DCD	0xfffdfccd
	DCD	0x20ddff
	DCD	0x0
	DCD	0x0
	DCD	0xf0e69e32
	DCD	0x317fb3d1
	DCD	0x94672d20
	DCD	0xcbf6e6bb
	DCD	0x107c
	DCD	0x0
	DCD	0xa32f0000
	DCD	0xadd3faeb
	DCD	0x762f2f76
	DCD	0xf3fbd3ad
	DCD	0x36b0
	DCD	0x0
	DCD	0xfccb2a00
	DCD	0x1280ef
	DCD	0x0
	DCD	0x87130000
	DCD	0x2acbfcf1
	DCD	0x0
	DCD	0x20000000
	DCD	0x33dfffdc
	DCD	0x6d0d0000
	DCD	0x1ecffdec
	DCD	0x0
	DCD	0x0
	DCD	0x0
	DCD	0xf8b11900
	DCD	0xb133b9f9
	DCD	0x19b1f8f8
	DCD	0x0
	DCD	0x0
	DCD	0xf5a32600
	DCD	0x2ea3f7
	DCD	0x0
	DCD	0x0
	DCD	0x0
	DCD	0x0
	DCD	0xdfffdf20
	DCD	0x20
	DCD	0x0
	DCD	0xed841200
	DCD	0x34d2fe
	DCD	0x20000000
	DCD	0x20dfffdf
	DCD	0x0
	DCD	0x20200000
	DCD	0x0
	DCD	0x0
	DCD	0x0
	DCD	0x20201e00
	DCD	0x10
	DCD	0x0
	DCD	0x2020201d
	DCD	0x1e
	DCD	0x0
	DCD	0x1e20200d
	DCD	0x0
	DCD	0xd41e0000
	DCD	0xf9fffffd
	DCD	0x1abb
	DCD	0x19000000
	DCD	0xfffff8b4
	DCD	0x1ed4fd
	DCD	0x0
	DCD	0x0
	DCD	0xc07a2700
	DCD	0xdeedf1e9
	DCD	0xefecdfdf
	DCD	0x39a8e6f2
	DCD	0x10
	DCD	0x0
	DCD	0x2c000000
	DCD	0xf2f1cb8b
	DCD	0xeedfdfed
	DCD	0x9ee4f5f3
	DCD	0x34
	DCD	0x0
	DCD	0xfde96a0d
	DCD	0x30d1
	DCD	0x0
	DCD	0x31000000
	DCD	0x6ae9fdd1
	DCD	0xd
	DCD	0x20000000
	DCD	0x33dfffda
	DCD	0x3e000000
	DCD	0x20dcffdf
	DCD	0x0
	DCD	0x0
	DCD	0x0
	DCD	0xed771000
	DCD	0xd151d2fd
	DCD	0x1077edfd
	DCD	0x0
	DCD	0x0
	DCD	0xc4360000
	DCD	0x2e93edfb
	DCD	0x0
	DCD	0x0
	DCD	0x0
	DCD	0x0
	DCD	0xdfffdf20
	DCD	0x20
	DCD	0x0
	DCD	0xfdc93c12
	DCD	0x1698f0
	DCD	0x20000000
	DCD	0x20dfffdf
	DCD	0x0
	DCD	0xbfbf2000
	DCD	0x20
	DCD	0x0
	DCD	0x0
	DCD	0x0
	DCD	0x0
	DCD	0x0
	DCD	0x0
	DCD	0x0
	DCD	0x0
	DCD	0x0
	DCD	0x0
	DCD	0xae1c0000
	DCD	0xd4dfdfdb
	DCD	0x158d
	DCD	0x13000000
	DCD	0xdfdfd386
	DCD	0x1caedb
	DCD	0x0
	DCD	0x0
	DCD	0x2c100000
	DCD	0xd8c8af77
	DCD	0xc9dbdfde
	DCD	0x276dad
	DCD	0x0
	DCD	0x0
	DCD	0x0
	DCD	0xbf8f3313
	DCD	0xd8deddd3
	DCD	0x256aa2c6
	DCD	0x0
	DCD	0x0
	DCD	0xf8f5a316
	DCD	0x19b1
	DCD	0x0
	DCD	0x19000000
	DCD	0xa3f5f8b1
	DCD	0x16
	DCD	0x1b000000
	DCD	0x8cf2fabc
	DCD	0x831f0025
	DCD	0x1fd3fef1
	DCD	0x0
	DCD	0x0
	DCD	0x0
	DCD	0xd12e0000
	DCD	0xf2b3f2fd
	DCD	0x2ed1fd
	DCD	0x0
	DCD	0x0
	DCD	0x7a100000
	DCD	0xa3edfbd8
	DCD	0x121938
	DCD	0x12000000
	DCD	0x151b15
	DCD	0x0
	DCD	0xdfffdf20
	DCD	0x31
	DCD	0x2e151000
	DCD	0xf3fbc984
	DCD	0x30a8
	DCD	0x20000000
	DCD	0x20dfffdf
	DCD	0x0
	DCD	0xdfdf2000
	DCD	0x20
	DCD	0x0
	DCD	0x0
	DCD	0x0
	DCD	0x0
	DCD	0x0
	DCD	0x0
	DCD	0x0
	DCD	0x0
	DCD	0x0
	DCD	0x0
	DCD	0x1c000000
	DCD	0x20202020
	DCD	0x15
	DCD	0x0
	DCD	0x20202013
	DCD	0x1c20
	DCD	0x0
	DCD	0x0
	DCD	0x0
	DCD	0x1f1c1910
	DCD	0x1c202020
	DCD	0xd19
	DCD	0x0
	DCD	0x0
	DCD	0x0
	DCD	0x1b150000
	DCD	0x1f20201e
	DCD	0xd161c
	DCD	0x0
	DCD	0x0
	DCD	0xcfdcab1d
	DCD	0x1077
	DCD	0x0
	DCD	0x10000000
	DCD	0xabdccf77
	DCD	0x1d
	DCD	0x10000000
	DCD	0xe1fee479
	DCD	0xd3713e85
	DCD	0x189df4fc
	DCD	0x0
	DCD	0x0
	DCD	0x0
	DCD	0xb1190000
	DCD	0xfff4fff8
	DCD	0x19b1f8
	DCD	0x0
	DCD	0x0
	DCD	0x1d000000
	DCD	0xf5f3c170
	DCD	0x317fb4d5
	DCD	0x7b312020
	DCD	0x158ab6a0
	DCD	0x0
	DCD	0xf1ffdf20
	DCD	0x20203186
	DCD	0xc59f732f
	DCD	0xa8eefbed
	DCD	0x34
	DCD	0x20000000
	DCD	0x20dfffdf
	DCD	0x0
	DCD	0xdfdf2000
	DCD	0x20
	DCD	0x0
	DCD	0x0
	DCD	0x0
	DCD	0x0
	DCD	0x0
	DCD	0x0
	DCD	0x0
	DCD	0x0
	DCD	0x0
	DCD	0x0
	DCD	0x0
	DCD	0x0
	DCD	0x0
	DCD	0x0
	DCD	0x0
	DCD	0x0
	DCD	0x0
	DCD	0x0
	DCD	0x0
	DCD	0x0
	DCD	0x0
	DCD	0x0
	DCD	0x0
	DCD	0x0
	DCD	0x0
	DCD	0x0
	DCD	0x0
	DCD	0x0
	DCD	0x0
	DCD	0x0
	DCD	0x20201d00
	DCD	0x10
	DCD	0x0
	DCD	0x0
	DCD	0x1d202010
	DCD	0x0
	DCD	0x0
	DCD	0xf8e19324
	DCD	0xfaecdfef
	DCD	0x35b4f3
	DCD	0x0
	DCD	0x0
	DCD	0x0
	DCD	0x77100000
	DCD	0xffffffed
	DCD	0x1077ed
	DCD	0x0
	DCD	0x0
	DCD	0x0
	DCD	0xce97330d
	DCD	0xdfedf1f0
	DCD	0xf1dfdfdf
	DCD	0x1bb9f2f0
	DCD	0x0
	DCD	0xffffdf20
	DCD	0xdfdfdff1
	DCD	0xf3f0eddf
	DCD	0x2f91cdef
	DCD	0x0
	DCD	0x20000000
	DCD	0x20dfffdf
	DCD	0x0
	DCD	0xdfdf2000
	DCD	0x20
	DCD	0x1b1f1c00
	DCD	0x15
	DCD	0x0
	DCD	0x0
	DCD	0x0
	DCD	0x0
	DCD	0x0
	DCD	0x0
	DCD	0x0
	DCD	0x0
	DCD	0x0
	DCD	0x0
	DCD	0x0
	DCD	0x0
	DCD	0x0
	DCD	0x0
	DCD	0x0
	DCD	0x0
	DCD	0x0
	DCD	0x0
	DCD	0x0
	DCD	0x0
	DCD	0x0
	DCD	0x0
	DCD	0x0
	DCD	0x0
	DCD	0x0
	DCD	0x0
	DCD	0x0
	DCD	0x0
	DCD	0x0
	DCD	0x0
	DCD	0x0
	DCD	0x0
	DCD	0x0
	DCD	0x0
	DCD	0x0
	DCD	0xb36e2200
	DCD	0xcbdcddd2
	DCD	0x3396
	DCD	0x0
	DCD	0x0
	DCD	0x0
	DCD	0x2e000000
	DCD	0xdddfddb8
	DCD	0x2eb8
	DCD	0x0
	DCD	0x0
	DCD	0x0
	DCD	0x31160000
	DCD	0xdbc9b386
	DCD	0xdbdfdfdf
	DCD	0x1896c4cc
	DCD	0x0
	DCD	0xdfdfbf20
	DCD	0xdfdfdfdf
	DCD	0xacc6d4dd
	DCD	0x15307e
	DCD	0x0
	DCD	0x20000000
	DCD	0x20bfdfbf
	DCD	0x0
	DCD	0xdfdf2000
	DCD	0x20
	DCD	0xc0d3af1c
	DCD	0x318f
	DCD	0x0
	DCD	0x0
	DCD	0x20200000
	DCD	0x0
	DCD	0x0
	DCD	0x0
	DCD	0x0
	DCD	0x0
	DCD	0x0
	DCD	0x0
	DCD	0x0
	DCD	0x0
	DCD	0x0
	DCD	0x0
	DCD	0x0
	DCD	0x0
	DCD	0x0
	DCD	0x0
	DCD	0x0
	DCD	0x0
	DCD	0x0
	DCD	0x0
	DCD	0x0
	DCD	0x0
	DCD	0x0
	DCD	0x0
	DCD	0x0
	DCD	0x0
	DCD	0x0
	DCD	0x0
	DCD	0x0
	DCD	0x0
	DCD	0x0
	DCD	0x0
	DCD	0x0
	DCD	0x1a0d0000
	DCD	0x1d20201e
	DCD	0x16
	DCD	0x0
	DCD	0x0
	DCD	0x0
	DCD	0x0
	DCD	0x2020201e
	DCD	0x1e
	DCD	0x0
	DCD	0x0
	DCD	0x0
	DCD	0x0
	DCD	0x201c1913
	DCD	0x20202020
	DCD	0x181c1c
	DCD	0x0
	DCD	0x20202000
	DCD	0x20202020
	DCD	0x181c1e20
	DCD	0x12
	DCD	0x0
	DCD	0x0
	DCD	0x202020
	DCD	0x0
	DCD	0xdfdf2000
	DCD	0x20
	DCD	0xf7f1b81f
	DCD	0x38b0f0
	DCD	0x0
	DCD	0x0
	DCD	0xbfbf2000
	DCD	0x20
	DCD	0x0
	DCD	0x0
	DCD	0x1e1a0d00
	DCD	0x2020
	DCD	0x20000000
	DCD	0xd1a1e20
	DCD	0x0
	DCD	0x0
	DCD	0x13000000
	DCD	0x1b2020
	DCD	0x0
	DCD	0x20202020
	DCD	0x202020
	DCD	0x0
	DCD	0x1320201b
	DCD	0x0
	DCD	0x0
	DCD	0x20202020
	DCD	0x202020
	DCD	0x0
	DCD	0x0
	DCD	0x0
	DCD	0x0
	DCD	0x0
	DCD	0x0
	DCD	0x0
	DCD	0x0
	DCD	0x0
	DCD	0x0
	DCD	0x0
	DCD	0x0
	DCD	0x0
	DCD	0x0
	DCD	0x0
	DCD	0x0
	DCD	0x0
	DCD	0x0
	DCD	0x0
	DCD	0x0
	DCD	0x0
	DCD	0x0
	DCD	0x0
	DCD	0x0
	DCD	0x0
	DCD	0x0
	DCD	0x0
	DCD	0x0
	DCD	0x0
	DCD	0x0
	DCD	0x0
	DCD	0x0
	DCD	0x0
	DCD	0x0
	DCD	0x0
	DCD	0x0
	DCD	0x0
	DCD	0xdfdf2000
	DCD	0x20
	DCD	0xc4893200
	DCD	0x2fb0f8f9
	DCD	0x0
	DCD	0x0
	DCD	0xdfdf2000
	DCD	0x20
	DCD	0x0
	DCD	0x0
	DCD	0xd2b36d1a
	DCD	0x20bfdd
	DCD	0xbf200000
	DCD	0x6db3d2dd
	DCD	0x1a
	DCD	0x0
	DCD	0x8c130000
	DCD	0x1b8cdad3
	DCD	0x20000000
	DCD	0xdfdfdfbf
	DCD	0x20bfdfdf
	DCD	0x1b000000
	DCD	0x8cd3da8c
	DCD	0x13
	DCD	0x20000000
	DCD	0xdfdfdfbf
	DCD	0x20bfdfdf
	DCD	0x0
	DCD	0x0
	DCD	0x0
	DCD	0x0
	DCD	0x0
	DCD	0x151d1910
	DCD	0x0
	DCD	0x0
	DCD	0x0
	DCD	0x0
	DCD	0x0
	DCD	0x0
	DCD	0x0
	DCD	0x0
	DCD	0x0
	DCD	0x0
	DCD	0x0
	DCD	0x0
	DCD	0x0
	DCD	0x0
	DCD	0x0
	DCD	0x0
	DCD	0x0
	DCD	0x0
	DCD	0x0
	DCD	0x0
	DCD	0x0
	DCD	0x0
	DCD	0x0
	DCD	0x0
	DCD	0x0
	DCD	0x0
	DCD	0x0
	DCD	0x0
	DCD	0x0
	DCD	0x0
	DCD	0x0
	DCD	0xdfdf2000
	DCD	0x20
	DCD	0x39130000
	DCD	0x87effcc9
	DCD	0x13
	DCD	0x1a120000
	DCD	0xdfdf401d
	DCD	0xd1a3e
	DCD	0x0
	DCD	0xd000000
	DCD	0xfaf8d66e
	DCD	0x20bfec
	DCD	0xbf200000
	DCD	0xd6f8faec
	DCD	0xd6e
	DCD	0x0
	DCD	0xcf380000
	DCD	0x3ad3fd
	DCD	0x20000000
	DCD	0xdfdfdfbf
	DCD	0x20dfffff
	DCD	0x0
	DCD	0xcffdd33a
	DCD	0x37
	DCD	0x20000000
	DCD	0xdfffffdf
	DCD	0x20bfdfdf
	DCD	0x0
	DCD	0x0
	DCD	0x0
	DCD	0x0
	DCD	0x2f1a1300
	DCD	0x8dc2b077
	DCD	0x15
	DCD	0x0
	DCD	0x0
	DCD	0x0
	DCD	0x0
	DCD	0x0
	DCD	0x0
	DCD	0x0
	DCD	0x0
	DCD	0x0
	DCD	0x0
	DCD	0x0
	DCD	0x0
	DCD	0x0
	DCD	0x0
	DCD	0x0
	DCD	0x0
	DCD	0x0
	DCD	0x0
	DCD	0x0
	DCD	0x0
	DCD	0x0
	DCD	0x0
	DCD	0x0
	DCD	0x0
	DCD	0x0
	DCD	0x0
	DCD	0x0
	DCD	0x0
	DCD	0x0
	DCD	0x0
	DCD	0xdfdf2000
	DCD	0x20
	DCD	0x15000000
	DCD	0xb7f9f4a2
	DCD	0x1a
	DCD	0xb7802d00
	DCD	0xfdffdcce
	DCD	0x226db3d2
	DCD	0x0
	DCD	0x1b000000
	DCD	0xd1fcf9b8
	DCD	0x2d71
	DCD	0x2d000000
	DCD	0xf9fcd171
	DCD	0x1bb8
	DCD	0x0
	DCD	0xf7a31900
	DCD	0x189df6
	DCD	0x0
	DCD	0x40202020
	DCD	0x20dfffdf
	DCD	0x0
	DCD	0xf6f69d18
	DCD	0x189d
	DCD	0x20000000
	DCD	0x40dfffdf
	DCD	0x202020
	DCD	0x0
	DCD	0x0
	DCD	0x0
	DCD	0x1a100000
	DCD	0xd6ba8732
	DCD	0xb2eef3ee
	DCD	0x1c
	DCD	0x1f202000
	DCD	0x1e1a1000
	DCD	0x181d2020
	DCD	0x0
	DCD	0x0
	DCD	0x0
	DCD	0x201e1a0d
	DCD	0x181d20
	DCD	0x20202000
	DCD	0x0
	DCD	0x20202000
	DCD	0x0
	DCD	0x16000000
	DCD	0x1a2020
	DCD	0x0
	DCD	0x202020
	DCD	0x0
	DCD	0x20200000
	DCD	0x20
	DCD	0x20200000
	DCD	0x1f
	DCD	0x0
	DCD	0x0
	DCD	0x0
	DCD	0x0
	DCD	0x201f0000
	DCD	0x20
	DCD	0x20200000
	DCD	0x20
	DCD	0x0
	DCD	0xdfdf2000
	DCD	0x20
	DCD	0x12000000
	DCD	0xcafbf17b
	DCD	0x1c
	DCD	0xf5eca81b
	DCD	0xecdfdff0
	DCD	0x92def8f5
	DCD	0x22
	DCD	0x1f000000
	DCD	0x7beffed7
	DCD	0x1d
	DCD	0x0
	DCD	0xfeef7b1d
	DCD	0x1fd7
	DCD	0x0
	DCD	0xfed83800
	DCD	0x37d5
	DCD	0x0
	DCD	0x20000000
	DCD	0x20dfffdf
	DCD	0x0
	DCD	0xfdd53700
	DCD	0x35d3
	DCD	0x20000000
	DCD	0x20dfffdf
	DCD	0x0
	DCD	0x0
	DCD	0x0
	DCD	0x1c160000
	DCD	0xb6782f1f
	DCD	0xf2f3f2d6
	DCD	0x659cc1da
	DCD	0xd
	DCD	0xb8debf20
	DCD	0xd2b57843
	DCD	0x9cccdcdd
	DCD	0x1037
	DCD	0x0
	DCD	0x22000000
	DCD	0xddd2b36e
	DCD	0x379cccdc
	DCD	0xbfdfbd2f
	DCD	0x20
	DCD	0xbfdfbf20
	DCD	0x20
	DCD	0x992a0000
	DCD	0x1a88d7d6
	DCD	0x20000000
	DCD	0x20bfdfbf
	DCD	0x0
	DCD	0xdfbf2000
	DCD	0x20bf
	DCD	0xdebb2000
	DCD	0x32bc
	DCD	0x0
	DCD	0x0
	DCD	0x0
	DCD	0x0
	DCD	0xdebc3200
	DCD	0x20bb
	DCD	0xdfbf2000
	DCD	0x20bf
	DCD	0x0
	DCD	0xdfdf2000
	DCD	0x20
	DCD	0x0
	DCD	0xdbffdf31
	DCD	0x20
	DCD	0xc4edbc1b
	DCD	0x6c2d3389
	DCD	0xdefdefab
	DCD	0xd6d
	DCD	0x20000000
	DCD	0x2fdfffdc
	DCD	0x0
	DCD	0x0
	DCD	0xffdf2f00
	DCD	0x20dc
	DCD	0x0
	DCD	0xf8f79c18
	DCD	0x19b2
	DCD	0x0
	DCD	0x20000000
	DCD	0x20dfffdf
	DCD	0x0
	DCD	0xf8b21900
	DCD	0x1696f5
	DCD	0x20000000
	DCD	0x20dfffdf
	DCD	0x0
	DCD	0x0
	DCD	0x0
	DCD	0xc6953518
	DCD	0xf9efded8
	DCD	0x87d3f8fe
	DCD	0xd151b33
	DCD	0x0
	DCD	0xe3fbdf20
	DCD	0xddeee3af
	DCD	0xf6f4ecdf
	DCD	0x1f7ccb
	DCD	0x0
	DCD	0x93280000
	DCD	0xecf5f9e1
	DCD	0xcaecdcdf
	DCD	0xdffde59a
	DCD	0x20
	DCD	0xdfffdf20
	DCD	0x20
	DCD	0xe98c2300
	DCD	0x37b4fb
	DCD	0x20000000
	DCD	0x20dfffdf
	DCD	0x0
	DCD	0xffdf2000
	DCD	0x20df
	DCD	0xfac11b00
	DCD	0x1388f2
	DCD	0x0
	DCD	0x0
	DCD	0x0
	DCD	0x0
	DCD	0xfaf28813
	DCD	0x1bc1
	DCD	0xffdf2000
	DCD	0x20df
	DCD	0x0
	DCD	0xdfdf2000
	DCD	0x20
	DCD	0x0
	DCD	0xdfffdf20
	DCD	0x20
	DCD	0x328e8515
	DCD	0xd000013
	DCD	0xf8f79e2f
	DCD	0x1ab4
	DCD	0x1e000000
	DCD	0x33dffdd2
	DCD	0x0
	DCD	0x0
	DCD	0xfddf3300
	DCD	0x1ed2
	DCD	0x0
	DCD	0xedfdcf2e
	DCD	0x1077
	DCD	0x0
	DCD	0x20000000
	DCD	0x20dfffdf
	DCD	0x0
	DCD	0xed771000
	DCD	0x2acbfc
	DCD	0x20000000
	DCD	0x20dfffdf
	DCD	0x0
	DCD	0x0
	DCD	0x33000000
	DCD	0xf3f4d39d
	DCD	0xefdfdfee
	DCD	0x4ab7f2f6
	DCD	0x13
	DCD	0x0
	DCD	0xf8fedf20
	DCD	0x3592e0f1
	DCD	0xecab6c2d
	DCD	0x107bdbfd
	DCD	0x0
	DCD	0xe78c1300
	DCD	0x6cabecff
	DCD	0xe098362d
	DCD	0xdffdf5e8
	DCD	0x20
	DCD	0xdfffdf20
	DCD	0x20
	DCD	0xfddf7a10
	DCD	0x3ccb
	DCD	0x20000000
	DCD	0x20dfffdf
	DCD	0x0
	DCD	0xffdf2000
	DCD	0x20df
	DCD	0xf38f1500
	DCD	0x1bc0fa
	DCD	0x0
	DCD	0x0
	DCD	0x0
	DCD	0x0
	DCD	0xf3fac01b
	DCD	0x158f
	DCD	0xffdf2000
	DCD	0x20df
	DCD	0x0
	DCD	0xdfdf2000
	DCD	0x20
	DCD	0x0
	DCD	0xdfffdf20
	DCD	0x20
	DCD	0x161500
	DCD	0x0
	DCD	0xfedf3800
	DCD	0x1fd6
	DCD	0x1a000000
	DCD	0x87f2f9bb
	DCD	0x13
	DCD	0x0
	DCD	0xf9f28713
	DCD	0x1abb
	DCD	0x10000000
	DCD	0xd2fded74
	DCD	0x2e
	DCD	0x0
	DCD	0x20000000
	DCD	0x20dfffdf
	DCD	0x0
	DCD	0xd22e0000
	DCD	0xd69e9fd
	DCD	0x20000000
	DCD	0x20dfffdf
	DCD	0x0
	DCD	0x0
	DCD	0xac350000
	DCD	0xadd3fbf2
	DCD	0x762f2f76
	DCD	0xcff2d3ad
	DCD	0x288c
	DCD	0x0
	DCD	0xfdffdf20
	DCD	0x247ce0
	DCD	0x932d0d00
	DCD	0x33c7fcf0
	DCD	0x0
	DCD	0xfecf3500
	DCD	0xd2d93f0
	DCD	0x7c260000
	DCD	0xdffffce2
	DCD	0x20
	DCD	0xdfffdf20
	DCD	0x20
	DCD	0xe4fbc439
	DCD	0x107d
	DCD	0x20000000
	DCD	0x20dfffdf
	DCD	0x0
	DCD	0xffdf2000
	DCD	0x20df
	DCD	0xd6340000
	DCD	0x36dafe
	DCD	0x0
	DCD	0x0
	DCD	0x0
	DCD	0x0
	DCD	0xd6feda36
	DCD	0x34
	DCD	0xffdf2000
	DCD	0x20df
	DCD	0x0
	DCD	0xdfdf2000
	DCD	0x20
	DCD	0x0
	DCD	0xdfffdf20
	DCD	0x20
	DCD	0x0
	DCD	0x0
	DCD	0xffdf3300
	DCD	0x20dd
	DCD	0x15000000
	DCD	0xb9f9f49a
	DCD	0x1a
	DCD	0x0
	DCD	0xf4f9b91a
	DCD	0x159a
	DCD	0x16000000
	DCD	0xbbf9f5a2
	DCD	0x1a
	DCD	0x0
	DCD	0x20000000
	DCD	0x20dfffdf
	DCD	0x0
	DCD	0xbc1a0000
	DCD	0x159af4f9
	DCD	0x20000000
	DCD	0x20dfffdf
	DCD	0x0
	DCD	0x0
	DCD	0xf4a82f00
	DCD	0x183cb4fa
	DCD	0x10000010
	DCD	0xfab43c18
	DCD	0x2292e7
	DCD	0x0
	DCD	0xf4ffdf20
	DCD	0x2492
	DCD	0x31000000
	DCD	0x8ff2fbc5
	DCD	0x15
	DCD	0xfbf59516
	DCD	0x31c4
	DCD	0x27000000
	DCD	0xdffff7aa
	DCD	0x20
	DCD	0xdfffdf20
	DCD	0x36000020
	DCD	0x93eef9b0
	DCD	0x24
	DCD	0x20000000
	DCD	0x20dfffdf
	DCD	0x0
	DCD	0xffdf2000
	DCD	0x20df
	DCD	0xb61a0000
	DCD	0x1696f5f9
	DCD	0x0
	DCD	0x0
	DCD	0x0
	DCD	0x16000000
	DCD	0xb6f9f596
	DCD	0x1a
	DCD	0xffdf2000
	DCD	0x20df
	DCD	0x0
	DCD	0xdfdf2000
	DCD	0x20
	DCD	0x0
	DCD	0xdfffdf20
	DCD	0x20
	DCD	0x0
	DCD	0x0
	DCD	0xfef28c23
	DCD	0x1fd7
	DCD	0xd000000
	DCD	0xd2fdec69
	DCD	0x1e
	DCD	0x0
	DCD	0xecfdd21e
	DCD	0xd69
	DCD	0x1a000000
	DCD	0x9ff4f9ba
	DCD	0x15
	DCD	0x0
	DCD	0x20000000
	DCD	0x20dfffdf
	DCD	0x0
	DCD	0xa4160000
	DCD	0x1ab9f9f5
	DCD	0x20000000
	DCD	0x20dfffdf
	DCD	0x0
	DCD	0x0
	DCD	0xfdee9215
	DCD	0x3bc9
	DCD	0x0
	DCD	0xcb3b0000
	DCD	0xd6fdefc
	DCD	0x0
	DCD	0xdfffdf20
	DCD	0x35
	DCD	0x15000000
	DCD	0xbffaf49d
	DCD	0x1b
	DCD	0xf2fbc71c
	DCD	0x1389
	DCD	0xd000000
	DCD	0xdfffec6c
	DCD	0x20
	DCD	0xdfffdf20
	DCD	0xa82f0d3d
	DCD	0x2fa8f6f5
	DCD	0x0
	DCD	0x20000000
	DCD	0x20dfffdf
	DCD	0x0
	DCD	0xffdf2000
	DCD	0x20df
	DCD	0x78100000
	DCD	0x2acbfced
	DCD	0x0
	DCD	0x0
	DCD	0x0
	DCD	0x2a000000
	DCD	0x78edfccb
	DCD	0x10
	DCD	0xffdf2000
	DCD	0x20df
	DCD	0x0
	DCD	0xdfdf2000
	DCD	0x20
	DCD	0x0
	DCD	0xdfffdf20
	DCD	0x20
	DCD	0x0
	DCD	0x27000000
	DCD	0xfafedf7c
	DCD	0x1bbb
	DCD	0x0
	DCD	0xdbffdf3a
	DCD	0x20
	DCD	0x0
	DCD	0xdfffdb20
	DCD	0x3a
	DCD	0x1c000000
	DCD	0x88f1fbc9
	DCD	0x12
	DCD	0x0
	DCD	0x20000000
	DCD	0x20dfffdf
	DCD	0x0
	DCD	0x89120000
	DCD	0x1cc8fbf1
	DCD	0x20000000
	DCD	0x20dfffdf
	DCD	0x0
	DCD	0x0
	DCD	0xeefed134
	DCD	0x1284
	DCD	0x0
	DCD	0x8b130000
	DCD	0x29bdfaf0
	DCD	0x0
	DCD	0xdfffdf20
	DCD	0x20
	DCD	0xd000000
	DCD	0xd3fdec69
	DCD	0x1e
	DCD	0xdfffdb20
	DCD	0x33
	DCD	0x0
	DCD	0xdfffdf2d
	DCD	0x20
	DCD	0xfcffdf20
	DCD	0xeea085c1
	DCD	0x37b4fb
	DCD	0x0
	DCD	0x20000000
	DCD	0x20dfffdf
	DCD	0x0
	DCD	0xffdf2000
	DCD	0x20df
	DCD	0x2e000000
	DCD	0x6de9fdcf
	DCD	0xd
	DCD	0x0
	DCD	0x0
	DCD	0x6d0d0000
	DCD	0x2ecffde9
	DCD	0x0
	DCD	0xffdf2000
	DCD	0x20df
	DCD	0x0
	DCD	0xdfdf2000
	DCD	0x20
	DCD	0x0
	DCD	0xdfffdf20
	DCD	0x20
	DCD	0x0
	DCD	0x9d371a00
	DCD	0xe4fefde3
	DCD	0x1079
	DCD	0x1d000000
	DCD	0xcdfdec71
	DCD	0x1e
	DCD	0x0
	DCD	0xecfbc41d
	DCD	0x1d71
	DCD	0x1f000000
	DCD	0x65ecfed8
	DCD	0xd
	DCD	0x0
	DCD	0x20000000
	DCD	0x20dfffdf
	DCD	0x0
	DCD	0x650d0000
	DCD	0x1ed4fdec
	DCD	0x20000000
	DCD	0x20dfffdf
	DCD	0x0
	DCD	0x15000000
	DCD	0xcbfcf38d
	DCD	0x2f
	DCD	0x0
	DCD	0x30000000
	DCD	0x6ce8fccb
	DCD	0xd
	DCD	0xdfffdf20
	DCD	0x20
	DCD	0x0
	DCD	0xddffdf2d
	DCD	0x20
	DCD	0xdfffdf20
	DCD	0x20
	DCD	0x0
	DCD	0xdfffdf20
	DCD	0x20
	DCD	0xffffdf20
	DCD	0xfef3e9fa
	DCD	0x3ccb
	DCD	0x0
	DCD	0x20000000
	DCD	0x20dfffdf
	DCD	0x0
	DCD	0xffdf2000
	DCD	0x20df
	DCD	0x18000000
	DCD	0xaef8f7a9
	DCD	0x19
	DCD	0x0
	DCD	0x0
	DCD	0xae190000
	DCD	0x18a9f7f8
	DCD	0x0
	DCD	0xffdf2000
	DCD	0x20df
	DCD	0x0
	DCD	0xdfdf2000
	DCD	0x20
	DCD	0x0
	DCD	0xdfffdf20
	DCD	0x20
	DCD	0x16000000
	DCD	0xf6d6a739
	DCD	0x92defafe
	DCD	0x24
	DCD	0x7b2f0000
	DCD	0x91e7fad1
	DCD	0x15
	DCD	0x0
	DCD	0xf4d87a10
	DCD	0x2f7bce
	DCD	0x20000000
	DCD	0x2ddfffde
	DCD	0x0
	DCD	0x0
	DCD	0x20000000
	DCD	0x20dfffdf
	DCD	0x0
	DCD	0x2d000000
	DCD	0x20ddffdf
	DCD	0x20000000
	DCD	0x20dfffdf
	DCD	0x0
	DCD	0x1a000000
	DCD	0xa8f5f9ba
	DCD	0x16
	DCD	0x0
	DCD	0x16000000
	DCD	0xa8f7f5a8
	DCD	0x18
	DCD	0xdfffdf20
	DCD	0x20
	DCD	0x0
	DCD	0xdfffdf20
	DCD	0x20
	DCD	0xdfffdd20
	DCD	0x2d
	DCD	0x0
	DCD	0xdfffdf20
	DCD	0x20
	DCD	0xfdffdf20
	DCD	0xeefffbe7
	DCD	0x108c
	DCD	0x0
	DCD	0x20000000
	DCD	0x20dfffdf
	DCD	0x0
	DCD	0xffdf2000
	DCD	0x20df
	DCD	0xd000000
	DCD	0xd1fde86c
	DCD	0x31
	DCD	0x0
	DCD	0x0
	DCD	0xd1310000
	DCD	0xd6ce8fd
	DCD	0x0
	DCD	0xffdf2000
	DCD	0x20df
	DCD	0x0
	DCD	0xdfdf2000
	DCD	0x20
	DCD	0x0
	DCD	0xdfffdf20
	DCD	0x20
	DCD	0x98300000
	DCD	0xf9fef8d2
	DCD	0x226fbdeb
	DCD	0x0
	DCD	0xefbf2000
	DCD	0x289ce3fa
	DCD	0x0
	DCD	0x0
	DCD	0xc6791d00
	DCD	0x20bfece8
	DCD	0x20000000
	DCD	0x20dfffdf
	DCD	0x0
	DCD	0x0
	DCD	0x20000000
	DCD	0x20dfffdf
	DCD	0x0
	DCD	0x20000000
	DCD	0x20dfffdf
	DCD	0x20000000
	DCD	0x20dfffdf
	DCD	0x0
	DCD	0x1d000000
	DCD	0x7cf1fcce
	DCD	0x12
	DCD	0x0
	DCD	0x12000000
	DCD	0xc7fbf17c
	DCD	0x1c
	DCD	0xdfffdf20
	DCD	0x2f
	DCD	0x0
	DCD	0xdbffdf33
	DCD	0x20
	DCD	0xecfdd31e
	DCD	0xd69
	DCD	0x0
	DCD	0xdfffdf2d
	DCD	0x20
	DCD	0xefffdf20
	DCD	0xebfcdb9b
	DCD	0x108a
	DCD	0x0
	DCD	0x20000000
	DCD	0x20dfffdf
	DCD	0x0
	DCD	0xffdf2d00
	DCD	0x20df
	DCD	0x0
	DCD	0xf1fbc529
	DCD	0x1387
	DCD	0x0
	DCD	0x0
	DCD	0xf1871300
	DCD	0x29c5fb
	DCD	0x0
	DCD	0xffdf2000
	DCD	0x20df
	DCD	0x0
	DCD	0xdfdf2000
	DCD	0x20
	DCD	0x0
	DCD	0xdfffdf20
	DCD	0x20
	DCD	0xf0a82f00
	DCD	0xb7e6fbfe
	DCD	0xd2c78
	DCD	0x0
	DCD	0xefbf2000
	DCD	0x2594dbf8
	DCD	0x0
	DCD	0x0
	DCD	0xc6791d00
	DCD	0x20bfece8
	DCD	0x20000000
	DCD	0x20dfffdf
	DCD	0x0
	DCD	0x0
	DCD	0x20000000
	DCD	0x20dfffdf
	DCD	0x0
	DCD	0x20000000
	DCD	0x20dfffdf
	DCD	0x20000000
	DCD	0x20dfffdf
	DCD	0x0
	DCD	0x20000000
	DCD	0x31dfffdc
	DCD	0x0
	DCD	0x0
	DCD	0x0
	DCD	0xd8fedf31
	DCD	0x1f
	DCD	0xefffdf20
	DCD	0x1078
	DCD	0x13000000
	DCD	0xc7fbf289
	DCD	0x1c
	DCD	0xf4fabf1b
	DCD	0x159d
	DCD	0xd000000
	DCD	0xdfffec69
	DCD	0x20
	DCD	0xdfffdf20
	DCD	0xfadb7c3f
	DCD	0x3ac4
	DCD	0x0
	DCD	0x20000000
	DCD	0x33dfffdf
	DCD	0x0
	DCD	0xffec690d
	DCD	0x20db
	DCD	0x0
	DCD	0xf9f49015
	DCD	0x1aba
	DCD	0x0
	DCD	0x0
	DCD	0xf9ba1a00
	DCD	0x1590f4
	DCD	0x0
	DCD	0xffdf2000
	DCD	0x20df
	DCD	0x0
	DCD	0xdfdf2000
	DCD	0x20
	DCD	0x0
	DCD	0xdfffdf20
	DCD	0x20
	DCD	0xffee9115
	DCD	0x2770bdf5
	DCD	0x10
	DCD	0x0
	DCD	0x7b2f0000
	DCD	0x8be4f8d1
	DCD	0x13
	DCD	0x0
	DCD	0xf4d87b10
	DCD	0x2f7bce
	DCD	0x20000000
	DCD	0x2ddfffdd
	DCD	0x0
	DCD	0x0
	DCD	0x20000000
	DCD	0x20dfffdf
	DCD	0x0
	DCD	0x2d000000
	DCD	0x20ddffdf
	DCD	0x20000000
	DCD	0x20dfffdf
	DCD	0x0
	DCD	0x20000000
	DCD	0x20dfffdf
	DCD	0x0
	DCD	0x0
	DCD	0x0
	DCD	0xdeffdf20
	DCD	0x20
	DCD	0xf9ffdf20
	DCD	0x2cb7
	DCD	0x31000000
	DCD	0x95f5fbc4
	DCD	0x16
	DCD	0xfbf18f15
	DCD	0x32c5
	DCD	0x24000000
	DCD	0xdffff49f
	DCD	0x20
	DCD	0xdfffdf20
	DCD	0xdb7c1f20
	DCD	0x3ab4f8
	DCD	0x0
	DCD	0x20000000
	DCD	0x8af2ffdf
	DCD	0x13
	DCD	0xfbf49d15
	DCD	0x1cc7
	DCD	0x0
	DCD	0xfed93500
	DCD	0x34d6
	DCD	0x0
	DCD	0x0
	DCD	0xfed63400
	DCD	0x35d9
	DCD	0x0
	DCD	0xffdf2000
	DCD	0x20df
	DCD	0x0
	DCD	0xdfdf2000
	DCD	0x20
	DCD	0x0
	DCD	0xdfffdf20
	DCD	0x20
	DCD	0xf9fcc91d
	DCD	0xd36a8
	DCD	0x0
	DCD	0x0
	DCD	0x1d000000
	DCD	0xcbfdec71
	DCD	0x1e
	DCD	0x0
	DCD	0xecfcc71e
	DCD	0x1d71
	DCD	0x1e000000
	DCD	0x65ecfdd4
	DCD	0xd
	DCD	0x0
	DCD	0x20000000
	DCD	0x20dfffdf
	DCD	0x0
	DCD	0x650d0000
	DCD	0x1ed4fdec
	DCD	0x20000000
	DCD	0x20dfffdf
	DCD	0x0
	DCD	0x20000000
	DCD	0x20dfffde
	DCD	0x0
	DCD	0x0
	DCD	0x0
	DCD	0xdfffdf20
	DCD	0x20
	DCD	0xffffdf20
	DCD	0x2986e9
	DCD	0x932d0d00
	DCD	0x35d1fef0
	DCD	0x0
	DCD	0xfbc43200
	DCD	0x103099f2
	DCD	0x7c240000
	DCD	0xdffffee0
	DCD	0x20
	DCD	0xdfffdf20
	DCD	0x7c1f0020
	DCD	0x37b4f8db
	DCD	0x0
	DCD	0x20000000
	DCD	0xc7fcffdf
	DCD	0xd00123a
	DCD	0xf5fbc536
	DCD	0x1695
	DCD	0x0
	DCD	0xf9bb1a00
	DCD	0x1590f3
	DCD	0x0
	DCD	0x0
	DCD	0xf9f39015
	DCD	0x1abb
	DCD	0x0
	DCD	0xffdf2000
	DCD	0x20df
	DCD	0x0
	DCD	0xdfdf2000
	DCD	0x20
	DCD	0x0
	DCD	0xdfffdf20
	DCD	0x20
	DCD	0xdfffdc20
	DCD	0x3a
	DCD	0x0
	DCD	0x0
	DCD	0x0
	DCD	0xdbffdf3a
	DCD	0x20
	DCD	0x0
	DCD	0xdfffdb20
	DCD	0x3a
	DCD	0x1c000000
	DCD	0x88f1fbc7
	DCD	0x12
	DCD	0x0
	DCD	0x20000000
	DCD	0x20dfffdf
	DCD	0x0
	DCD	0x88120000
	DCD	0x1cc8fbf1
	DCD	0x20000000
	DCD	0x20dfffdf
	DCD	0x0
	DCD	0x1f000000
	DCD	0x31dffed8
	DCD	0x0
	DCD	0x0
	DCD	0x0
	DCD	0xdcffdf31
	DCD	0x20
	DCD	0xfdffdf20
	DCD	0x389ee5e7
	DCD	0xecab6c2d
	DCD	0x1592ecff
	DCD	0x0
	DCD	0xdb7a1000
	DCD	0x78b7f0fd
	DCD	0xe092352f
	DCD	0xdffffff4
	DCD	0x20
	DCD	0xdfffdf20
	DCD	0x1f000020
	DCD	0xa8f5db7c
	DCD	0x34
	DCD	0x20000000
	DCD	0xe6feffdf
	DCD	0x6e3e83c4
	DCD	0xcffef5b5
	DCD	0x35
	DCD	0x0
	DCD	0xf1871300
	DCD	0x29c5fb
	DCD	0x0
	DCD	0x0
	DCD	0xf1fbc529
	DCD	0x1387
	DCD	0x0
	DCD	0xffdf2000
	DCD	0x20df
	DCD	0x0
	DCD	0xdfdf2000
	DCD	0x20
	DCD	0x0
	DCD	0xdfffdf20
	DCD	0x20
	DCD	0xdfffda20
	DCD	0x33
	DCD	0x0
	DCD	0x0
	DCD	0xd000000
	DCD	0xd2fdec67
	DCD	0x1e
	DCD	0x0
	DCD	0xecfdd21e
	DCD	0xd69
	DCD	0x19000000
	DCD	0x9ef4f8b4
	DCD	0x15
	DCD	0x0
	DCD	0x20000000
	DCD	0x20dfffdf
	DCD	0x0
	DCD	0x9f150000
	DCD	0x1abaf9f4
	DCD	0x20000000
	DCD	0x20dfffdf
	DCD	0x0
	DCD	0x1c000000
	DCD	0x7ef1fbc8
	DCD	0x12
	DCD	0x0
	DCD	0x12000000
	DCD	0xcefcf17c
	DCD	0x1d
	DCD	0xefffdf20
	DCD	0xdcedc79a
	DCD	0xf9f6ecdf
	DCD	0x2d9ee8
	DCD	0x0
	DCD	0x7c1f0000
	DCD	0xeff6f6cb
	DCD	0xe6eedddf
	DCD	0xdffff5b9
	DCD	0x20
	DCD	0xdfffdf20
	DCD	0x20
	DCD	0xf2db7c1f
	DCD	0x34a8
	DCD	0x20000000
	DCD	0x9cefffdf
	DCD	0xecdde9c9
	DCD	0x8ce2faf9
	DCD	0x13
	DCD	0x0
	DCD	0xd1310000
	DCD	0xd6ae8fd
	DCD	0x0
	DCD	0xd000000
	DCD	0xd1fde86a
	DCD	0x31
	DCD	0x0
	DCD	0xffdf2000
	DCD	0x20df
	DCD	0x0
	DCD	0xdfdf2000
	DCD	0x20
	DCD	0x0
	DCD	0xdfffdf20
	DCD	0x20
	DCD	0xf2fabe1b
	DCD	0x288c
	DCD	0x151a1300
	DCD	0x0
	DCD	0x13000000
	DCD	0xb9f9f294
	DCD	0x1a
	DCD	0x0
	DCD	0xf4f9b91a
	DCD	0x159a
	DCD	0x15000000
	DCD	0xb6f8f499
	DCD	0x19
	DCD	0x0
	DCD	0x20000000
	DCD	0x20dfffdf
	DCD	0x0
	DCD	0xbb1a0000
	DCD	0x16a0f5f9
	DCD	0x20000000
	DCD	0x20dfffdf
	DCD	0x0
	DCD	0x19000000
	DCD	0xaef7f8af
	DCD	0x18
	DCD	0x0
	DCD	0x16000000
	DCD	0xb8f9f5a8
	DCD	0x1a
	DCD	0xdfffdf20
	DCD	0xcc9c362f
	DCD	0xb8d6dedc
	DCD	0x2980
	DCD	0x0
	DCD	0x10000000
	DCD	0xdccc9c37
	DCD	0x80b7d2dd
	DCD	0xdfffdf48
	DCD	0x20
	DCD	0xdfffdf20
	DCD	0x20
	DCD	0xcb7c1f00
	DCD	0x1a88d3
	DCD	0x20000000
	DCD	0x2fdfffdf
	DCD	0xddd1a138
	DCD	0x2379bcda
	DCD	0x0
	DCD	0x0
	DCD	0xb1190000
	DCD	0x16a4f5f8
	DCD	0x0
	DCD	0x16000000
	DCD	0xb1f8f5a4
	DCD	0x19
	DCD	0x0
	DCD	0xffdf2000
	DCD	0x20df
	DCD	0x0
	DCD	0xdfdf2000
	DCD	0x20
	DCD	0x0
	DCD	0xbfdfbf20
	DCD	0x20
	DCD	0xfee68112
	DCD	0x203592e4
	DCD	0x89b08733
	DCD	0x15
	DCD	0x1a000000
	DCD	0x87f2f9b9
	DCD	0x13
	DCD	0x0
	DCD	0xf9f28713
	DCD	0x1aba
	DCD	0xd000000
	DCD	0xd1fde969
	DCD	0x2b
	DCD	0x0
	DCD	0x20000000
	DCD	0x20dfffdf
	DCD	0x0
	DCD	0xd22b0000
	DCD	0xd6aeafd
	DCD	0x20000000
	DCD	0x20dfffdf
	DCD	0x0
	DCD	0x10000000
	DCD	0xcffdeb77
	DCD	0x31
	DCD	0x0
	DCD	0x30000000
	DCD	0x87f1fccb
	DCD	0x13
	DCD	0xdfffdf20
	DCD	0x1d180020
	DCD	0x1a1f2020
	DCD	0x12
	DCD	0x0
	DCD	0x0
	DCD	0x201d1800
	DCD	0x121a1e20
	DCD	0xdfffdf20
	DCD	0x20
	DCD	0xdfffdf20
	DCD	0x20
	DCD	0x1f100000
	DCD	0x1a20
	DCD	0x20000000
	DCD	0x20dfffdf
	DCD	0x201e1900
	DCD	0x101b20
	DCD	0x0
	DCD	0x0
	DCD	0x77100000
	DCD	0x2ecefdec
	DCD	0x0
	DCD	0x2e000000
	DCD	0x77ecfdce
	DCD	0x10
	DCD	0x0
	DCD	0xffdf2000
	DCD	0x20df
	DCD	0x0
	DCD	0xdfdf2000
	DCD	0x20
	DCD	0x0
	DCD	0x20202000
	DCD	0x0
	DCD	0xe1932600
	DCD	0xdfdff3f8
	DCD	0xb8f0f1df
	DCD	0x1b
	DCD	0x1e000000
	DCD	0x33dffdd2
	DCD	0x0
	DCD	0x0
	DCD	0xfcdf3300
	DCD	0x1dce
	DCD	0x0
	DCD	0xeafccb2a
	DCD	0xd6c
	DCD	0x0
	DCD	0x20000000
	DCD	0x20dfffdf
	DCD	0x0
	DCD	0xea6d0d00
	DCD	0x2bcffd
	DCD	0x20000000
	DCD	0x20dfffdf
	DCD	0x0
	DCD	0x0
	DCD	0xf1fbc22c
	DCD	0x138c
	DCD	0x0
	DCD	0x8b130000
	DCD	0x31cdfdf0
	DCD	0x0
	DCD	0xdfffdf20
	DCD	0x20
	DCD	0x0
	DCD	0x0
	DCD	0x0
	DCD	0x0
	DCD	0x0
	DCD	0x0
	DCD	0xdfffdf20
	DCD	0x20
	DCD	0xdfffdf20
	DCD	0x20
	DCD	0x0
	DCD	0x0
	DCD	0x20000000
	DCD	0x20dfffdf
	DCD	0x0
	DCD	0x0
	DCD	0x0
	DCD	0x0
	DCD	0x2d000000
	DCD	0x78edfccb
	DCD	0x10
	DCD	0x78100000
	DCD	0x2dcbfced
	DCD	0x0
	DCD	0x0
	DCD	0xffdf2000
	DCD	0x20df
	DCD	0x0
	DCD	0xdfdf2000
	DCD	0x20
	DCD	0x0
	DCD	0x16201600
	DCD	0x0
	DCD	0x6e220000
	DCD	0xfffed6b4
	DCD	0x8fc1d3dd
	DCD	0x16
	DCD	0x20000000
	DCD	0x2fdfffdd
	DCD	0x0
	DCD	0x0
	DCD	0xffdf2f00
	DCD	0x20dc
	DCD	0x0
	DCD	0xf7f59616
	DCD	0x18aa
	DCD	0x0
	DCD	0x20000000
	DCD	0x20dfffdf
	DCD	0x0
	DCD	0xf8af1900
	DCD	0x189cf7
	DCD	0x20000000
	DCD	0x20dfffdf
	DCD	0x0
	DCD	0x0
	DCD	0xfee88212
	DCD	0x3ccf
	DCD	0x0
	DCD	0xcb3b0000
	DCD	0x1591eefd
	DCD	0x0
	DCD	0xdfffdf20
	DCD	0x20
	DCD	0x0
	DCD	0x0
	DCD	0x0
	DCD	0x0
	DCD	0x0
	DCD	0x0
	DCD	0xdfffdf20
	DCD	0x20
	DCD	0xdfffdf20
	DCD	0x20
	DCD	0x0
	DCD	0x0
	DCD	0x20000000
	DCD	0x20dfffdf
	DCD	0x0
	DCD	0x0
	DCD	0x0
	DCD	0x0
	DCD	0x16000000
	DCD	0xb6f9f596
	DCD	0x1a
	DCD	0xb61a0000
	DCD	0x1696f5f9
	DCD	0x0
	DCD	0x0
	DCD	0xffdf2000
	DCD	0x20df
	DCD	0x0
	DCD	0xdfdf2000
	DCD	0x20
	DCD	0x0
	DCD	0x98cc9816
	DCD	0x16
	DCD	0xd000000
	DCD	0xdfdf3f1a
	DCD	0x161b1e40
	DCD	0x0
	DCD	0x20000000
	DCD	0x7befffda
	DCD	0x1d
	DCD	0x0
	DCD	0xffef7b1d
	DCD	0x20da
	DCD	0x0
	DCD	0xfdd33500
	DCD	0x35d3
	DCD	0x0
	DCD	0x20000000
	DCD	0x20dfffdf
	DCD	0x0
	DCD	0xfed53700
	DCD	0x38d8
	DCD	0x20000000
	DCD	0x20dfffdf
	DCD	0x0
	DCD	0x0
	DCD	0xf09e2900
	DCD	0x183cb4fb
	DCD	0xd000010
	DCD	0xfab43c18
	DCD	0x2fa8f5
	DCD	0x0
	DCD	0xdfffdf20
	DCD	0x20
	DCD	0x0
	DCD	0x0
	DCD	0x0
	DCD	0x0
	DCD	0x0
	DCD	0x0
	DCD	0xdfffdf20
	DCD	0x20
	DCD	0xdfffdf20
	DCD	0x20
	DCD	0x0
	DCD	0x0
	DCD	0x20000000
	DCD	0x20dfffdf
	DCD	0x0
	DCD	0x0
	DCD	0x0
	DCD	0x0
	DCD	0x0
	DCD	0xd6feda36
	DCD	0x32
	DCD	0xd6320000
	DCD	0x36dafe
	DCD	0x0
	DCD	0x0
	DCD	0xffdf2000
	DCD	0x20df
	DCD	0x0
	DCD	0xdfdf2000
	DCD	0x20
	DCD	0x0
	DCD	0xd1fdd11f
	DCD	0x1f
	DCD	0x0
	DCD	0xdfdf2000
	DCD	0x20
	DCD	0x0
	DCD	0x1b000000
	DCD	0xd1fcf9b9
	DCD	0x2d71
	DCD	0x2d000000
	DCD	0xf9fcd171
	DCD	0x1bb9
	DCD	0x0
	DCD	0xf69d1800
	DCD	0x1698f5
	DCD	0x0
	DCD	0x40202020
	DCD	0x20dfffdf
	DCD	0x0
	DCD	0xf7f69d18
	DCD	0x19a3
	DCD	0x20000000
	DCD	0x40dfffdf
	DCD	0x202020
	DCD	0x0
	DCD	0xa3310000
	DCD	0xadd3fbeb
	DCD	0x6c2d2f76
	DCD	0xf3fbd3aa
	DCD	0x36b0
	DCD	0x0
	DCD	0xdfffdf20
	DCD	0x20
	DCD	0x0
	DCD	0x0
	DCD	0x0
	DCD	0x0
	DCD	0x0
	DCD	0x0
	DCD	0xdfffdf20
	DCD	0x20
	DCD	0xdfffdf20
	DCD	0x20
	DCD	0x0
	DCD	0x0
	DCD	0x20000000
	DCD	0x20dfffdf
	DCD	0x0
	DCD	0x0
	DCD	0x0
	DCD	0x0
	DCD	0x0
	DCD	0xf2fac11b
	DCD	0x1388
	DCD	0xf2881300
	DCD	0x1bc1fa
	DCD	0x0
	DCD	0x0
	DCD	0xffdf2000
	DCD	0x20df
	DCD	0x0
	DCD	0xdfdf2000
	DCD	0x20
	DCD	0x0
	DCD	0xd3fdd11f
	DCD	0x1f
	DCD	0x0
	DCD	0xdfdf2000
	DCD	0x20
	DCD	0x0
	DCD	0xd000000
	DCD	0xfaf7c96e
	DCD	0x20bfec
	DCD	0xbf200000
	DCD	0xc9f7faec
	DCD	0xd6e
	DCD	0x0
	DCD	0xcf370000
	DCD	0x3ad2fd
	DCD	0x20000000
	DCD	0xdfdfdfbf
	DCD	0x20dfffff
	DCD	0x0
	DCD	0xcffdd33a
	DCD	0x38
	DCD	0x20000000
	DCD	0xdfffffdf
	DCD	0x20bfdfdf
	DCD	0x0
	DCD	0x2c000000
	DCD	0xf2f2cf8c
	DCD	0xecdfdfed
	DCD	0x9ee4f5f3
	DCD	0x34
	DCD	0x0
	DCD	0xdfffdf20
	DCD	0x20
	DCD	0x0
	DCD	0x0
	DCD	0x0
	DCD	0x0
	DCD	0x0
	DCD	0x0
	DCD	0xdfffdf20
	DCD	0x20
	DCD	0xdfffdf20
	DCD	0x20
	DCD	0x0
	DCD	0x0
	DCD	0x20000000
	DCD	0x20dfffdf
	DCD	0x0
	DCD	0x0
	DCD	0x0
	DCD	0x0
	DCD	0x0
	DCD	0xfaf38f15
	DCD	0x1bc0
	DCD	0xfac01b00
	DCD	0x158ff3
	DCD	0x0
	DCD	0x0
	DCD	0xffdf2000
	DCD	0x20df
	DCD	0x0
	DCD	0xbfbf2000
	DCD	0x20
	DCD	0x0
	DCD	0x9dcd9816
	DCD	0x18
	DCD	0x0
	DCD	0xbfbf2000
	DCD	0x20
	DCD	0x0
	DCD	0x0
	DCD	0xcda1380d
	DCD	0x20bfdc
	DCD	0xbf200000
	DCD	0x38a1cddc
	DCD	0xd
	DCD	0x0
	DCD	0x8c130000
	DCD	0x1b8cdad3
	DCD	0x20000000
	DCD	0xdfdfdfbf
	DCD	0x20bfdfdf
	DCD	0x1b000000
	DCD	0x8cd3da8c
	DCD	0x13
	DCD	0x20000000
	DCD	0xdfdfdfbf
	DCD	0x20bfdfdf
	DCD	0x0
	DCD	0x0
	DCD	0xbf8f3413
	DCD	0xdbdfddd3
	DCD	0x256aa2c7
	DCD	0x0
	DCD	0x0
	DCD	0xbfdfbf20
	DCD	0x20
	DCD	0x0
	DCD	0x0
	DCD	0x0
	DCD	0x0
	DCD	0x0
	DCD	0x0
	DCD	0xbfdfbf20
	DCD	0x20
	DCD	0xbfdfbf20
	DCD	0x20
	DCD	0x0
	DCD	0x0
	DCD	0x20000000
	DCD	0x20bfdfbf
	DCD	0x0
	DCD	0x0
	DCD	0x0
	DCD	0x0
	DCD	0x0
	DCD	0xdebc3400
	DCD	0x20bb
	DCD	0xdebb2000
	DCD	0x34bc
	DCD	0x0
	DCD	0x0
	DCD	0xdfbf2000
	DCD	0x20bf
	DCD	0x0
	DCD	0x20200000
	DCD	0x0
	DCD	0x0
	DCD	0x18201600
	DCD	0x0
	DCD	0x0
	DCD	0x20200000
	DCD	0x0
	DCD	0x0
	DCD	0x0
	DCD	0x1d190000
	DCD	0x2020
	DCD	0x20000000
	DCD	0x191d20
	DCD	0x0
	DCD	0x0
	DCD	0x13000000
	DCD	0x1b2020
	DCD	0x0
	DCD	0x20202020
	DCD	0x202020
	DCD	0x0
	DCD	0x1320201b
	DCD	0x0
	DCD	0x0
	DCD	0x20202020
	DCD	0x202020
	DCD	0x0
	DCD	0x0
	DCD	0x1b150000
	DCD	0x2020201e
	DCD	0xd161c
	DCD	0x0
	DCD	0x0
	DCD	0x20202000
	DCD	0x0
	DCD	0x0
	DCD	0x0
	DCD	0x0
	DCD	0x0
	DCD	0x0
	DCD	0x0
	DCD	0x20202000
	DCD	0x0
	DCD	0x20202000
	DCD	0x0
	DCD	0x0
	DCD	0x0
	DCD	0x0
	DCD	0x202020
	DCD	0x0
	DCD	0x0
	DCD	0x0
	DCD	0x0
	DCD	0x0
	DCD	0x201f0000
	DCD	0x20
	DCD	0x20200000
	DCD	0x1f
	DCD	0x0
	DCD	0x0
	DCD	0x20200000
	DCD	0x20
	DCD	0x0
	DCD	0x0
	DCD	0x0
	DCD	0x0
	DCD	0x0
	DCD	0x0
	DCD	0x0
	DCD	0x0
	DCD	0x0
	DCD	0x0
	DCD	0x0
	DCD	0x0
	DCD	0x0
	DCD	0x0
	DCD	0x0
	DCD	0x0
	DCD	0x0
	DCD	0x0
	DCD	0x0
	DCD	0x0
	DCD	0x0
	DCD	0x0
	DCD	0x0
	DCD	0x0
	DCD	0x0
	DCD	0x0
	DCD	0x0
	DCD	0x0
	DCD	0x0
	DCD	0x0
	DCD	0x0
	DCD	0x0
	DCD	0x0
	DCD	0x0
	DCD	0x0
	DCD	0x0
	DCD	0x0
	DCD	0x0
	DCD	0x0
	DCD	0x0
	DCD	0x0
	DCD	0x0
	DCD	0x0
	DCD	0x0
	DCD	0x0
	DCD	0x0
	DCD	0x0
	DCD	0x0
	DCD	0x0
	DCD	0x0
	DCD	0x0
	DCD	0x0
	DCD	0x0
	DCD	0x0
	DCD	0x0
	DCD	0x0
	DCD	0x0
	DCD	0x0
	DCD	0x0
	DCD	0x0
	DCD	0x0
	DCD	0x0
	DCD	0x0
	DCD	0x0
	DCD	0x0
	DCD	0x0
	EXPORT	|??_C@_0O@MCGANGNL@ImageFont?4pvr?$AA@| [ DATA ] ; `string'
	IMPORT	|??0CPVRTMemoryFileSystem@@QAA@PBDPBXI_N@Z| ; CPVRTMemoryFileSystem::CPVRTMemoryFileSystem
; File c:\wince600\public\powervr-sdk\ovg\trainingcourse\19_font\ovg\content\imagefont.cpp

  00000			 AREA	 |.pdata|, PDATA
|$T3741| DCD	|$LN5@dynamic|
	DCD	0x40001002

  00000			 AREA	 |.rdata|, DATA, READONLY
|??_C@_0O@MCGANGNL@ImageFont?4pvr?$AA@| DCB "ImageFont.pvr", 0x0 ; `string'
; Function compile flags: /Ogspy

  00000			 AREA	 |.text$yc|, CODE, ARM

  00000		 |??__ERegisterFile_ImageFont_pvr@@YAXXZ| PROC ; `dynamic initializer for 'RegisterFile_ImageFont_pvr''

; 285  : static CPVRTMemoryFileSystem RegisterFile_ImageFont_pvr("ImageFont.pvr", _ImageFont_pvr, 65588);

  00000		 |$LN5@dynamic|
  00000	e52de004	 str         lr, [sp, #-4]!
  00004	e24dd004	 sub         sp, sp, #4
  00008		 |$M3738|
  00008	e59f202c	 ldr         r2, [pc, #0x2C]
  0000c	e59f1024	 ldr         r1, [pc, #0x24]
  00010	e59f001c	 ldr         r0, [pc, #0x1C]
  00014	e3a03801	 mov         r3, #1, 16
  00018	e3a0e000	 mov         lr, #0
  0001c	e3833034	 orr         r3, r3, #0x34
  00020	e58de000	 str         lr, [sp]
  00024	eb000000	 bl          |??0CPVRTMemoryFileSystem@@QAA@PBDPBXI_N@Z|
  00028	e28dd004	 add         sp, sp, #4
  0002c	e49de004	 ldr         lr, [sp], #4
  00030	e12fff1e	 bx          lr
  00034		 |$LN6@dynamic|
  00034		 |$LN7@dynamic|
  00034	00000000	 DCD         |RegisterFile_ImageFont_pvr|
  00038		 |$LN8@dynamic|
  00038	00000000	 DCD         |??_C@_0O@MCGANGNL@ImageFont?4pvr?$AA@|
  0003c		 |$LN9@dynamic|
  0003c	00000000	 DCD         |_ImageFont_pvr|
  00040		 |$M3739|

			 ENDP  ; |??__ERegisterFile_ImageFont_pvr@@YAXXZ|, `dynamic initializer for 'RegisterFile_ImageFont_pvr''


  00000			 AREA	 |.bss|, NOINIT
|RegisterFile_ImageFont_pvr| % 0x1

  00000			 AREA	 |.CRT$XCU|, DATA
|RegisterFile_ImageFont_pvr$initializer$| DCD |??__ERegisterFile_ImageFont_pvr@@YAXXZ|
	END
