; Listing generated by Microsoft (R) Optimizing Compiler Version 14.01.60511.01 

	TTL	C:\WINCE600\PUBLIC\PowerVR-SDK\OVG\TrainingCourse\19_Font\OVG\OVGFont.cpp
	CODE32

  00000			 AREA	 |.drectve|, DRECTVE
	DCB	"-defaultlib:LIBCMT "
	DCB	"-defaultlib:OLDNAMES "


  00000			 AREA	 |.rdata|, DATA, READONLY
|c_szPVGFile| DCB "Font.pvg", 0x0
	%	3
|c_szPVRFile| DCB "ImageFont.pvr", 0x0
	%	6
|g_CharDesc| DCD 0xf6
	DCD	0xca
	DCD	0x7
	DCD	0x1a
	DCD	0x0					; 0
	DCD	0x40000000				; 2
	DCD	0x41000000				; 8
	DCD	0x0					; 0
	DCD	0x4b
	DCD	0x53
	DCD	0xc
	DCD	0xc
	DCD	0x0					; 0
	DCD	0xc1400000				; -12
	DCD	0x41300000				; 11
	DCD	0x0					; 0
	DCD	0x50
	DCD	0x77
	DCD	0x12
	DCD	0x19
	DCD	0x0					; 0
	DCD	0x40000000				; 2
	DCD	0x41800000				; 16
	DCD	0x0					; 0
	DCD	0x13
	DCD	0xe1
	DCD	0x10
	DCD	0x1f
	DCD	0x0					; 0
	DCD	0x40a00000				; 5
	DCD	0x41880000				; 17
	DCD	0x0					; 0
	DCD	0xc2
	DCD	0x95
	DCD	0x1c
	DCD	0x19
	DCD	0x0					; 0
	DCD	0x40000000				; 2
	DCD	0x41d00000				; 26
	DCD	0x0					; 0
	DCD	0x97
	DCD	0xca
	DCD	0x17
	DCD	0x1a
	DCD	0x0					; 0
	DCD	0x40000000				; 2
	DCD	0x41a00000				; 20
	DCD	0x0					; 0
	DCD	0x58
	DCD	0x53
	DCD	0x7
	DCD	0xc
	DCD	0x0					; 0
	DCD	0xc1400000				; -12
	DCD	0x40c00000				; 6
	DCD	0x0					; 0
	DCD	0x3e
	DCD	0xe2
	DCD	0xb
	DCD	0x1e
	DCD	0x0					; 0
	DCD	0x40c00000				; 6
	DCD	0x41100000				; 9
	DCD	0x0					; 0
	DCD	0x56
	DCD	0xe2
	DCD	0xb
	DCD	0x1e
	DCD	0x0					; 0
	DCD	0x40c00000				; 6
	DCD	0x41100000				; 9
	DCD	0x0					; 0
	DCD	0x1c
	DCD	0x4b
	DCD	0x10
	DCD	0xf
	DCD	0x0					; 0
	DCD	0xc1100000				; -9
	DCD	0x41600000				; 14
	DCD	0x0					; 0
	DCD	0x38
	DCD	0x60
	DCD	0x14
	DCD	0x14
	DCD	0x0					; 0
	DCD	0x40000000				; 2
	DCD	0x41980000				; 19
	DCD	0x0					; 0
	DCD	0x2d
	DCD	0x4d
	DCD	0x9
	DCD	0xd
	DCD	0x0					; 0
	DCD	0x40c00000				; 6
	DCD	0x40e00000				; 7
	DCD	0x0					; 0
	DCD	0x9e
	DCD	0x5c
	DCD	0xc
	DCD	0x6
	DCD	0x0					; 0
	DCD	0xc0c00000				; -6
	DCD	0x41200000				; 10
	DCD	0x0					; 0
	DCD	0x81
	DCD	0x59
	DCD	0x7
	DCD	0x8
	DCD	0x0					; 0
	DCD	0x40000000				; 2
	DCD	0x40e00000				; 7
	DCD	0x0					; 0
	DCD	0xd4
	DCD	0xe5
	DCD	0xf
	DCD	0x1b
	DCD	0x0					; 0
	DCD	0x40400000				; 3
	DCD	0x41300000				; 11
	DCD	0x0					; 0
	DCD	0x0
	DCD	0x70
	DCD	0x13
	DCD	0x19
	DCD	0x0					; 0
	DCD	0x40000000				; 2
	DCD	0x41880000				; 17
	DCD	0x0					; 0
	DCD	0xf4
	DCD	0x95
	DCD	0xb
	DCD	0x19
	DCD	0x0					; 0
	DCD	0x40000000				; 2
	DCD	0x41880000				; 17
	DCD	0x0					; 0
	DCD	0x63
	DCD	0x77
	DCD	0x12
	DCD	0x19
	DCD	0x0					; 0
	DCD	0x40000000				; 2
	DCD	0x41880000				; 17
	DCD	0x0					; 0
	DCD	0x76
	DCD	0x77
	DCD	0x12
	DCD	0x19
	DCD	0x0					; 0
	DCD	0x40000000				; 2
	DCD	0x41880000				; 17
	DCD	0x0					; 0
	DCD	0xdf
	DCD	0x95
	DCD	0x14
	DCD	0x19
	DCD	0x0					; 0
	DCD	0x40000000				; 2
	DCD	0x41880000				; 17
	DCD	0x0					; 0
	DCD	0x89
	DCD	0x77
	DCD	0x12
	DCD	0x19
	DCD	0x0					; 0
	DCD	0x40000000				; 2
	DCD	0x41880000				; 17
	DCD	0x0					; 0
	DCD	0x28
	DCD	0x75
	DCD	0x13
	DCD	0x19
	DCD	0x0					; 0
	DCD	0x40000000				; 2
	DCD	0x41880000				; 17
	DCD	0x0					; 0
	DCD	0x9c
	DCD	0x78
	DCD	0x11
	DCD	0x19
	DCD	0x0					; 0
	DCD	0x40000000				; 2
	DCD	0x41880000				; 17
	DCD	0x0					; 0
	DCD	0x3c
	DCD	0x75
	DCD	0x13
	DCD	0x19
	DCD	0x0					; 0
	DCD	0x40000000				; 2
	DCD	0x41880000				; 17
	DCD	0x0					; 0
	DCD	0x14
	DCD	0x70
	DCD	0x13
	DCD	0x19
	DCD	0x0					; 0
	DCD	0x40000000				; 2
	DCD	0x41880000				; 17
	DCD	0x0					; 0
	DCD	0x0
	DCD	0x46
	DCD	0x7
	DCD	0x14
	DCD	0x0					; 0
	DCD	0x40400000				; 3
	DCD	0x40e00000				; 7
	DCD	0x0					; 0
	DCD	0xbc
	DCD	0x7c
	DCD	0x9
	DCD	0x17
	DCD	0x0					; 0
	DCD	0x40c00000				; 6
	DCD	0x40e00000				; 7
	DCD	0x0					; 0
	DCD	0xda
	DCD	0x7f
	DCD	0x13
	DCD	0x15
	DCD	0x0					; 0
	DCD	0x40000000				; 2
	DCD	0x41980000				; 19
	DCD	0x0					; 0
	DCD	0x37
	DCD	0x4e
	DCD	0x13
	DCD	0xc
	DCD	0x0					; 0
	DCD	0xc0000000				; -2
	DCD	0x41980000				; 19
	DCD	0x0					; 0
	DCD	0xc6
	DCD	0x7f
	DCD	0x13
	DCD	0x15
	DCD	0x0					; 0
	DCD	0x40000000				; 2
	DCD	0x41980000				; 19
	DCD	0x0					; 0
	DCD	0xa3
	DCD	0x94
	DCD	0xe
	DCD	0x1a
	DCD	0x0					; 0
	DCD	0x40000000				; 2
	DCD	0x41500000				; 13
	DCD	0x0					; 0
	DCD	0x4b
	DCD	0xc7
	DCD	0x1a
	DCD	0x1a
	DCD	0x0					; 0
	DCD	0x40000000				; 2
	DCD	0x41c00000				; 24
	DCD	0x0					; 0
	DCD	0xaf
	DCD	0xca
	DCD	0x17
	DCD	0x1a
	DCD	0x0					; 0
	DCD	0x40000000				; 2
	DCD	0x41a00000				; 20
	DCD	0x0					; 0
	DCD	0x28
	DCD	0x8f
	DCD	0x12
	DCD	0x1a
	DCD	0x0					; 0
	DCD	0x40000000				; 2
	DCD	0x41900000				; 18
	DCD	0x0					; 0
	DCD	0x42
	DCD	0xac
	DCD	0x15
	DCD	0x1a
	DCD	0x0					; 0
	DCD	0x40000000				; 2
	DCD	0x41980000				; 19
	DCD	0x0					; 0
	DCD	0xdf
	DCD	0xca
	DCD	0x16
	DCD	0x1a
	DCD	0x0					; 0
	DCD	0x40000000				; 2
	DCD	0x41b00000				; 22
	DCD	0x0					; 0
	DCD	0x4e
	DCD	0x91
	DCD	0x11
	DCD	0x1a
	DCD	0x0					; 0
	DCD	0x40000000				; 2
	DCD	0x41800000				; 16
	DCD	0x0					; 0
	DCD	0x83
	DCD	0x91
	DCD	0x10
	DCD	0x1a
	DCD	0x0					; 0
	DCD	0x40000000				; 2
	DCD	0x41800000				; 16
	DCD	0x0					; 0
	DCD	0xc7
	DCD	0xca
	DCD	0x17
	DCD	0x1a
	DCD	0x0					; 0
	DCD	0x40000000				; 2
	DCD	0x41b00000				; 22
	DCD	0x0					; 0
	DCD	0x2c
	DCD	0xaa
	DCD	0x15
	DCD	0x1a
	DCD	0x0					; 0
	DCD	0x40000000				; 2
	DCD	0x41b00000				; 22
	DCD	0x0					; 0
	DCD	0xb2
	DCD	0x94
	DCD	0x7
	DCD	0x1a
	DCD	0x0					; 0
	DCD	0x40000000				; 2
	DCD	0x41000000				; 8
	DCD	0x0					; 0
	DCD	0x94
	DCD	0x92
	DCD	0xe
	DCD	0x1a
	DCD	0x0					; 0
	DCD	0x40000000				; 2
	DCD	0x41400000				; 12
	DCD	0x0					; 0
	DCD	0xaf
	DCD	0xaf
	DCD	0x14
	DCD	0x1a
	DCD	0x0					; 0
	DCD	0x40000000				; 2
	DCD	0x41900000				; 18
	DCD	0x0					; 0
	DCD	0x72
	DCD	0x91
	DCD	0x10
	DCD	0x1a
	DCD	0x0					; 0
	DCD	0x40000000				; 2
	DCD	0x41800000				; 16
	DCD	0x0					; 0
	DCD	0x2f
	DCD	0xc7
	DCD	0x1b
	DCD	0x1a
	DCD	0x0					; 0
	DCD	0x40000000				; 2
	DCD	0x41d80000				; 27
	DCD	0x0					; 0
	DCD	0x84
	DCD	0xad
	DCD	0x15
	DCD	0x1a
	DCD	0x0					; 0
	DCD	0x40000000				; 2
	DCD	0x41b00000				; 22
	DCD	0x0					; 0
	DCD	0x66
	DCD	0xc7
	DCD	0x18
	DCD	0x1a
	DCD	0x0					; 0
	DCD	0x40000000				; 2
	DCD	0x41b80000				; 23
	DCD	0x0					; 0
	DCD	0x3b
	DCD	0x8f
	DCD	0x12
	DCD	0x1a
	DCD	0x0					; 0
	DCD	0x40000000				; 2
	DCD	0x41900000				; 18
	DCD	0x0					; 0
	DCD	0x6e
	DCD	0xe3
	DCD	0x18
	DCD	0x1d
	DCD	0x0					; 0
	DCD	0x40a00000				; 5
	DCD	0x41b80000				; 23
	DCD	0x0					; 0
	DCD	0xc4
	DCD	0xaf
	DCD	0x13
	DCD	0x1a
	DCD	0x0					; 0
	DCD	0x40000000				; 2
	DCD	0x41900000				; 18
	DCD	0x0					; 0
	DCD	0x60
	DCD	0x91
	DCD	0x11
	DCD	0x1a
	DCD	0x0					; 0
	DCD	0x40000000				; 2
	DCD	0x41800000				; 16
	DCD	0x0					; 0
	DCD	0x16
	DCD	0xaa
	DCD	0x15
	DCD	0x1a
	DCD	0x0					; 0
	DCD	0x40000000				; 2
	DCD	0x41880000				; 17
	DCD	0x0					; 0
	DCD	0x0
	DCD	0xa5
	DCD	0x15
	DCD	0x1a
	DCD	0x0					; 0
	DCD	0x40000000				; 2
	DCD	0x41b00000				; 22
	DCD	0x0					; 0
	DCD	0x7f
	DCD	0xc8
	DCD	0x17
	DCD	0x1a
	DCD	0x0					; 0
	DCD	0x40000000				; 2
	DCD	0x41980000				; 19
	DCD	0x0					; 0
	DCD	0xf
	DCD	0xc5
	DCD	0x1f
	DCD	0x1a
	DCD	0x0					; 0
	DCD	0x40000000				; 2
	DCD	0x41e00000				; 28
	DCD	0x0					; 0
	DCD	0x6e
	DCD	0xac
	DCD	0x15
	DCD	0x1a
	DCD	0x0					; 0
	DCD	0x40000000				; 2
	DCD	0x41980000				; 19
	DCD	0x0					; 0
	DCD	0x58
	DCD	0xac
	DCD	0x15
	DCD	0x1a
	DCD	0x0					; 0
	DCD	0x40000000				; 2
	DCD	0x41900000				; 18
	DCD	0x0					; 0
	DCD	0x9a
	DCD	0xaf
	DCD	0x14
	DCD	0x1a
	DCD	0x0					; 0
	DCD	0x40000000				; 2
	DCD	0x41980000				; 19
	DCD	0x0					; 0
	DCD	0x62
	DCD	0xe2
	DCD	0xb
	DCD	0x1e
	DCD	0x0					; 0
	DCD	0x40c00000				; 6
	DCD	0x41100000				; 9
	DCD	0x0					; 0
	DCD	0xe4
	DCD	0xe5
	DCD	0xf
	DCD	0x1b
	DCD	0x0					; 0
	DCD	0x40400000				; 3
	DCD	0x41300000				; 11
	DCD	0x0					; 0
	DCD	0x4a
	DCD	0xe2
	DCD	0xb
	DCD	0x1e
	DCD	0x0					; 0
	DCD	0x40c00000				; 6
	DCD	0x41100000				; 9
	DCD	0x0					; 0
	DCD	0x8
	DCD	0x47
	DCD	0x13
	DCD	0x13
	DCD	0x0					; 0
	DCD	0xc0800000				; -4
	DCD	0x41980000				; 19
	DCD	0x0					; 0
	DCD	0x89
	DCD	0x5b
	DCD	0x14
	DCD	0x6
	DCD	0x0					; 0
	DCD	0x40c00000				; 6
	DCD	0x41800000				; 16
	DCD	0x0					; 0
	DCD	0x76
	DCD	0x58
	DCD	0xa
	DCD	0x9
	DCD	0x0					; 0
	DCD	0xc1700000				; -15
	DCD	0x41200000				; 10
	DCD	0x0					; 0
	DCD	0xd2
	DCD	0x6a
	DCD	0x10
	DCD	0x14
	DCD	0x0					; 0
	DCD	0x40000000				; 2
	DCD	0x41800000				; 16
	DCD	0x0					; 0
	DCD	0x87
	DCD	0xe5
	DCD	0x13
	DCD	0x1b
	DCD	0x0					; 0
	DCD	0x40000000				; 2
	DCD	0x41980000				; 19
	DCD	0x0					; 0
	DCD	0xee
	DCD	0x80
	DCD	0x11
	DCD	0x14
	DCD	0x0					; 0
	DCD	0x40000000				; 2
	DCD	0x41700000				; 15
	DCD	0x0					; 0
	DCD	0x9b
	DCD	0xe5
	DCD	0x13
	DCD	0x1b
	DCD	0x0					; 0
	DCD	0x40000000				; 2
	DCD	0x41980000				; 19
	DCD	0x0					; 0
	DCD	0x89
	DCD	0x62
	DCD	0x12
	DCD	0x14
	DCD	0x0					; 0
	DCD	0x40000000				; 2
	DCD	0x41880000				; 17
	DCD	0x0					; 0
	DCD	0x0
	DCD	0xc0
	DCD	0xe
	DCD	0x1b
	DCD	0x0					; 0
	DCD	0x40000000				; 2
	DCD	0x41200000				; 10
	DCD	0x0					; 0
	DCD	0xd8
	DCD	0xaf
	DCD	0x13
	DCD	0x1a
	DCD	0x0					; 0
	DCD	0x41000000				; 8
	DCD	0x41980000				; 19
	DCD	0x0					; 0
	DCD	0xc2
	DCD	0xe5
	DCD	0x11
	DCD	0x1b
	DCD	0x0					; 0
	DCD	0x40000000				; 2
	DCD	0x41900000				; 18
	DCD	0x0					; 0
	DCD	0xba
	DCD	0x94
	DCD	0x7
	DCD	0x1a
	DCD	0x0					; 0
	DCD	0x40000000				; 2
	DCD	0x41000000				; 8
	DCD	0x0					; 0
	DCD	0x7
	DCD	0xe0
	DCD	0xb
	DCD	0x20
	DCD	0x0					; 0
	DCD	0x41000000				; 8
	DCD	0x41000000				; 8
	DCD	0x0					; 0
	DCD	0xaf
	DCD	0xe5
	DCD	0x12
	DCD	0x1b
	DCD	0x0					; 0
	DCD	0x40000000				; 2
	DCD	0x41800000				; 16
	DCD	0x0					; 0
	DCD	0xf4
	DCD	0xe5
	DCD	0x7
	DCD	0x1b
	DCD	0x0					; 0
	DCD	0x40000000				; 2
	DCD	0x41000000				; 8
	DCD	0x0					; 0
	DCD	0x0
	DCD	0x5b
	DCD	0x1b
	DCD	0x14
	DCD	0x0					; 0
	DCD	0x40000000				; 2
	DCD	0x41e00000				; 28
	DCD	0x0					; 0
	DCD	0x9c
	DCD	0x63
	DCD	0x11
	DCD	0x14
	DCD	0x0					; 0
	DCD	0x40000000				; 2
	DCD	0x41900000				; 18
	DCD	0x0					; 0
	DCD	0x4d
	DCD	0x60
	DCD	0x13
	DCD	0x14
	DCD	0x0					; 0
	DCD	0x40000000				; 2
	DCD	0x41900000				; 18
	DCD	0x0					; 0
	DCD	0x14
	DCD	0x8a
	DCD	0x13
	DCD	0x1a
	DCD	0x0					; 0
	DCD	0x41000000				; 8
	DCD	0x41980000				; 19
	DCD	0x0					; 0
	DCD	0xec
	DCD	0xaf
	DCD	0x13
	DCD	0x1a
	DCD	0x0					; 0
	DCD	0x41000000				; 8
	DCD	0x41980000				; 19
	DCD	0x0					; 0
	DCD	0xf2
	DCD	0x6b
	DCD	0xc
	DCD	0x14
	DCD	0x0					; 0
	DCD	0x40000000				; 2
	DCD	0x41300000				; 11
	DCD	0x0					; 0
	DCD	0xe3
	DCD	0x6a
	DCD	0xe
	DCD	0x14
	DCD	0x0					; 0
	DCD	0x40000000				; 2
	DCD	0x41500000				; 13
	DCD	0x0					; 0
	DCD	0xae
	DCD	0x7b
	DCD	0xd
	DCD	0x18
	DCD	0x0					; 0
	DCD	0x40000000				; 2
	DCD	0x41300000				; 11
	DCD	0x0					; 0
	DCD	0xae
	DCD	0x66
	DCD	0x11
	DCD	0x14
	DCD	0x0					; 0
	DCD	0x40000000				; 2
	DCD	0x41900000				; 18
	DCD	0x0					; 0
	DCD	0x61
	DCD	0x62
	DCD	0x13
	DCD	0x14
	DCD	0x0					; 0
	DCD	0x40000000				; 2
	DCD	0x41800000				; 16
	DCD	0x0					; 0
	DCD	0x1c
	DCD	0x5b
	DCD	0x1b
	DCD	0x14
	DCD	0x0					; 0
	DCD	0x40000000				; 2
	DCD	0x41c00000				; 24
	DCD	0x0					; 0
	DCD	0x75
	DCD	0x62
	DCD	0x13
	DCD	0x14
	DCD	0x0					; 0
	DCD	0x40000000				; 2
	DCD	0x41700000				; 15
	DCD	0x0					; 0
	DCD	0x0
	DCD	0x8a
	DCD	0x13
	DCD	0x1a
	DCD	0x0					; 0
	DCD	0x41000000				; 8
	DCD	0x41800000				; 16
	DCD	0x0					; 0
	DCD	0xc0
	DCD	0x67
	DCD	0x11
	DCD	0x14
	DCD	0x0					; 0
	DCD	0x40000000				; 2
	DCD	0x41600000				; 14
	DCD	0x0					; 0
	DCD	0x24
	DCD	0xe2
	DCD	0xc
	DCD	0x1e
	DCD	0x0					; 0
	DCD	0x40c00000				; 6
	DCD	0x41100000				; 9
	DCD	0x0					; 0
	DCD	0x0
	DCD	0xdc
	DCD	0x6
	DCD	0x24
	DCD	0x0					; 0
	DCD	0x41200000				; 10
	DCD	0x41000000				; 8
	DCD	0x0					; 0
	DCD	0x31
	DCD	0xe2
	DCD	0xc
	DCD	0x1e
	DCD	0x0					; 0
	DCD	0x40c00000				; 6
	DCD	0x41100000				; 9
	DCD	0x0					; 0
	DCD	0x60
	DCD	0x56
	DCD	0x15
	DCD	0x9
	DCD	0x0					; 0
	DCD	0xc0a00000				; -5
	DCD	0x41980000				; 19
	DCD	0x0					; 0
	EXPORT	|??0OVGFont@@QAA@XZ|			; OVGFont::OVGFont
	EXPORT	|??_7OVGFont@@6B@| [ DATA ]		; OVGFont::`vftable'
	EXPORT	|?InitApplication@OVGFont@@UAA_NXZ|	; OVGFont::InitApplication
	EXPORT	|?QuitApplication@OVGFont@@UAA_NXZ|	; OVGFont::QuitApplication
	EXPORT	|?InitView@OVGFont@@UAA_NXZ|		; OVGFont::InitView
	EXPORT	|?ReleaseView@OVGFont@@UAA_NXZ|		; OVGFont::ReleaseView
	EXPORT	|?RenderScene@OVGFont@@UAA_NXZ|		; OVGFont::RenderScene
	IMPORT	|??0CPVRTPrintVG@@QAA@XZ|		; CPVRTPrintVG::CPVRTPrintVG
	IMPORT	|??0PVRShell@@QAA@XZ|			; PVRShell::PVRShell
	IMPORT	|??_EOVGFont@@UAAPAXI@Z|, WEAK |??_GOVGFont@@UAAPAXI@Z| ; OVGFont::`vector deleting destructor', OVGFont::`scalar deleting destructor'
; File c:\wince600\public\powervr-sdk\ovg\trainingcourse\19_font\ovg\ovgfont.cpp

  00000			 AREA	 |.pdata|, PDATA
|$T36592| DCD	|$LN5@OVGFont|
	DCD	0x40000b01

  00000			 AREA	 |.rdata|, DATA, READONLY
|??_7OVGFont@@6B@| DCD |??_EOVGFont@@UAAPAXI@Z|		; OVGFont::`vftable'
	DCD	|?InitApplication@OVGFont@@UAA_NXZ|
	DCD	|?QuitApplication@OVGFont@@UAA_NXZ|
	DCD	|?InitView@OVGFont@@UAA_NXZ|
	DCD	|?ReleaseView@OVGFont@@UAA_NXZ|
	DCD	|?RenderScene@OVGFont@@UAA_NXZ|
; Function compile flags: /Ogspy

  00000			 AREA	 |.text|, CODE, ARM

  00000		 |??0OVGFont@@QAA@XZ| PROC		; OVGFont::OVGFont

; 153  : 	OVGFont() {}

  00000		 |$LN5@OVGFont|
  00000	e92d4010	 stmdb       sp!, {r4, lr}
  00004		 |$M36589|
  00004	e1a04000	 mov         r4, r0
  00008	eb000000	 bl          |??0PVRShell@@QAA@XZ|
  0000c	e59f3014	 ldr         r3, [pc, #0x14]
  00010	e1a00004	 mov         r0, r4
  00014	e4803018	 str         r3, [r0], #0x18
  00018	eb000000	 bl          |??0CPVRTPrintVG@@QAA@XZ|
  0001c	e1a00004	 mov         r0, r4
  00020	e8bd4010	 ldmia       sp!, {r4, lr}
  00024	e12fff1e	 bx          lr
  00028		 |$LN6@OVGFont|
  00028		 |$LN7@OVGFont|
  00028	00000000	 DCD         |??_7OVGFont@@6B@|
  0002c		 |$M36590|

			 ENDP  ; |??0OVGFont@@QAA@XZ|, OVGFont::OVGFont

	EXPORT	|??1OVGFont@@UAA@XZ|			; OVGFont::~OVGFont
	IMPORT	|??1PVRShell@@UAA@XZ|			; PVRShell::~PVRShell
	IMPORT	|??1CPVRTPrintVG@@QAA@XZ|		; CPVRTPrintVG::~CPVRTPrintVG

  00000			 AREA	 |.pdata|, PDATA
|$T36602| DCD	|$LN5@OVGFont@2|
	DCD	0x40000801
; Function compile flags: /Ogspy

  00000			 AREA	 |.text|, CODE, ARM

  00000		 |??1OVGFont@@UAA@XZ| PROC		; OVGFont::~OVGFont
  00000		 |$LN5@OVGFont@2|
  00000	e92d4010	 stmdb       sp!, {r4, lr}
  00004		 |$M36599|
  00004	e1a04000	 mov         r4, r0
  00008	e2840018	 add         r0, r4, #0x18
  0000c	eb000000	 bl          |??1CPVRTPrintVG@@QAA@XZ|
  00010	e1a00004	 mov         r0, r4
  00014	eb000000	 bl          |??1PVRShell@@UAA@XZ|
  00018	e8bd4010	 ldmia       sp!, {r4, lr}
  0001c	e12fff1e	 bx          lr
  00020		 |$M36600|

			 ENDP  ; |??1OVGFont@@UAA@XZ|, OVGFont::~OVGFont

	IMPORT	|?PVRShellSet@PVRShell@@QAA_NW4prefNameIntEnum@@H@Z| ; PVRShell::PVRShellSet
	IMPORT	|?PVRShellSet@PVRShell@@QAA_NW4prefNameBoolEnum@@_N@Z| ; PVRShell::PVRShellSet
	IMPORT	|?SetReadPath@CPVRTResourceFile@@SAXPBD@Z| ; CPVRTResourceFile::SetReadPath
	IMPORT	|?PVRShellGet@PVRShell@@QBAPBXW4prefNameConstPtrEnum@@@Z| ; PVRShell::PVRShellGet

  00000			 AREA	 |.pdata|, PDATA
|$T36612| DCD	|$LN5@InitApplic|
	DCD	0x40001001
; Function compile flags: /Ogspy

  00000			 AREA	 |.text|, CODE, ARM

  00000		 |?InitApplication@OVGFont@@UAA_NXZ| PROC ; OVGFont::InitApplication

; 192  : {

  00000		 |$LN5@InitApplic|
  00000	e92d4010	 stmdb       sp!, {r4, lr}
  00004		 |$M36609|
  00004	e1a04000	 mov         r4, r0

; 193  : 	// Get and set the read path for content files
; 194  : 	CPVRTResourceFile::SetReadPath((char*) PVRShellGet(prefReadPath));

  00008	e3a01001	 mov         r1, #1
  0000c	eb000000	 bl          |?PVRShellGet@PVRShell@@QBAPBXW4prefNameConstPtrEnum@@@Z|
  00010	eb000000	 bl          |?SetReadPath@CPVRTResourceFile@@SAXPBD@Z|

; 195  : 
; 196  : 	// This sets up PVRShell to use an OpenVG context
; 197  : 	PVRShellSet(prefOpenVGContext, true);

  00014	e3a02001	 mov         r2, #1
  00018	e3a01009	 mov         r1, #9
  0001c	e1a00004	 mov         r0, r4
  00020	eb000000	 bl          |?PVRShellSet@PVRShell@@QAA_NW4prefNameBoolEnum@@_N@Z|

; 198  : 
; 199  : 	// Set the anti-alias mode to 'better'
; 200  : 	PVRShellSet(prefFSAAMode, 2);

  00024	e3a02002	 mov         r2, #2
  00028	e3a01009	 mov         r1, #9
  0002c	e1a00004	 mov         r0, r4
  00030	eb000000	 bl          |?PVRShellSet@PVRShell@@QAA_NW4prefNameIntEnum@@H@Z|

; 201  : 
; 202  : 	return true;

  00034	e3a00001	 mov         r0, #1

; 203  : }

  00038	e8bd4010	 ldmia       sp!, {r4, lr}
  0003c	e12fff1e	 bx          lr
  00040		 |$M36610|

			 ENDP  ; |?InitApplication@OVGFont@@UAA_NXZ|, OVGFont::InitApplication


  00000			 AREA	 |.pdata|, PDATA
|$T36621| DCD	|$LN5@QuitApplic|
	DCD	0x40000200
; Function compile flags: /Ogspy

  00000			 AREA	 |.text|, CODE, ARM

  00000		 |?QuitApplication@OVGFont@@UAA_NXZ| PROC ; OVGFont::QuitApplication

; 210  : {

  00000		 |$LN5@QuitApplic|
  00000		 |$M36618|

; 211  : 	return true;

  00000	e3a00001	 mov         r0, #1

; 212  : }

  00004	e12fff1e	 bx          lr
  00008		 |$M36619|

			 ENDP  ; |?QuitApplication@OVGFont@@UAA_NXZ|, OVGFont::QuitApplication

	EXPORT	|??_GCPVRTPVGObject@@QAAPAXI@Z|		; CPVRTPVGObject::`scalar deleting destructor'
	IMPORT	|??3@YAXPAX@Z|				; operator delete
	IMPORT	|??1CPVRTPVGObject@@QAA@XZ|		; CPVRTPVGObject::~CPVRTPVGObject

  00000			 AREA	 |.pdata|, PDATA
|$T36632| DCD	|$LN6@scalar|
	DCD	0x40000a01
; Function compile flags: /Ogspy

  00000			 AREA	 |.text|, CODE, ARM

  00000		 |??_GCPVRTPVGObject@@QAAPAXI@Z| PROC	; CPVRTPVGObject::`scalar deleting destructor'
  00000		 |$LN6@scalar|
  00000	e92d4030	 stmdb       sp!, {r4, r5, lr}
  00004		 |$M36629|
  00004	e1a04001	 mov         r4, r1
  00008	e1a05000	 mov         r5, r0
  0000c	eb000000	 bl          |??1CPVRTPVGObject@@QAA@XZ|
  00010	e3140001	 tst         r4, #1
  00014	11a00005	 movne       r0, r5
  00018	1b000000	 blne        |??3@YAXPAX@Z|
  0001c	e1a00005	 mov         r0, r5
  00020	e8bd4030	 ldmia       sp!, {r4, r5, lr}
  00024	e12fff1e	 bx          lr
  00028		 |$M36630|

			 ENDP  ; |??_GCPVRTPVGObject@@QAAPAXI@Z|, CPVRTPVGObject::`scalar deleting destructor'

	IMPORT	|__imp_vgDestroyFont|
	IMPORT	|__imp_vgDestroyPaint|

  00000			 AREA	 |.pdata|, PDATA
|$T36642| DCD	|$LN5@ReleaseVie|
	DCD	0x40001a01
; Function compile flags: /Ogspy

  00000			 AREA	 |.text|, CODE, ARM

  00000		 |?ReleaseView@OVGFont@@UAA_NXZ| PROC	; OVGFont::ReleaseView

; 354  : {

  00000		 |$LN5@ReleaseVie|
  00000	e92d4030	 stmdb       sp!, {r4, r5, lr}
  00004		 |$M36639|
  00004	e1a04000	 mov         r4, r0

; 355  : 	// Cleanup: destroy OpenVG path and paint
; 356  : 	vgDestroyFont(m_vgPathFont);

  00008	e59f3054	 ldr         r3, [pc, #0x54]
  0000c	e594000c	 ldr         r0, [r4, #0xC]
  00010	e5933000	 ldr         r3, [r3]
  00014	e1a0e00f	 mov         lr, pc
  00018	e12fff13	 bx          r3

; 357  : 	m_vgPathFont = 0;
; 358  : 
; 359  : 	vgDestroyFont(m_vgImageFont);

  0001c	e59f3040	 ldr         r3, [pc, #0x40]
  00020	e5940010	 ldr         r0, [r4, #0x10]
  00024	e3a05000	 mov         r5, #0
  00028	e5933000	 ldr         r3, [r3]
  0002c	e584500c	 str         r5, [r4, #0xC]
  00030	e1a0e00f	 mov         lr, pc
  00034	e12fff13	 bx          r3

; 360  : 	m_vgPathFont = 0;
; 361  : 
; 362  : 	vgDestroyPaint(m_vgFontPaint);

  00038	e59f3020	 ldr         r3, [pc, #0x20]
  0003c	e5940014	 ldr         r0, [r4, #0x14]
  00040	e584500c	 str         r5, [r4, #0xC]
  00044	e5933000	 ldr         r3, [r3]
  00048	e1a0e00f	 mov         lr, pc
  0004c	e12fff13	 bx          r3

; 363  : 	m_vgFontPaint = 0;

  00050	e5845014	 str         r5, [r4, #0x14]

; 364  : 	return true;

  00054	e3a00001	 mov         r0, #1

; 365  : }

  00058	e8bd4030	 ldmia       sp!, {r4, r5, lr}
  0005c	e12fff1e	 bx          lr
  00060		 |$LN6@ReleaseVie|
  00060		 |$LN7@ReleaseVie|
  00060	00000000	 DCD         |__imp_vgDestroyPaint|
  00064		 |$LN8@ReleaseVie|
  00064	00000000	 DCD         |__imp_vgDestroyFont|
  00068		 |$M36640|

			 ENDP  ; |?ReleaseView@OVGFont@@UAA_NXZ|, OVGFont::ReleaseView

	EXPORT	|?DrawLine@OVGFont@@QAAXAAIHPAIMM@Z|	; OVGFont::DrawLine
	IMPORT	|__imp_vgDrawGlyphs|
	IMPORT	|__imp_vgGetfv|
	IMPORT	|__imp_vgSetfv|
	IMPORT	|__imp_vgLoadIdentity|
	IMPORT	|__imp_vgTranslate|
	IMPORT	|__imp_vgScale|
	IMPORT	|__imp___utos|
	IMPORT	|__imp___divs|
	IMPORT	|__imp___lts|

  00000			 AREA	 |.bss|, NOINIT
|?f@?1??DrawLine@OVGFont@@QAAXAAIHPAIMM@Z@4MA| % 0x4	; `OVGFont::DrawLine'::`2'::f

  00000			 AREA	 |.bss|, NOINIT
|?fOrigin@?1??DrawLine@OVGFont@@QAAXAAIHPAIMM@Z@4PAMA| % 0x8 ; `OVGFont::DrawLine'::`2'::fOrigin

  00000			 AREA	 |.pdata|, PDATA
|$T36667| DCD	|$LN9@DrawLine|
	DCD	0x40006302
; Function compile flags: /Ogspy

  00000			 AREA	 |.text|, CODE, ARM

  00000		 |?DrawLine@OVGFont@@QAAXAAIHPAIMM@Z| PROC ; OVGFont::DrawLine

; 437  : {

  00000		 |$LN9@DrawLine|
  00000	e92d4ff0	 stmdb       sp!, {r4 - r11, lr}
  00004	e24dd018	 sub         sp, sp, #0x18
  00008		 |$M36664|
  00008	e1a0a003	 mov         r10, r3
  0000c	e1a0b002	 mov         r11, r2
  00010	e58d100c	 str         r1, [sp, #0xC]
  00014	e1a05000	 mov         r5, r0

; 438  : 	static float fOrigin[] = {0.0f, 0.0f};
; 439  : 	static float f = 0.0f;
; 440  : 
; 441  : 	/*
; 442  : 		Everytime vgDrawGlyph(s) is called the glyph(s) are drawn at the position
; 443  : 		defined by VG_GLYPH_ORIGIN. This value is updated after each call by the
; 444  : 		escapement vector defined by the glyph.
; 445  : 
; 446  : 		As we don't want our text to follow any of the text previously drawn we're
; 447  : 		setting the glyph orign to 0,0.
; 448  : 	*/
; 449  : 	vgSetfv(VG_GLYPH_ORIGIN, 2, fOrigin);

  00018	e59fe168	 ldr         lr, [pc, #0x168]
  0001c	e59f2160	 ldr         r2, [pc, #0x160]
  00020	e3a03c11	 mov         r3, #0x11, 24
  00024	e59e4000	 ldr         r4, [lr]
  00028	e3a01002	 mov         r1, #2
  0002c	e3830022	 orr         r0, r3, #0x22
  00030	e1a0e00f	 mov         lr, pc
  00034	e12fff14	 bx          r4

; 450  : 
; 451  : 	/*
; 452  : 		Using the matrix mode MATRIX_GLYPH_USER_TO_SURFACE translate and scale
; 453  : 		the font.
; 454  : 	*/
; 455  : 	vgLoadIdentity();

  00038	e59f4140	 ldr         r4, [pc, #0x140]
  0003c	e5944000	 ldr         r4, [r4]
  00040	e1a0e00f	 mov         lr, pc
  00044	e12fff14	 bx          r4

; 456  : 	vgTranslate(0.0f, fHeight);

  00048	e59fe12c	 ldr         lr, [pc, #0x12C]
  0004c	e59d103c	 ldr         r1, [sp, #0x3C]
  00050	e3a00000	 mov         r0, #0
  00054	e59e4000	 ldr         r4, [lr]
  00058	e1a0e00f	 mov         lr, pc
  0005c	e12fff14	 bx          r4

; 457  : 	vgScale(fScale, fScale);

  00060	e59f3110	 ldr         r3, [pc, #0x110]
  00064	e59d1040	 ldr         r1, [sp, #0x40]
  00068	e5933000	 ldr         r3, [r3]
  0006c	e1a00001	 mov         r0, r1
  00070	e1a0e00f	 mov         lr, pc
  00074	e12fff13	 bx          r3

; 458  : 
; 459  : 	/*
; 460  : 		Our string is only a few glyphs long so we're going to repeatedly
; 461  : 		draw it until the x value of the GLYPH_ORIGIN is greater than the
; 462  : 		scaled width.
; 463  : 	*/
; 464  : 
; 465  : 	float fGlyphOrigin[2];
; 466  : 	fGlyphOrigin[0] = 0.0f;
; 467  : 	fGlyphOrigin[1] = 0.0f;
; 468  : 
; 469  : 	float fScaledWidth = m_ui32ScreenWidth / fScale;

  00078	e59f20f4	 ldr         r2, [pc, #0xF4]
  0007c	e2853a01	 add         r3, r5, #1, 20
  00080	e5930478	 ldr         r0, [r3, #0x478]
  00084	e5923000	 ldr         r3, [r2]
  00088	e3a02000	 mov         r2, #0
  0008c	e58d2010	 str         r2, [sp, #0x10]
  00090	e58d2014	 str         r2, [sp, #0x14]
  00094	e1a0e00f	 mov         lr, pc
  00098	e12fff13	 bx          r3
  0009c	e59f30cc	 ldr         r3, [pc, #0xCC]
  000a0	e59d1040	 ldr         r1, [sp, #0x40]
  000a4	e5933000	 ldr         r3, [r3]
  000a8	e1a0e00f	 mov         lr, pc
  000ac	e12fff13	 bx          r3

; 470  : 
; 471  : 	while(fGlyphOrigin[0] < fScaledWidth)

  000b0	e59f30a8	 ldr         r3, [pc, #0xA8]
  000b4	e1a09000	 mov         r9, r0
  000b8	e3a00000	 mov         r0, #0
  000bc	e5933000	 ldr         r3, [r3]
  000c0	e1a01009	 mov         r1, r9
  000c4	e1a0e00f	 mov         lr, pc
  000c8	e12fff13	 bx          r3
  000cc	e3500000	 cmp         r0, #0
  000d0	0a00001f	 beq         |$LN1@DrawLine|
  000d4	e59f5090	 ldr         r5, [pc, #0x90]
  000d8	e59f6088	 ldr         r6, [pc, #0x88]
  000dc	e59f7080	 ldr         r7, [pc, #0x80]
  000e0	e59f8078	 ldr         r8, [pc, #0x78]
  000e4		 |$LL2@DrawLine|

; 472  : 	{
; 473  : 		/*
; 474  : 			Draw i32Size no of glyphs from pStr. The VG_FILL_PATH parameter
; 475  : 			defines how you would like the glyph (if a path) to be displayed.
; 476  : 			You can also have it stroked by using VG_STROKE_PATH. This parameter
; 477  : 			doesn't affect image based glyphs unless it's value is set to 0
; 478  : 			in which case no glyph (path or image based) will be drawn.
; 479  : 
; 480  : 			The 2 parameters being set by variable f are the x and y adjustments
; 481  : 			for each glyph. These can be set to adjust the position of the glyphs
; 482  : 			drawn.
; 483  : 
; 484  : 			The final parameter (set to VG_TRUE) disables or enables autohinting.
; 485  : 			If equal to true autohinting may be applied to alter the glyphs slightly
; 486  : 			to improve the render quality.
; 487  : 		*/
; 488  : 		vgDrawGlyphs(vgFont, i32Size, &pStr[0], &f,&f , VG_FILL_PATH, VG_TRUE);

  000e4	e59d300c	 ldr         r3, [sp, #0xC]
  000e8	e3a08001	 mov         r8, #1
  000ec	e58d8008	 str         r8, [sp, #8]
  000f0	e5930000	 ldr         r0, [r3]
  000f4	e3a08002	 mov         r8, #2
  000f8	e5964000	 ldr         r4, [r6]
  000fc	e1a03005	 mov         r3, r5
  00100	e58d8004	 str         r8, [sp, #4]
  00104	e1a0200a	 mov         r2, r10
  00108	e1a0100b	 mov         r1, r11
  0010c	e58d5000	 str         r5, [sp]
  00110	e1a0e00f	 mov         lr, pc
  00114	e12fff14	 bx          r4

; 489  : 
; 490  : 		// Get the updated GLYPH_ORIGIN
; 491  : 		vgGetfv(VG_GLYPH_ORIGIN, 2, &fGlyphOrigin[0]);

  00118	e3a00c11	 mov         r0, #0x11, 24
  0011c	e5973000	 ldr         r3, [r7]
  00120	e3800022	 orr         r0, r0, #0x22
  00124	e28d2010	 add         r2, sp, #0x10
  00128	e3a01002	 mov         r1, #2
  0012c	e1a0e00f	 mov         lr, pc
  00130	e12fff13	 bx          r3
  00134	e59f8024	 ldr         r8, [pc, #0x24]
  00138	e59d0010	 ldr         r0, [sp, #0x10]
  0013c	e1a01009	 mov         r1, r9
  00140	e5983000	 ldr         r3, [r8]
  00144	e1a0e00f	 mov         lr, pc
  00148	e12fff13	 bx          r3
  0014c	e3500000	 cmp         r0, #0
  00150	1affffe3	 bne         |$LL2@DrawLine|
  00154		 |$LN1@DrawLine|

; 492  : 	}
; 493  : }

  00154	e28dd018	 add         sp, sp, #0x18
  00158	e8bd4ff0	 ldmia       sp!, {r4 - r11, lr}
  0015c	e12fff1e	 bx          lr
  00160		 |$LN10@DrawLine|
  00160		 |$LN11@DrawLine|
  00160	00000000	 DCD         |__imp___lts|
  00164		 |$LN12@DrawLine|
  00164	00000000	 DCD         |__imp_vgGetfv|
  00168		 |$LN13@DrawLine|
  00168	00000000	 DCD         |__imp_vgDrawGlyphs|
  0016c		 |$LN14@DrawLine|
  0016c	00000000	 DCD         |?f@?1??DrawLine@OVGFont@@QAAXAAIHPAIMM@Z@4MA|
  00170		 |$LN15@DrawLine|
  00170	00000000	 DCD         |__imp___divs|
  00174		 |$LN16@DrawLine|
  00174	00000000	 DCD         |__imp___utos|
  00178		 |$LN17@DrawLine|
  00178	00000000	 DCD         |__imp_vgScale|
  0017c		 |$LN18@DrawLine|
  0017c	00000000	 DCD         |__imp_vgTranslate|
  00180		 |$LN19@DrawLine|
  00180	00000000	 DCD         |__imp_vgLoadIdentity|
  00184		 |$LN20@DrawLine|
  00184	00000000	 DCD         |?fOrigin@?1??DrawLine@OVGFont@@QAAXAAIHPAIMM@Z@4PAMA|
  00188		 |$LN21@DrawLine|
  00188	00000000	 DCD         |__imp_vgSetfv|
  0018c		 |$M36665|

			 ENDP  ; |?DrawLine@OVGFont@@QAAXAAIHPAIMM@Z|, OVGFont::DrawLine

	EXPORT	|?NewDemo@@YAPAVPVRShell@@XZ|		; NewDemo
	IMPORT	|??2@YAPAXI@Z|				; operator new

  00000			 AREA	 |.pdata|, PDATA
|$T36697| DCD	|$LN9@NewDemo|
	DCD	0x40001101
; Function compile flags: /Ogspy

  00000			 AREA	 |.text|, CODE, ARM

  00000		 |?NewDemo@@YAPAVPVRShell@@XZ| PROC	; NewDemo

; 502  : {

  00000		 |$LN9@NewDemo|
  00000	e92d4010	 stmdb       sp!, {r4, lr}
  00004		 |$M36694|

; 503  : 	return new OVGFont;

  00004	e3a00d52	 mov         r0, #0x52, 26
  00008	eb000000	 bl          |??2@YAPAXI@Z|
  0000c	e1b04000	 movs        r4, r0
  00010	0a000006	 beq         |$LN3@NewDemo|
  00014	e1a00004	 mov         r0, r4
  00018	eb000000	 bl          |??0PVRShell@@QAA@XZ|
  0001c	e59f301c	 ldr         r3, [pc, #0x1C]
  00020	e1a00004	 mov         r0, r4
  00024	e4803018	 str         r3, [r0], #0x18
  00028	eb000000	 bl          |??0CPVRTPrintVG@@QAA@XZ|
  0002c	ea000000	 b           |$LN4@NewDemo|
  00030		 |$LN3@NewDemo|
  00030	e3a04000	 mov         r4, #0
  00034		 |$LN4@NewDemo|

; 504  : }

  00034	e1a00004	 mov         r0, r4
  00038	e8bd4010	 ldmia       sp!, {r4, lr}
  0003c	e12fff1e	 bx          lr
  00040		 |$LN10@NewDemo|
  00040		 |$LN11@NewDemo|
  00040	00000000	 DCD         |??_7OVGFont@@6B@|
  00044		 |$M36695|

			 ENDP  ; |?NewDemo@@YAPAVPVRShell@@XZ|, NewDemo


  00000			 AREA	 |.pdata|, PDATA
|$T36713| DCD	|$LN8@scalar@2|
	DCD	0x40000d01
; Function compile flags: /Ogspy

  00000			 AREA	 |.text|, CODE, ARM

  00000		 |??_GOVGFont@@UAAPAXI@Z| PROC		; OVGFont::`scalar deleting destructor'
  00000		 |$LN8@scalar@2|
  00000	e92d4030	 stmdb       sp!, {r4, r5, lr}
  00004		 |$M36710|
  00004	e1a04001	 mov         r4, r1
  00008	e1a05000	 mov         r5, r0
  0000c	e2850018	 add         r0, r5, #0x18
  00010	eb000000	 bl          |??1CPVRTPrintVG@@QAA@XZ|
  00014	e1a00005	 mov         r0, r5
  00018	eb000000	 bl          |??1PVRShell@@UAA@XZ|
  0001c	e3140001	 tst         r4, #1
  00020	11a00005	 movne       r0, r5
  00024	1b000000	 blne        |??3@YAXPAX@Z|
  00028	e1a00005	 mov         r0, r5
  0002c	e8bd4030	 ldmia       sp!, {r4, r5, lr}
  00030	e12fff1e	 bx          lr
  00034		 |$M36711|

			 ENDP  ; |??_GOVGFont@@UAAPAXI@Z|, OVGFont::`scalar deleting destructor'

	EXPORT	|??_C@_0CA@BFCLEIIN@Error?3?5Failed?5to?5open?5mask?4pvr?4?$AA@| [ DATA ] ; `string'
	EXPORT	|??_C@_0ED@HNNNOBDL@Error?3?5Font?4pvg?5doesn?8t?5contain?5@| [ DATA ] ; `string'
	EXPORT	|??_C@_0CA@NEEKCGK@Error?3?5Failed?5to?5load?5Font?4pvg?4?$AA@| [ DATA ] ; `string'
	IMPORT	|?PVRTImageLoadFromPVR@@YA?AW4EPVRTError@@QBDQAIW4VGImageQuality@@W4VGImageFormat@@@Z| ; PVRTImageLoadFromPVR
	IMPORT	|?PVRShellSet@PVRShell@@QAA_NW4prefNameConstPtrEnum@@QBX@Z| ; PVRShell::PVRShellSet
	IMPORT	|?FromFile@CPVRTPVGObject@@SAPAV1@PBD@Z| ; CPVRTPVGObject::FromFile
	IMPORT	|?Initialize@CPVRTPrintVG@@QAA_NIIMM@Z|	; CPVRTPrintVG::Initialize
	IMPORT	|?PVRShellGet@PVRShell@@QBAHW4prefNameIntEnum@@@Z| ; PVRShell::PVRShellGet
	IMPORT	|__imp_vgCreatePaint|
	IMPORT	|__imp_vgSetParameteri|
	IMPORT	|__imp_vgSetColor|
	IMPORT	|__imp_vgPathBounds|
	IMPORT	|__imp_vgSetGlyphToPath|
	IMPORT	|__imp_vgChildImage|
	IMPORT	|__imp_vgSetGlyphToImage|
	IMPORT	|__imp_vgDestroyImage|
	IMPORT	|__imp_vgCreateFont|
	IMPORT	|__imp___adds|

  00000			 AREA	 |.pdata|, PDATA
|$T36749| DCD	|$LN25@InitView|
	DCD	0x4000f002

  00000			 AREA	 |.rdata|, DATA, READONLY
|??_C@_0CA@BFCLEIIN@Error?3?5Failed?5to?5open?5mask?4pvr?4?$AA@| DCB "Err"
	DCB	"or: Failed to open mask.pvr.", 0x0	; `string'

  00000			 AREA	 |.rdata|, DATA, READONLY
|??_C@_0ED@HNNNOBDL@Error?3?5Font?4pvg?5doesn?8t?5contain?5@| DCB "Error:"
	DCB	" Font.pvg doesn't contain the expected amount of charact"
	DCB	"ers.", 0x0				; `string'

  00000			 AREA	 |.rdata|, DATA, READONLY
|??_C@_0CA@NEEKCGK@Error?3?5Failed?5to?5load?5Font?4pvg?4?$AA@| DCB "Erro"
	DCB	"r: Failed to load Font.pvg.", 0x0	; `string'
; Function compile flags: /Ogspy

  00000			 AREA	 |.text|, CODE, ARM

  00000		 |?InitView@OVGFont@@UAA_NXZ| PROC	; OVGFont::InitView

; 221  : {

  00000		 |$LN25@InitView|
  00000	e92d4ff0	 stmdb       sp!, {r4 - r11, lr}
  00004	e24dd038	 sub         sp, sp, #0x38
  00008		 |$M36746|
  00008	e1a08000	 mov         r8, r0

; 222  : 	CPVRTPVGObject* pPVGObj;
; 223  : 	VGImage vgImage;
; 224  : 	VGImage vgChild;
; 225  : 	float fW,fH;
; 226  : 	PVRTVECTOR2 fGlyphOrigin, fEscapement;
; 227  : 
; 228  : 	// Store the screen width and height
; 229  : 	m_ui32ScreenWidth  = PVRShellGet(prefWidth);

  0000c	e3a01002	 mov         r1, #2
  00010	eb000000	 bl          |?PVRShellGet@PVRShell@@QBAHW4prefNameIntEnum@@@Z|
  00014	e1a03000	 mov         r3, r0
  00018	e2887a01	 add         r7, r8, #1, 20

; 230  : 	m_ui32ScreenHeight = PVRShellGet(prefHeight);

  0001c	e1a00008	 mov         r0, r8
  00020	e3a01003	 mov         r1, #3
  00024	e5873478	 str         r3, [r7, #0x478]
  00028	eb000000	 bl          |?PVRShellGet@PVRShell@@QBAHW4prefNameIntEnum@@@Z|

; 231  : 
; 232  : 	// Set the clear colour
; 233  : 	VGfloat afClearColour[] = { 0.6f, 0.8f, 1.0f, 1.0f };
; 234  : 	vgSetfv(VG_CLEAR_COLOR, 4, afClearColour);

  0002c	e59f3388	 ldr         r3, [pc, #0x388]
  00030	e59f4380	 ldr         r4, [pc, #0x380]
  00034	e59f5378	 ldr         r5, [pc, #0x378]
  00038	e5936000	 ldr         r6, [r3]
  0003c	e1a03000	 mov         r3, r0
  00040	e3a0ec11	 mov         lr, #0x11, 24
  00044	e3a095fe	 mov         r9, #0xFE, 10
  00048	e587347c	 str         r3, [r7, #0x47C]
  0004c	e28d2028	 add         r2, sp, #0x28
  00050	e3a01004	 mov         r1, #4
  00054	e38e0021	 orr         r0, lr, #0x21
  00058	e58d4028	 str         r4, [sp, #0x28]
  0005c	e58d502c	 str         r5, [sp, #0x2C]
  00060	e58d9030	 str         r9, [sp, #0x30]
  00064	e58d9034	 str         r9, [sp, #0x34]
  00068	e1a0e00f	 mov         lr, pc
  0006c	e12fff16	 bx          r6

; 235  : 
; 236  : 	// Initialise PrintVG for the logo and the title
; 237  : 	m_PrintVG.Initialize(m_ui32ScreenWidth, m_ui32ScreenHeight);

  00070	e597247c	 ldr         r2, [r7, #0x47C]
  00074	e5971478	 ldr         r1, [r7, #0x478]
  00078	e3a035fe	 mov         r3, #0xFE, 10
  0007c	e2880018	 add         r0, r8, #0x18
  00080	e58d9000	 str         r9, [sp]
  00084	eb000000	 bl          |?Initialize@CPVRTPrintVG@@QAA_NIIMM@Z|

; 238  : 
; 239  : 	// Load the font path data from the pvg file
; 240  : 	pPVGObj = CPVRTPVGObject::FromFile(c_szPVGFile);

  00088	e59f4320	 ldr         r4, [pc, #0x320]
  0008c	e1a00004	 mov         r0, r4
  00090	eb000000	 bl          |?FromFile@CPVRTPVGObject@@SAPAV1@PBD@Z|
  00094	e1b09000	 movs        r9, r0

; 241  : 
; 242  : 	if(pPVGObj == NULL)

  00098	1a000005	 bne         |$LN6@InitView|

; 243  : 	{
; 244  : 		PVRShellSet(prefExitMessage, "Error: Failed to load Font.pvg.");

  0009c	e59f2308	 ldr         r2, [pc, #0x308]
  000a0		 |$LN22@InitView|
  000a0	e3a01005	 mov         r1, #5
  000a4	e1a00008	 mov         r0, r8
  000a8	eb000000	 bl          |?PVRShellSet@PVRShell@@QAA_NW4prefNameConstPtrEnum@@QBX@Z|

; 245  : 		return false;

  000ac	e3a00000	 mov         r0, #0
  000b0	ea0000ae	 b           |$LN7@InitView|
  000b4		 |$LN6@InitView|

; 246  : 	}
; 247  : 
; 248  : 	if(pPVGObj->m_i32NumPaths != g_i32ImageCharNo)

  000b4	e5993024	 ldr         r3, [r9, #0x24]
  000b8	e353005e	 cmp         r3, #0x5E
  000bc	0a000009	 beq         |$LN5@InitView|

; 249  : 	{
; 250  : 		PVRShellSet(prefExitMessage, "Error: Font.pvg doesn't contain the expected amount of characters.");

  000c0	e59f22e0	 ldr         r2, [pc, #0x2E0]
  000c4	e3a01005	 mov         r1, #5
  000c8	e1a00008	 mov         r0, r8
  000cc	eb000000	 bl          |?PVRShellSet@PVRShell@@QAA_NW4prefNameConstPtrEnum@@QBX@Z|

; 251  : 
; 252  : 		delete pPVGObj;

  000d0	e1a00009	 mov         r0, r9
  000d4	eb000000	 bl          |??1CPVRTPVGObject@@QAA@XZ|
  000d8	e1a00009	 mov         r0, r9
  000dc	eb000000	 bl          |??3@YAXPAX@Z|
  000e0	e3a00000	 mov         r0, #0
  000e4	ea0000a1	 b           |$LN7@InitView|
  000e8		 |$LN5@InitView|

; 253  : 		return false;
; 254  : 	}
; 255  : 
; 256  : 	// Load the image based font data
; 257  : 	if(PVRTImageLoadFromPVR(c_szPVRFile, &vgImage) != PVR_SUCCESS)

  000e8	e3e03000	 mvn         r3, #0
  000ec	e3a02001	 mov         r2, #1
  000f0	e28d100c	 add         r1, sp, #0xC
  000f4	e284000c	 add         r0, r4, #0xC
  000f8	eb000000	 bl          |?PVRTImageLoadFromPVR@@YA?AW4EPVRTError@@QBDQAIW4VGImageQuality@@W4VGImageFormat@@@Z|
  000fc	e3500000	 cmp         r0, #0

; 258  : 	{
; 259  : 		PVRShellSet(prefExitMessage, "Error: Failed to open mask.pvr.");

  00100	159f229c	 ldrne       r2, [pc, #0x29C]
  00104	1affffe5	 bne         |$LN22@InitView|

; 260  : 		return false;
; 261  : 	}
; 262  : 
; 263  : 	/*
; 264  : 		Create two fonts. m_vgPathFont will purely contain glyphs represented by paths
; 265  : 		and m_vgImageFont by images. It is also reasonable to have a font that contains
; 266  : 		a mixture but we are keeping them seperate so they can be compared.
; 267  : 	*/
; 268  : 
; 269  : 	m_vgImageFont = vgCreateFont(g_i32ImageCharNo);

  00108	e59f3290	 ldr         r3, [pc, #0x290]
  0010c	e3a0005e	 mov         r0, #0x5E
  00110	e5933000	 ldr         r3, [r3]
  00114	e1a0e00f	 mov         lr, pc
  00118	e12fff13	 bx          r3

; 270  : 	m_vgPathFont  = vgCreateFont(pPVGObj->m_i32NumPaths);

  0011c	e59f327c	 ldr         r3, [pc, #0x27C]
  00120	e5880010	 str         r0, [r8, #0x10]
  00124	e5990024	 ldr         r0, [r9, #0x24]
  00128	e5933000	 ldr         r3, [r3]
  0012c	e1a0e00f	 mov         lr, pc
  00130	e12fff13	 bx          r3

; 271  : 
; 272  : 	// Add the glyphs to the fonts.
; 273  : 	for(int i = 0; i < g_i32ImageCharNo; ++i)

  00134	e59f525c	 ldr         r5, [pc, #0x25C]
  00138	e3a06000	 mov         r6, #0
  0013c	e59f3250	 ldr         r3, [pc, #0x250]
  00140	e1a07005	 mov         r7, r5
  00144	e588000c	 str         r0, [r8, #0xC]
  00148	e58d6008	 str         r6, [sp, #8]
  0014c	e3a0b000	 mov         r11, #0
  00150	e284a020	 add         r10, r4, #0x20
  00154		 |$LL3@InitView|

; 274  : 	{
; 275  : 		// Load glyph from path data
; 276  : 
; 277  : 		/*
; 278  : 			Each path in the PVG file represents a glyph. First we need to acquire the origin
; 279  : 			of the glyph so we use vgPathBounds to achieve this as the origin described in
; 280  : 			g_CharDesc is for the image.
; 281  : 		*/
; 282  : 		vgPathBounds(pPVGObj->m_pPaths[i].m_path, &fGlyphOrigin.x, &fGlyphOrigin.y, &fW, &fH);

  00154	e5992004	 ldr         r2, [r9, #4]
  00158	e5934000	 ldr         r4, [r3]
  0015c	e28d7014	 add         r7, sp, #0x14
  00160	e08b2002	 add         r2, r11, r2
  00164	e5920020	 ldr         r0, [r2, #0x20]
  00168	e28d201c	 add         r2, sp, #0x1C
  0016c	e28d3010	 add         r3, sp, #0x10
  00170	e28d1018	 add         r1, sp, #0x18
  00174	e58d7000	 str         r7, [sp]
  00178	e1a0e00f	 mov         lr, pc
  0017c	e12fff14	 bx          r4

; 283  : 
; 284  : 		// We offset the origin so glyphs like a 'y' are lower
; 285  : 		fGlyphOrigin.x += g_CharDesc[i].fOriginOffset.x;

  00180	e59d0018	 ldr         r0, [sp, #0x18]
  00184	e59a1010	 ldr         r1, [r10, #0x10]
  00188	e5953000	 ldr         r3, [r5]
  0018c	e1a0e00f	 mov         lr, pc
  00190	e12fff13	 bx          r3

; 286  : 		fGlyphOrigin.y += g_CharDesc[i].fOriginOffset.y;

  00194	e59f71fc	 ldr         r7, [pc, #0x1FC]
  00198	e1a02000	 mov         r2, r0
  0019c	e59d001c	 ldr         r0, [sp, #0x1C]
  001a0	e5973000	 ldr         r3, [r7]
  001a4	e59a1014	 ldr         r1, [r10, #0x14]
  001a8	e58d2018	 str         r2, [sp, #0x18]
  001ac	e1a0e00f	 mov         lr, pc
  001b0	e12fff13	 bx          r3
  001b4	e58d001c	 str         r0, [sp, #0x1C]

; 287  : 
; 288  : 		/*
; 289  : 			Add the glyph and assign it a unique ID. The characters we're loading have ASCII codes ranging from
; 290  : 			33 to 128 hence we're giving the glyphs IDs starting at 33. The glyph origin defines the coordinates
; 291  : 			in path space at which to start drawing the glyph and the escapement character is the offset to start
; 292  : 			drawing the next following character.
; 293  : 		*/
; 294  : 		vgSetGlyphToPath(m_vgPathFont, 33 + i, pPVGObj->m_pPaths[i].m_path, VG_TRUE, (VGfloat*) &fGlyphOrigin.x, (VGfloat*) &g_CharDesc[i].fEscapement.x);

  001b8	e5993004	 ldr         r3, [r9, #4]
  001bc	e59f21c4	 ldr         r2, [pc, #0x1C4]
  001c0	e598000c	 ldr         r0, [r8, #0xC]
  001c4	e08b3003	 add         r3, r11, r3
  001c8	e5924000	 ldr         r4, [r2]
  001cc	e5932020	 ldr         r2, [r3, #0x20]
  001d0	e28a7018	 add         r7, r10, #0x18
  001d4	e28d5018	 add         r5, sp, #0x18
  001d8	e3a03001	 mov         r3, #1
  001dc	e2861021	 add         r1, r6, #0x21
  001e0	e58d7004	 str         r7, [sp, #4]
  001e4	e58d5000	 str         r5, [sp]
  001e8	e1a0e00f	 mov         lr, pc
  001ec	e12fff14	 bx          r4

; 295  : 
; 296  : 		// Load glyph from image data
; 297  : 
; 298  : 		/*
; 299  : 			Using a child image we 'cut' the glyph out of the main image (see the child image training course for
; 300  : 			an explanation).
; 301  : 		*/
; 302  : 		vgChild = vgChildImage(vgImage,  g_CharDesc[i].i32Origin[0], g_CharDesc[i].i32Origin[1], g_CharDesc[i].i32Width, g_CharDesc[i].i32Height);
; 303  : 
; 304  : 		/*
; 305  : 			We then add the child image to the font. We use the origin offset value directly for the value as the glyph's
; 306  : 			origin is 0,0 within the child image.
; 307  : 		*/
; 308  : 		vgSetGlyphToImage(m_vgImageFont, 33 + i, vgChild, (VGfloat*) &g_CharDesc[i].fOriginOffset.x, (VGfloat*) &g_CharDesc[i].fEscapement.x);

  001f0	e59fe1a4	 ldr         lr, [pc, #0x1A4]
  001f4	e59a500c	 ldr         r5, [r10, #0xC]
  001f8	e1a0600a	 mov         r6, r10
  001fc	e59e4000	 ldr         r4, [lr]
  00200	e4961010	 ldr         r1, [r6], #0x10
  00204	e59a3008	 ldr         r3, [r10, #8]
  00208	e59a2004	 ldr         r2, [r10, #4]
  0020c	e59d000c	 ldr         r0, [sp, #0xC]
  00210	e58d5000	 str         r5, [sp]
  00214	e1a0e00f	 mov         lr, pc
  00218	e12fff14	 bx          r4
  0021c	e59f3168	 ldr         r3, [pc, #0x168]
  00220	e1a05000	 mov         r5, r0
  00224	e5980010	 ldr         r0, [r8, #0x10]
  00228	e5934000	 ldr         r4, [r3]
  0022c	e1a03006	 mov         r3, r6
  00230	e59d6008	 ldr         r6, [sp, #8]
  00234	e1a02005	 mov         r2, r5
  00238	e58d7000	 str         r7, [sp]
  0023c	e2861021	 add         r1, r6, #0x21
  00240	e1a0e00f	 mov         lr, pc
  00244	e12fff14	 bx          r4

; 309  : 
; 310  : 		// Destroy the child image as we no longer need it.
; 311  : 		vgDestroyImage(vgChild);

  00248	e59f2140	 ldr         r2, [pc, #0x140]
  0024c	e1a00005	 mov         r0, r5
  00250	e5923000	 ldr         r3, [r2]
  00254	e1a0e00f	 mov         lr, pc
  00258	e12fff13	 bx          r3
  0025c	e59f5134	 ldr         r5, [pc, #0x134]
  00260	e3a02c1b	 mov         r2, #0x1B, 24
  00264	e38230e8	 orr         r3, r2, #0xE8
  00268	e28bb04c	 add         r11, r11, #0x4C
  0026c	e2866001	 add         r6, r6, #1
  00270	e15b0003	 cmp         r11, r3
  00274	e59f3118	 ldr         r3, [pc, #0x118]
  00278	e58d6008	 str         r6, [sp, #8]
  0027c	e28aa020	 add         r10, r10, #0x20
  00280	e1a07005	 mov         r7, r5
  00284	baffffb2	 blt         |$LL3@InitView|

; 312  : 	}
; 313  : 
; 314  : 	// Destroy the image as it is no longer required
; 315  : 	vgDestroyImage(vgImage);

  00288	e59f3100	 ldr         r3, [pc, #0x100]
  0028c	e59d000c	 ldr         r0, [sp, #0xC]
  00290	e5933000	 ldr         r3, [r3]
  00294	e1a0e00f	 mov         lr, pc
  00298	e12fff13	 bx          r3

; 316  : 
; 317  : 	// Destroy the PVG data as it too is no longer required
; 318  : 	delete pPVGObj;

  0029c	e1a00009	 mov         r0, r9
  002a0	eb000000	 bl          |??1CPVRTPVGObject@@QAA@XZ|
  002a4	e1a00009	 mov         r0, r9
  002a8	eb000000	 bl          |??3@YAXPAX@Z|

; 319  : 	pPVGObj = 0;
; 320  : 
; 321  : 	// Space
; 322  : 
; 323  : 	/*
; 324  : 		Glyphs such as spaces that do not have a visual representation can be added to
; 325  : 		the fonts by passing VG_INVALID_HANDLE instead of a path or image handle.
; 326  : 	*/
; 327  : 
; 328  : 	// Set the glyph origin and escapement for the space...
; 329  : 	fGlyphOrigin.x = 0.0f;
; 330  : 	fGlyphOrigin.y = 0.0f;
; 331  : 	// ... We're giving the space a width of 10.0f
; 332  : 	fEscapement.x = 10.0f;
; 333  : 	fEscapement.y = 0.0f;
; 334  : 
; 335  : 	vgSetGlyphToImage(m_vgImageFont, 32, VG_INVALID_HANDLE, (VGfloat*) &fGlyphOrigin.x, (VGfloat*) &fEscapement.x);

  002ac	e59f30d8	 ldr         r3, [pc, #0xD8]
  002b0	e3a02441	 mov         r2, #0x41, 8
  002b4	e5980010	 ldr         r0, [r8, #0x10]
  002b8	e5936000	 ldr         r6, [r3]
  002bc	e3824602	 orr         r4, r2, #2, 12
  002c0	e28d5020	 add         r5, sp, #0x20
  002c4	e3a07000	 mov         r7, #0
  002c8	e28d3018	 add         r3, sp, #0x18
  002cc	e3a02000	 mov         r2, #0
  002d0	e3a01020	 mov         r1, #0x20
  002d4	e58d7018	 str         r7, [sp, #0x18]
  002d8	e58d701c	 str         r7, [sp, #0x1C]
  002dc	e58d4020	 str         r4, [sp, #0x20]
  002e0	e58d7024	 str         r7, [sp, #0x24]
  002e4	e58d5000	 str         r5, [sp]
  002e8	e1a0e00f	 mov         lr, pc
  002ec	e12fff16	 bx          r6

; 336  : 	vgSetGlyphToPath(m_vgPathFont, 32, VG_INVALID_HANDLE, VG_TRUE, (VGfloat*) &fGlyphOrigin.x, (VGfloat*) &fEscapement.x);

  002f0	e59f3090	 ldr         r3, [pc, #0x90]
  002f4	e598000c	 ldr         r0, [r8, #0xC]
  002f8	e28d5020	 add         r5, sp, #0x20
  002fc	e5936000	 ldr         r6, [r3]
  00300	e28d4018	 add         r4, sp, #0x18
  00304	e3a03001	 mov         r3, #1
  00308	e3a02000	 mov         r2, #0
  0030c	e3a01020	 mov         r1, #0x20
  00310	e58d5004	 str         r5, [sp, #4]
  00314	e58d4000	 str         r4, [sp]
  00318	e1a0e00f	 mov         lr, pc
  0031c	e12fff16	 bx          r6

; 337  : 
; 338  : 	// Create font paint
; 339  : 	m_vgFontPaint = vgCreatePaint();

  00320	e59f305c	 ldr         r3, [pc, #0x5C]
  00324	e5933000	 ldr         r3, [r3]
  00328	e1a0e00f	 mov         lr, pc
  0032c	e12fff13	 bx          r3

; 340  : 
; 341  : 	vgSetParameteri(m_vgFontPaint, VG_PAINT_TYPE, VG_PAINT_TYPE_COLOR);

  00330	e59f3048	 ldr         r3, [pc, #0x48]
  00334	e1a04000	 mov         r4, r0
  00338	e3a02c1b	 mov         r2, #0x1B, 24
  0033c	e5933000	 ldr         r3, [r3]
  00340	e3a01c1a	 mov         r1, #0x1A, 24
  00344	e5884014	 str         r4, [r8, #0x14]
  00348	e1a0e00f	 mov         lr, pc
  0034c	e12fff13	 bx          r3

; 342  : 	vgSetColor(m_vgFontPaint, PVRTRGBA(255,0,0,255));

  00350	e59f3024	 ldr         r3, [pc, #0x24]
  00354	e5980014	 ldr         r0, [r8, #0x14]
  00358	e3a024ff	 mov         r2, #0xFF, 8
  0035c	e5933000	 ldr         r3, [r3]
  00360	e38210ff	 orr         r1, r2, #0xFF
  00364	e1a0e00f	 mov         lr, pc
  00368	e12fff13	 bx          r3

; 343  : 
; 344  : 	return true;

  0036c	e3a00001	 mov         r0, #1
  00370		 |$LN7@InitView|

; 345  : }

  00370	e28dd038	 add         sp, sp, #0x38
  00374	e8bd4ff0	 ldmia       sp!, {r4 - r11, lr}
  00378	e12fff1e	 bx          lr
  0037c		 |$LN26@InitView|
  0037c		 |$LN27@InitView|
  0037c	00000000	 DCD         |__imp_vgSetColor|
  00380		 |$LN28@InitView|
  00380	00000000	 DCD         |__imp_vgSetParameteri|
  00384		 |$LN29@InitView|
  00384	00000000	 DCD         |__imp_vgCreatePaint|
  00388		 |$LN30@InitView|
  00388	00000000	 DCD         |__imp_vgSetGlyphToPath|
  0038c		 |$LN31@InitView|
  0038c	00000000	 DCD         |__imp_vgSetGlyphToImage|
  00390		 |$LN32@InitView|
  00390	00000000	 DCD         |__imp_vgDestroyImage|
  00394		 |$LN33@InitView|
  00394	00000000	 DCD         |__imp_vgPathBounds|
  00398		 |$LN34@InitView|
  00398	00000000	 DCD         |__imp___adds|
  0039c		 |$LN35@InitView|
  0039c	00000000	 DCD         |__imp_vgChildImage|
  003a0		 |$LN36@InitView|
  003a0	00000000	 DCD         |__imp_vgCreateFont|
  003a4		 |$LN37@InitView|
  003a4	00000000	 DCD         |??_C@_0CA@BFCLEIIN@Error?3?5Failed?5to?5open?5mask?4pvr?4?$AA@|
  003a8		 |$LN38@InitView|
  003a8	00000000	 DCD         |??_C@_0ED@HNNNOBDL@Error?3?5Font?4pvg?5doesn?8t?5contain?5@|
  003ac		 |$LN39@InitView|
  003ac	00000000	 DCD         |??_C@_0CA@NEEKCGK@Error?3?5Failed?5to?5load?5Font?4pvg?4?$AA@|
  003b0		 |$LN40@InitView|
  003b0	00000000	 DCD         |c_szPVGFile|
  003b4		 |$LN41@InitView|
  003b4	3f4ccccd	 DCD         0x3f4ccccd
  003b8		 |$LN42@InitView|
  003b8	3f19999a	 DCD         0x3f19999a
  003bc		 |$LN43@InitView|
  003bc	00000000	 DCD         |__imp_vgSetfv|
  003c0		 |$M36747|

			 ENDP  ; |?InitView@OVGFont@@UAA_NXZ|, OVGFont::InitView

	EXPORT	|??_C@_00CNPNBAHC@?$AA@| [ DATA ]	; `string'
	EXPORT	|??_C@_04IEDBBIIG@Font?$AA@| [ DATA ]	; `string'
	IMPORT	|?DisplayDefaultTitle@CPVRTPrintVG@@QAA_NPAD0I@Z| ; CPVRTPrintVG::DisplayDefaultTitle
	IMPORT	|__imp_vgClear|
	IMPORT	|__imp_vgSetPaint|
	IMPORT	|__imp_vgSeti|
	IMPORT	|__imp___muls|

  00000			 AREA	 |.pdata|, PDATA
|$T36794| DCD	|$LN5@RenderScen|
	DCD	0x4000da02

  00000			 AREA	 |.data|, DATA
|?str@?1??RenderScene@OVGFont@@UAA_NXZ@4PAIA| DCD 0x54	; `OVGFont::RenderScene'::`2'::str
	DCD	0x65
	DCD	0x78
	DCD	0x74
	DCD	0x79
	DCD	0x21
	DCD	0x20

  00000			 AREA	 |.rdata|, DATA, READONLY
|??_C@_00CNPNBAHC@?$AA@| DCB 0x0			; `string'

  00000			 AREA	 |.rdata|, DATA, READONLY
|??_C@_04IEDBBIIG@Font?$AA@| DCB "Font", 0x0		; `string'
; Function compile flags: /Ogspy

  00000			 AREA	 |.text|, CODE, ARM

  00000		 |?RenderScene@OVGFont@@UAA_NXZ| PROC	; OVGFont::RenderScene

; 374  : {

  00000		 |$LN5@RenderScen|
  00000	e92d47f0	 stmdb       sp!, {r4 - r10, lr}
  00004	e24dd008	 sub         sp, sp, #8
  00008		 |$M36791|
  00008	e1a06000	 mov         r6, r0

; 375  : 	// Clear the screen
; 376  : 	vgClear(0, 0, m_ui32ScreenWidth, m_ui32ScreenHeight);

  0000c	e59f3350	 ldr         r3, [pc, #0x350]
  00010	e2862a01	 add         r2, r6, #1, 20
  00014	e2865a01	 add         r5, r6, #1, 20
  00018	e5934000	 ldr         r4, [r3]
  0001c	e592347c	 ldr         r3, [r2, #0x47C]
  00020	e5952478	 ldr         r2, [r5, #0x478]
  00024	e3a01000	 mov         r1, #0
  00028	e3a00000	 mov         r0, #0
  0002c	e1a0e00f	 mov         lr, pc
  00030	e12fff14	 bx          r4

; 377  : 
; 378  : 	// Set the current fill paint...
; 379  : 	vgSetPaint(m_vgFontPaint, VG_FILL_PATH);

  00034	e59f3324	 ldr         r3, [pc, #0x324]
  00038	e5960014	 ldr         r0, [r6, #0x14]
  0003c	e3a01002	 mov         r1, #2
  00040	e5933000	 ldr         r3, [r3]
  00044	e1a0e00f	 mov         lr, pc
  00048	e12fff13	 bx          r3

; 380  : 
; 381  : 	/*
; 382  : 		Set the matrix mode to GLYPH_USER_TO_SURFACE as we want to
; 383  : 		translate and scale the glyphs.
; 384  : 	*/
; 385  : 	vgSeti(VG_MATRIX_MODE, VG_MATRIX_GLYPH_USER_TO_SURFACE);

  0004c	e59f32e4	 ldr         r3, [pc, #0x2E4]
  00050	e3a02b05	 mov         r2, #5, 22
  00054	e3821004	 orr         r1, r2, #4
  00058	e5933000	 ldr         r3, [r3]
  0005c	e3a00c11	 mov         r0, #0x11, 24
  00060	e1a0e00f	 mov         lr, pc
  00064	e12fff13	 bx          r3

; 386  : 
; 387  : 	/*
; 388  : 		Set the string. The vgDrawGlyphs function used and
; 389  : 		explained in DrawLine excepts an array of unsiged
; 390  : 		ints for an array of glyph IDs which is why we are
; 391  : 		not defining a char array.
; 392  : 
; 393  : 		An alternative to vgDrawGlyphs is vgDrawGlyph that
; 394  : 		can be used to display 1 glyph at a time.
; 395  : 	*/
; 396  : 
; 397  : 	static VGuint str[] = {'T','e','x','t','y', '!',' '};
; 398  : 
; 399  : 	/*
; 400  : 		The DrawLine function repeats the string until the
; 401  : 		line has covered the width of the screen.
; 402  : 	*/
; 403  : 
; 404  : 	// Draw the string with the path based font at 4 different scales
; 405  : 	DrawLine(m_vgPathFont, 7, &str[0], m_ui32ScreenHeight * 0.75f, 2.0f);

  00068	e59f32d8	 ldr         r3, [pc, #0x2D8]
  0006c	e595047c	 ldr         r0, [r5, #0x47C]
  00070	e3a0a101	 mov         r10, #1, 2
  00074	e5933000	 ldr         r3, [r3]
  00078	e58da004	 str         r10, [sp, #4]
  0007c	e1a0e00f	 mov         lr, pc
  00080	e12fff13	 bx          r3
  00084	e59f32b8	 ldr         r3, [pc, #0x2B8]
  00088	e3a015fd	 mov         r1, #0xFD, 10
  0008c	e5933000	 ldr         r3, [r3]
  00090	e1a0e00f	 mov         lr, pc
  00094	e12fff13	 bx          r3
  00098	e59f329c	 ldr         r3, [pc, #0x29C]
  0009c	e1a0e000	 mov         lr, r0
  000a0	e1a00006	 mov         r0, r6
  000a4	e3a02007	 mov         r2, #7
  000a8	e286100c	 add         r1, r6, #0xC
  000ac	e58de000	 str         lr, [sp]
  000b0	eb000000	 bl          |?DrawLine@OVGFont@@QAAXAAIHPAIMM@Z|

; 406  : 	DrawLine(m_vgPathFont, 7, &str[0], m_ui32ScreenHeight * 0.65f, 1.0f);

  000b4	e59f328c	 ldr         r3, [pc, #0x28C]
  000b8	e595047c	 ldr         r0, [r5, #0x47C]
  000bc	e3a095fe	 mov         r9, #0xFE, 10
  000c0	e5933000	 ldr         r3, [r3]
  000c4	e58d9004	 str         r9, [sp, #4]
  000c8	e1a0e00f	 mov         lr, pc
  000cc	e12fff13	 bx          r3
  000d0	e59f326c	 ldr         r3, [pc, #0x26C]
  000d4	e59f1280	 ldr         r1, [pc, #0x280]
  000d8	e5933000	 ldr         r3, [r3]
  000dc	e1a0e00f	 mov         lr, pc
  000e0	e12fff13	 bx          r3
  000e4	e1a03000	 mov         r3, r0
  000e8	e58d3000	 str         r3, [sp]
  000ec	e59f3248	 ldr         r3, [pc, #0x248]
  000f0	e1a00006	 mov         r0, r6
  000f4	e3a02007	 mov         r2, #7
  000f8	e286100c	 add         r1, r6, #0xC
  000fc	eb000000	 bl          |?DrawLine@OVGFont@@QAAXAAIHPAIMM@Z|

; 407  : 	DrawLine(m_vgPathFont, 7, &str[0], m_ui32ScreenHeight * 0.60f, 0.5f);

  00100	e59f3240	 ldr         r3, [pc, #0x240]
  00104	e595047c	 ldr         r0, [r5, #0x47C]
  00108	e3a0843f	 mov         r8, #0x3F, 8
  0010c	e5933000	 ldr         r3, [r3]
  00110	e58d8004	 str         r8, [sp, #4]
  00114	e1a0e00f	 mov         lr, pc
  00118	e12fff13	 bx          r3
  0011c	e59f3220	 ldr         r3, [pc, #0x220]
  00120	e59f1230	 ldr         r1, [pc, #0x230]
  00124	e5933000	 ldr         r3, [r3]
  00128	e1a0e00f	 mov         lr, pc
  0012c	e12fff13	 bx          r3
  00130	e59f3204	 ldr         r3, [pc, #0x204]
  00134	e58d0000	 str         r0, [sp]
  00138	e1a00006	 mov         r0, r6
  0013c	e3a02007	 mov         r2, #7
  00140	e286100c	 add         r1, r6, #0xC
  00144	eb000000	 bl          |?DrawLine@OVGFont@@QAAXAAIHPAIMM@Z|

; 408  : 	DrawLine(m_vgPathFont, 7, &str[0], m_ui32ScreenHeight * 0.55f, 0.25f);

  00148	e59f31f8	 ldr         r3, [pc, #0x1F8]
  0014c	e595047c	 ldr         r0, [r5, #0x47C]
  00150	e3a075fa	 mov         r7, #0xFA, 10
  00154	e5933000	 ldr         r3, [r3]
  00158	e58d7004	 str         r7, [sp, #4]
  0015c	e1a0e00f	 mov         lr, pc
  00160	e12fff13	 bx          r3
  00164	e59f31d8	 ldr         r3, [pc, #0x1D8]
  00168	e59f11e4	 ldr         r1, [pc, #0x1E4]
  0016c	e5933000	 ldr         r3, [r3]
  00170	e1a0e00f	 mov         lr, pc
  00174	e12fff13	 bx          r3
  00178	e1a03000	 mov         r3, r0
  0017c	e58d3000	 str         r3, [sp]
  00180	e59f31b4	 ldr         r3, [pc, #0x1B4]
  00184	e1a00006	 mov         r0, r6
  00188	e3a02007	 mov         r2, #7
  0018c	e286100c	 add         r1, r6, #0xC
  00190	eb000000	 bl          |?DrawLine@OVGFont@@QAAXAAIHPAIMM@Z|

; 409  : 
; 410  : 	/*
; 411  : 		Set the blend mode for the image based glyphs
; 412  : 	*/
; 413  : 	vgSeti(VG_BLEND_MODE, VG_BLEND_SRC_OVER);

  00194	e59f319c	 ldr         r3, [pc, #0x19C]
  00198	e3a02a02	 mov         r2, #2, 20
  0019c	e3a04c11	 mov         r4, #0x11, 24
  001a0	e5933000	 ldr         r3, [r3]
  001a4	e3821001	 orr         r1, r2, #1
  001a8	e3840004	 orr         r0, r4, #4
  001ac	e1a0e00f	 mov         lr, pc
  001b0	e12fff13	 bx          r3

; 414  : 
; 415  : 	/*
; 416  : 		Set the image mode to DRAW_IMAGE_MULTIPLY so the image based glyphs
; 417  : 		are multiplied by the paint colour and alpha values.
; 418  : 	*/
; 419  : 	vgSeti(VG_IMAGE_MODE, VG_DRAW_IMAGE_MULTIPLY);

  001b4	e59f317c	 ldr         r3, [pc, #0x17C]
  001b8	e3a02c1f	 mov         r2, #0x1F, 24
  001bc	e3a00c11	 mov         r0, #0x11, 24
  001c0	e5933000	 ldr         r3, [r3]
  001c4	e3821001	 orr         r1, r2, #1
  001c8	e3800005	 orr         r0, r0, #5
  001cc	e1a0e00f	 mov         lr, pc
  001d0	e12fff13	 bx          r3

; 420  : 
; 421  : 	// Draw the string with the image based font at 4 different scales.
; 422  : 	DrawLine(m_vgImageFont, 7, &str[0], m_ui32ScreenHeight * 0.35f, 2.0f);

  001d4	e59f316c	 ldr         r3, [pc, #0x16C]
  001d8	e595047c	 ldr         r0, [r5, #0x47C]
  001dc	e58da004	 str         r10, [sp, #4]
  001e0	e5933000	 ldr         r3, [r3]
  001e4	e1a0e00f	 mov         lr, pc
  001e8	e12fff13	 bx          r3
  001ec	e59f3150	 ldr         r3, [pc, #0x150]
  001f0	e59f1158	 ldr         r1, [pc, #0x158]
  001f4	e5933000	 ldr         r3, [r3]
  001f8	e1a0e00f	 mov         lr, pc
  001fc	e12fff13	 bx          r3
  00200	e1a03000	 mov         r3, r0
  00204	e58d3000	 str         r3, [sp]
  00208	e59f312c	 ldr         r3, [pc, #0x12C]
  0020c	e1a00006	 mov         r0, r6
  00210	e3a02007	 mov         r2, #7
  00214	e2861010	 add         r1, r6, #0x10
  00218	eb000000	 bl          |?DrawLine@OVGFont@@QAAXAAIHPAIMM@Z|

; 423  : 	DrawLine(m_vgImageFont, 7, &str[0], m_ui32ScreenHeight * 0.25f, 1.0f);

  0021c	e59f3124	 ldr         r3, [pc, #0x124]
  00220	e595047c	 ldr         r0, [r5, #0x47C]
  00224	e58d9004	 str         r9, [sp, #4]
  00228	e5933000	 ldr         r3, [r3]
  0022c	e1a0e00f	 mov         lr, pc
  00230	e12fff13	 bx          r3
  00234	e59f3108	 ldr         r3, [pc, #0x108]
  00238	e3a015fa	 mov         r1, #0xFA, 10
  0023c	e5933000	 ldr         r3, [r3]
  00240	e1a0e00f	 mov         lr, pc
  00244	e12fff13	 bx          r3
  00248	e1a03000	 mov         r3, r0
  0024c	e58d3000	 str         r3, [sp]
  00250	e59f30e4	 ldr         r3, [pc, #0xE4]
  00254	e1a00006	 mov         r0, r6
  00258	e3a02007	 mov         r2, #7
  0025c	e2861010	 add         r1, r6, #0x10
  00260	eb000000	 bl          |?DrawLine@OVGFont@@QAAXAAIHPAIMM@Z|

; 424  : 	DrawLine(m_vgImageFont, 7, &str[0], m_ui32ScreenHeight * 0.20f, 0.5f);

  00264	e59f30dc	 ldr         r3, [pc, #0xDC]
  00268	e595047c	 ldr         r0, [r5, #0x47C]
  0026c	e58d8004	 str         r8, [sp, #4]
  00270	e5933000	 ldr         r3, [r3]
  00274	e1a0e00f	 mov         lr, pc
  00278	e12fff13	 bx          r3
  0027c	e59f20c0	 ldr         r2, [pc, #0xC0]
  00280	e59f10c4	 ldr         r1, [pc, #0xC4]
  00284	e5922000	 ldr         r2, [r2]
  00288	e1a0e00f	 mov         lr, pc
  0028c	e12fff12	 bx          r2
  00290	e59f30a4	 ldr         r3, [pc, #0xA4]
  00294	e1a02000	 mov         r2, r0
  00298	e58d2000	 str         r2, [sp]
  0029c	e3a02007	 mov         r2, #7
  002a0	e1a00006	 mov         r0, r6
  002a4	e2861010	 add         r1, r6, #0x10
  002a8	eb000000	 bl          |?DrawLine@OVGFont@@QAAXAAIHPAIMM@Z|

; 425  : 	DrawLine(m_vgImageFont, 7, &str[0], m_ui32ScreenHeight * 0.15f, 0.25f);

  002ac	e59f2094	 ldr         r2, [pc, #0x94]
  002b0	e595047c	 ldr         r0, [r5, #0x47C]
  002b4	e58d7004	 str         r7, [sp, #4]
  002b8	e5922000	 ldr         r2, [r2]
  002bc	e1a0e00f	 mov         lr, pc
  002c0	e12fff12	 bx          r2
  002c4	e59f2078	 ldr         r2, [pc, #0x78]
  002c8	e59f1070	 ldr         r1, [pc, #0x70]
  002cc	e5922000	 ldr         r2, [r2]
  002d0	e1a0e00f	 mov         lr, pc
  002d4	e12fff12	 bx          r2
  002d8	e59f305c	 ldr         r3, [pc, #0x5C]
  002dc	e1a02000	 mov         r2, r0
  002e0	e58d2000	 str         r2, [sp]
  002e4	e3a02007	 mov         r2, #7
  002e8	e1a00006	 mov         r0, r6
  002ec	e2861010	 add         r1, r6, #0x10
  002f0	eb000000	 bl          |?DrawLine@OVGFont@@QAAXAAIHPAIMM@Z|

; 426  : 
; 427  : 	// Disable blending
; 428  : 	vgSeti(VG_BLEND_MODE, VG_BLEND_SRC);

  002f4	e59f303c	 ldr         r3, [pc, #0x3C]
  002f8	e3a01a02	 mov         r1, #2, 20
  002fc	e3840004	 orr         r0, r4, #4
  00300	e5933000	 ldr         r3, [r3]
  00304	e1a0e00f	 mov         lr, pc
  00308	e12fff13	 bx          r3

; 429  : 
; 430  : 	// Display the title and logo.
; 431  : 	m_PrintVG.DisplayDefaultTitle("Font", "", ePVRTPrint3DSDKLogo);

  0030c	e59f2020	 ldr         r2, [pc, #0x20]
  00310	e59f1018	 ldr         r1, [pc, #0x18]
  00314	e3a03004	 mov         r3, #4
  00318	e2860018	 add         r0, r6, #0x18
  0031c	eb000000	 bl          |?DisplayDefaultTitle@CPVRTPrintVG@@QAA_NPAD0I@Z|

; 432  : 
; 433  : 	return true;

  00320	e3a00001	 mov         r0, #1

; 434  : }

  00324	e28dd008	 add         sp, sp, #8
  00328	e8bd47f0	 ldmia       sp!, {r4 - r10, lr}
  0032c	e12fff1e	 bx          lr
  00330		 |$LN6@RenderScen|
  00330		 |$LN7@RenderScen|
  00330	00000000	 DCD         |??_C@_04IEDBBIIG@Font?$AA@|
  00334		 |$LN8@RenderScen|
  00334	00000000	 DCD         |??_C@_00CNPNBAHC@?$AA@|
  00338		 |$LN9@RenderScen|
  00338	00000000	 DCD         |__imp_vgSeti|
  0033c		 |$LN10@RenderScen|
  0033c	00000000	 DCD         |?str@?1??RenderScene@OVGFont@@UAA_NXZ@4PAIA|
  00340		 |$LN11@RenderScen|
  00340	3e19999a	 DCD         0x3e19999a
  00344		 |$LN12@RenderScen|
  00344	00000000	 DCD         |__imp___muls|
  00348		 |$LN13@RenderScen|
  00348	00000000	 DCD         |__imp___utos|
  0034c		 |$LN14@RenderScen|
  0034c	3e4ccccd	 DCD         0x3e4ccccd
  00350		 |$LN15@RenderScen|
  00350	3eb33333	 DCD         0x3eb33333
  00354		 |$LN16@RenderScen|
  00354	3f0ccccd	 DCD         0x3f0ccccd
  00358		 |$LN17@RenderScen|
  00358	3f19999a	 DCD         0x3f19999a
  0035c		 |$LN18@RenderScen|
  0035c	3f266666	 DCD         0x3f266666
  00360		 |$LN19@RenderScen|
  00360	00000000	 DCD         |__imp_vgSetPaint|
  00364		 |$LN20@RenderScen|
  00364	00000000	 DCD         |__imp_vgClear|
  00368		 |$M36792|

			 ENDP  ; |?RenderScene@OVGFont@@UAA_NXZ|, OVGFont::RenderScene

	END
