; Listing generated by Microsoft (R) Optimizing Compiler Version 14.01.60511.01 

	TTL	C:\WINCE600\PUBLIC\PowerVR-SDK\OVG\TrainingCourse\21_RenderToMask\OVG\OVGRenderToMask.cpp
	CODE32

  00000			 AREA	 |.drectve|, DRECTVE
	DCB	"-defaultlib:LIBCMT "
	DCB	"-defaultlib:OLDNAMES "

	EXPORT	|??0OVGRenderToMask@@QAA@XZ|		; OVGRenderToMask::OVGRenderToMask
	EXPORT	|??_7OVGRenderToMask@@6B@| [ DATA ]	; OVGRenderToMask::`vftable'
	EXPORT	|?InitApplication@OVGRenderToMask@@UAA_NXZ| ; OVGRenderToMask::InitApplication
	EXPORT	|?QuitApplication@OVGRenderToMask@@UAA_NXZ| ; OVGRenderToMask::QuitApplication
	EXPORT	|?InitView@OVGRenderToMask@@UAA_NXZ|	; OVGRenderToMask::InitView
	EXPORT	|?ReleaseView@OVGRenderToMask@@UAA_NXZ|	; OVGRenderToMask::ReleaseView
	EXPORT	|?RenderScene@OVGRenderToMask@@UAA_NXZ|	; OVGRenderToMask::RenderScene
	IMPORT	|??0CPVRTPrintVG@@QAA@XZ|		; CPVRTPrintVG::CPVRTPrintVG
	IMPORT	|??0PVRShell@@QAA@XZ|			; PVRShell::PVRShell
	IMPORT	|??_EOVGRenderToMask@@UAAPAXI@Z|, WEAK |??_GOVGRenderToMask@@UAAPAXI@Z| ; OVGRenderToMask::`vector deleting destructor', OVGRenderToMask::`scalar deleting destructor'
; File c:\wince600\public\powervr-sdk\ovg\trainingcourse\21_rendertomask\ovg\ovgrendertomask.cpp

  00000			 AREA	 |.pdata|, PDATA
|$T36514| DCD	|$LN5@OVGRenderT|
	DCD	0x40000b01

  00000			 AREA	 |.rdata|, DATA, READONLY
|??_7OVGRenderToMask@@6B@| DCD |??_EOVGRenderToMask@@UAAPAXI@Z| ; OVGRenderToMask::`vftable'
	DCD	|?InitApplication@OVGRenderToMask@@UAA_NXZ|
	DCD	|?QuitApplication@OVGRenderToMask@@UAA_NXZ|
	DCD	|?InitView@OVGRenderToMask@@UAA_NXZ|
	DCD	|?ReleaseView@OVGRenderToMask@@UAA_NXZ|
	DCD	|?RenderScene@OVGRenderToMask@@UAA_NXZ|
; Function compile flags: /Ogspy

  00000			 AREA	 |.text|, CODE, ARM

  00000		 |??0OVGRenderToMask@@QAA@XZ| PROC	; OVGRenderToMask::OVGRenderToMask

; 33   : 	OVGRenderToMask() {}

  00000		 |$LN5@OVGRenderT|
  00000	e92d4010	 stmdb       sp!, {r4, lr}
  00004		 |$M36511|
  00004	e1a04000	 mov         r4, r0
  00008	eb000000	 bl          |??0PVRShell@@QAA@XZ|
  0000c	e59f3014	 ldr         r3, [pc, #0x14]
  00010	e1a00004	 mov         r0, r4
  00014	e4803024	 str         r3, [r0], #0x24
  00018	eb000000	 bl          |??0CPVRTPrintVG@@QAA@XZ|
  0001c	e1a00004	 mov         r0, r4
  00020	e8bd4010	 ldmia       sp!, {r4, lr}
  00024	e12fff1e	 bx          lr
  00028		 |$LN6@OVGRenderT|
  00028		 |$LN7@OVGRenderT|
  00028	00000000	 DCD         |??_7OVGRenderToMask@@6B@|
  0002c		 |$M36512|

			 ENDP  ; |??0OVGRenderToMask@@QAA@XZ|, OVGRenderToMask::OVGRenderToMask

	EXPORT	|??1OVGRenderToMask@@UAA@XZ|		; OVGRenderToMask::~OVGRenderToMask
	IMPORT	|??1PVRShell@@UAA@XZ|			; PVRShell::~PVRShell
	IMPORT	|??1CPVRTPrintVG@@QAA@XZ|		; CPVRTPrintVG::~CPVRTPrintVG

  00000			 AREA	 |.pdata|, PDATA
|$T36524| DCD	|$LN5@OVGRenderT@2|
	DCD	0x40000801
; Function compile flags: /Ogspy

  00000			 AREA	 |.text|, CODE, ARM

  00000		 |??1OVGRenderToMask@@UAA@XZ| PROC	; OVGRenderToMask::~OVGRenderToMask
  00000		 |$LN5@OVGRenderT@2|
  00000	e92d4010	 stmdb       sp!, {r4, lr}
  00004		 |$M36521|
  00004	e1a04000	 mov         r4, r0
  00008	e2840024	 add         r0, r4, #0x24
  0000c	eb000000	 bl          |??1CPVRTPrintVG@@QAA@XZ|
  00010	e1a00004	 mov         r0, r4
  00014	eb000000	 bl          |??1PVRShell@@UAA@XZ|
  00018	e8bd4010	 ldmia       sp!, {r4, lr}
  0001c	e12fff1e	 bx          lr
  00020		 |$M36522|

			 ENDP  ; |??1OVGRenderToMask@@UAA@XZ|, OVGRenderToMask::~OVGRenderToMask

	EXPORT	|__$ArrayPad$| [ DATA ]
	EXPORT	|?CreatePath@OVGRenderToMask@@QAAXXZ|	; OVGRenderToMask::CreatePath
	IMPORT	|__GSHandlerCheck|
	IMPORT	|__security_cookie|
	IMPORT	|__imp_vgAppendPathData|
	IMPORT	|__imp_vgCreatePath|
	IMPORT	|__imp_vguEllipse|
	IMPORT	|__security_check_cookie|

  00000			 AREA	 |.pdata|, PDATA
|$T36539| DCD	|$LN5@CreatePath|
	DCD	0xc0008402

  00000			 AREA	 |.xdata|, DATA
|$T36535| DCD	0xffffffd8
; Function compile flags: /Ogspy

  00000			 AREA	 |.text|, CODE, ARM

  00000	00000000	 DCD         |__GSHandlerCheck|
  00004	00000000	 DCD         |$T36535|

  00008		 |?CreatePath@OVGRenderToMask@@QAAXXZ| PROC ; OVGRenderToMask::CreatePath

; 53   : {

  00008		 |$LN5@CreatePath|
  00008	e92d4ff0	 stmdb       sp!, {r4 - r11, lr}
  0000c	e24dd054	 sub         sp, sp, #0x54
  00010		 |$M36536|
  00010	e1a0b000	 mov         r11, r0
  00014	e59f31f8	 ldr         r3, [pc, #0x1F8]
  00018	e5933000	 ldr         r3, [r3]
  0001c	e58d3050	 str         r3, [sp, #0x50]

; 54   : 	/*
; 55   : 	Create the two paths that will be used in the scene. The first is a triangle and
; 56   : 	the second is a square.
; 57   : 	*/
; 58   : 
; 59   : 	m_avgPath[0] = vgCreatePath(VG_PATH_FORMAT_STANDARD, VG_PATH_DATATYPE_F,
; 60   : 							1.0f, 0.0f, 4, 3, (unsigned int)VG_PATH_CAPABILITY_ALL);

  00020	e59f31c4	 ldr         r3, [pc, #0x1C4]
  00024	e3a05003	 mov         r5, #3
  00028	e3a06004	 mov         r6, #4
  0002c	e5934000	 ldr         r4, [r3]
  00030	e3a03c0f	 mov         r3, #0xF, 24
  00034	e383a0ff	 orr         r10, r3, #0xFF
  00038	e58da008	 str         r10, [sp, #8]
  0003c	e3a03000	 mov         r3, #0
  00040	e3a025fe	 mov         r2, #0xFE, 10
  00044	e3a01003	 mov         r1, #3
  00048	e3a00000	 mov         r0, #0
  0004c	e58d5004	 str         r5, [sp, #4]
  00050	e58d6000	 str         r6, [sp]
  00054	e1a0e00f	 mov         lr, pc
  00058	e12fff14	 bx          r4

; 61   : 
; 62   : 	VGubyte aui8PathSegments[4] = {
; 63   : 		VG_MOVE_TO,
; 64   : 		VG_LINE_TO,
; 65   : 		VG_LINE_TO,
; 66   : 		VG_CLOSE_PATH,
; 67   : 	};
; 68   : 	VGfloat afPoints[6] = {
; 69   : 			0.17f, 0.34f,
; 70   : 			0.83f, 0.34f,
; 71   : 			0.5f , 0.74f
; 72   : 	};
; 73   : 
; 74   : 	vgAppendPathData(m_avgPath[0], 4, aui8PathSegments, afPoints);

  0005c	e1a04000	 mov         r4, r0
  00060	e58b400c	 str         r4, [r11, #0xC]
  00064	e3a04002	 mov         r4, #2
  00068	e5cd400c	 strb        r4, [sp, #0xC]
  0006c	e3a04004	 mov         r4, #4
  00070	e5cd400d	 strb        r4, [sp, #0xD]
  00074	e3a04004	 mov         r4, #4
  00078	e59f3174	 ldr         r3, [pc, #0x174]
  0007c	e5cd400e	 strb        r4, [sp, #0xE]
  00080	e59f6188	 ldr         r6, [pc, #0x188]
  00084	e59f7180	 ldr         r7, [pc, #0x180]
  00088	e59f9178	 ldr         r9, [pc, #0x178]
  0008c	e59f5170	 ldr         r5, [pc, #0x170]
  00090	e3a04000	 mov         r4, #0
  00094	e5cd400f	 strb        r4, [sp, #0xF]
  00098	e5938000	 ldr         r8, [r3]
  0009c	e3a0443f	 mov         r4, #0x3F, 8
  000a0	e58d4020	 str         r4, [sp, #0x20]
  000a4	e28d3010	 add         r3, sp, #0x10
  000a8	e28d200c	 add         r2, sp, #0xC
  000ac	e3a01004	 mov         r1, #4
  000b0	e58d9010	 str         r9, [sp, #0x10]
  000b4	e58d5014	 str         r5, [sp, #0x14]
  000b8	e58d6018	 str         r6, [sp, #0x18]
  000bc	e58d501c	 str         r5, [sp, #0x1C]
  000c0	e58d7024	 str         r7, [sp, #0x24]
  000c4	e1a0e00f	 mov         lr, pc
  000c8	e12fff18	 bx          r8

; 75   : 
; 76   : 	m_avgPath[1] = vgCreatePath(VG_PATH_FORMAT_STANDARD, VG_PATH_DATATYPE_F,
; 77   : 							1.0f, 0.0f, 5, 4, (unsigned int)VG_PATH_CAPABILITY_ALL);

  000cc	e59f2118	 ldr         r2, [pc, #0x118]
  000d0	e3a05005	 mov         r5, #5
  000d4	e3a06004	 mov         r6, #4
  000d8	e5924000	 ldr         r4, [r2]
  000dc	e3a025fe	 mov         r2, #0xFE, 10
  000e0	e3a03000	 mov         r3, #0
  000e4	e3a01003	 mov         r1, #3
  000e8	e3a00000	 mov         r0, #0
  000ec	e58da008	 str         r10, [sp, #8]
  000f0	e58d6004	 str         r6, [sp, #4]
  000f4	e58d5000	 str         r5, [sp]
  000f8	e1a0e00f	 mov         lr, pc
  000fc	e12fff14	 bx          r4

; 78   : 
; 79   : 	VGubyte aui8PathSegments2[5] = {
; 80   : 		VG_MOVE_TO,
; 81   : 		VG_LINE_TO,
; 82   : 		VG_LINE_TO,
; 83   : 		VG_LINE_TO,
; 84   : 		VG_CLOSE_PATH
; 85   : 	};
; 86   : 
; 87   : 	VGfloat afPoints2[8] = {
; 88   : 			0.08f, 0.39f,

  00100	e59f60f8	 ldr         r6, [pc, #0xF8]
  00104	e59f20f0	 ldr         r2, [pc, #0xF0]

; 89   : 			0.92f, 0.39f,

  00108	e59f30e8	 ldr         r3, [pc, #0xE8]
  0010c	e3a01002	 mov         r1, #2
  00110	e3a0e004	 mov         lr, #4
  00114	e3a04004	 mov         r4, #4
  00118	e3a05004	 mov         r5, #4
  0011c	e3a07000	 mov         r7, #0
  00120	e58d6028	 str         r6, [sp, #0x28]
  00124	e58d202c	 str         r2, [sp, #0x2C]
  00128	e58d3030	 str         r3, [sp, #0x30]
  0012c	e58d2034	 str         r2, [sp, #0x34]

; 90   : 			0.92f, 0.56f,

  00130	e58d3038	 str         r3, [sp, #0x38]
  00134	e58b0010	 str         r0, [r11, #0x10]
  00138	e5cd1048	 strb        r1, [sp, #0x48]
  0013c	e5cde049	 strb        lr, [sp, #0x49]
  00140	e5cd404a	 strb        r4, [sp, #0x4A]
  00144	e5cd504b	 strb        r5, [sp, #0x4B]
  00148	e5cd704c	 strb        r7, [sp, #0x4C]

; 91   : 			0.08f, 0.56f
; 92   : 	};
; 93   : 
; 94   : 	vgAppendPathData(m_avgPath[1], 5, aui8PathSegments2, afPoints2);

  0014c	e59f20a0	 ldr         r2, [pc, #0xA0]
  00150	e59f5098	 ldr         r5, [pc, #0x98]
  00154	e28d3028	 add         r3, sp, #0x28
  00158	e5924000	 ldr         r4, [r2]
  0015c	e28d2048	 add         r2, sp, #0x48
  00160	e3a01005	 mov         r1, #5
  00164	e58d503c	 str         r5, [sp, #0x3C]
  00168	e58d6040	 str         r6, [sp, #0x40]
  0016c	e58d5044	 str         r5, [sp, #0x44]
  00170	e1a0e00f	 mov         lr, pc
  00174	e12fff14	 bx          r4

; 95   : 
; 96   : 	m_avgPath[2] = vgCreatePath(VG_PATH_FORMAT_STANDARD, VG_PATH_DATATYPE_F,
; 97   : 							1.0f, 0.0f, 0, 0, (unsigned int)VG_PATH_CAPABILITY_ALL);

  00178	e59f206c	 ldr         r2, [pc, #0x6C]
  0017c	e3a05000	 mov         r5, #0
  00180	e3a03000	 mov         r3, #0
  00184	e5924000	 ldr         r4, [r2]
  00188	e3a025fe	 mov         r2, #0xFE, 10
  0018c	e3a01003	 mov         r1, #3
  00190	e3a00000	 mov         r0, #0
  00194	e58da008	 str         r10, [sp, #8]
  00198	e58d5004	 str         r5, [sp, #4]
  0019c	e58d5000	 str         r5, [sp]
  001a0	e1a0e00f	 mov         lr, pc
  001a4	e12fff14	 bx          r4

; 98   : 
; 99   : 	vguEllipse(m_avgPath[2], 0.5f, 0.5f, 0.17f, 0.125f);

  001a8	e59f2038	 ldr         r2, [pc, #0x38]
  001ac	e1a04000	 mov         r4, r0
  001b0	e3a0643e	 mov         r6, #0x3E, 8
  001b4	e5925000	 ldr         r5, [r2]
  001b8	e3a0243f	 mov         r2, #0x3F, 8
  001bc	e1a03009	 mov         r3, r9
  001c0	e3a0143f	 mov         r1, #0x3F, 8
  001c4	e58b4014	 str         r4, [r11, #0x14]
  001c8	e58d6000	 str         r6, [sp]
  001cc	e1a0e00f	 mov         lr, pc
  001d0	e12fff15	 bx          r5
  001d4	e59d0050	 ldr         r0, [sp, #0x50]
  001d8	eb000000	 bl          __security_check_cookie

; 100  : }

  001dc	e28dd054	 add         sp, sp, #0x54
  001e0	e8bd4ff0	 ldmia       sp!, {r4 - r11, lr}
  001e4	e12fff1e	 bx          lr
  001e8		 |$LN6@CreatePath|
  001e8		 |$LN7@CreatePath|
  001e8	00000000	 DCD         |__imp_vguEllipse|
  001ec		 |$LN8@CreatePath|
  001ec	00000000	 DCD         |__imp_vgCreatePath|
  001f0		 |$LN9@CreatePath|
  001f0	3f0f5c29	 DCD         0x3f0f5c29
  001f4		 |$LN10@CreatePath|
  001f4	00000000	 DCD         |__imp_vgAppendPathData|
  001f8		 |$LN11@CreatePath|
  001f8	3f6b851f	 DCD         0x3f6b851f
  001fc		 |$LN12@CreatePath|
  001fc	3ec7ae14	 DCD         0x3ec7ae14
  00200		 |$LN13@CreatePath|
  00200	3da3d70a	 DCD         0x3da3d70a
  00204		 |$LN14@CreatePath|
  00204	3eae147b	 DCD         0x3eae147b
  00208		 |$LN15@CreatePath|
  00208	3e2e147b	 DCD         0x3e2e147b
  0020c		 |$LN16@CreatePath|
  0020c	3f3d70a4	 DCD         0x3f3d70a4
  00210		 |$LN17@CreatePath|
  00210	3f547ae1	 DCD         0x3f547ae1
  00214		 |$LN18@CreatePath|
  00214	00000000	 DCD         |__security_cookie|
  00218		 |$M36537|

			 ENDP  ; |?CreatePath@OVGRenderToMask@@QAAXXZ|, OVGRenderToMask::CreatePath

	IMPORT	|?PVRShellSet@PVRShell@@QAA_NW4prefNameBoolEnum@@_N@Z| ; PVRShell::PVRShellSet

  00000			 AREA	 |.pdata|, PDATA
|$T36563| DCD	|$LN5@InitApplic|
	DCD	0x40000701
; Function compile flags: /Ogspy

  00000			 AREA	 |.text|, CODE, ARM

  00000		 |?InitApplication@OVGRenderToMask@@UAA_NXZ| PROC ; OVGRenderToMask::InitApplication

; 110  : {

  00000		 |$LN5@InitApplic|
  00000	e52de004	 str         lr, [sp, #-4]!
  00004		 |$M36560|

; 111  : 	// This sets up PVRShell to use an OpenVG context
; 112  : 	PVRShellSet(prefOpenVGContext, true);

  00004	e3a02001	 mov         r2, #1
  00008	e3a01009	 mov         r1, #9
  0000c	eb000000	 bl          |?PVRShellSet@PVRShell@@QAA_NW4prefNameBoolEnum@@_N@Z|

; 113  : 	return true;

  00010	e3a00001	 mov         r0, #1

; 114  : }

  00014	e49de004	 ldr         lr, [sp], #4
  00018	e12fff1e	 bx          lr
  0001c		 |$M36561|

			 ENDP  ; |?InitApplication@OVGRenderToMask@@UAA_NXZ|, OVGRenderToMask::InitApplication


  00000			 AREA	 |.pdata|, PDATA
|$T36572| DCD	|$LN5@QuitApplic|
	DCD	0x40000200
; Function compile flags: /Ogspy

  00000			 AREA	 |.text|, CODE, ARM

  00000		 |?QuitApplication@OVGRenderToMask@@UAA_NXZ| PROC ; OVGRenderToMask::QuitApplication

; 123  : {

  00000		 |$LN5@QuitApplic|
  00000		 |$M36569|

; 124  : 	return true;

  00000	e3a00001	 mov         r0, #1

; 125  : }

  00004	e12fff1e	 bx          lr
  00008		 |$M36570|

			 ENDP  ; |?QuitApplication@OVGRenderToMask@@UAA_NXZ|, OVGRenderToMask::QuitApplication

	IMPORT	|?Initialize@CPVRTPrintVG@@QAA_NIIMM@Z|	; CPVRTPrintVG::Initialize
	IMPORT	|?PVRShellGet@PVRShell@@QBAHW4prefNameIntEnum@@@Z| ; PVRShell::PVRShellGet
	IMPORT	|__imp_vgLoadIdentity|
	IMPORT	|__imp_vgScale|
	IMPORT	|__imp_vgSetf|
	IMPORT	|__imp_vgSeti|
	IMPORT	|__imp_vgCreatePaint|
	IMPORT	|__imp_vgSetParameteri|
	IMPORT	|__imp_vgSetColor|
	IMPORT	|__imp_vgSetPaint|
	IMPORT	|__imp_vgRenderToMask|
	IMPORT	|__imp_vgDestroyPath|
	IMPORT	|__imp_vgSetfv|
	IMPORT	|__imp___itos|
	IMPORT	|__imp___divs|

  00000			 AREA	 |.pdata|, PDATA
|$T36588| DCD	|$LN5@InitView|
	DCD	0x4000b902
; Function compile flags: /Ogspy

  00000			 AREA	 |.text|, CODE, ARM

  00000		 |?InitView@OVGRenderToMask@@UAA_NXZ| PROC ; OVGRenderToMask::InitView

; 136  : {

  00000		 |$LN5@InitView|
  00000	e92d40f0	 stmdb       sp!, {r4 - r7, lr}
  00004	e24dd014	 sub         sp, sp, #0x14
  00008		 |$M36585|
  00008	e1a06000	 mov         r6, r0

; 137  : 	//Create the paths so we have something to look at.
; 138  : 	CreatePath();

  0000c	eb000000	 bl          |?CreatePath@OVGRenderToMask@@QAAXXZ|

; 139  : 
; 140  : 	// Setup the transformation to scale the paths to fit the screen
; 141  : 	vgSeti(VG_MATRIX_MODE, VG_MATRIX_PATH_USER_TO_SURFACE);

  00010	e59f32b4	 ldr         r3, [pc, #0x2B4]
  00014	e3a01b05	 mov         r1, #5, 22
  00018	e3a00c11	 mov         r0, #0x11, 24
  0001c	e5933000	 ldr         r3, [r3]
  00020	e1a0e00f	 mov         lr, pc
  00024	e12fff13	 bx          r3

; 142  : 	vgLoadIdentity();

  00028	e59f32b0	 ldr         r3, [pc, #0x2B0]
  0002c	e5933000	 ldr         r3, [r3]
  00030	e1a0e00f	 mov         lr, pc
  00034	e12fff13	 bx          r3

; 143  : 
; 144  : 	vgScale((float) PVRShellGet(prefWidth ), (float) PVRShellGet(prefHeight));

  00038	e3a01003	 mov         r1, #3
  0003c	e1a00006	 mov         r0, r6
  00040	eb000000	 bl          |?PVRShellGet@PVRShell@@QBAHW4prefNameIntEnum@@@Z|
  00044	e1a04000	 mov         r4, r0
  00048	e1a00006	 mov         r0, r6
  0004c	e3a01002	 mov         r1, #2
  00050	eb000000	 bl          |?PVRShellGet@PVRShell@@QBAHW4prefNameIntEnum@@@Z|
  00054	e59f327c	 ldr         r3, [pc, #0x27C]
  00058	e1a05000	 mov         r5, r0
  0005c	e1a00004	 mov         r0, r4
  00060	e5933000	 ldr         r3, [r3]
  00064	e1a0e00f	 mov         lr, pc
  00068	e12fff13	 bx          r3
  0006c	e59f3264	 ldr         r3, [pc, #0x264]
  00070	e1a04000	 mov         r4, r0
  00074	e1a00005	 mov         r0, r5
  00078	e5933000	 ldr         r3, [r3]
  0007c	e1a0e00f	 mov         lr, pc
  00080	e12fff13	 bx          r3
  00084	e59f3250	 ldr         r3, [pc, #0x250]
  00088	e1a01004	 mov         r1, r4
  0008c	e5933000	 ldr         r3, [r3]
  00090	e1a0e00f	 mov         lr, pc
  00094	e12fff13	 bx          r3

; 145  : 
; 146  : 	// Reduce the stroke size to compensate for our scaling
; 147  : 	vgSetf(VG_STROKE_LINE_WIDTH, 1.0f / PVRShellGet(prefHeight));

  00098	e3a01003	 mov         r1, #3
  0009c	e1a00006	 mov         r0, r6
  000a0	eb000000	 bl          |?PVRShellGet@PVRShell@@QBAHW4prefNameIntEnum@@@Z|
  000a4	e59f322c	 ldr         r3, [pc, #0x22C]
  000a8	e5933000	 ldr         r3, [r3]
  000ac	e1a0e00f	 mov         lr, pc
  000b0	e12fff13	 bx          r3
  000b4	e59f3218	 ldr         r3, [pc, #0x218]
  000b8	e1a01000	 mov         r1, r0
  000bc	e3a005fe	 mov         r0, #0xFE, 10
  000c0	e5933000	 ldr         r3, [r3]
  000c4	e1a0e00f	 mov         lr, pc
  000c8	e12fff13	 bx          r3
  000cc	e59f31fc	 ldr         r3, [pc, #0x1FC]
  000d0	e3a07c11	 mov         r7, #0x11, 24
  000d4	e1a01000	 mov         r1, r0
  000d8	e5933000	 ldr         r3, [r3]
  000dc	e3870010	 orr         r0, r7, #0x10
  000e0	e1a0e00f	 mov         lr, pc
  000e4	e12fff13	 bx          r3

; 148  : 
; 149  : 	//Set the render quality so the stroke borders have some form of anti-aliasing
; 150  : 	vgSeti(VG_RENDERING_QUALITY, VG_RENDERING_QUALITY_BETTER);

  000e8	e59f31dc	 ldr         r3, [pc, #0x1DC]
  000ec	e3a02c12	 mov         r2, #0x12, 24
  000f0	e3821002	 orr         r1, r2, #2
  000f4	e5933000	 ldr         r3, [r3]
  000f8	e3870003	 orr         r0, r7, #3
  000fc	e1a0e00f	 mov         lr, pc
  00100	e12fff13	 bx          r3

; 151  : 
; 152  : 	// Create the paints that the paths will use
; 153  : 	m_avgColourPaint[0] = vgCreatePaint();

  00104	e59f31bc	 ldr         r3, [pc, #0x1BC]
  00108	e5933000	 ldr         r3, [r3]
  0010c	e1a0e00f	 mov         lr, pc
  00110	e12fff13	 bx          r3

; 154  : 	vgSetParameteri(m_avgColourPaint[0], VG_PAINT_TYPE, VG_PAINT_TYPE_COLOR);

  00114	e59f31a8	 ldr         r3, [pc, #0x1A8]
  00118	e1a04000	 mov         r4, r0
  0011c	e3a02c1b	 mov         r2, #0x1B, 24
  00120	e5933000	 ldr         r3, [r3]
  00124	e3a01c1a	 mov         r1, #0x1A, 24
  00128	e5864018	 str         r4, [r6, #0x18]
  0012c	e1a0e00f	 mov         lr, pc
  00130	e12fff13	 bx          r3

; 155  : 	vgSetColor(m_avgColourPaint[0], PVRTRGBA(255,255,170,255));

  00134	e59f3184	 ldr         r3, [pc, #0x184]
  00138	e5960018	 ldr         r0, [r6, #0x18]
  0013c	e3e01c55	 mvn         r1, #0x55, 24
  00140	e5933000	 ldr         r3, [r3]
  00144	e1a0e00f	 mov         lr, pc
  00148	e12fff13	 bx          r3

; 156  : 
; 157  : 	m_avgColourPaint[1] = vgCreatePaint();

  0014c	e59f3174	 ldr         r3, [pc, #0x174]
  00150	e5933000	 ldr         r3, [r3]
  00154	e1a0e00f	 mov         lr, pc
  00158	e12fff13	 bx          r3

; 158  : 	vgSetParameteri(m_avgColourPaint[1], VG_PAINT_TYPE, VG_PAINT_TYPE_COLOR);

  0015c	e59f3160	 ldr         r3, [pc, #0x160]
  00160	e1a04000	 mov         r4, r0
  00164	e3a02c1b	 mov         r2, #0x1B, 24
  00168	e5933000	 ldr         r3, [r3]
  0016c	e3a01c1a	 mov         r1, #0x1A, 24
  00170	e586401c	 str         r4, [r6, #0x1C]
  00174	e1a0e00f	 mov         lr, pc
  00178	e12fff13	 bx          r3

; 159  : 	vgSetColor(m_avgColourPaint[1], PVRTRGBA(255,136,136, 255));

  0017c	e59f313c	 ldr         r3, [pc, #0x13C]
  00180	e596001c	 ldr         r0, [r6, #0x1C]
  00184	e3e02877	 mvn         r2, #0x77, 16
  00188	e5933000	 ldr         r3, [r3]
  0018c	e2221c77	 eor         r1, r2, #0x77, 24
  00190	e1a0e00f	 mov         lr, pc
  00194	e12fff13	 bx          r3

; 160  : 
; 161  : 	m_avgColourPaint[2] = vgCreatePaint();

  00198	e59f3128	 ldr         r3, [pc, #0x128]
  0019c	e5933000	 ldr         r3, [r3]
  001a0	e1a0e00f	 mov         lr, pc
  001a4	e12fff13	 bx          r3

; 162  : 	vgSetParameteri(m_avgColourPaint[2], VG_PAINT_TYPE, VG_PAINT_TYPE_COLOR);

  001a8	e59f3114	 ldr         r3, [pc, #0x114]
  001ac	e1a04000	 mov         r4, r0
  001b0	e3a02c1b	 mov         r2, #0x1B, 24
  001b4	e5933000	 ldr         r3, [r3]
  001b8	e3a01c1a	 mov         r1, #0x1A, 24
  001bc	e5864020	 str         r4, [r6, #0x20]
  001c0	e1a0e00f	 mov         lr, pc
  001c4	e12fff13	 bx          r3

; 163  : 	vgSetColor(m_avgColourPaint[2], PVRTRGBA(0,0,0, 128));

  001c8	e59f30f0	 ldr         r3, [pc, #0xF0]
  001cc	e5960020	 ldr         r0, [r6, #0x20]
  001d0	e3a01080	 mov         r1, #0x80
  001d4	e5933000	 ldr         r3, [r3]
  001d8	e1a0e00f	 mov         lr, pc
  001dc	e12fff13	 bx          r3

; 164  : 
; 165  : 	/*
; 166  : 		vgRenderToMask modifies the drawing surface's mask by applying
; 167  : 		the given operation to the region covered by the rendering of
; 168  : 		the given path.
; 169  : 
; 170  : 		The second parameter determines the paint mode of the path. Also,
; 171  : 		the rendering of the path is affected by the current OpenVG state
; 172  : 		settings (e.g. scissor rects, stroke parameters etc.). However,
; 173  : 		paint settings (e.g., paint matrices) are ignored.
; 174  : 
; 175  : 		The third parameter is the masking operation. Please see the
; 176  : 		OVGMasking training course for more detail.
; 177  : 	*/
; 178  : 
; 179  : 	vgSetPaint(m_avgColourPaint[2], VG_FILL_PATH);

  001e0	e59f30d4	 ldr         r3, [pc, #0xD4]
  001e4	e5960020	 ldr         r0, [r6, #0x20]
  001e8	e3a01002	 mov         r1, #2
  001ec	e5933000	 ldr         r3, [r3]
  001f0	e1a0e00f	 mov         lr, pc
  001f4	e12fff13	 bx          r3

; 180  : 	vgRenderToMask(m_avgPath[2], VG_STROKE_PATH | VG_FILL_PATH, VG_SET_MASK);

  001f8	e59f30b8	 ldr         r3, [pc, #0xB8]
  001fc	e5960014	 ldr         r0, [r6, #0x14]
  00200	e3a02c15	 mov         r2, #0x15, 24
  00204	e5933000	 ldr         r3, [r3]
  00208	e3822002	 orr         r2, r2, #2
  0020c	e3a01003	 mov         r1, #3
  00210	e1a0e00f	 mov         lr, pc
  00214	e12fff13	 bx          r3

; 181  : 
; 182  : 	//Destroy the path as it is no longer needed.
; 183  : 	vgDestroyPath(m_avgPath[2]);

  00218	e59f3094	 ldr         r3, [pc, #0x94]
  0021c	e5960014	 ldr         r0, [r6, #0x14]
  00220	e5933000	 ldr         r3, [r3]
  00224	e1a0e00f	 mov         lr, pc
  00228	e12fff13	 bx          r3

; 184  : 
; 185  : 	// Initialise printVG
; 186  : 	m_PrintVG.Initialize(PVRShellGet(prefWidth), PVRShellGet(prefHeight));

  0022c	e3a01003	 mov         r1, #3
  00230	e1a00006	 mov         r0, r6
  00234	eb000000	 bl          |?PVRShellGet@PVRShell@@QBAHW4prefNameIntEnum@@@Z|
  00238	e1a04000	 mov         r4, r0
  0023c	e1a00006	 mov         r0, r6
  00240	e3a01002	 mov         r1, #2
  00244	eb000000	 bl          |?PVRShellGet@PVRShell@@QBAHW4prefNameIntEnum@@@Z|
  00248	e1a01000	 mov         r1, r0
  0024c	e3a055fe	 mov         r5, #0xFE, 10
  00250	e2860024	 add         r0, r6, #0x24
  00254	e3a035fe	 mov         r3, #0xFE, 10
  00258	e1a02004	 mov         r2, r4
  0025c	e58d5000	 str         r5, [sp]
  00260	eb000000	 bl          |?Initialize@CPVRTPrintVG@@QAA_NIIMM@Z|

; 187  : 
; 188  : 	//Create and set the clear colour
; 189  : 	VGfloat afClearColour[] = { 0.6f, 0.8f, 1.0f, 1.0f };

  00264	e59f3044	 ldr         r3, [pc, #0x44]
  00268	e59f203c	 ldr         r2, [pc, #0x3C]
  0026c	e58d500c	 str         r5, [sp, #0xC]
  00270	e58d3004	 str         r3, [sp, #4]

; 190  : 	vgSetfv(VG_CLEAR_COLOR, 4, afClearColour);

  00274	e59f302c	 ldr         r3, [pc, #0x2C]
  00278	e58d2008	 str         r2, [sp, #8]
  0027c	e28d2004	 add         r2, sp, #4
  00280	e58d5010	 str         r5, [sp, #0x10]
  00284	e3a01004	 mov         r1, #4
  00288	e3870021	 orr         r0, r7, #0x21
  0028c	e5933000	 ldr         r3, [r3]
  00290	e1a0e00f	 mov         lr, pc
  00294	e12fff13	 bx          r3

; 191  : 	return true;

  00298	e3a00001	 mov         r0, #1

; 192  : }

  0029c	e28dd014	 add         sp, sp, #0x14
  002a0	e8bd40f0	 ldmia       sp!, {r4 - r7, lr}
  002a4	e12fff1e	 bx          lr
  002a8		 |$LN6@InitView|
  002a8		 |$LN7@InitView|
  002a8	00000000	 DCD         |__imp_vgSetfv|
  002ac		 |$LN8@InitView|
  002ac	3f4ccccd	 DCD         0x3f4ccccd
  002b0		 |$LN9@InitView|
  002b0	3f19999a	 DCD         0x3f19999a
  002b4		 |$LN10@InitView|
  002b4	00000000	 DCD         |__imp_vgDestroyPath|
  002b8		 |$LN11@InitView|
  002b8	00000000	 DCD         |__imp_vgRenderToMask|
  002bc		 |$LN12@InitView|
  002bc	00000000	 DCD         |__imp_vgSetPaint|
  002c0		 |$LN13@InitView|
  002c0	00000000	 DCD         |__imp_vgSetColor|
  002c4		 |$LN14@InitView|
  002c4	00000000	 DCD         |__imp_vgSetParameteri|
  002c8		 |$LN15@InitView|
  002c8	00000000	 DCD         |__imp_vgCreatePaint|
  002cc		 |$LN16@InitView|
  002cc	00000000	 DCD         |__imp_vgSeti|
  002d0		 |$LN17@InitView|
  002d0	00000000	 DCD         |__imp_vgSetf|
  002d4		 |$LN18@InitView|
  002d4	00000000	 DCD         |__imp___divs|
  002d8		 |$LN19@InitView|
  002d8	00000000	 DCD         |__imp___itos|
  002dc		 |$LN20@InitView|
  002dc	00000000	 DCD         |__imp_vgScale|
  002e0		 |$LN21@InitView|
  002e0	00000000	 DCD         |__imp_vgLoadIdentity|
  002e4		 |$M36586|

			 ENDP  ; |?InitView@OVGRenderToMask@@UAA_NXZ|, OVGRenderToMask::InitView

	IMPORT	|?Terminate@CPVRTPrintVG@@QAA_NXZ|	; CPVRTPrintVG::Terminate

  00000			 AREA	 |.pdata|, PDATA
|$T36614| DCD	|$LN5@ReleaseVie|
	DCD	0x40001201
; Function compile flags: /Ogspy

  00000			 AREA	 |.text|, CODE, ARM

  00000		 |?ReleaseView@OVGRenderToMask@@UAA_NXZ| PROC ; OVGRenderToMask::ReleaseView

; 201  : {

  00000		 |$LN5@ReleaseVie|
  00000	e92d4010	 stmdb       sp!, {r4, lr}
  00004		 |$M36611|
  00004	e1a04000	 mov         r4, r0

; 202  : 	// Cleanup: destroy the paths
; 203  : 	vgDestroyPath(m_avgPath[0]);

  00008	e59f3034	 ldr         r3, [pc, #0x34]
  0000c	e594000c	 ldr         r0, [r4, #0xC]
  00010	e5933000	 ldr         r3, [r3]
  00014	e1a0e00f	 mov         lr, pc
  00018	e12fff13	 bx          r3

; 204  : 	vgDestroyPath(m_avgPath[1]);

  0001c	e59f3020	 ldr         r3, [pc, #0x20]
  00020	e5940010	 ldr         r0, [r4, #0x10]
  00024	e5933000	 ldr         r3, [r3]
  00028	e1a0e00f	 mov         lr, pc
  0002c	e12fff13	 bx          r3

; 205  : 
; 206  : 	m_PrintVG.Terminate();

  00030	e2840024	 add         r0, r4, #0x24
  00034	eb000000	 bl          |?Terminate@CPVRTPrintVG@@QAA_NXZ|

; 207  : 	return true;

  00038	e3a00001	 mov         r0, #1

; 208  : }

  0003c	e8bd4010	 ldmia       sp!, {r4, lr}
  00040	e12fff1e	 bx          lr
  00044		 |$LN6@ReleaseVie|
  00044		 |$LN7@ReleaseVie|
  00044	00000000	 DCD         |__imp_vgDestroyPath|
  00048		 |$M36612|

			 ENDP  ; |?ReleaseView@OVGRenderToMask@@UAA_NXZ|, OVGRenderToMask::ReleaseView

	EXPORT	|??_C@_00CNPNBAHC@?$AA@| [ DATA ]	; `string'
	EXPORT	|??_C@_0N@NGPMHDLN@RenderToMask?$AA@| [ DATA ] ; `string'
	IMPORT	|?DisplayDefaultTitle@CPVRTPrintVG@@QAA_NPAD0I@Z| ; CPVRTPrintVG::DisplayDefaultTitle
	IMPORT	|__imp_vgClear|
	IMPORT	|__imp_vgDrawPath|

  00000			 AREA	 |.pdata|, PDATA
|$T36626| DCD	|$LN5@RenderScen|
	DCD	0x40004301

  00000			 AREA	 |.rdata|, DATA, READONLY
|??_C@_00CNPNBAHC@?$AA@| DCB 0x0			; `string'

  00000			 AREA	 |.rdata|, DATA, READONLY
|??_C@_0N@NGPMHDLN@RenderToMask?$AA@| DCB "RenderToMask", 0x0 ; `string'
; Function compile flags: /Ogspy

  00000			 AREA	 |.text|, CODE, ARM

  00000		 |?RenderScene@OVGRenderToMask@@UAA_NXZ| PROC ; OVGRenderToMask::RenderScene

; 217  : {

  00000		 |$LN5@RenderScen|
  00000	e92d4030	 stmdb       sp!, {r4, r5, lr}
  00004		 |$M36623|
  00004	e1a05000	 mov         r5, r0

; 218  : 	//Clear the screen with the current clear colour.
; 219  : 	vgClear(0, 0, PVRShellGet(prefWidth), PVRShellGet(prefHeight));

  00008	e3a01003	 mov         r1, #3
  0000c	eb000000	 bl          |?PVRShellGet@PVRShell@@QBAHW4prefNameIntEnum@@@Z|
  00010	e1a04000	 mov         r4, r0
  00014	e1a00005	 mov         r0, r5
  00018	e3a01002	 mov         r1, #2
  0001c	eb000000	 bl          |?PVRShellGet@PVRShell@@QBAHW4prefNameIntEnum@@@Z|
  00020	e59f10e0	 ldr         r1, [pc, #0xE0]
  00024	e1a03004	 mov         r3, r4
  00028	e1a02000	 mov         r2, r0
  0002c	e5914000	 ldr         r4, [r1]
  00030	e3a01000	 mov         r1, #0
  00034	e3a00000	 mov         r0, #0
  00038	e1a0e00f	 mov         lr, pc
  0003c	e12fff14	 bx          r4

; 220  : 
; 221  : 	// Set the paint and draw the path
; 222  : 	vgSetPaint(m_avgColourPaint[1], VG_FILL_PATH);

  00040	e59f30bc	 ldr         r3, [pc, #0xBC]
  00044	e595001c	 ldr         r0, [r5, #0x1C]
  00048	e3a01002	 mov         r1, #2
  0004c	e5933000	 ldr         r3, [r3]
  00050	e1a0e00f	 mov         lr, pc
  00054	e12fff13	 bx          r3

; 223  : 	vgDrawPath(m_avgPath[1], VG_STROKE_PATH | VG_FILL_PATH);

  00058	e59f30a0	 ldr         r3, [pc, #0xA0]
  0005c	e5950010	 ldr         r0, [r5, #0x10]
  00060	e3a01003	 mov         r1, #3
  00064	e5933000	 ldr         r3, [r3]
  00068	e1a0e00f	 mov         lr, pc
  0006c	e12fff13	 bx          r3

; 224  : 
; 225  : 	//Enable masking
; 226  : 	vgSeti(VG_MASKING, VG_TRUE);

  00070	e59f3084	 ldr         r3, [pc, #0x84]
  00074	e3a04c11	 mov         r4, #0x11, 24
  00078	e3a01001	 mov         r1, #1
  0007c	e5933000	 ldr         r3, [r3]
  00080	e3840030	 orr         r0, r4, #0x30
  00084	e1a0e00f	 mov         lr, pc
  00088	e12fff13	 bx          r3

; 227  : 
; 228  : 	// Set the paint and draw the path
; 229  : 	vgSetPaint(m_avgColourPaint[0], VG_FILL_PATH);

  0008c	e59f3070	 ldr         r3, [pc, #0x70]
  00090	e5950018	 ldr         r0, [r5, #0x18]
  00094	e3a01002	 mov         r1, #2
  00098	e5933000	 ldr         r3, [r3]
  0009c	e1a0e00f	 mov         lr, pc
  000a0	e12fff13	 bx          r3

; 230  : 	vgDrawPath(m_avgPath[0], VG_STROKE_PATH | VG_FILL_PATH);

  000a4	e59f3054	 ldr         r3, [pc, #0x54]
  000a8	e595000c	 ldr         r0, [r5, #0xC]
  000ac	e3a01003	 mov         r1, #3
  000b0	e5933000	 ldr         r3, [r3]
  000b4	e1a0e00f	 mov         lr, pc
  000b8	e12fff13	 bx          r3

; 231  : 
; 232  : 	//Disable masking
; 233  : 	vgSeti(VG_MASKING, VG_FALSE);

  000bc	e59f3038	 ldr         r3, [pc, #0x38]
  000c0	e3a01000	 mov         r1, #0
  000c4	e3840030	 orr         r0, r4, #0x30
  000c8	e5933000	 ldr         r3, [r3]
  000cc	e1a0e00f	 mov         lr, pc
  000d0	e12fff13	 bx          r3

; 234  : 
; 235  : 	m_PrintVG.DisplayDefaultTitle("RenderToMask", "", ePVRTPrint3DSDKLogo);

  000d4	e59f201c	 ldr         r2, [pc, #0x1C]
  000d8	e59f1014	 ldr         r1, [pc, #0x14]
  000dc	e3a03004	 mov         r3, #4
  000e0	e2850024	 add         r0, r5, #0x24
  000e4	eb000000	 bl          |?DisplayDefaultTitle@CPVRTPrintVG@@QAA_NPAD0I@Z|

; 236  : 	return true;

  000e8	e3a00001	 mov         r0, #1

; 237  : }

  000ec	e8bd4030	 ldmia       sp!, {r4, r5, lr}
  000f0	e12fff1e	 bx          lr
  000f4		 |$LN6@RenderScen|
  000f4		 |$LN7@RenderScen|
  000f4	00000000	 DCD         |??_C@_0N@NGPMHDLN@RenderToMask?$AA@|
  000f8		 |$LN8@RenderScen|
  000f8	00000000	 DCD         |??_C@_00CNPNBAHC@?$AA@|
  000fc		 |$LN9@RenderScen|
  000fc	00000000	 DCD         |__imp_vgSeti|
  00100		 |$LN10@RenderScen|
  00100	00000000	 DCD         |__imp_vgDrawPath|
  00104		 |$LN11@RenderScen|
  00104	00000000	 DCD         |__imp_vgSetPaint|
  00108		 |$LN12@RenderScen|
  00108	00000000	 DCD         |__imp_vgClear|
  0010c		 |$M36624|

			 ENDP  ; |?RenderScene@OVGRenderToMask@@UAA_NXZ|, OVGRenderToMask::RenderScene

	EXPORT	|?NewDemo@@YAPAVPVRShell@@XZ|		; NewDemo
	IMPORT	|??2@YAPAXI@Z|				; operator new

  00000			 AREA	 |.pdata|, PDATA
|$T36649| DCD	|$LN9@NewDemo|
	DCD	0x40001201
; Function compile flags: /Ogspy

  00000			 AREA	 |.text|, CODE, ARM

  00000		 |?NewDemo@@YAPAVPVRShell@@XZ| PROC	; NewDemo

; 245  : {

  00000		 |$LN9@NewDemo|
  00000	e92d4010	 stmdb       sp!, {r4, lr}
  00004		 |$M36646|
  00004	e3a03b05	 mov         r3, #5, 22

; 246  : 	return new OVGRenderToMask();

  00008	e3830084	 orr         r0, r3, #0x84
  0000c	eb000000	 bl          |??2@YAPAXI@Z|
  00010	e1b04000	 movs        r4, r0
  00014	0a000006	 beq         |$LN3@NewDemo|
  00018	e1a00004	 mov         r0, r4
  0001c	eb000000	 bl          |??0PVRShell@@QAA@XZ|
  00020	e59f301c	 ldr         r3, [pc, #0x1C]
  00024	e1a00004	 mov         r0, r4
  00028	e4803024	 str         r3, [r0], #0x24
  0002c	eb000000	 bl          |??0CPVRTPrintVG@@QAA@XZ|
  00030	ea000000	 b           |$LN4@NewDemo|
  00034		 |$LN3@NewDemo|
  00034	e3a04000	 mov         r4, #0
  00038		 |$LN4@NewDemo|

; 247  : }

  00038	e1a00004	 mov         r0, r4
  0003c	e8bd4010	 ldmia       sp!, {r4, lr}
  00040	e12fff1e	 bx          lr
  00044		 |$LN10@NewDemo|
  00044		 |$LN11@NewDemo|
  00044	00000000	 DCD         |??_7OVGRenderToMask@@6B@|
  00048		 |$M36647|

			 ENDP  ; |?NewDemo@@YAPAVPVRShell@@XZ|, NewDemo

	IMPORT	|??3@YAXPAX@Z|				; operator delete

  00000			 AREA	 |.pdata|, PDATA
|$T36665| DCD	|$LN8@scalar|
	DCD	0x40000d01
; Function compile flags: /Ogspy

  00000			 AREA	 |.text|, CODE, ARM

  00000		 |??_GOVGRenderToMask@@UAAPAXI@Z| PROC	; OVGRenderToMask::`scalar deleting destructor'
  00000		 |$LN8@scalar|
  00000	e92d4030	 stmdb       sp!, {r4, r5, lr}
  00004		 |$M36662|
  00004	e1a04001	 mov         r4, r1
  00008	e1a05000	 mov         r5, r0
  0000c	e2850024	 add         r0, r5, #0x24
  00010	eb000000	 bl          |??1CPVRTPrintVG@@QAA@XZ|
  00014	e1a00005	 mov         r0, r5
  00018	eb000000	 bl          |??1PVRShell@@UAA@XZ|
  0001c	e3140001	 tst         r4, #1
  00020	11a00005	 movne       r0, r5
  00024	1b000000	 blne        |??3@YAXPAX@Z|
  00028	e1a00005	 mov         r0, r5
  0002c	e8bd4030	 ldmia       sp!, {r4, r5, lr}
  00030	e12fff1e	 bx          lr
  00034		 |$M36663|

			 ENDP  ; |??_GOVGRenderToMask@@UAAPAXI@Z|, OVGRenderToMask::`scalar deleting destructor'

	END
